###############################################################################
#
# IAR C/C++ Compiler V6.40.1.741 for Atmel AVR            27/Feb/2017  19:28:53
# Copyright 1996-2014 IAR Systems AB.
#
#    Source file  =  F:\Dulov\RemoteAMP\du.c
#    Command line =  
#        F:\Dulov\RemoteAMP\du.c --cpu=m8 -ms -o
#        F:\Dulov\RemoteAMP\Release\Obj\ -D NDEBUG -lC
#        F:\Dulov\RemoteAMP\Release\List\ -lA F:\Dulov\RemoteAMP\Release\List\
#        --initializers_in_flash --no_clustering -DENABLE_BIT_DEFINITIONS -e
#        --eeprom_size 512 --dlib --dlib_config "C:\Program Files\IAR
#        Systems\Embedded Workbench 6.5\avr\LIB\DLIB\dlAVR-1s-ec_mul-n.h" -Ohz
#        --mfc F:\Dulov\RemoteAMP\main.c F:\Dulov\RemoteAMP\SoftTimers.c
#        F:\Dulov\RemoteAMP\usart.c
#    List file    =  F:\Dulov\RemoteAMP\Release\List\du.lst
#    Object file  =  F:\Dulov\RemoteAMP\Release\Obj\du.r90
#
###############################################################################

F:\Dulov\RemoteAMP\du.c
      1          //***************************************************************************
      2          //
      3          //  Author(s)...: dav COBRA 
      4          //
      5          //  Target(s)...: ATMega8
      6          //
      7          //  Compiler....: 6 40
      8          //
      9          //  Description.: Универсальный ДЕКОДЕР ДУ v1.25
     10          //
     11          //  Data........: 2014
     12          //
     13          //***************************************************************************
     14          #include <stdbool.h>//поддержка bool
     15          #include "iom8.h"//<ioavr.h>

   \                                 In  segment ABSOLUTE, at 0x28
   \   union <unnamed> volatile __io _A_ACSR
   \                     _A_ACSR:
   \   00000000                      DS8 1

   \                                 In  segment ABSOLUTE, at 0x29
   \   union <unnamed> volatile __io _A_UBRRL
   \                     _A_UBRRL:
   \   00000000                      DS8 1

   \                                 In  segment ABSOLUTE, at 0x2a
   \   union <unnamed> volatile __io _A_UCSRB
   \                     _A_UCSRB:
   \   00000000                      DS8 1

   \                                 In  segment ABSOLUTE, at 0x2b
   \   union <unnamed> volatile __io _A_UCSRA
   \                     _A_UCSRA:
   \   00000000                      DS8 1

   \                                 In  segment ABSOLUTE, at 0x2c
   \   union <unnamed> volatile __io _A_UDR
   \                     _A_UDR:
   \   00000000                      DS8 1

   \                                 In  segment ABSOLUTE, at 0x30
   \   union <unnamed> volatile __io _A_PIND
   \                     _A_PIND:
   \   00000000                      DS8 1

   \                                 In  segment ABSOLUTE, at 0x31
   \   union <unnamed> volatile __io _A_DDRD
   \                     _A_DDRD:
   \   00000000                      DS8 1

   \                                 In  segment ABSOLUTE, at 0x32
   \   union <unnamed> volatile __io _A_PORTD
   \                     _A_PORTD:
   \   00000000                      DS8 1

   \                                 In  segment ABSOLUTE, at 0x34
   \   union <unnamed> volatile __io _A_DDRC
   \                     _A_DDRC:
   \   00000000                      DS8 1

   \                                 In  segment ABSOLUTE, at 0x35
   \   union <unnamed> volatile __io _A_PORTC
   \                     _A_PORTC:
   \   00000000                      DS8 1

   \                                 In  segment ABSOLUTE, at 0x37
   \   union <unnamed> volatile __io _A_DDRB
   \                     _A_DDRB:
   \   00000000                      DS8 1

   \                                 In  segment ABSOLUTE, at 0x38
   \   union <unnamed> volatile __io _A_PORTB
   \                     _A_PORTB:
   \   00000000                      DS8 1

   \                                 In  segment ABSOLUTE, at 0x40
   \   union <unnamed> volatile __io _A_UBRRH
   \                     _A_UBRRH:
   \   00000000                      DS8 1

   \                                 In  segment ABSOLUTE, at 0x44
   \   union <unnamed> volatile __io _A_TCNT2
   \                     _A_TCNT2:
   \   00000000                      DS8 1

   \                                 In  segment ABSOLUTE, at 0x45
   \   union <unnamed> volatile __io _A_TCCR2
   \                     _A_TCCR2:
   \   00000000                      DS8 1

   \                                 In  segment ABSOLUTE, at 0x46
   \   union <unnamed> volatile __io _A_ICR1
   \                     _A_ICR1:
   \   00000000                      DS8 2

   \                                 In  segment ABSOLUTE, at 0x48
   \   union <unnamed> volatile __io _A_OCR1B
   \                     _A_OCR1B:
   \   00000000                      DS8 2

   \                                 In  segment ABSOLUTE, at 0x4a
   \   union <unnamed> volatile __io _A_OCR1A
   \                     _A_OCR1A:
   \   00000000                      DS8 2

   \                                 In  segment ABSOLUTE, at 0x4c
   \   union <unnamed> volatile __io _A_TCNT1
   \                     _A_TCNT1:
   \   00000000                      DS8 2

   \                                 In  segment ABSOLUTE, at 0x4e
   \   union <unnamed> volatile __io _A_TCCR1B
   \                     _A_TCCR1B:
   \   00000000                      DS8 1

   \                                 In  segment ABSOLUTE, at 0x4f
   \   union <unnamed> volatile __io _A_TCCR1A
   \                     _A_TCCR1A:
   \   00000000                      DS8 1

   \                                 In  segment ABSOLUTE, at 0x52
   \   union <unnamed> volatile __io _A_TCNT0
   \                     _A_TCNT0:
   \   00000000                      DS8 1

   \                                 In  segment ABSOLUTE, at 0x55
   \   union <unnamed> volatile __io _A_MCUCR
   \                     _A_MCUCR:
   \   00000000                      DS8 1

   \                                 In  segment ABSOLUTE, at 0x58
   \   union <unnamed> volatile __io _A_TIFR
   \                     _A_TIFR:
   \   00000000                      DS8 1

   \                                 In  segment ABSOLUTE, at 0x59
   \   union <unnamed> volatile __io _A_TIMSK
   \                     _A_TIMSK:
   \   00000000                      DS8 1

   \                                 In  segment ABSOLUTE, at 0x5b
   \   union <unnamed> volatile __io _A_GICR
   \                     _A_GICR:
   \   00000000                      DS8 1
     16          #include <inavr.h>
     17          #include <intrinsics.h> 
     18          #include "init.h"
     19          #include "usart.h"
     20          #include "main.h"
     21          #include "eeprom.h"

   \                                 In  segment EEPROM_N, align 1, keep-with-next
   \   unsigned int __eeprom k[120]
   \                     k:
   \   00000000                      DS8 240

   \                                 In  segment EEPROM_N, align 1, keep-with-next
   \   unsigned char __eeprom fmode
   \                     fmode:
   \   00000000                      DS8 1

   \                                 In  segment EEPROM_N, align 1, keep-with-next
   \   unsigned char __eeprom modegro
   \                     modegro:
   \   00000000                      DS8 1

   \                                 In  segment NEAR_Z, align 1, keep-with-next
   \   00000000                      REQUIRE `?<Segment init: NEAR_Z>`
   \   unsigned int cod1
   \                     cod1:
   \   00000000                      DS8 2

   \                                 In  segment NEAR_Z, align 1, keep-with-next
   \   00000000                      REQUIRE `?<Segment init: NEAR_Z>`
   \   unsigned int cod2
   \                     cod2:
   \   00000000                      DS8 2

   \                                 In  segment NEAR_Z, align 1, keep-with-next
   \   00000000                      REQUIRE `?<Segment init: NEAR_Z>`
   \   unsigned int cod3
   \                     cod3:
   \   00000000                      DS8 2

   \                                 In  segment NEAR_Z, align 1, keep-with-next
   \   00000000                      REQUIRE `?<Segment init: NEAR_Z>`
   \   unsigned int cod4
   \                     cod4:
   \   00000000                      DS8 2
     22          #include "du.h"
     23          

   \                                 In  segment NEAR_Z, align 1, keep-with-next
   \   00000000                      REQUIRE `?<Segment init: NEAR_Z>`
     24            static uchar  perepoln=0;//кол-во переполнений счетчика
   \                     ??perepoln:
   \   00000000                      DS8 1

   \                                 In  segment NEAR_Z, align 1, keep-with-next
   \   00000000                      REQUIRE `?<Segment init: NEAR_Z>`
     25            static uchar t1=0,t2=0;
   \                     ??t1:
   \   00000000                      DS8 1

   \                                 In  segment NEAR_Z, align 1, keep-with-next
   \   00000000                      REQUIRE `?<Segment init: NEAR_Z>`
   \                     ??t2:
   \   00000000                      DS8 1

   \                                 In  segment NEAR_Z, align 1, keep-with-next
   \   00000000                      REQUIRE `?<Segment init: NEAR_Z>`
     26            static bool ini; 
   \                     ??ini:
   \   00000000                      DS8 1

   \                                 In  segment NEAR_Z, align 1, keep-with-next
   \   00000000                      REQUIRE `?<Segment init: NEAR_Z>`
     27            uint dim1[MAX],dim2[MAX];
   \                     dim1:
   \   00000000                      DS8 100

   \                                 In  segment NEAR_Z, align 1, keep-with-next
   \   00000000                      REQUIRE `?<Segment init: NEAR_Z>`
   \                     dim2:
   \   00000000                      DS8 100

   \                                 In  segment NEAR_Z, align 1, keep-with-next
   \   00000000                      REQUIRE `?<Segment init: NEAR_Z>`
     28            char ct=0;
   \                     ct:
   \   00000000                      DS8 1

   \                                 In  segment NEAR_Z, align 1, keep-with-next
   \   00000000                      REQUIRE `?<Segment init: NEAR_Z>`
     29            uint minimallen;    
   \                     minimallen:
   \   00000000                      DS8 2

   \                                 In  segment NEAR_Z, align 1, keep-with-next
   \   00000000                      REQUIRE `?<Segment init: NEAR_Z>`
     30            float len[MAX];
   \                     len:
   \   00000000                      DS8 200

   \                                 In  segment NEAR_Z, align 1, keep-with-next
   \   00000000                      REQUIRE `?<Segment init: NEAR_Z>`
     31            static bool intok,big;
   \                     ??intok:
   \   00000000                      DS8 1

   \                                 In  segment NEAR_Z, align 1, keep-with-next
   \   00000000                      REQUIRE `?<Segment init: NEAR_Z>`
   \                     ??big:
   \   00000000                      DS8 1
     32           

   \                                 In  segment NEAR_Z, align 1, keep-with-next
   \   00000000                      REQUIRE `?<Segment init: NEAR_Z>`
     33            bool cod_ok=0;
   \                     cod_ok:
   \   00000000                      DS8 1

   \                                 In  segment NEAR_Z, align 1, keep-with-next
   \   00000000                      REQUIRE `?<Segment init: NEAR_Z>`
     34            uchar c1,c2,c3;
   \                     c1:
   \   00000000                      DS8 1

   \                                 In  segment NEAR_Z, align 1, keep-with-next
   \   00000000                      REQUIRE `?<Segment init: NEAR_Z>`
   \                     c2:
   \   00000000                      DS8 1

   \                                 In  segment NEAR_Z, align 1, keep-with-next
   \   00000000                      REQUIRE `?<Segment init: NEAR_Z>`
   \                     c3:
   \   00000000                      DS8 1

   \                                 In  segment NEAR_I, align 1, keep-with-next
   \   00000000                      REQUIRE `?<Segment init: NEAR_I>`
     35            char ind=1;
   \                     ind:
   \   00000000                      DS8 1
   \   00000001                      REQUIRE `?<Initializer for ind>`
     36          
     37           //*****************************************************************
     38           // init
     39           //*****************************************************************

   \                                 In  segment CODE, align 2, keep-with-next
     40             void du_init(void)
   \                     du_init:
     41             {
     42               ini=1;  intok=0;
   \   00000000   E001               LDI     R16, 1
   \   00000002   9300....           STS     ??ini, R16
   \   00000006   E000               LDI     R16, 0
   \   00000008   9300....           STS     ??intok, R16
     43               //TCCR1B = (0<<CS02)|(1<<CS01)|(1<<CS00); //пуск таймера
     44               TCCR1B = (0<<CS02)|(0<<CS01)|(1<<CS00); //пуск таймера
   \   0000000C   E001               LDI     R16, 1
   \   0000000E   BD0E               OUT     0x2E, R16
     45               ct=0;
   \   00000010   E000               LDI     R16, 0
   \   00000012   9300....           STS     ct, R16
     46             }
   \   00000016   9508               RET
   \   00000018                      REQUIRE _A_TCCR1B
     47           //*****************************************************************
     48           //  INT
     49           //*****************************************************************
     50          //прерывание при изменении сигнала на ноге
     51          #pragma vector = INT0_vect

   \                                 In  segment CODE, align 2, keep-with-next
     52          __interrupt void funINT0_vect(void)
   \                     funINT0_vect:
     53          {
   \   00000000   931A               ST      -Y, R17
   \   00000002   930A               ST      -Y, R16
   \   00000004   B71F               IN      R17, 0x3F
     54            intok=1; 
   \   00000006   E001               LDI     R16, 1
   \   00000008   9300....           STS     ??intok, R16
     55            //if (readint!=0){  last=TCNT1L;   readint=0; }
     56            t1 = TCNT1L;  t2 = TCNT1H; 
   \   0000000C   B50C               IN      R16, 0x2C
   \   0000000E   9300....           STS     ??t1, R16
   \   00000012   B50D               IN      R16, 0x2D
   \   00000014   9300....           STS     ??t2, R16
     57            if (t1!=0) { TCNT1H=0;TCNT1L=0;}
   \   00000018   9100....           LDS     R16, ??t1
   \   0000001C   2300               TST     R16
   \   0000001E   F019               BREQ    ??funINT0_vect_0
   \   00000020   E000               LDI     R16, 0
   \   00000022   BD0D               OUT     0x2D, R16
   \   00000024   BD0C               OUT     0x2C, R16
     58               
     59          }
   \                     ??funINT0_vect_0:
   \   00000026   BF1F               OUT     0x3F, R17
   \   00000028   9109               LD      R16, Y+
   \   0000002A   9119               LD      R17, Y+
   \   0000002C   9518               RETI
   \   0000002E                      REQUIRE _A_TCNT1
     60          //*****************************************************************
     61          //  Анализ прерывания
     62          //*****************************************************************

   \                                 In  segment CODE, align 2, keep-with-next
     63          void analiz_INT()
   \                     analiz_INT:
     64          {
     65            // static bool state;
     66                // if (state==1) {RES(PORTB,5); state=0; }   else {SET(PORTB,5); state=1;}
     67          
     68                  dim1[ct]=t1;  dim2[ct]=t2; ct++;
   \   00000000   ....               RCALL   ?Subroutine23
   \                     ??CrossCallReturnLabel_38:
   \   00000002   E012               LDI     R17, 2
   \   00000004   9F01               MUL     R16, R17
   \   00000006   9100....           LDS     R16, ??t1
   \   0000000A   E010               LDI     R17, 0
   \   0000000C   ....               RCALL   ?Subroutine90
   \                     ??CrossCallReturnLabel_135:
   \   0000000E   ....               RCALL   ??Subroutine137_0
   \                     ??CrossCallReturnLabel_290:
   \   00000010   9100....           LDS     R16, ??t2
   \   00000014   ....               RCALL   ?Subroutine91
   \                     ??CrossCallReturnLabel_138:
   \   00000016   ....               RCALL   ??Subroutine137_0
   \                     ??CrossCallReturnLabel_291:
   \   00000018   ....               LDI     R30, LOW(ct)
   \   0000001A   ....               LDI     R31, (ct) >> 8
   \   0000001C   ....               RCALL   ??Subroutine135_0
     69                  if (ct>=MAX-1) ct--;  //слишком длинная посылка переписываем каждый раз последний
   \                     ??CrossCallReturnLabel_286:
   \   0000001E   3301               CPI     R16, 49
   \   00000020   F010               BRCS    ??analiz_INT_0
   \   00000022   950A               DEC     R16
   \   00000024   8300               ST      Z, R16
     70                  intok=0;
   \                     ??analiz_INT_0:
   \   00000026   9310....           STS     ??intok, R17
     71          
     72          
     73          }
   \   0000002A   9508               RET

   \                                 In  segment CODE, align 2, keep-with-next
   \                     ?Subroutine91:
   \   00000000   01F0               MOVW    R31:R30, R1:R0
   \   00000002   ....               SUBI    R30, LOW((-(dim2) & 0xFFFF))
   \   00000004   ....               SBCI    R31, (-(dim2) & 0xFFFF) >> 8
   \   00000006   9508               RET

   \                                 In  segment CODE, align 2, keep-with-next
   \                     ?Subroutine90:
   \   00000000   01F0               MOVW    R31:R30, R1:R0
   \   00000002   ....               SUBI    R30, LOW((-(dim1) & 0xFFFF))
   \   00000004   ....               SBCI    R31, (-(dim1) & 0xFFFF) >> 8
   \   00000006   9508               RET

   \                                 In  segment CODE, align 2, keep-with-next
   \                     ?Subroutine23:
   \   00000000   9100....           LDS     R16, ct
   \   00000004   9508               RET

   \                                 In  segment CODE, align 2, keep-with-next
   \                     ??Subroutine134_0:
   \   00000000   8300               ST      Z, R16
   \   00000002   9508               RET

   \                                 In  segment CODE, align 2, keep-with-next
   \                     ??Subroutine135_0:
   \   00000000   8100               LD      R16, Z
   \   00000002   9503               INC     R16
   \   00000004   ....               RJMP    ??Subroutine134_0

   \                                 In  segment CODE, align 2, keep-with-next
   \                     ??Subroutine137_0:
   \   00000000   8300               ST      Z, R16
   \   00000002   8311               STD     Z+1, R17
   \   00000004   9508               RET
     74          //*****************************************************************
     75          //  Конец кода на приемнике
     76          //*****************************************************************

   \                                 In  segment CODE, align 2, keep-with-next
     77          void PEREP()
   \                     PEREP:
     78          {
   \   00000000   ....               RCALL   ?PROLOGUE8_L09
   \   00000002                      REQUIRE ?Register_R4_is_cg_reg
   \   00000002                      REQUIRE ?Register_R5_is_cg_reg
   \   00000002                      REQUIRE ?Register_R6_is_cg_reg
   \   00000002                      REQUIRE ?Register_R7_is_cg_reg
     79           //static bool state2;
     80           uchar i;
     81           
     82            //if (state2==1) {RES(PORTB,2); state2=0; }   else {SET(PORTB,2); state2=1;}
     83                 
     84                cod1=0;cod2=0;cod3=0; 
   \   00000002   ....               RCALL   ?Subroutine11
     85                c1=0; c2=0; c3=0;  //sst=0;
   \                     ??CrossCallReturnLabel_23:
   \   00000004   9300....           STS     c1, R16
   \   00000008   9300....           STS     c2, R16
   \   0000000C   9300....           STS     c3, R16
     86                minimallen=65535;   
   \   00000010   EF0F               LDI     R16, 255
   \   00000012   ....               RCALL   ?Subroutine94
   \                     ??CrossCallReturnLabel_152:
   \   00000014   ....               RCALL   ?Subroutine93
     87               
     88                if (ct>(MAX-1)) {  rprintfStr(" error ct big ="); rprintfFloat(6,  ct); }
   \                     ??CrossCallReturnLabel_145:
   \   00000016   ....               RCALL   ?Subroutine23
   \                     ??CrossCallReturnLabel_39:
   \   00000018   3302               CPI     R16, 50
   \   0000001A   F028               BRCS    ??CrossCallReturnLabel_261
   \   0000001C   ....               LDI     R16, LOW(`?<Constant " error ct big =">`)
   \   0000001E   ....               LDI     R17, (`?<Constant " error ct big =">`) >> 8
   \   00000020   ....               RCALL   rprintfStr
   \   00000022   ....               RCALL   ?Subroutine23
   \                     ??CrossCallReturnLabel_40:
   \   00000024   ....               RCALL   ?Subroutine22
     89                          
     90                if ((ct>5 && big==0)|| big==1) 
   \                     ??CrossCallReturnLabel_261:
   \   00000026   ....               RCALL   ?Subroutine23
   \                     ??CrossCallReturnLabel_41:
   \   00000028   3006               CPI     R16, 6
   \   0000002A   F020               BRCS    ??PEREP_0
   \   0000002C   9100....           LDS     R16, ??big
   \   00000030   2300               TST     R16
   \   00000032   F021               BREQ    ??PEREP_1
   \                     ??PEREP_0:
   \   00000034   9100....           LDS     R16, ??big
   \   00000038   2300               TST     R16
   \   0000003A   F191               BREQ    ??PEREP_2
     91                {//от 5 посылок анализируем остальное шум
     92                  
     93                    for (i=1; i<ct; i++) //ищем миимальную длину
   \                     ??PEREP_1:
   \   0000003C   E081               LDI     R24, 1
   \   0000003E   C016               RJMP    ??PEREP_3
     94                    {  
     95                          len[i]=( dim1[i]+ (256*dim2[i])  );           
   \                     ??PEREP_4:
   \   00000040   ....               RCALL   ?Subroutine25
   \                     ??CrossCallReturnLabel_44:
   \   00000042   E004               LDI     R16, 4
   \   00000044   9F80               MUL     R24, R16
   \   00000046   ....               RCALL   ??Subroutine131_0
   \                     ??CrossCallReturnLabel_253:
   \   00000048   8240               ST      Z, R4
   \   0000004A   8311               STD     Z+1, R17
   \   0000004C   8322               STD     Z+2, R18
   \   0000004E   8333               STD     Z+3, R19
     96                          if (len[i]>900  && len[i]<(float)minimallen)  minimallen=(uint)len[i];
   \   00000050   E041               LDI     R20, 1
   \   00000052   E050               LDI     R21, 0
   \   00000054   E661               LDI     R22, 97
   \   00000056   E474               LDI     R23, 68
   \   00000058   2D04               MOV     R16, R4
   \   0000005A   ....               RCALL   ?F_CMP_GE_L04
   \   0000005C   F430               BRCC    ??CrossCallReturnLabel_292
   \   0000005E   ....               RCALL   ?Subroutine33
   \                     ??CrossCallReturnLabel_172:
   \   00000060   ....               RCALL   ?F_CMP_LT_L04
   \   00000062   F418               BRCC    ??CrossCallReturnLabel_292
   \   00000064   ....               RCALL   ?F2SL_L04
   \   00000066   ....               RCALL   ?Subroutine94
     97                    }
   \                     ??CrossCallReturnLabel_153:
   \   00000068   ....               RCALL   ??Subroutine137_0
   \                     ??CrossCallReturnLabel_292:
   \   0000006A   9583               INC     R24
   \                     ??PEREP_3:
   \   0000006C   ....               RCALL   ?Subroutine23
   \                     ??CrossCallReturnLabel_42:
   \   0000006E   1780               CP      R24, R16
   \   00000070   F338               BRCS    ??PEREP_4
     98               
     99                     for (i=1; i<ct; i++) 
   \   00000072   E081               LDI     R24, 1
   \   00000074   C012               RJMP    ??PEREP_5
    100                     { //for 
    101                       uint tr;
    102                       tr=( dim1[i]+ (256*dim2[i]));
    103                       len[i]=(float)tr/minimallen;       
   \                     ??PEREP_6:
   \   00000076   ....               RCALL   ?Subroutine25
   \                     ??CrossCallReturnLabel_45:
   \   00000078   ....               RCALL   ?Subroutine33
   \                     ??CrossCallReturnLabel_173:
   \   0000007A   ....               RCALL   ?F_DIV_L04
   \   0000007C   E044               LDI     R20, 4
   \   0000007E   ....               RCALL   ?Subroutine29
   \                     ??CrossCallReturnLabel_254:
   \   00000080   ....               RCALL   ??Subroutine137_0
   \                     ??CrossCallReturnLabel_293:
   \   00000082   8322               STD     Z+2, R18
   \   00000084   8333               STD     Z+3, R19
    104                       if (len[i]!=0)   coding(i, pr);
   \   00000086   E040               LDI     R20, 0
   \   00000088   ....               RCALL   ?Subroutine116
   \                     ??CrossCallReturnLabel_342:
   \   0000008A   ....               RCALL   ?F_CMP_EQ_L04
   \   0000008C   F029               BREQ    ??PEREP_7
   \   0000008E   9120....           LDS     R18, pr
   \   00000092   2F08               MOV     R16, R24
   \   00000094   E010               LDI     R17, 0
   \   00000096   ....               RCALL   coding
    105                     }//for
   \                     ??PEREP_7:
   \   00000098   9583               INC     R24
   \                     ??PEREP_5:
   \   0000009A   ....               RCALL   ?Subroutine23
    106                }//от 5 посылок анализируем 
   \                     ??CrossCallReturnLabel_43:
   \   0000009C   1780               CP      R24, R16
   \   0000009E   F358               BRCS    ??PEREP_6
    107                
    108                //очистка
    109                 for (i=0; i<MAX; i++) {dim1[i]=0;dim2[i]=0;len[i]=0;}
   \                     ??PEREP_2:
   \   000000A0   E080               LDI     R24, 0
   \   000000A2   E044               LDI     R20, 4
   \                     ??PEREP_8:
   \   000000A4   E002               LDI     R16, 2
   \   000000A6   9F80               MUL     R24, R16
   \   000000A8   E000               LDI     R16, 0
   \   000000AA   ....               RCALL   ?Subroutine90
   \                     ??CrossCallReturnLabel_136:
   \   000000AC   ....               RCALL   ?Subroutine93
   \                     ??CrossCallReturnLabel_146:
   \   000000AE   ....               RCALL   ?Subroutine91
   \                     ??CrossCallReturnLabel_139:
   \   000000B0   ....               RCALL   ?Subroutine93
   \                     ??CrossCallReturnLabel_147:
   \   000000B2   ....               RCALL   ?Subroutine29
   \                     ??CrossCallReturnLabel_255:
   \   000000B4   ....               RCALL   ?Subroutine93
   \                     ??CrossCallReturnLabel_148:
   \   000000B6   8302               STD     Z+2, R16
   \   000000B8   8303               STD     Z+3, R16
   \   000000BA   9583               INC     R24
   \   000000BC   3382               CPI     R24, 50
   \   000000BE   F390               BRCS    ??PEREP_8
    110                 perepoln=0;  t1=0; t2=0; ct=0; big=0;     
   \   000000C0   9300....           STS     ??perepoln, R16
   \   000000C4   9300....           STS     ??t1, R16
   \   000000C8   9300....           STS     ??t2, R16
   \   000000CC   9300....           STS     ct, R16
   \   000000D0   9300....           STS     ??big, R16
    111                 
    112              if (pr==1 && cod_ok!=0)     
   \   000000D4   9100....           LDS     R16, pr
   \   000000D8   3001               CPI     R16, 1
   \   000000DA   F481               BRNE    ??CrossCallReturnLabel_250
   \   000000DC   9100....           LDS     R16, cod_ok
   \   000000E0   2300               TST     R16
   \   000000E2   F061               BREQ    ??CrossCallReturnLabel_250
    113               {//diag
    114                        rprintfStr("  /   cod1= ");
   \   000000E4   ....               LDI     R16, LOW(`?<Constant "  /   cod1= ">`)
   \   000000E6   ....               LDI     R17, (`?<Constant "  /   cod1= ">`) >> 8
   \   000000E8   ....               RCALL   ?Subroutine31
    115                        rprintfFloat(6,  cod1);
    116                        rprintfStr("/   cod2= ");
   \                     ??CrossCallReturnLabel_267:
   \   000000EA   ....               LDI     R16, LOW(`?<Constant "/   cod2= ">`)
   \   000000EC   ....               LDI     R17, (`?<Constant "/   cod2= ">`) >> 8
   \   000000EE   ....               RCALL   ?Subroutine43
    117                        rprintfFloat(6,  cod2);
   \                     ??CrossCallReturnLabel_329:
   \   000000F0   ....               RCALL   ??Subroutine133_0
    118                        rprintfStr("/   cod3= ");
   \                     ??CrossCallReturnLabel_265:
   \   000000F2   ....               LDI     R16, LOW(`?<Constant "/   cod3= ">`)
   \   000000F4   ....               LDI     R17, (`?<Constant "/   cod3= ">`) >> 8
   \   000000F6   ....               RCALL   ?Subroutine45
    119                        rprintfFloat(6,  cod3);
   \                     ??CrossCallReturnLabel_322:
   \   000000F8   ....               RCALL   ??Subroutine133_0
    120                        ent;
   \                     ??CrossCallReturnLabel_264:
   \   000000FA   ....               RCALL   ?Subroutine127
    121                                          
    122               }//diag
    123           
    124          }
   \                     ??CrossCallReturnLabel_250:
   \   000000FC   E0E8               LDI     R30, 8
   \   000000FE   ....               RJMP    ?EPILOGUE_B8_L09

   \                                 In  segment CODE, align 2, keep-with-next
   \                     ?Subroutine33:
   \   00000000   ....               RCALL   ?Subroutine94
   \                     ??CrossCallReturnLabel_155:
   \   00000002   ....               RCALL   ?Subroutine95
   \                     ??CrossCallReturnLabel_271:
   \   00000004                      REQUIRE ?Subroutine98
   \   00000004                      ;               // Fall through to label ?Subroutine98

   \                                 In  segment CODE, align 2, keep-with-next
   \                     ?Subroutine98:
   \   00000000   0182               MOVW    R17:R16, R5:R4
   \   00000002   0193               MOVW    R19:R18, R7:R6
   \   00000004   9508               RET

   \                                 In  segment CODE, align 2, keep-with-next
   \                     ?Subroutine95:
   \   00000000   8100               LD      R16, Z
   \   00000002   8111               LDD     R17, Z+1
   \   00000004                      REQUIRE ??Subroutine129_0
   \   00000004                      ;               // Fall through to label ??Subroutine129_0

   \                                 In  segment CODE, align 2, keep-with-next
   \                     ??Subroutine129_0:
   \   00000000   E020               LDI     R18, 0
   \   00000002                      REQUIRE ??Subroutine130_0
   \   00000002                      ;               // Fall through to label ??Subroutine130_0

   \                                 In  segment CODE, align 2, keep-with-next
   \                     ??Subroutine130_0:
   \   00000000   ....               RCALL   ?Subroutine114
   \                     ??CrossCallReturnLabel_281:
   \   00000002   ....               RJMP    ?Subroutine111

   \                                 In  segment CODE, align 2, keep-with-next
   \                     ?Subroutine94:
   \   00000000   ....               LDI     R30, LOW(minimallen)
   \   00000002   ....               LDI     R31, (minimallen) >> 8
   \   00000004   9508               RET

   \                                 In  segment CODE, align 2, keep-with-next
   \                     ?Subroutine29:
   \   00000000   9F84               MUL     R24, R20
   \   00000002                      REQUIRE ??Subroutine131_0
   \   00000002                      ;               // Fall through to label ??Subroutine131_0

   \                                 In  segment CODE, align 2, keep-with-next
   \                     ??Subroutine131_0:
   \   00000000   01F0               MOVW    R31:R30, R1:R0
   \   00000002   ....               SUBI    R30, LOW((-(len) & 0xFFFF))
   \   00000004   ....               SBCI    R31, (-(len) & 0xFFFF) >> 8
   \   00000006   9508               RET

   \                                 In  segment CODE, align 2, keep-with-next
   \                     ?Subroutine25:
   \   00000000   E002               LDI     R16, 2
   \   00000002   9F80               MUL     R24, R16
   \   00000004   ....               RCALL   ?Subroutine90
   \                     ??CrossCallReturnLabel_137:
   \   00000006   ....               RCALL   ?Subroutine97
   \                     ??CrossCallReturnLabel_167:
   \   00000008   ....               RCALL   ?Subroutine91
   \                     ??CrossCallReturnLabel_140:
   \   0000000A   8130               LD      R19, Z
   \   0000000C   E020               LDI     R18, 0
   \   0000000E   0F13               ADD     R17, R19
   \   00000010   ....               RCALL   ?Subroutine114
   \                     ??CrossCallReturnLabel_277:
   \   00000012   0128               MOVW    R5:R4, R17:R16
   \   00000014   0139               MOVW    R7:R6, R19:R18
   \   00000016   9508               RET

   \                                 In  segment CODE, align 2, keep-with-next
   \                     ?Subroutine31:
   \   00000000   ....               RCALL   rprintfStr
   \   00000002   ....               RCALL   ?Subroutine101
   \                     ??CrossCallReturnLabel_188:
   \   00000004                      REQUIRE ?Subroutine126
   \   00000004                      REQUIRE ??Subroutine133_0
   \   00000004                      ;               // Fall through to label ??Subroutine133_0

   \                                 In  segment CODE, align 2, keep-with-next
   \                     ??Subroutine133_0:
   \   00000000   ....               RCALL   ?Subroutine95
   \                     ??CrossCallReturnLabel_272:
   \   00000002                      REQUIRE ?Subroutine126
   \   00000002                      ;               // Fall through to label ?Subroutine126

   \                                 In  segment CODE, align 2, keep-with-next
   \                     ?Subroutine126:
   \   00000000   E006               LDI     R16, 6
   \   00000002   ....               RJMP    rprintfFloat

   \                                 In  segment CODE, align 2, keep-with-next
   \                     ?Subroutine11:
   \   00000000   E000               LDI     R16, 0
   \   00000002   ....               RCALL   ?Subroutine101
   \                     ??CrossCallReturnLabel_187:
   \   00000004   ....               RCALL   ?Subroutine93
   \                     ??CrossCallReturnLabel_150:
   \   00000006   ....               LDI     R30, LOW(cod2)
   \   00000008   ....               LDI     R31, (cod2) >> 8
   \   0000000A   ....               RCALL   ?Subroutine93
   \                     ??CrossCallReturnLabel_151:
   \   0000000C   ....               LDI     R30, LOW(cod3)
   \   0000000E   ....               LDI     R31, (cod3) >> 8
   \   00000010                      REQUIRE ?Subroutine93
   \   00000010                      ;               // Fall through to label ?Subroutine93

   \                                 In  segment CODE, align 2, keep-with-next
   \                     ?Subroutine93:
   \   00000000   8300               ST      Z, R16
   \   00000002   8301               STD     Z+1, R16
   \   00000004   9508               RET

   \                                 In  segment CODE, align 2, keep-with-next
   \                     ?Subroutine97:
   \   00000000   8100               LD      R16, Z
   \   00000002   8111               LDD     R17, Z+1
   \   00000004   9508               RET

   \                                 In  segment CODE, align 2, keep-with-next
   \                     ?Subroutine22:
   \   00000000   ....               RCALL   ?Subroutine89
   \                     ??CrossCallReturnLabel_276:
   \   00000002   ....               RJMP    ?Subroutine126

   \                                 In  segment CODE, align 2, keep-with-next
   \                     ?Subroutine89:
   \   00000000   ....               RCALL   ?Subroutine110
   \                     ??CrossCallReturnLabel_280:
   \   00000002                      REQUIRE ?Subroutine111
   \   00000002                      ;               // Fall through to label ?Subroutine111

   \                                 In  segment CODE, align 2, keep-with-next
   \                     ?Subroutine111:
   \   00000000   01A8               MOVW    R21:R20, R17:R16
   \   00000002   01B9               MOVW    R23:R22, R19:R18
   \   00000004   9508               RET

   \                                 In  segment CODE, align 2, keep-with-next
   \                     ?Subroutine116:
   \   00000000   E050               LDI     R21, 0
   \   00000002   E060               LDI     R22, 0
   \   00000004   E070               LDI     R23, 0
   \   00000006   9508               RET

   \                                 In  segment CODE, align 2, keep-with-next
   \                     ?Subroutine127:
   \   00000000   E00D               LDI     R16, 13
   \   00000002   ....               RJMP    USART_SendChar

   \                                 In  segment CODE, align 2, keep-with-next
   \                     ?Subroutine45:
   \   00000000   ....               RCALL   rprintfStr
   \   00000002                      REQUIRE ??Subroutine142_0
   \   00000002                      ;               // Fall through to label ??Subroutine142_0

   \                                 In  segment CODE, align 2, keep-with-next
   \                     ??Subroutine142_0:
   \   00000000   ....               LDI     R30, LOW(cod3)
   \   00000002   ....               LDI     R31, (cod3) >> 8
   \   00000004   9508               RET

   \                                 In  segment CODE, align 2, keep-with-next
   \                     ?Subroutine43:
   \   00000000   ....               RCALL   rprintfStr
   \   00000002                      REQUIRE ??Subroutine143_0
   \   00000002                      ;               // Fall through to label ??Subroutine143_0

   \                                 In  segment CODE, align 2, keep-with-next
   \                     ??Subroutine143_0:
   \   00000000   ....               LDI     R30, LOW(cod2)
   \   00000002   ....               LDI     R31, (cod2) >> 8
   \   00000004   9508               RET

   \                                 In  segment CODE, align 2, keep-with-next
   \                     ?Subroutine101:
   \   00000000   ....               LDI     R30, LOW(cod1)
   \   00000002   ....               LDI     R31, (cod1) >> 8
   \   00000004   9508               RET

   \                                 In  segment CODE, align 2, keep-with-next
   \                     ?Subroutine110:
   \   00000000   E010               LDI     R17, 0
   \   00000002   E020               LDI     R18, 0
   \   00000004                      REQUIRE ?Subroutine114
   \   00000004                      ;               // Fall through to label ?Subroutine114

   \                                 In  segment CODE, align 2, keep-with-next
   \                     ?Subroutine114:
   \   00000000   E030               LDI     R19, 0
   \   00000002   ....               RJMP    ?UL2F_L04
    125          
    126          ///////////////////////////////////////////////////////////////
    127          //  main
    128          //////////////////////////////////////////////////////////////

   \                                 In  segment CODE, align 2, keep-with-next
    129            bool remote_main() 
   \                     remote_main:
    130            {   
    131              cod_ok=0;//признак готовности кода
   \   00000000   E000               LDI     R16, 0
   \   00000002   9300....           STS     cod_ok, R16
    132              
    133              if (ini!=1) du_init();    
   \   00000006   9100....           LDS     R16, ??ini
   \   0000000A   2300               TST     R16
   \   0000000C   F409               BRNE    ??remote_main_0
   \   0000000E   ....               RCALL   du_init
    134              if (intok!=0) analiz_INT();  //INT событие произошло
   \                     ??remote_main_0:
   \   00000010   9100....           LDS     R16, ??intok
   \   00000014   2300               TST     R16
   \   00000016   F009               BREQ    ??remote_main_1
   \   00000018   ....               RCALL   analiz_INT
    135              
    136              if (perepoln!=0 ) 
   \                     ??remote_main_1:
   \   0000001A   9100....           LDS     R16, ??perepoln
   \   0000001E   2300               TST     R16
   \   00000020   F009               BREQ    ??remote_main_2
    137              {//получили переполнение, значит сигнал закончился
    138                PEREP();
   \   00000022   ....               RCALL   PEREP
    139              }   
    140               return(cod_ok);  
   \                     ??remote_main_2:
   \   00000024   9100....           LDS     R16, cod_ok
   \   00000028   9508               RET
    141            }
    142          
    143          
    144          ///////////////////////////////////////////////////////////////////       
    145          //                             кодировка
    146          ///////////////////////////////////////////////////////////////////

   \                                 In  segment CODE, align 2, keep-with-next
    147            void coding(uint i, uchar pr)  
   \                     coding:
    148            {
   \   00000000   ....               RCALL   ?PROLOGUE10_L09
   \   00000002                      REQUIRE ?Register_R4_is_cg_reg
   \   00000002                      REQUIRE ?Register_R5_is_cg_reg
   \   00000002                      REQUIRE ?Register_R6_is_cg_reg
   \   00000002                      REQUIRE ?Register_R8_is_cg_reg
   \   00000002                      REQUIRE ?Register_R9_is_cg_reg
   \   00000002   01C8               MOVW    R25:R24, R17:R16
   \   00000004   2E62               MOV     R6, R18
    149           
    150              
    151              float v=len[i];
   \   00000006   ....               RCALL   ?Subroutine99
   \                     ??CrossCallReturnLabel_175:
   \   00000008   ....               LDI     R26, LOW(len)
   \   0000000A   ....               LDI     R27, (len) >> 8
   \   0000000C   0FA0               ADD     R26, R16
   \   0000000E   1FB1               ADC     R27, R17
   \   00000010   900D               LD      R0, X+
   \   00000012   901D               LD      R1, X+
   \   00000014   902D               LD      R2, X+
   \   00000016   903C               LD      R3, X
   \   00000018   9713               SBIW    R27:R26, 3
    152                       
    153                      //  sst=sst+v;
    154                 if (i>1) {
   \   0000001A   3082               CPI     R24, 2
   \   0000001C   E000               LDI     R16, 0
   \   0000001E   0790               CPC     R25, R16
   \   00000020   F408               BRCC    $+2+2
   \   00000022   C0F1               RJMP    ??CrossCallReturnLabel_179
    155                    
    156            //-------------   версия  больше-меньше  ------------------
    157                        //  if (len[i]>len[i-1])  cod1+=1;
    158                   
    159                       //  if (len[i]<=len[i-1]) cod1+=3;
    160             /*        
    161              if (ind==4) { 
    162                                 if (len[i]>len[i-1]) { SET(cod4,c4); }
    163                                // else cod4<<=1;
    164                                 c4++;
    165                                 if (c4>=15) ind=5;
    166                              }
    167                   
    168                        
    169          
    170                     if (ind==3) { 
    171                                 if (len[i]>len[i-1]) { SET(cod3,c3); }
    172                                // else cod3<<=1;
    173                                 c3++;
    174                                 if (c3>=15) ind=4;
    175                              }
    176                  
    177                   
    178                     if (ind==2) { 
    179                                 if (len[i]>len[i-1]) { SET(cod2,c2); }
    180                                // else cod2<<=1;
    181                                 c2++;
    182                                 if (c2>=15) ind=3;
    183                              }
    184                   
    185                   if (ind==1) { 
    186                     if (len[i]>len[i-1]) { SET(cod1,c1); }
    187                                 //else cod1<<=1;
    188                                 c1++;
    189                                 if (c1>=15) ind=2;
    190                              }
    191                   
    192                */ 
    193                   
    194                 /*  
    195                   if (ind==4) { 
    196                     if (len[i]<3) { SET(cod4,c4);c4++; }
    197                     if (len[i]>=3 && len[i]<5)  {  c4++;  c4++;}
    198                     if (len[i]>=5 && len[i]<25) { SET(cod4,c4); c4++;    if (c4<=15)  SET(cod4,c4);  c4++;}
    199                     if (len[i]>=25)  {  c4++;  c4++; c4++;}
    200                                 if (c4>=15) ind=0;
    201                               }
    202                */
    203                   
    204                   
    205                //-----   версия v2  по относительной длине -------  
    206          #define   set1 SET(cod1,c1);c1++   
    207          #define   set2 SET(cod2,c2);c2++  
    208          #define   set3 SET(cod3,c3);c3++  
    209                   
    210                  
    211                 //ДЕЛАТЬ точность менее 0.5 опасно, т.к. ШУМ измерения
    212                    if (ind==3) { 
   \   00000024   012C               MOVW    R5:R4, R25:R24
   \   00000026   0C44               LSL     R4
   \   00000028   1C55               ROL     R5
   \   0000002A   9100....           LDS     R16, ind
   \   0000002E   3003               CPI     R16, 3
   \   00000030   F009               BREQ    $+2+2
   \   00000032   C041               RJMP    ??coding_0
    213                      
    214                      if (v<1.5) cod3=cod3+i;
   \   00000034   9140....           LDS     R20, c3
   \   00000038   ....               RCALL   ?Subroutine0
   \                     ??CrossCallReturnLabel_0:
   \   0000003A   F4B8               BRCC    ??coding_1
   \   0000003C   ....               RCALL   ??Subroutine142_0
   \                     ??CrossCallReturnLabel_324:
   \   0000003E   ....               RCALL   ?Subroutine28
    215                     if (v>=1.5 && v<2) { set3; c3++;    } else
    216                     if (v>=2 && v<3)   { set3; cod3=cod3+i;  c3++; } else
   \                     ??CrossCallReturnLabel_303:
   \   00000040   ....               RCALL   ?Subroutine55
   \                     ??CrossCallReturnLabel_71:
   \   00000042   F410               BRCC    ??coding_2
   \   00000044   ....               RCALL   ?Subroutine59
   \                     ??CrossCallReturnLabel_79:
   \   00000046   F058               BRCS    ??coding_3
    217                     if (v>=3 && v<5)   { set3; cod3=cod3+i+i;  c3++; if (c3<=14) {set3; cod3=cod3+i;   c3++; }  }   else                                  
   \                     ??coding_2:
   \   00000048   ....               RCALL   ?Subroutine60
   \                     ??CrossCallReturnLabel_82:
   \   0000004A   F4B0               BRCC    ??coding_4
   \   0000004C   ....               RCALL   ?Subroutine61
   \                     ??CrossCallReturnLabel_85:
   \   0000004E   F4A0               BRCC    ??coding_4
   \   00000050   ....               RCALL   ??Subroutine142_0
   \                     ??CrossCallReturnLabel_325:
   \   00000052   ....               RCALL   ?Subroutine32
   \                     ??CrossCallReturnLabel_46:
   \   00000054   ....               RCALL   ??Subroutine137_0
   \                     ??CrossCallReturnLabel_294:
   \   00000056   ....               RCALL   ?Subroutine41
   \                     ??CrossCallReturnLabel_258:
   \   00000058   8300               ST      Z, R16
   \   0000005A   300F               CPI     R16, 15
   \   0000005C   F4B8               BRCC    ??coding_5
   \                     ??coding_3:
   \   0000005E   ....               RCALL   ??Subroutine142_0
   \                     ??CrossCallReturnLabel_326:
   \   00000060   ....               RCALL   ?Subroutine62
   \                     ??CrossCallReturnLabel_88:
   \   00000062   9140....           LDS     R20, c3
   \   00000066   ....               RCALL   ?Subroutine1
   \                     ??CrossCallReturnLabel_3:
   \   00000068   C005               RJMP    ??CrossCallReturnLabel_295
   \                     ??coding_1:
   \   0000006A   ....               RCALL   ?Subroutine57
   \                     ??CrossCallReturnLabel_76:
   \   0000006C   F748               BRCC    ??CrossCallReturnLabel_303
   \   0000006E   ....               RCALL   ??Subroutine142_0
   \                     ??CrossCallReturnLabel_327:
   \   00000070   ....               RCALL   ?Subroutine96
   \                     ??CrossCallReturnLabel_156:
   \   00000072   ....               RCALL   ??Subroutine137_0
   \                     ??CrossCallReturnLabel_295:
   \   00000074   ....               RCALL   ?Subroutine41
   \                     ??CrossCallReturnLabel_259:
   \   00000076   C009               RJMP    ??coding_6
    218                     if (v>5 && v<7)    { c3++;   if (c3<=15)  c3++; }
   \                     ??coding_4:
   \   00000078   ....               RCALL   ?Subroutine51
   \                     ??CrossCallReturnLabel_61:
   \   0000007A   F440               BRCC    ??coding_5
   \   0000007C   ....               RCALL   ?Subroutine52
   \                     ??CrossCallReturnLabel_64:
   \   0000007E   F430               BRCC    ??coding_5
   \   00000080   ....               LDI     R30, LOW(c3)
   \   00000082   ....               LDI     R31, (c3) >> 8
   \   00000084   ....               RCALL   ?Subroutine34
   \                     ??CrossCallReturnLabel_49:
   \   00000086   F410               BRCC    ??coding_5
   \   00000088   9503               INC     R16
   \                     ??coding_6:
   \   0000008A   8300               ST      Z, R16
    219                   
    220                      
    221                     if (c3>=16) {ind=1; cod1=cod1<<2; cod2=cod2<<2; c1=0; c2=0; c3=0;}//пошли по кругу
   \                     ??coding_5:
   \   0000008C   9100....           LDS     R16, c3
   \   00000090   3100               CPI     R16, 16
   \   00000092   F408               BRCC    $+2+2
   \   00000094   C07F               RJMP    ??coding_7
   \   00000096   E001               LDI     R16, 1
   \   00000098   9300....           STS     ind, R16
   \   0000009C   ....               RCALL   ?Subroutine101
   \                     ??CrossCallReturnLabel_180:
   \   0000009E   ....               RCALL   ?Subroutine37
   \                     ??CrossCallReturnLabel_176:
   \   000000A0   ....               RCALL   ??Subroutine137_0
   \                     ??CrossCallReturnLabel_296:
   \   000000A2   ....               RCALL   ??Subroutine143_0
   \                     ??CrossCallReturnLabel_331:
   \   000000A4   ....               RCALL   ?Subroutine37
   \                     ??CrossCallReturnLabel_177:
   \   000000A6   ....               RCALL   ??Subroutine137_0
   \                     ??CrossCallReturnLabel_297:
   \   000000A8   9350....           STS     c1, R21
   \   000000AC   9350....           STS     c2, R21
   \   000000B0   9350....           STS     c3, R21
   \   000000B4   C039               RJMP    ??coding_8
    222                  
    223                               }
    224                   
    225                          
    226                    if (ind==2) { 
   \                     ??coding_0:
   \   000000B6   3002               CPI     R16, 2
   \   000000B8   F5A9               BRNE    ??coding_9
    227                    
    228                     if (v<1.5) cod2=cod2+i;
   \   000000BA   9140....           LDS     R20, c2
   \   000000BE   ....               RCALL   ?Subroutine0
   \                     ??CrossCallReturnLabel_1:
   \   000000C0   F4C0               BRCC    ??coding_10
   \   000000C2   ....               RCALL   ??Subroutine143_0
   \                     ??CrossCallReturnLabel_332:
   \   000000C4   ....               RCALL   ?Subroutine28
    229                     if (v>=1.5 && v<2) { set2; c2++;  cod2=cod2+i;  } else
    230                     if (v>=2 && v<3)   { set2; cod2=cod2+i;  c2++; } else
   \                     ??CrossCallReturnLabel_304:
   \   000000C6   ....               RCALL   ?Subroutine55
   \                     ??CrossCallReturnLabel_72:
   \   000000C8   F410               BRCC    ??coding_11
   \   000000CA   ....               RCALL   ?Subroutine59
   \                     ??CrossCallReturnLabel_80:
   \   000000CC   F048               BRCS    ??coding_12
    231                     if (v>=3 && v<5)   { set2; cod2=cod2+i+i;  c2++; if (c2<=14) { set2; cod2=cod2+i;  c2++; }  }   else                                  
   \                     ??coding_11:
   \   000000CE   ....               RCALL   ?Subroutine60
   \                     ??CrossCallReturnLabel_83:
   \   000000D0   F4C8               BRCC    ??coding_13
   \   000000D2   ....               RCALL   ?Subroutine61
   \                     ??CrossCallReturnLabel_86:
   \   000000D4   F4B8               BRCC    ??coding_13
   \   000000D6   ....               RCALL   ??Subroutine143_0
   \                     ??CrossCallReturnLabel_333:
   \   000000D8   ....               RCALL   ?Subroutine32
   \                     ??CrossCallReturnLabel_47:
   \   000000DA   ....               RCALL   ?Subroutine26
   \                     ??CrossCallReturnLabel_282:
   \   000000DC   300F               CPI     R16, 15
   \   000000DE   F4E0               BRCC    ??coding_14
   \                     ??coding_12:
   \   000000E0   ....               RCALL   ??Subroutine143_0
   \                     ??CrossCallReturnLabel_334:
   \   000000E2   ....               RCALL   ?Subroutine62
   \                     ??CrossCallReturnLabel_89:
   \   000000E4   9140....           LDS     R20, c2
   \   000000E8   ....               RCALL   ?Subroutine1
   \                     ??CrossCallReturnLabel_4:
   \   000000EA   ....               LDI     R30, LOW(c2)
   \   000000EC   ....               LDI     R31, (c2) >> 8
   \   000000EE   ....               RCALL   ??Subroutine132_0
   \                     ??CrossCallReturnLabel_256:
   \   000000F0   C012               RJMP    ??coding_15
   \                     ??coding_10:
   \   000000F2   ....               RCALL   ?Subroutine57
   \                     ??CrossCallReturnLabel_77:
   \   000000F4   F740               BRCC    ??CrossCallReturnLabel_304
   \   000000F6   ....               RCALL   ??Subroutine143_0
   \                     ??CrossCallReturnLabel_335:
   \   000000F8   ....               RCALL   ?Subroutine96
   \                     ??CrossCallReturnLabel_157:
   \   000000FA   ....               RCALL   ?Subroutine26
   \                     ??CrossCallReturnLabel_283:
   \   000000FC   ....               RCALL   ??Subroutine143_0
   \                     ??CrossCallReturnLabel_336:
   \   000000FE   8100               LD      R16, Z
   \   00000100   ....               RCALL   ??Subroutine136_0
   \                     ??CrossCallReturnLabel_301:
   \   00000102   C00A               RJMP    ??coding_14
    232                     if (v>5 && v<7)    { c2++;   if (c2<=15)  c2++; }
   \                     ??coding_13:
   \   00000104   ....               RCALL   ?Subroutine51
   \                     ??CrossCallReturnLabel_62:
   \   00000106   F440               BRCC    ??coding_14
   \   00000108   ....               RCALL   ?Subroutine52
   \                     ??CrossCallReturnLabel_65:
   \   0000010A   F430               BRCC    ??coding_14
   \   0000010C   ....               LDI     R30, LOW(c2)
   \   0000010E   ....               LDI     R31, (c2) >> 8
   \   00000110   ....               RCALL   ?Subroutine34
   \                     ??CrossCallReturnLabel_50:
   \   00000112   F410               BRCC    ??coding_14
   \   00000114   9503               INC     R16
   \                     ??coding_15:
   \   00000116   8300               ST      Z, R16
    233                   
    234                          if (c2>=16) ind=3;
   \                     ??coding_14:
   \   00000118   9100....           LDS     R16, c2
   \   0000011C   3100               CPI     R16, 16
   \   0000011E   F1D0               BRCS    ??coding_7
   \   00000120   E003               LDI     R16, 3
   \   00000122   C036               RJMP    ??coding_16
    235                               }
    236                          
    237                   if (ind==1) { 
   \                     ??coding_9:
   \   00000124   3001               CPI     R16, 1
   \   00000126   F5B1               BRNE    ??coding_7
    238                     
    239                     if (v<1.5) cod1=cod1+i;
   \                     ??coding_8:
   \   00000128   9140....           LDS     R20, c1
   \   0000012C   ....               RCALL   ?Subroutine0
   \                     ??CrossCallReturnLabel_2:
   \   0000012E   F4C0               BRCC    ??coding_17
   \   00000130   ....               RCALL   ?Subroutine101
   \                     ??CrossCallReturnLabel_181:
   \   00000132   ....               RCALL   ?Subroutine28
    240                     if (v>=1.5 && v<2) { set1; c1++;  cod1=cod1+i;  } else
    241                     if (v>=2 && v<3)   { set1; cod1=cod1+i;  c1++; } else
   \                     ??CrossCallReturnLabel_305:
   \   00000134   ....               RCALL   ?Subroutine55
   \                     ??CrossCallReturnLabel_73:
   \   00000136   F410               BRCC    ??coding_18
   \   00000138   ....               RCALL   ?Subroutine59
   \                     ??CrossCallReturnLabel_81:
   \   0000013A   F048               BRCS    ??coding_19
    242                     if (v>=3 && v<5)   { set1; cod1=cod1+i+i;  c1++; if (c1<=14) { set1; cod1=cod1+i; c1++; }  }   else                                  
   \                     ??coding_18:
   \   0000013C   ....               RCALL   ?Subroutine60
   \                     ??CrossCallReturnLabel_84:
   \   0000013E   F4C8               BRCC    ??coding_20
   \   00000140   ....               RCALL   ?Subroutine61
   \                     ??CrossCallReturnLabel_87:
   \   00000142   F4B8               BRCC    ??coding_20
   \   00000144   ....               RCALL   ?Subroutine101
   \                     ??CrossCallReturnLabel_182:
   \   00000146   ....               RCALL   ?Subroutine32
   \                     ??CrossCallReturnLabel_48:
   \   00000148   ....               RCALL   ?Subroutine27
   \                     ??CrossCallReturnLabel_284:
   \   0000014A   300F               CPI     R16, 15
   \   0000014C   F4E0               BRCC    ??coding_21
   \                     ??coding_19:
   \   0000014E   ....               RCALL   ?Subroutine101
   \                     ??CrossCallReturnLabel_183:
   \   00000150   ....               RCALL   ?Subroutine62
   \                     ??CrossCallReturnLabel_90:
   \   00000152   9140....           LDS     R20, c1
   \   00000156   ....               RCALL   ?Subroutine1
   \                     ??CrossCallReturnLabel_5:
   \   00000158   ....               LDI     R30, LOW(c1)
   \   0000015A   ....               LDI     R31, (c1) >> 8
   \   0000015C   ....               RCALL   ??Subroutine132_0
   \                     ??CrossCallReturnLabel_257:
   \   0000015E   C012               RJMP    ??coding_22
   \                     ??coding_17:
   \   00000160   ....               RCALL   ?Subroutine57
   \                     ??CrossCallReturnLabel_78:
   \   00000162   F740               BRCC    ??CrossCallReturnLabel_305
   \   00000164   ....               RCALL   ?Subroutine101
   \                     ??CrossCallReturnLabel_184:
   \   00000166   ....               RCALL   ?Subroutine96
   \                     ??CrossCallReturnLabel_158:
   \   00000168   ....               RCALL   ?Subroutine27
   \                     ??CrossCallReturnLabel_285:
   \   0000016A   ....               RCALL   ?Subroutine101
   \                     ??CrossCallReturnLabel_185:
   \   0000016C   8100               LD      R16, Z
   \   0000016E   ....               RCALL   ??Subroutine136_0
   \                     ??CrossCallReturnLabel_302:
   \   00000170   C00A               RJMP    ??coding_21
    243                     if (v>5 && v<7)    { c1++;   if (c1<=15)  c1++; }
   \                     ??coding_20:
   \   00000172   ....               RCALL   ?Subroutine51
   \                     ??CrossCallReturnLabel_63:
   \   00000174   F440               BRCC    ??coding_21
   \   00000176   ....               RCALL   ?Subroutine52
   \                     ??CrossCallReturnLabel_66:
   \   00000178   F430               BRCC    ??coding_21
   \   0000017A   ....               LDI     R30, LOW(c1)
   \   0000017C   ....               LDI     R31, (c1) >> 8
   \   0000017E   ....               RCALL   ?Subroutine34
   \                     ??CrossCallReturnLabel_51:
   \   00000180   F410               BRCC    ??coding_21
   \   00000182   9503               INC     R16
   \                     ??coding_22:
   \   00000184   8300               ST      Z, R16
    244                   
    245                          if (c1>=16) ind=2;
   \                     ??coding_21:
   \   00000186   9100....           LDS     R16, c1
   \   0000018A   3100               CPI     R16, 16
   \   0000018C   F018               BRCS    ??coding_7
   \   0000018E   E002               LDI     R16, 2
   \                     ??coding_16:
   \   00000190   9300....           STS     ind, R16
    246                               }
    247                    
    248                   
    249                  
    250                   
    251                
    252                       cod_ok=1;//код готов         
   \                     ??coding_7:
   \   00000194   E001               LDI     R16, 1
   \   00000196   9300....           STS     cod_ok, R16
    253                   
    254                   if (pr==0) {
   \   0000019A   2066               TST     R6
   \   0000019C   F5A1               BRNE    ??CrossCallReturnLabel_179
    255                               rprintfFloat(2, i);
   \   0000019E   018C               MOVW    R17:R16, R25:R24
   \   000001A0   E020               LDI     R18, 0
   \   000001A2   ....               RCALL   ??Subroutine130_0
   \                     ??CrossCallReturnLabel_268:
   \   000001A4   E002               LDI     R16, 2
   \   000001A6   ....               RCALL   rprintfFloat
    256                               rprintfStr("  / abslen= ");
   \   000001A8   ....               LDI     R16, LOW(`?<Constant "  / abslen= ">`)
   \   000001AA   ....               LDI     R17, (`?<Constant "  / abslen= ">`) >> 8
   \   000001AC   ....               RCALL   rprintfStr
    257                                rprintfFloat(9, dim1[i]+ (256*dim2[i])  );
   \   000001AE   0F88               LSL     R24
   \   000001B0   1F99               ROL     R25
   \   000001B2   01FC               MOVW    R31:R30, R25:R24
   \   000001B4   ....               SUBI    R30, LOW((-(dim1) & 0xFFFF))
   \   000001B6   ....               SBCI    R31, (-(dim1) & 0xFFFF) >> 8
   \   000001B8   ....               RCALL   ?Subroutine97
   \                     ??CrossCallReturnLabel_160:
   \   000001BA   01FC               MOVW    R31:R30, R25:R24
   \   000001BC   ....               SUBI    R30, LOW((-(dim2) & 0xFFFF))
   \   000001BE   ....               SBCI    R31, (-(dim2) & 0xFFFF) >> 8
   \   000001C0   8130               LD      R19, Z
   \   000001C2   E020               LDI     R18, 0
   \   000001C4   0F13               ADD     R17, R19
   \   000001C6   ....               RCALL   ??Subroutine130_0
   \                     ??CrossCallReturnLabel_269:
   \   000001C8   E009               LDI     R16, 9
   \   000001CA   ....               RCALL   rprintfFloat
    258                                rprintfStr("  / len= ");
   \   000001CC   ....               LDI     R16, LOW(`?<Constant "  / len= ">`)
   \   000001CE   ....               LDI     R17, (`?<Constant "  / len= ">`) >> 8
   \   000001D0   ....               RCALL   rprintfStr
    259                            rprintfFloat(4,  len[i]);
   \   000001D2   914D               LD      R20, X+
   \   000001D4   915D               LD      R21, X+
   \   000001D6   916D               LD      R22, X+
   \   000001D8   917C               LD      R23, X
   \   000001DA   E004               LDI     R16, 4
   \   000001DC   ....               RCALL   rprintfFloat
    260                             rprintfStr("  ");
   \   000001DE   ....               LDI     R16, LOW(`?<Constant "  ">`)
   \   000001E0   ....               LDI     R17, (`?<Constant "  ">`) >> 8
   \   000001E2   ....               RCALL   rprintfStr
    261                           rprintfStr("  / cod1= ");
   \   000001E4   ....               LDI     R16, LOW(`?<Constant "  / cod1= ">`)
   \   000001E6   ....               LDI     R17, (`?<Constant "  / cod1= ">`) >> 8
   \   000001E8   ....               RCALL   ?Subroutine31
    262                            rprintfFloat(6, cod1);
    263                             rprintfStr(" / cod2= ");
   \                     ??CrossCallReturnLabel_266:
   \   000001EA   ....               LDI     R16, LOW(`?<Constant " / cod2= ">`)
   \   000001EC   ....               LDI     R17, (`?<Constant " / cod2= ">`) >> 8
   \   000001EE   ....               RCALL   ?Subroutine43
    264                            rprintfFloat(6,  cod2);
   \                     ??CrossCallReturnLabel_330:
   \   000001F0   ....               RCALL   ??Subroutine133_0
    265                             rprintfStr(" / cod3= ");
   \                     ??CrossCallReturnLabel_263:
   \   000001F2   ....               LDI     R16, LOW(`?<Constant " / cod3= ">`)
   \   000001F4   ....               LDI     R17, (`?<Constant " / cod3= ">`) >> 8
   \   000001F6   ....               RCALL   ?Subroutine45
    266                            rprintfFloat(6,  cod3);
   \                     ??CrossCallReturnLabel_323:
   \   000001F8   ....               RCALL   ??Subroutine133_0
    267                             rprintfStr("/ minlen=");
   \                     ??CrossCallReturnLabel_262:
   \   000001FA   ....               LDI     R16, LOW(`?<Constant "/ minlen=">`)
   \   000001FC   ....               LDI     R17, (`?<Constant "/ minlen=">`) >> 8
   \   000001FE   ....               RCALL   rprintfStr
    268                             rprintfFloat(9,   minimallen);
   \   00000200   ....               RCALL   ?Subroutine94
    269                             ent;
    270                          }
    271                   
    272                   
    273                             }
   \                     ??CrossCallReturnLabel_154:
   \   00000202   ....               RCALL   ?Subroutine97
   \                     ??CrossCallReturnLabel_161:
   \   00000204   ....               RCALL   ?Subroutine47
    274                 
    275                 
    276                 
    277            
    278            }
   \                     ??CrossCallReturnLabel_179:
   \   00000206   E0EA               LDI     R30, 10
   \   00000208   ....               RJMP    ?EPILOGUE_B10_L09

   \                                 In  segment CODE, align 2, keep-with-next
   \                     ?Subroutine61:
   \   00000000   EA60               LDI     R22, 160
   \   00000002   ....               RJMP    ?F_CMP_LT_L04

   \                                 In  segment CODE, align 2, keep-with-next
   \                     ?Subroutine60:
   \   00000000   E460               LDI     R22, 64
   \   00000002   ....               RJMP    ?F_CMP_GE_L04

   \                                 In  segment CODE, align 2, keep-with-next
   \                     ?Subroutine59:
   \   00000000   E460               LDI     R22, 64
   \   00000002   ....               RJMP    ?F_CMP_LT_L04

   \                                 In  segment CODE, align 2, keep-with-next
   \                     ?Subroutine57:
   \   00000000   E060               LDI     R22, 0
   \   00000002   E470               LDI     R23, 64
   \   00000004   ....               RJMP    ?F_CMP_LT_L04

   \                                 In  segment CODE, align 2, keep-with-next
   \                     ?Subroutine55:
   \   00000000   E060               LDI     R22, 0
   \   00000002   E470               LDI     R23, 64
   \   00000004   0180               MOVW    R17:R16, R1:R0
   \   00000006   ....               RJMP    ?F_CMP_GE_L04

   \                                 In  segment CODE, align 2, keep-with-next
   \                     ?Subroutine52:
   \   00000000   E040               LDI     R20, 0
   \   00000002   EE60               LDI     R22, 224
   \   00000004   ....               RJMP    ?F_CMP_LT_L04

   \                                 In  segment CODE, align 2, keep-with-next
   \                     ?Subroutine51:
   \   00000000   E041               LDI     R20, 1
   \   00000002   EA60               LDI     R22, 160
   \   00000004   ....               RJMP    ?F_CMP_GE_L04

   \                                 In  segment CODE, align 2, keep-with-next
   \                     ?Subroutine41:
   \   00000000   ....               LDI     R30, LOW(c3)
   \   00000002   ....               LDI     R31, (c3) >> 8
   \   00000004                      REQUIRE ??Subroutine132_0
   \   00000004                      ;               // Fall through to label ??Subroutine132_0

   \                                 In  segment CODE, align 2, keep-with-next
   \                     ??Subroutine132_0:
   \   00000000   8100               LD      R16, Z
   \   00000002   5F0E               SUBI    R16, 254
   \   00000004   9508               RET

   \                                 In  segment CODE, align 2, keep-with-next
   \                     ?Subroutine37:
   \   00000000   ....               RCALL   ?Subroutine97
   \                     ??CrossCallReturnLabel_169:
   \   00000002                      REQUIRE ?Subroutine99
   \   00000002                      ;               // Fall through to label ?Subroutine99

   \                                 In  segment CODE, align 2, keep-with-next
   \                     ?Subroutine99:
   \   00000000   0F00               LSL     R16
   \   00000002   1F11               ROL     R17
   \   00000004   0F00               LSL     R16
   \   00000006   1F11               ROL     R17
   \   00000008   9508               RET

   \                                 In  segment CODE, align 2, keep-with-next
   \                     ?Subroutine96:
   \   00000000   8100               LD      R16, Z
   \   00000002   8111               LDD     R17, Z+1
   \   00000004   2908               OR      R16, R8
   \   00000006   2919               OR      R17, R9
   \   00000008   9508               RET

   \                                 In  segment CODE, align 2, keep-with-next
   \                     ?Subroutine34:
   \   00000000   8100               LD      R16, Z
   \   00000002   9503               INC     R16
   \   00000004   8300               ST      Z, R16
   \   00000006   3100               CPI     R16, 16
   \   00000008   9508               RET

   \                                 In  segment CODE, align 2, keep-with-next
   \                     ?Subroutine32:
   \   00000000   ....               RCALL   ?Subroutine96
   \                     ??CrossCallReturnLabel_159:
   \   00000002   0D04               ADD     R16, R4
   \   00000004   1D15               ADC     R17, R5
   \   00000006   9508               RET

   \                                 In  segment CODE, align 2, keep-with-next
   \                     ?Subroutine27:
   \   00000000   8300               ST      Z, R16
   \   00000002   8311               STD     Z+1, R17
   \   00000004   ....               LDI     R30, LOW(c1)
   \   00000006   ....               LDI     R31, (c1) >> 8
   \   00000008                      REQUIRE ?Subroutine115
   \   00000008                      ;               // Fall through to label ?Subroutine115

   \                                 In  segment CODE, align 2, keep-with-next
   \                     ?Subroutine115:
   \   00000000   8100               LD      R16, Z
   \   00000002   5F0E               SUBI    R16, 254
   \   00000004                      REQUIRE ??Subroutine134_0
   \   00000004                      ;               // Fall through to label ??Subroutine134_0

   \                                 In  segment CODE, align 2, keep-with-next
   \                     ?Subroutine26:
   \   00000000   8300               ST      Z, R16
   \   00000002   8311               STD     Z+1, R17
   \   00000004   ....               LDI     R30, LOW(c2)
   \   00000006   ....               LDI     R31, (c2) >> 8
   \   00000008   ....               RJMP    ?Subroutine115

   \                                 In  segment CODE, align 2, keep-with-next
   \                     ?Subroutine1:
   \   00000000   ....               RCALL   ?Subroutine109
   \                     ??CrossCallReturnLabel_202:
   \   00000002   2B20               OR      R18, R16
   \   00000004   2B31               OR      R19, R17
   \   00000006   0F28               ADD     R18, R24
   \   00000008   1F39               ADC     R19, R25
   \   0000000A   8320               ST      Z, R18
   \   0000000C   8331               STD     Z+1, R19
   \   0000000E   9508               RET

   \                                 In  segment CODE, align 2, keep-with-next
   \                     ?Subroutine0:
   \   00000000   ....               RCALL   ?Subroutine109
   \                     ??CrossCallReturnLabel_201:
   \   00000002   0148               MOVW    R9:R8, R17:R16
   \   00000004   E040               LDI     R20, 0
   \   00000006   E050               LDI     R21, 0
   \   00000008   EC60               LDI     R22, 192
   \   0000000A   E37F               LDI     R23, 63
   \   0000000C   0180               MOVW    R17:R16, R1:R0
   \   0000000E   0191               MOVW    R19:R18, R3:R2
   \   00000010   ....               RJMP    ?F_CMP_LT_L04

   \                                 In  segment CODE, align 2, keep-with-next
   \                     ?Subroutine28:
   \   00000000   ....               RCALL   ?Subroutine97
   \                     ??CrossCallReturnLabel_168:
   \   00000002                      REQUIRE ??Subroutine136_0
   \   00000002                      ;               // Fall through to label ??Subroutine136_0

   \                                 In  segment CODE, align 2, keep-with-next
   \                     ??Subroutine136_0:
   \   00000000   0F08               ADD     R16, R24
   \   00000002   1F19               ADC     R17, R25
   \   00000004                      REQUIRE ??Subroutine137_0
   \   00000004                      ;               // Fall through to label ??Subroutine137_0

   \                                 In  segment CODE, align 2, keep-with-next
   \                     ?Subroutine62:
   \   00000000   8120               LD      R18, Z
   \   00000002   8131               LDD     R19, Z+1
   \   00000004   9508               RET

   \                                 In  segment CODE, align 2, keep-with-next
   \                     ?Subroutine47:
   \   00000000   ....               RCALL   ??Subroutine129_0
   \                     ??CrossCallReturnLabel_270:
   \   00000002                      REQUIRE ?Subroutine100
   \   00000002                      ;               // Fall through to label ?Subroutine100

   \                                 In  segment CODE, align 2, keep-with-next
   \                     ?Subroutine100:
   \   00000000   E009               LDI     R16, 9
   \   00000002   ....               RCALL   rprintfFloat
   \   00000004   ....               RJMP    ?Subroutine127

   \                                 In  segment CODE, align 2, keep-with-next
   \                     ?Subroutine109:
   \   00000000   E001               LDI     R16, 1
   \   00000002   E010               LDI     R17, 0
   \   00000004   ....               RJMP    ?S_SHL_L02
    279            
    280          
    281           //переполнился импульс более 130мс  (1/(4000000/8)*65535)
    282          #pragma vector = TIMER1_OVF_vect

   \                                 In  segment CODE, align 2, keep-with-next
    283          __interrupt void funTIMER1_OVF_vect(void)
   \                     funTIMER1_OVF_vect:
    284          {
   \   00000000   930A               ST      -Y, R16
    285             //TIFR = 0xFF; - в прерывании сбрасывется сам
    286            
    287            perepoln=1;   
   \   00000002   E001               LDI     R16, 1
   \   00000004   9300....           STS     ??perepoln, R16
    288           
    289          }
   \   00000008                      REQUIRE ?Subroutine125
   \   00000008                      ;               // Fall through to label ?Subroutine125

   \                                 In  segment CODE, align 2, keep-with-next
   \                     ?Subroutine125:
   \   00000000   9109               LD      R16, Y+
   \   00000002   9518               RETI
    290          
    291          
F:\Dulov\RemoteAMP\main.c
      1          //***************************************************************************
      2          //  
      3          //  Author(s)...: dav COBRA 
      4          //  Target(s)...: ATMega8
      5          //  Compiler....: 6 40
      6          //  ТЕСТ1
      7          //  Description.: Система  управления  для  Усилителя  Мощности   V-ниже
      8          //  v1.1 - добавлена поддержка включения усилителя тыловых колонок вместо Source5
      9          //       - изменена установка auto off
     10          //  v1.2 - теперь во время мигания(только Source) светодиодов  команды пульта обрабатываются
     11          //       - новая команда пульта - возврат в предыдущий source
     12          //       - команды пульта можно продублировать на втором пульте, т.е. на каждую функцию 2 кнопки пульта
     13          //       - вместо импульсов громкости можно формировать постоянный сигнал
     14          //       - подправлены задержки
     15          //       - обновлен алгоритм кодирования
     16          // v1.22 - исправлена ошибка задержки вкл AC
     17          // v1.23 - исправлен при включении включается SOURCE1 
     18          // v1.24 - исправлен баг AUTOOFF на 30 минут 
     19          // v1.25 - исправлен баг AUTOOFF при выключениии питания 
     20          // v1.26 - refactoring, проверка на повторное программирование кнопки
     21          //  Data........: 02 2017
     22          //
     23          //   - ВЫКЛЮЧИТЬ ОПЦИЮ clustering of variables В optimization compilator !!!!
     24          //***************************************************************************
     25          #include <iom8.h>//<ioavr.h>
     26          //#include <inavr.h>  
     27          #include <intrinsics.h>
     28          #include "init.h"
     29          #include "main.h"
     30          #include "du.h"  
     31          #include "SoftTimers.h" 
     32          #include "keys.h"
     33          //#include <stdlib.h>
     34          //#include <math.h> 
     35          #include "usart.h"
     36          #include "eeprom.h"
     37          //#include <stdarg.h>
     38          //************************************************************************* 
     39          #define AC_ON    SET(PORTD,6)
     40          #define AC_OFF   RES(PORTD,6)
     41          void diag(void);
     42          void led_all(bool a);
     43          void resled(void);
     44          void source(void);
     45          void resOUT(void);  
     46          void gro(uchar a);
     47          void main_logic(void);
     48          void main_power(void);
     49          void writeCOD(void);
     50          uchar analizCOD(void);
     51          void programming(uchar rez);
     52          uchar getadr(void);
     53          
     54          

   \                                 In  segment NEAR_I, align 1, keep-with-next
   \   00000000                      REQUIRE `?<Segment init: NEAR_I>`
     55          uint tON=acon; 
   \                     tON:
   \   00000000                      DS8 2
   \   00000002                      REQUIRE `?<Initializer for tON>`

   \                                 In  segment NEAR_Z, align 1, keep-with-next
   \   00000000                      REQUIRE `?<Segment init: NEAR_Z>`
     56          uchar pr=0;
   \                     pr:
   \   00000000                      DS8 1

   \                                 In  segment NEAR_Z, align 1, keep-with-next
   \   00000000                      REQUIRE `?<Segment init: NEAR_Z>`
     57          static bool get=0;
   \                     ??get:
   \   00000000                      DS8 1

   \                                 In  segment NEAR_Z, align 1, keep-with-next
   \   00000000                      REQUIRE `?<Segment init: NEAR_Z>`
     58          bool onok=0;  
   \                     onok:
   \   00000000                      DS8 1

   \                                 In  segment NEAR_Z, align 1, keep-with-next
   \   00000000                      REQUIRE `?<Segment init: NEAR_Z>`
     59          bool on=0;
   \                     on:
   \   00000000                      DS8 1

   \                                 In  segment NEAR_Z, align 1, keep-with-next
   \   00000000                      REQUIRE `?<Segment init: NEAR_Z>`
     60          volatile bool zader=0,aoff=0;
   \                     zader:
   \   00000000                      DS8 1

   \                                 In  segment NEAR_Z, align 1, keep-with-next
   \   00000000                      REQUIRE `?<Segment init: NEAR_Z>`
   \                     aoff:
   \   00000000                      DS8 1

   \                                 In  segment NEAR_Z, align 1, keep-with-next
   \   00000000                      REQUIRE `?<Segment init: NEAR_Z>`
     61          uint timerzad; 
   \                     timerzad:
   \   00000000                      DS8 2

   \                                 In  segment NEAR_Z, align 1, keep-with-next
   \   00000000                      REQUIRE `?<Segment init: NEAR_Z>`
     62          uchar pultadr;
   \                     pultadr:
   \   00000000                      DS8 1

   \                                 In  segment NEAR_Z, align 1, keep-with-next
   \   00000000                      REQUIRE `?<Segment init: NEAR_Z>`
     63          static bool u=0,til=0,mode_programming=0; 
   \                     ??u:
   \   00000000                      DS8 1

   \                                 In  segment NEAR_Z, align 1, keep-with-next
   \   00000000                      REQUIRE `?<Segment init: NEAR_Z>`
   \                     ??til:
   \   00000000                      DS8 1

   \                                 In  segment NEAR_Z, align 1, keep-with-next
   \   00000000                      REQUIRE `?<Segment init: NEAR_Z>`
   \                     ??mode_programming:
   \   00000000                      DS8 1

   \                                 In  segment NEAR_Z, align 1, keep-with-next
   \   00000000                      REQUIRE `?<Segment init: NEAR_Z>`
     64          static  uchar mode=0,tekfunc=0; 
   \                     ??mode:
   \   00000000                      DS8 1

   \                                 In  segment NEAR_Z, align 1, keep-with-next
   \   00000000                      REQUIRE `?<Segment init: NEAR_Z>`
   \                     ??tekfunc:
   \   00000000                      DS8 1

   \                                 In  segment NEAR_I, align 1, keep-with-next
   \   00000000                      REQUIRE `?<Segment init: NEAR_I>`
     65          static uchar lastsel=1,sel=1,gro1=0,gro2=0,regaoff=0;
   \                     ??lastsel:
   \   00000000                      DS8 1
   \   00000001                      REQUIRE `?<Initializer for lastsel>`

   \                                 In  segment NEAR_I, align 1, keep-with-next
   \   00000000                      REQUIRE `?<Segment init: NEAR_I>`
   \                     ??sel:
   \   00000000                      DS8 1
   \   00000001                      REQUIRE `?<Initializer for sel>`

   \                                 In  segment NEAR_Z, align 1, keep-with-next
   \   00000000                      REQUIRE `?<Segment init: NEAR_Z>`
   \                     ??gro1:
   \   00000000                      DS8 1

   \                                 In  segment NEAR_Z, align 1, keep-with-next
   \   00000000                      REQUIRE `?<Segment init: NEAR_Z>`
   \                     ??gro2:
   \   00000000                      DS8 1

   \                                 In  segment NEAR_Z, align 1, keep-with-next
   \   00000000                      REQUIRE `?<Segment init: NEAR_Z>`
   \                     ??regaoff:
   \   00000000                      DS8 1
     66          

   \                                 In  segment CODE, align 2, keep-with-next
     67          void led_test()
   \                     led_test:
     68          {
   \   00000000   938A               ST      -Y, R24
     69            for (uchar i=0; i<=30; i++){ led_all(1); delay_ms(50); led_all(0); delay_ms(50);}
   \   00000002   E18F               LDI     R24, 31
   \                     ??led_test_0:
   \   00000004   ....               RCALL   ?Subroutine4
   \                     ??CrossCallReturnLabel_14:
   \   00000006   ....               RCALL   ?Subroutine64
   \                     ??CrossCallReturnLabel_94:
   \   00000008   ....               RCALL   ?Subroutine15
   \                     ??CrossCallReturnLabel_27:
   \   0000000A   ....               RCALL   ?Subroutine64
   \                     ??CrossCallReturnLabel_95:
   \   0000000C   958A               DEC     R24
   \   0000000E   F7D1               BRNE    ??led_test_0
     70          }
   \   00000010   ....               RJMP    ?Subroutine120

   \                                 In  segment CODE, align 2, keep-with-next
   \                     ?Subroutine64:
   \   00000000   E40F               LDI     R16, 79
   \   00000002   EC13               LDI     R17, 195
   \   00000004   5001               SUBI    R16, 1
   \   00000006   4010               SBCI    R17, 0
   \   00000008   F7E9               BRNE    $-4
   \   0000000A   C000               RJMP    $+2
   \   0000000C   0000               NOP
   \   0000000E   9508               RET

   \                                 In  segment CODE, align 2, keep-with-next
   \                     ?Subroutine120:
   \   00000000   9189               LD      R24, Y+
   \   00000002   9508               RET

   \                                 In  segment CODE, align 2, keep-with-next
   \                     ?Subroutine15:
   \   00000000   E000               LDI     R16, 0
   \   00000002   ....               RJMP    led_all

   \                                 In  segment CODE, align 2, keep-with-next
   \                     ?Subroutine4:
   \   00000000   E001               LDI     R16, 1
   \   00000002   ....               RJMP    led_all
     71          //***************************************************************************
     72          //                  M  A  I  N
     73          //***************************************************************************

   \                                 In  segment CODE, align 2, keep-with-next
     74          int main( void )
   \                     main:
     75          {//main
   \   00000000   938A               ST      -Y, R24
     76             TimerSet(&tm3,100);
   \   00000002   ....               RCALL   ??Subroutine144_0
   \                     ??CrossCallReturnLabel_346:
   \   00000004   ....               LDI     R16, LOW(tm3)
   \   00000006   ....               LDI     R17, (tm3) >> 8
   \   00000008   ....               RCALL   ?Subroutine49
     77             
     78              TimerSet(&tm4,100);//громкость +
   \                     ??CrossCallReturnLabel_338:
   \   0000000A   ....               LDI     R16, LOW(tm4)
   \   0000000C   ....               LDI     R17, (tm4) >> 8
   \   0000000E   ....               RCALL   ?Subroutine49
     79              TimerSet(&tm5,100);//громкость -
   \                     ??CrossCallReturnLabel_339:
   \   00000010   ....               RCALL   ?Subroutine65
     80              tm4.out=1;
   \                     ??CrossCallReturnLabel_97:
   \   00000012   E001               LDI     R16, 1
   \   00000014   9300....           STS     (tm4 + 8), R16
     81              tm5.out=1;
   \   00000018   9300....           STS     (tm5 + 8), R16
     82              
     83              iniPORTS();  
   \   0000001C   ....               RCALL   iniPORTS
     84              
     85            p3;//задержка при включении
   \   0000001E   E70F               LDI     R16, 127
   \   00000020   EA19               LDI     R17, 169
   \   00000022   E023               LDI     R18, 3
   \   00000024   5001               SUBI    R16, 1
   \   00000026   4010               SBCI    R17, 0
   \   00000028   4020               SBCI    R18, 0
   \   0000002A   F7E1               BRNE    $-6
   \   0000002C   C000               RJMP    $+2
   \   0000002E   0000               NOP
     86            //delay_s(2);
     87           
     88           //----------------------------------
     89             if (keyONsm) {u=1; led_test(); USART_Init();}//включаем UART
   \   00000030   9985               SBIC    0x10, 0x05
   \   00000032   C005               RJMP    ??main_0
   \   00000034   E001               LDI     R16, 1
   \   00000036   9300....           STS     ??u, R16
   \   0000003A   ....               RCALL   led_test
   \   0000003C   ....               RCALL   USART_Init
     90          //----------------------------------
     91            mode=fmode; //смена режима работы
   \                     ??main_0:
   \   0000003E   ....               LDI     R20, LOW(fmode)
   \   00000040   ....               LDI     R21, (fmode) >> 8
   \   00000042   ....               RCALL   __eeget8_16
   \   00000044   9300....           STS     ??mode, R16
     92            if (mode!=1 && mode!=0) {  fmode=0; mode=0;   }//ini eeprom  read
   \   00000048   3001               CPI     R16, 1
   \   0000004A   F029               BREQ    ??main_1
   \   0000004C   2300               TST     R16
   \   0000004E   F019               BREQ    ??main_1
   \   00000050   ....               RCALL   ?Subroutine16
   \                     ??CrossCallReturnLabel_28:
   \   00000052   9300....           STS     ??mode, R16
     93            if (modegro!=1 && modegro!=0) { modegro=0;  }//ini eeprom read 
   \                     ??main_1:
   \   00000056   ....               RCALL   ?Subroutine66
   \                     ??CrossCallReturnLabel_237:
   \   00000058   F019               BREQ    ??CrossCallReturnLabel_30
   \   0000005A   ....               RCALL   ?Subroutine69
   \                     ??CrossCallReturnLabel_224:
   \   0000005C   F009               BREQ    ??CrossCallReturnLabel_30
   \   0000005E   ....               RCALL   ?Subroutine17
     94            
     95            if (keyMUTE && !keyAOFFsm) {  led_test();
   \                     ??CrossCallReturnLabel_30:
   \   00000060   9981               SBIC    0x10, 0x01
   \   00000062   C028               RJMP    ??main_2
   \   00000064   9985               SBIC    0x10, 0x05
   \   00000066   C026               RJMP    ??main_2
   \   00000068   9B80               SBIS    0x10, 0x00
   \   0000006A   C024               RJMP    ??main_2
   \   0000006C   ....               RCALL   led_test
     96            if (mode==0 && modegro==0)   {  fmode=1; p5;   SET(PORTB,4);  while(1) {}   }
   \   0000006E   ....               RCALL   ?Subroutine70
   \                     ??CrossCallReturnLabel_227:
   \   00000070   F441               BRNE    ??main_3
   \   00000072   ....               RCALL   ?Subroutine69
   \                     ??CrossCallReturnLabel_225:
   \   00000074   F4C9               BRNE    ??main_4
   \   00000076   E001               LDI     R16, 1
   \   00000078   ....               LDI     R20, LOW(fmode)
   \   0000007A   ....               LDI     R21, (fmode) >> 8
   \   0000007C   ....               RCALL   ?Subroutine63
   \                     ??CrossCallReturnLabel_93:
   \   0000007E   9AC4               SBI     0x18, 0x04
   \                     ??main_5:
   \   00000080   CFFF               RJMP    ??main_5
     97            if (mode==1 && modegro==0)   {  modegro=1; p5; SET(PORTB,2);  SET(PORTB,3);  SET(PORTB,4);  while(1) {}  }
   \                     ??main_3:
   \   00000082   3001               CPI     R16, 1
   \   00000084   F4B9               BRNE    ??main_2
   \   00000086   ....               RCALL   ?Subroutine69
   \                     ??CrossCallReturnLabel_226:
   \   00000088   F441               BRNE    ??main_6
   \   0000008A   E001               LDI     R16, 1
   \   0000008C   ....               LDI     R20, LOW(modegro)
   \   0000008E   ....               LDI     R21, (modegro) >> 8
   \   00000090   ....               RCALL   ?Subroutine63
   \                     ??CrossCallReturnLabel_92:
   \   00000092   9AC2               SBI     0x18, 0x02
   \   00000094   9AC3               SBI     0x18, 0x03
   \   00000096   9AC4               SBI     0x18, 0x04
   \                     ??main_7:
   \   00000098   CFFF               RJMP    ??main_7
   \                     ??main_6:
   \   0000009A   ....               RCALL   ?Subroutine66
   \                     ??CrossCallReturnLabel_238:
   \   0000009C   F459               BRNE    ??main_2
     98            if (mode==1 && modegro==1)   {  fmode=0; p5; SET(PORTB,2);  SET(PORTB,3);    while(1) {}  } 
   \   0000009E   ....               RCALL   ?Subroutine16
   \                     ??CrossCallReturnLabel_29:
   \   000000A0   ....               RCALL   ?Subroutine112
   \                     ??CrossCallReturnLabel_205:
   \   000000A2   9AC2               SBI     0x18, 0x02
   \   000000A4   9AC3               SBI     0x18, 0x03
   \                     ??main_8:
   \   000000A6   CFFF               RJMP    ??main_8
   \                     ??main_4:
   \   000000A8   ....               RCALL   ?Subroutine66
   \                     ??CrossCallReturnLabel_239:
   \   000000AA   F421               BRNE    ??main_2
     99            if (mode==0 && modegro==1)   {  modegro=0; p5;  led_all(1);    while(1) {}   }
   \   000000AC   ....               RCALL   ?Subroutine17
   \                     ??CrossCallReturnLabel_31:
   \   000000AE   ....               RCALL   ?Subroutine112
   \                     ??CrossCallReturnLabel_206:
   \   000000B0   ....               RCALL   ?Subroutine4
   \                     ??CrossCallReturnLabel_13:
   \   000000B2   CFFF               RJMP    ??CrossCallReturnLabel_13
    100            
    101                                        }
    102            
    103           // modegro=1; mode=1;
    104          //-----------------------------------
    105            
    106             
    107             if (keySELsm==1 && keyAOFFsm==1)//очистка
   \                     ??main_2:
   \   000000B4   9981               SBIC    0x10, 0x01
   \   000000B6   C010               RJMP    ??main_9
   \   000000B8   9980               SBIC    0x10, 0x00
   \   000000BA   C00E               RJMP    ??main_9
    108                {
    109                  tekfunc=0;
   \   000000BC   E000               LDI     R16, 0
   \   000000BE   9300....           STS     ??tekfunc, R16
    110                  mode_programming=1; cod1=0;cod2=0;cod3=0;
   \   000000C2   E001               LDI     R16, 1
   \   000000C4   9300....           STS     ??mode_programming, R16
   \   000000C8   ....               RCALL   ?Subroutine11
    111                  for (uchar i=0; i<=MAXFUNC; i++) {writeCOD();tekfunc++;}
   \                     ??CrossCallReturnLabel_22:
   \   000000CA   E188               LDI     R24, 24
   \                     ??main_10:
   \   000000CC   ....               RCALL   writeCOD
   \   000000CE   ....               RCALL   ?Subroutine35
   \                     ??CrossCallReturnLabel_288:
   \   000000D0   958A               DEC     R24
   \   000000D2   F7E1               BRNE    ??main_10
    112                  led_all(1); while(1) {} //зависаем
   \   000000D4   ....               RCALL   ?Subroutine4
   \                     ??CrossCallReturnLabel_12:
   \   000000D6   CFFF               RJMP    ??CrossCallReturnLabel_12
    113                }
    114            if (keySELsm) {mode_programming=1; led_test();}//включаем программирование пульта
   \                     ??main_9:
   \   000000D8   9981               SBIC    0x10, 0x01
   \   000000DA   C004               RJMP    ??main_11
   \   000000DC   E001               LDI     R16, 1
   \   000000DE   9300....           STS     ??mode_programming, R16
   \   000000E2   ....               RCALL   led_test
    115            
    116            
    117             if (mode_programming) //мигание первого программируемого
   \                     ??main_11:
   \   000000E4   9100....           LDS     R16, ??mode_programming
   \   000000E8   2300               TST     R16
   \   000000EA   F009               BREQ    ??main_12
    118             {
    119              // for (uchar i=0; i<7; i++) {getadr(); p3;led_all(0); p3;}
    120              
    121               getadr();
   \   000000EC   ....               RCALL   getadr
    122             }
    123              
    124            
    125            
    126            
    127          
    128              __enable_interrupt();   
   \                     ??main_12:
   \   000000EE   9478               SEI
   \   000000F0   C006               RJMP    ??main_13
    129            while(1)
    130            {
    131              
    132              
    133          
    134               bool rez=remote_main();//вызов обработчика пульта 
    135               
    136               
    137                 if (keyAOFF) //&&&&&&&&&&&&&&&&&&&&&&&&&&&&&&&&&&&&&&&&&&&&&&&&&&&&&&&&&&&&&&&&&& TEST
    138                 {
    139             //    rez=1;
    140             //    cod1=1;
    141             //    cod2=2;
    142             //    cod3=3;
    143                 
    144              }
    145          
    146          
    147                
    148               if (!mode_programming)  
    149               {    
    150                 pultadr=0; 
    151                 if (rez) pultadr=analizCOD();  
    152                 
    153              // if (keyAOFF)   pultadr=45;//&&&&&&&&&&&&&&&&&&&&&&&&&&&&&&&&&&&&&&&&&&&&&&&&&&&&&&&&&&&&&&&&&& TEST
    154                
    155                 
    156                main_power();
    157                if (on==1)
    158                   main_logic();
    159               }
    160               else programming(rez);
   \                     ??main_14:
   \   000000F2   ....               RCALL   programming
    161               
    162               if(u) diag();  
   \                     ??main_15:
   \   000000F4   9100....           LDS     R16, ??u
   \   000000F8   2300               TST     R16
   \   000000FA   F009               BREQ    ??main_13
   \   000000FC   ....               RCALL   diag
   \                     ??main_13:
   \   000000FE   ....               RCALL   remote_main
   \   00000100   9B80               SBIS    0x10, 0x00
   \   00000102   B310               IN      R17, 0x10
   \                     ??main_16:
   \   00000104   9110....           LDS     R17, ??mode_programming
   \   00000108   2311               TST     R17
   \   0000010A   F799               BRNE    ??main_14
   \   0000010C   E010               LDI     R17, 0
   \   0000010E   9310....           STS     pultadr, R17
   \   00000112   2300               TST     R16
   \   00000114   F011               BREQ    ??CrossCallReturnLabel_309
   \   00000116   ....               RCALL   analizCOD
   \   00000118   ....               RCALL   ?Subroutine117
   \                     ??CrossCallReturnLabel_309:
   \   0000011A   ....               RCALL   main_power
   \   0000011C   ....               RCALL   ?Subroutine72
   \                     ??CrossCallReturnLabel_231:
   \   0000011E   F351               BREQ    ??main_15
   \   00000120   ....               RCALL   main_logic
   \   00000122   CFE8               RJMP    ??main_15
   \   00000124                      REQUIRE _A_PIND
   \   00000124                      REQUIRE _A_PORTB
    163            }
    164          }//main

   \                                 In  segment CODE, align 2, keep-with-next
   \                     ?Subroutine69:
   \   00000000   ....               RCALL   ?Subroutine104
   \                     ??CrossCallReturnLabel_191:
   \   00000002                      REQUIRE ?Subroutine121
   \   00000002                      ;               // Fall through to label ?Subroutine121

   \                                 In  segment CODE, align 2, keep-with-next
   \                     ?Subroutine121:
   \   00000000   2300               TST     R16
   \   00000002   9508               RET

   \                                 In  segment CODE, align 2, keep-with-next
   \                     ?Subroutine63:
   \   00000000   ....               RCALL   __eeput8_16
   \   00000002   ....               RJMP    ?Subroutine112

   \                                 In  segment CODE, align 2, keep-with-next
   \                     ?Subroutine35:
   \   00000000   ....               LDI     R30, LOW(??tekfunc)
   \   00000002   ....               LDI     R31, (??tekfunc) >> 8
   \   00000004                      REQUIRE ??Subroutine135_0
   \   00000004                      ;               // Fall through to label ??Subroutine135_0

   \                                 In  segment CODE, align 2, keep-with-next
   \                     ?Subroutine17:
   \   00000000   E000               LDI     R16, 0
   \   00000002   ....               LDI     R20, LOW(modegro)
   \   00000004   ....               LDI     R21, (modegro) >> 8
   \   00000006   ....               RJMP    __eeput8_16

   \                                 In  segment CODE, align 2, keep-with-next
   \                     ?Subroutine16:
   \   00000000   E000               LDI     R16, 0
   \   00000002   ....               LDI     R20, LOW(fmode)
   \   00000004   ....               LDI     R21, (fmode) >> 8
   \   00000006   ....               RJMP    __eeput8_16

   \                                 In  segment CODE, align 2, keep-with-next
   \                     ?Subroutine112:
   \   00000000   E70F               LDI     R16, 127
   \   00000002   E11A               LDI     R17, 26
   \   00000004   E026               LDI     R18, 6
   \   00000006   5001               SUBI    R16, 1
   \   00000008   4010               SBCI    R17, 0
   \   0000000A   4020               SBCI    R18, 0
   \   0000000C   F7E1               BRNE    $-6
   \   0000000E   C000               RJMP    $+2
   \   00000010   0000               NOP
   \   00000012   9508               RET

   \                                 In  segment CODE, align 2, keep-with-next
   \                     ?Subroutine117:
   \   00000000   9300....           STS     pultadr, R16
   \   00000004   9508               RET

   \                                 In  segment CODE, align 2, keep-with-next
   \                     ?Subroutine72:
   \   00000000   9100....           LDS     R16, on
   \   00000004   ....               RJMP    ?Subroutine121

   \                                 In  segment CODE, align 2, keep-with-next
   \                     ?Subroutine65:
   \   00000000   ....               LDI     R16, LOW(tm5)
   \   00000002   ....               LDI     R17, (tm5) >> 8
   \   00000004   ....               RJMP    TimerSet

   \                                 In  segment CODE, align 2, keep-with-next
   \                     ?Subroutine70:
   \   00000000   9100....           LDS     R16, ??mode
   \   00000004   ....               RJMP    ?Subroutine121

   \                                 In  segment CODE, align 2, keep-with-next
   \                     ?Subroutine66:
   \   00000000   ....               RCALL   ?Subroutine104
   \                     ??CrossCallReturnLabel_190:
   \   00000002                      REQUIRE ?Subroutine123
   \   00000002                      ;               // Fall through to label ?Subroutine123

   \                                 In  segment CODE, align 2, keep-with-next
   \                     ?Subroutine123:
   \   00000000   3001               CPI     R16, 1
   \   00000002   9508               RET

   \                                 In  segment CODE, align 2, keep-with-next
   \                     ?Subroutine104:
   \   00000000   ....               LDI     R20, LOW(modegro)
   \   00000002   ....               LDI     R21, (modegro) >> 8
   \   00000004   ....               RJMP    __eeget8_16

   \                                 In  segment CODE, align 2, keep-with-next
   \                     ?Subroutine49:
   \   00000000   ....               RCALL   TimerSet
   \   00000002                      REQUIRE ??Subroutine144_0
   \   00000002                      ;               // Fall through to label ??Subroutine144_0

   \                                 In  segment CODE, align 2, keep-with-next
   \                     ??Subroutine144_0:
   \   00000000   E644               LDI     R20, 100
   \   00000002   ....               RJMP    ?Subroutine116
    165          //***************************************************************************
    166          
    167          
    168          
    169          
    170          
    171          
    172          
    173          
    174          
    175          
    176          

   \                                 In  segment CODE, align 2, keep-with-next
    177          bool mute(int a)
   \                     mute:
    178          {
    179              static bool state=0;
    180              if (a==-1) 
   \   00000000   3F0F               CPI     R16, 255
   \   00000002   EF2F               LDI     R18, 255
   \   00000004   0712               CPC     R17, R18
   \   00000006   F449               BRNE    ??mute_0
    181              {
    182              if (state) { state=0; AC_OFF; }
   \   00000008   9100....           LDS     R16, ??state
   \   0000000C   2300               TST     R16
   \   0000000E   F011               BREQ    ??mute_1
   \   00000010   ....               RCALL   ?Subroutine20
   \                     ??CrossCallReturnLabel_34:
   \   00000012   C001               RJMP    ??CrossCallReturnLabel_18
    183              else {state=1; AC_ON;}
   \                     ??mute_1:
   \   00000014   ....               RCALL   ?Subroutine8
    184              p5;
   \                     ??CrossCallReturnLabel_18:
   \   00000016   ....               RCALL   ?Subroutine112
    185              }
   \                     ??CrossCallReturnLabel_207:
   \   00000018   C009               RJMP    ??CrossCallReturnLabel_19
    186              else
    187                if (a==0) { state=0; AC_OFF; }
   \                     ??mute_0:
   \   0000001A   2F20               MOV     R18, R16
   \   0000001C   2B21               OR      R18, R17
   \   0000001E   F411               BRNE    ??mute_2
   \   00000020   ....               RCALL   ?Subroutine20
   \                     ??CrossCallReturnLabel_35:
   \   00000022   C004               RJMP    ??CrossCallReturnLabel_19
    188                else
    189                if (a==1) {state=1; AC_ON;}
   \                     ??mute_2:
   \   00000024   3001               CPI     R16, 1
   \   00000026   4010               SBCI    R17, 0
   \   00000028   F409               BRNE    ??CrossCallReturnLabel_19
   \   0000002A   ....               RCALL   ?Subroutine8
    190              return state; 
   \                     ??CrossCallReturnLabel_19:
   \   0000002C   9100....           LDS     R16, ??state
   \   00000030   9508               RET
   \   00000032                      REQUIRE _A_PORTD
    191          }

   \                                 In  segment CODE, align 2, keep-with-next
   \                     ?Subroutine20:
   \   00000000   E000               LDI     R16, 0
   \   00000002   9300....           STS     ??state, R16
   \   00000006   9896               CBI     0x12, 0x06
   \   00000008   9508               RET

   \                                 In  segment CODE, align 2, keep-with-next
   \                     ?Subroutine8:
   \   00000000   E001               LDI     R16, 1
   \   00000002   9300....           STS     ??state, R16
   \   00000006   9A96               SBI     0x12, 0x06
   \   00000008   9508               RET

   \                                 In  segment NEAR_Z, align 1, keep-with-next
   \   00000000                      REQUIRE `?<Segment init: NEAR_Z>`
   \                     ??state:
   \   00000000                      DS8 1
    192          
    193          
    194          

   \                                 In  segment CODE, align 2, keep-with-next
    195          uchar getadr()//адреса  команд
   \                     getadr:
    196          {
   \   00000000   938A               ST      -Y, R24
    197            uchar adr=0;
   \   00000002   E080               LDI     R24, 0
    198            if (tekfunc==0) {adr=1; SET(PORTB,0);}//s1
   \   00000004   ....               RCALL   ?Subroutine75
   \                     ??CrossCallReturnLabel_101:
   \   00000006   2300               TST     R16
   \   00000008   F411               BRNE    ??getadr_0
   \   0000000A   E081               LDI     R24, 1
   \   0000000C   C030               RJMP    ??getadr_1
    199            if (tekfunc==1) {adr=5; SET(PORTB,1);}
   \                     ??getadr_0:
   \   0000000E   3001               CPI     R16, 1
   \   00000010   F411               BRNE    ??getadr_2
   \   00000012   E085               LDI     R24, 5
   \   00000014   C031               RJMP    ??getadr_3
    200            if (tekfunc==2) {adr=10;SET(PORTB,2);}
   \                     ??getadr_2:
   \   00000016   3002               CPI     R16, 2
   \   00000018   F411               BRNE    ??getadr_4
   \   0000001A   E08A               LDI     R24, 10
   \   0000001C   C032               RJMP    ??getadr_5
    201            if (tekfunc==3) {adr=15;SET(PORTB,3);}
   \                     ??getadr_4:
   \   0000001E   3003               CPI     R16, 3
   \   00000020   F411               BRNE    ??getadr_6
   \   00000022   E08F               LDI     R24, 15
   \   00000024   C033               RJMP    ??getadr_7
    202            if (tekfunc==4) {adr=20;SET(PORTB,4);}//s5 или ONтыл
   \                     ??getadr_6:
   \   00000026   3004               CPI     R16, 4
   \   00000028   F411               BRNE    ??getadr_8
   \   0000002A   E184               LDI     R24, 20
   \   0000002C   C03A               RJMP    ??getadr_9
    203            if (tekfunc==5) {adr=55;SET(PORTB,0);SET(PORTB,2);SET(PORTB,4);}//command return
   \                     ??getadr_8:
   \   0000002E   3005               CPI     R16, 5
   \   00000030   F411               BRNE    ??getadr_10
   \   00000032   E387               LDI     R24, 55
   \   00000034   C034               RJMP    ??getadr_11
    204            if (tekfunc==6) {adr=25;SET(PORTD,7);}//on standby
   \                     ??getadr_10:
   \   00000036   3006               CPI     R16, 6
   \   00000038   F411               BRNE    ??getadr_12
   \   0000003A   E189               LDI     R24, 25
   \   0000003C   C037               RJMP    ??getadr_13
    205            if (tekfunc==7) {adr=30;SET(PORTB,5);}//aoff
   \                     ??getadr_12:
   \   0000003E   3007               CPI     R16, 7
   \   00000040   F411               BRNE    ??getadr_14
   \   00000042   E18E               LDI     R24, 30
   \   00000044   C038               RJMP    ??getadr_15
    206            if (tekfunc==8) {adr=35;mute(1);}//mute
   \                     ??getadr_14:
   \   00000046   3008               CPI     R16, 8
   \   00000048   F411               BRNE    ??CrossCallReturnLabel_20
   \   0000004A   E283               LDI     R24, 35
   \   0000004C   ....               RCALL   ?Subroutine9
    207            if (tekfunc==9) {adr=40; }//select
   \                     ??CrossCallReturnLabel_20:
   \   0000004E   ....               RCALL   ?Subroutine75
   \                     ??CrossCallReturnLabel_102:
   \   00000050   3009               CPI     R16, 9
   \   00000052   F411               BRNE    ??getadr_16
   \   00000054   E288               LDI     R24, 40
   \   00000056   C041               RJMP    ??getadr_17
    208            if (tekfunc==10) {adr=45; }//громкость увеличить
   \                     ??getadr_16:
   \   00000058   300A               CPI     R16, 10
   \   0000005A   F411               BRNE    ??getadr_18
   \   0000005C   E28D               LDI     R24, 45
   \   0000005E   C03D               RJMP    ??getadr_17
    209            if (tekfunc==11) {adr=50; }//громкость уменьшить
   \                     ??getadr_18:
   \   00000060   300B               CPI     R16, 11
   \   00000062   F411               BRNE    ??getadr_19
   \   00000064   E382               LDI     R24, 50
   \   00000066   C039               RJMP    ??getadr_17
    210            
    211            //дублирование команд
    212             if (tekfunc==12) {adr=60; SET(PORTB,0);}//s1
   \                     ??getadr_19:
   \   00000068   300C               CPI     R16, 12
   \   0000006A   F419               BRNE    ??getadr_20
   \   0000006C   E38C               LDI     R24, 60
   \                     ??getadr_1:
   \   0000006E   9AC0               SBI     0x18, 0x00
   \   00000070   C034               RJMP    ??getadr_17
    213            if (tekfunc==13) {adr=65; SET(PORTB,1);}
   \                     ??getadr_20:
   \   00000072   300D               CPI     R16, 13
   \   00000074   F419               BRNE    ??getadr_21
   \   00000076   E481               LDI     R24, 65
   \                     ??getadr_3:
   \   00000078   9AC1               SBI     0x18, 0x01
   \   0000007A   C02F               RJMP    ??getadr_17
    214            if (tekfunc==14) {adr=70;SET(PORTB,2);}
   \                     ??getadr_21:
   \   0000007C   300E               CPI     R16, 14
   \   0000007E   F419               BRNE    ??getadr_22
   \   00000080   E486               LDI     R24, 70
   \                     ??getadr_5:
   \   00000082   9AC2               SBI     0x18, 0x02
   \   00000084   C02A               RJMP    ??getadr_17
    215            if (tekfunc==15) {adr=75;SET(PORTB,3);}
   \                     ??getadr_22:
   \   00000086   300F               CPI     R16, 15
   \   00000088   F419               BRNE    ??getadr_23
   \   0000008A   E48B               LDI     R24, 75
   \                     ??getadr_7:
   \   0000008C   9AC3               SBI     0x18, 0x03
   \   0000008E   C025               RJMP    ??getadr_17
    216            if (tekfunc==16) {adr=80;SET(PORTB,4);}//s5 или ONтыл
   \                     ??getadr_23:
   \   00000090   3100               CPI     R16, 16
   \   00000092   F411               BRNE    ??getadr_24
   \   00000094   E580               LDI     R24, 80
   \   00000096   C005               RJMP    ??getadr_9
    217            if (tekfunc==17) {adr=85;SET(PORTB,0);SET(PORTB,2);SET(PORTB,4);}//command return
   \                     ??getadr_24:
   \   00000098   3101               CPI     R16, 17
   \   0000009A   F429               BRNE    ??getadr_25
   \   0000009C   E585               LDI     R24, 85
   \                     ??getadr_11:
   \   0000009E   9AC0               SBI     0x18, 0x00
   \   000000A0   9AC2               SBI     0x18, 0x02
   \                     ??getadr_9:
   \   000000A2   9AC4               SBI     0x18, 0x04
   \   000000A4   C01A               RJMP    ??getadr_17
    218            if (tekfunc==18) {adr=90;SET(PORTD,7);}//on standby
   \                     ??getadr_25:
   \   000000A6   3102               CPI     R16, 18
   \   000000A8   F419               BRNE    ??getadr_26
   \   000000AA   E58A               LDI     R24, 90
   \                     ??getadr_13:
   \   000000AC   9A97               SBI     0x12, 0x07
   \   000000AE   C015               RJMP    ??getadr_17
    219            if (tekfunc==19) {adr=95;SET(PORTB,5);}//aoff
   \                     ??getadr_26:
   \   000000B0   3103               CPI     R16, 19
   \   000000B2   F419               BRNE    ??getadr_27
   \   000000B4   E58F               LDI     R24, 95
   \                     ??getadr_15:
   \   000000B6   9AC5               SBI     0x18, 0x05
   \   000000B8   C010               RJMP    ??getadr_17
    220            if (tekfunc==20) {adr=100;mute(1);}//mute
   \                     ??getadr_27:
   \   000000BA   3104               CPI     R16, 20
   \   000000BC   F411               BRNE    ??CrossCallReturnLabel_21
   \   000000BE   E684               LDI     R24, 100
   \   000000C0   ....               RCALL   ?Subroutine9
    221            if (tekfunc==21) {adr=105; }//select
   \                     ??CrossCallReturnLabel_21:
   \   000000C2   ....               RCALL   ?Subroutine75
   \                     ??CrossCallReturnLabel_103:
   \   000000C4   3105               CPI     R16, 21
   \   000000C6   F411               BRNE    ??getadr_28
   \   000000C8   E689               LDI     R24, 105
   \   000000CA   C007               RJMP    ??getadr_17
    222            if (tekfunc==22) {adr=110; }//громкость увеличить
   \                     ??getadr_28:
   \   000000CC   3106               CPI     R16, 22
   \   000000CE   F411               BRNE    ??getadr_29
   \   000000D0   E68E               LDI     R24, 110
   \   000000D2   C003               RJMP    ??getadr_17
    223            if (tekfunc==23) {adr=115; }//громкость уменьшить
   \                     ??getadr_29:
   \   000000D4   3107               CPI     R16, 23
   \   000000D6   F409               BRNE    ??getadr_17
   \   000000D8   E783               LDI     R24, 115
    224            return(adr);
   \                     ??getadr_17:
   \   000000DA   2F08               MOV     R16, R24
   \   000000DC   ....               RJMP    ?Subroutine120
   \   000000DE                      REQUIRE _A_PORTB
   \   000000DE                      REQUIRE _A_PORTD
    225          }

   \                                 In  segment CODE, align 2, keep-with-next
   \                     ?Subroutine9:
   \   00000000   E001               LDI     R16, 1
   \   00000002   ....               RJMP    ?Subroutine92

   \                                 In  segment CODE, align 2, keep-with-next
   \                     ?Subroutine92:
   \   00000000   E010               LDI     R17, 0
   \   00000002   ....               RJMP    mute

   \                                 In  segment CODE, align 2, keep-with-next
   \                     ?Subroutine75:
   \   00000000   9100....           LDS     R16, ??tekfunc
   \   00000004   9508               RET
    226          
    227          

   \                                 In  segment CODE, align 2, keep-with-next
    228          void pult() 
   \                     pult:
    229          {
    230             tON=1500; zader=1;timerzad=0; source(); p2;   //время включения АС при переключениях
   \   00000000   ED0C               LDI     R16, 220
   \   00000002   E015               LDI     R17, 5
   \   00000004   ....               LDI     R30, LOW(tON)
   \   00000006   ....               LDI     R31, (tON) >> 8
   \   00000008   ....               RCALL   ??Subroutine137_0
   \                     ??CrossCallReturnLabel_298:
   \   0000000A   ....               RCALL   ?Subroutine2
   \                     ??CrossCallReturnLabel_7:
   \   0000000C   ....               RJMP    ?Subroutine74
    231          }

   \                                 In  segment CODE, align 2, keep-with-next
   \                     ?Subroutine2:
   \   00000000   ....               RCALL   ?Subroutine105
   \                     ??CrossCallReturnLabel_318:
   \   00000002   E000               LDI     R16, 0
   \   00000004   ....               LDI     R30, LOW(timerzad)
   \   00000006   ....               LDI     R31, (timerzad) >> 8
   \   00000008   ....               RCALL   ?Subroutine93
   \                     ??CrossCallReturnLabel_149:
   \   0000000A   ....               RJMP    source

   \                                 In  segment CODE, align 2, keep-with-next
   \                     ?Subroutine105:
   \   00000000   E001               LDI     R16, 1
   \   00000002                      REQUIRE ??Subroutine140_0
   \   00000002                      ;               // Fall through to label ??Subroutine140_0

   \                                 In  segment CODE, align 2, keep-with-next
   \                     ??Subroutine140_0:
   \   00000000   9300....           STS     zader, R16
   \   00000004   9508               RET

   \                                 In  segment CODE, align 2, keep-with-next
   \                     ?Subroutine74:
   \   00000000   EF0F               LDI     R16, 255
   \   00000002   E710               LDI     R17, 112
   \   00000004   E022               LDI     R18, 2
   \   00000006   5001               SUBI    R16, 1
   \   00000008   4010               SBCI    R17, 0
   \   0000000A   4020               SBCI    R18, 0
   \   0000000C   F7E1               BRNE    $-6
   \   0000000E   C000               RJMP    $+2
   \   00000010   0000               NOP
   \   00000012   9508               RET
    232          
    233          
    234          

   \                                 In  segment CODE, align 2, keep-with-next
    235           void main_power()
   \                     main_power:
    236          {
    237          
    238           if ((keyON||pultadr==25 || pultadr==90) && on==1 && zader!=1) { rprintfStr("OFF>adr="); rprintfFloat(9, pultadr ); ent;
   \   00000000   9985               SBIC    0x10, 0x05
   \   00000002   C004               RJMP    ??main_power_0
   \   00000004   9B80               SBIS    0x10, 0x00
   \   00000006   C002               RJMP    ??main_power_0
   \   00000008   9981               SBIC    0x10, 0x01
   \   0000000A   C005               RJMP    ??main_power_1
   \                     ??main_power_0:
   \   0000000C   ....               RCALL   ?Subroutine76
   \                     ??CrossCallReturnLabel_107:
   \   0000000E   3109               CPI     R16, 25
   \   00000010   F011               BREQ    ??main_power_1
   \   00000012   350A               CPI     R16, 90
   \   00000014   F499               BRNE    ??CrossCallReturnLabel_310
   \                     ??main_power_1:
   \   00000016   ....               RCALL   ?Subroutine72
   \                     ??CrossCallReturnLabel_232:
   \   00000018   F089               BREQ    ??CrossCallReturnLabel_310
   \   0000001A   9100....           LDS     R16, zader
   \   0000001E   2300               TST     R16
   \   00000020   F469               BRNE    ??CrossCallReturnLabel_310
   \   00000022   ....               LDI     R16, LOW(`?<Constant "OFF>adr=">`)
   \   00000024   ....               LDI     R17, (`?<Constant "OFF>adr=">`) >> 8
   \   00000026   ....               RCALL   ?Subroutine21
    239                              on=0;onok=0; p5; zader=0;  til=0; gro1=0; gro2=0; pultadr=0;  }//OFF
   \                     ??CrossCallReturnLabel_36:
   \   00000028   ....               RCALL   ?Subroutine18
   \                     ??CrossCallReturnLabel_32:
   \   0000002A   ....               RCALL   ?Subroutine102
   \                     ??CrossCallReturnLabel_234:
   \   0000002C   ....               RCALL   ??Subroutine140_0
   \                     ??CrossCallReturnLabel_315:
   \   0000002E   9300....           STS     ??til, R16
   \   00000032   9300....           STS     ??gro1, R16
   \   00000036   9300....           STS     ??gro2, R16
   \   0000003A   ....               RCALL   ?Subroutine117
    240               if ((keyON||pultadr==25 || pultadr==90) && on==0) {rprintfStr("ON>adr="); rprintfFloat(9, pultadr ); ent;
   \                     ??CrossCallReturnLabel_310:
   \   0000003C   9985               SBIC    0x10, 0x05
   \   0000003E   C004               RJMP    ??main_power_2
   \   00000040   9B80               SBIS    0x10, 0x00
   \   00000042   C002               RJMP    ??main_power_2
   \   00000044   9981               SBIC    0x10, 0x01
   \   00000046   C005               RJMP    ??main_power_3
   \                     ??main_power_2:
   \   00000048   ....               RCALL   ?Subroutine76
   \                     ??CrossCallReturnLabel_108:
   \   0000004A   3109               CPI     R16, 25
   \   0000004C   F011               BREQ    ??main_power_3
   \   0000004E   350A               CPI     R16, 90
   \   00000050   F471               BRNE    ??CrossCallReturnLabel_313
   \                     ??main_power_3:
   \   00000052   ....               RCALL   ?Subroutine72
   \                     ??CrossCallReturnLabel_233:
   \   00000054   F461               BRNE    ??CrossCallReturnLabel_313
   \   00000056   ....               LDI     R16, LOW(`?<Constant "ON>adr=">`)
   \   00000058   ....               LDI     R17, (`?<Constant "ON>adr=">`) >> 8
   \   0000005A   ....               RCALL   ?Subroutine21
    241                              SET(PORTD,4); SET(PORTD,7);p5; on=1; mute(0); zader=1;timerzad=0;source();pultadr=0;  }//ON
   \                     ??CrossCallReturnLabel_37:
   \   0000005C   9A94               SBI     0x12, 0x04
   \   0000005E   9A97               SBI     0x12, 0x07
   \   00000060   ....               RCALL   ?Subroutine112
   \                     ??CrossCallReturnLabel_208:
   \   00000062   E001               LDI     R16, 1
   \   00000064   9300....           STS     on, R16
   \   00000068   ....               RCALL   ?Subroutine14
   \                     ??CrossCallReturnLabel_141:
   \   0000006A   ....               RCALL   ?Subroutine2
   \                     ??CrossCallReturnLabel_6:
   \   0000006C   ....               RCALL   ??Subroutine139_0
    242               
    243              //выключение
    244              if (on==0 && onok==0) { on=0; aoff=0; p5; zader=0; regaoff=0; mute(0); delay_s(1); tON=acon; 
   \                     ??CrossCallReturnLabel_313:
   \   0000006E   9100....           LDS     R16, on
   \   00000072   9110....           LDS     R17, onok
   \   00000076   2B01               OR      R16, R17
   \   00000078   F4B1               BRNE    ??main_power_4
   \   0000007A   E000               LDI     R16, 0
   \   0000007C   9300....           STS     on, R16
   \   00000080   ....               RCALL   ?Subroutine19
   \                     ??CrossCallReturnLabel_210:
   \   00000082   ....               RCALL   ?Subroutine92
   \                     ??CrossCallReturnLabel_144:
   \   00000084   ....               RCALL   ?Subroutine77
   \                     ??CrossCallReturnLabel_123:
   \   00000086   E200               LDI     R16, 32
   \   00000088   E41E               LDI     R17, 78
   \   0000008A   ....               LDI     R30, LOW(tON)
   \   0000008C   ....               LDI     R31, (tON) >> 8
   \   0000008E   ....               RCALL   ??Subroutine137_0
    245              			    PORTB=0; RES(PORTD,7);RES(PORTD,4); resOUT(); RES(PORTC,5); RES(PORTC,0);RES(PORTD,3); onok=1;
   \                     ??CrossCallReturnLabel_299:
   \   00000090   E000               LDI     R16, 0
   \   00000092   BB08               OUT     0x18, R16
   \   00000094   9897               CBI     0x12, 0x07
   \   00000096   9894               CBI     0x12, 0x04
   \   00000098   ....               RCALL   resOUT
   \   0000009A   98AD               CBI     0x15, 0x05
   \   0000009C   98A8               CBI     0x15, 0x00
   \   0000009E   9893               CBI     0x12, 0x03
   \   000000A0   E001               LDI     R16, 1
   \   000000A2   9300....           STS     onok, R16
    246                                    }
    247                                      
    248          }
   \                     ??main_power_4:
   \   000000A6   9508               RET
   \   000000A8                      REQUIRE _A_PIND
   \   000000A8                      REQUIRE _A_PORTD
   \   000000A8                      REQUIRE _A_PORTB
   \   000000A8                      REQUIRE _A_PORTC

   \                                 In  segment CODE, align 2, keep-with-next
   \                     ?Subroutine21:
   \   00000000   ....               RCALL   rprintfStr
   \   00000002   9100....           LDS     R16, pultadr
   \   00000006   ....               RCALL   ?Subroutine89
   \                     ??CrossCallReturnLabel_275:
   \   00000008   ....               RJMP    ?Subroutine100

   \                                 In  segment CODE, align 2, keep-with-next
   \                     ?Subroutine14:
   \   00000000   E000               LDI     R16, 0
   \   00000002                      REQUIRE ?Subroutine92
   \   00000002                      ;               // Fall through to label ?Subroutine92

   \                                 In  segment CODE, align 2, keep-with-next
   \                     ?Subroutine118:
   \   00000000   9300....           STS     ??regaoff, R16
   \   00000004   9508               RET

   \                                 In  segment CODE, align 2, keep-with-next
   \                     ?Subroutine76:
   \   00000000   9100....           LDS     R16, pultadr
   \   00000004   9508               RET

   \                                 In  segment CODE, align 2, keep-with-next
   \                     ?Subroutine102:
   \   00000000   ....               RCALL   ?Subroutine112
   \                     ??CrossCallReturnLabel_209:
   \   00000002                      REQUIRE ?Subroutine122
   \   00000002                      ;               // Fall through to label ?Subroutine122

   \                                 In  segment CODE, align 2, keep-with-next
   \                     ?Subroutine122:
   \   00000000   E000               LDI     R16, 0
   \   00000002   9508               RET

   \                                 In  segment CODE, align 2, keep-with-next
   \                     ?Subroutine19:
   \   00000000   9300....           STS     aoff, R16
   \   00000004   ....               RCALL   ?Subroutine102
   \                     ??CrossCallReturnLabel_236:
   \   00000006   ....               RCALL   ??Subroutine140_0
   \                     ??CrossCallReturnLabel_317:
   \   00000008   ....               RJMP    ?Subroutine118

   \                                 In  segment CODE, align 2, keep-with-next
   \                     ?Subroutine18:
   \   00000000   E000               LDI     R16, 0
   \   00000002   9300....           STS     on, R16
   \   00000006   9300....           STS     onok, R16
   \   0000000A   9508               RET

   \                                 In  segment CODE, align 2, keep-with-next
   \                     ??Subroutine139_0:
   \   00000000   E000               LDI     R16, 0
   \   00000002   ....               RJMP    ?Subroutine117

   \                                 In  segment CODE, align 2, keep-with-next
   \                     ?Subroutine77:
   \   00000000   EF0F               LDI     R16, 255
   \   00000002   E314               LDI     R17, 52
   \   00000004   E02C               LDI     R18, 12
   \   00000006   5001               SUBI    R16, 1
   \   00000008   4010               SBCI    R17, 0
   \   0000000A   4020               SBCI    R18, 0
   \   0000000C   F7E1               BRNE    $-6
   \   0000000E   C000               RJMP    $+2
   \   00000010   0000               NOP
   \   00000012   9508               RET
    249          

   \                                 In  segment CODE, align 2, keep-with-next
    250          void select(char ch)
   \                     select:
    251          {
   \   00000000   938A               ST      -Y, R24
   \   00000002   2F80               MOV     R24, R16
    252            if (sel!=ch)  { mute(0); lastsel=sel; sel=ch; pult(); } else   migINI(sel-1, 3 ,0); 
   \   00000004   ....               RCALL   ?Subroutine119
   \                     ??CrossCallReturnLabel_218:
   \   00000006   1708               CP      R16, R24
   \   00000008   F041               BREQ    ??select_0
   \   0000000A   ....               RCALL   ?Subroutine14
   \                     ??CrossCallReturnLabel_142:
   \   0000000C   ....               RCALL   ?Subroutine119
   \                     ??CrossCallReturnLabel_219:
   \   0000000E   9300....           STS     ??lastsel, R16
   \   00000012   9380....           STS     ??sel, R24
   \   00000016   ....               RCALL   pult
   \   00000018   C004               RJMP    ??select_1
   \                     ??select_0:
   \   0000001A   E020               LDI     R18, 0
   \   0000001C   E013               LDI     R17, 3
   \   0000001E   950A               DEC     R16
   \   00000020   ....               RCALL   migINI
    253          }
   \                     ??select_1:
   \   00000022                      REQUIRE ?Subroutine120
   \   00000022                      ;               // Fall through to label ?Subroutine120

   \                                 In  segment CODE, align 2, keep-with-next
   \                     ?Subroutine119:
   \   00000000   9100....           LDS     R16, ??sel
   \   00000004   9508               RET
    254          

   \                                 In  segment CODE, align 2, keep-with-next
    255          void main_logic()//-----------------------главная логика --------------------
   \                     main_logic:
    256          {   
    257           //  static uchar last_pultadr;
    258             migWORK();
   \   00000000   ....               RCALL   migWORK
    259             
    260             //if (pultadr==last_pultadr) {}
    261            
    262             if (pultadr!=0)
   \   00000002   ....               RCALL   ?Subroutine76
   \                     ??CrossCallReturnLabel_109:
   \   00000004   2300               TST     R16
   \   00000006   F409               BRNE    $+2+2
   \   00000008   C053               RJMP    ??main_logic_0
    263             {//если есть команда с пульта
    264               
    265                rprintfStr("normal>command find  adr=");
   \   0000000A   ....               LDI     R16, LOW(`?<Constant "normal>command find  ...">`)
   \   0000000C   ....               LDI     R17, (`?<Constant "normal>command find  ...">`) >> 8
   \   0000000E   ....               RCALL   rprintfStr
    266                rprintfFloat(6, pultadr ); ent;
   \   00000010   ....               RCALL   ?Subroutine76
   \                     ??CrossCallReturnLabel_110:
   \   00000012   ....               RCALL   ?Subroutine22
   \                     ??CrossCallReturnLabel_260:
   \   00000014   ....               RCALL   ?Subroutine127
    267               
    268               if (pultadr==1 || pultadr==60) select(1); 
   \                     ??CrossCallReturnLabel_251:
   \   00000016   ....               RCALL   ?Subroutine76
   \                     ??CrossCallReturnLabel_111:
   \   00000018   3001               CPI     R16, 1
   \   0000001A   F011               BREQ    ??main_logic_1
   \   0000001C   330C               CPI     R16, 60
   \   0000001E   F411               BRNE    ??main_logic_2
   \                     ??main_logic_1:
   \   00000020   E001               LDI     R16, 1
   \   00000022   ....               RCALL   select
    269               if (pultadr==5 || pultadr==65) select(2);
   \                     ??main_logic_2:
   \   00000024   ....               RCALL   ?Subroutine76
   \                     ??CrossCallReturnLabel_112:
   \   00000026   3005               CPI     R16, 5
   \   00000028   F011               BREQ    ??main_logic_3
   \   0000002A   3401               CPI     R16, 65
   \   0000002C   F411               BRNE    ??main_logic_4
   \                     ??main_logic_3:
   \   0000002E   E002               LDI     R16, 2
   \   00000030   ....               RCALL   select
    270               if (pultadr==10 || pultadr==70) select(3);
   \                     ??main_logic_4:
   \   00000032   ....               RCALL   ?Subroutine76
   \                     ??CrossCallReturnLabel_113:
   \   00000034   300A               CPI     R16, 10
   \   00000036   F011               BREQ    ??main_logic_5
   \   00000038   3406               CPI     R16, 70
   \   0000003A   F411               BRNE    ??main_logic_6
   \                     ??main_logic_5:
   \   0000003C   E003               LDI     R16, 3
   \   0000003E   ....               RCALL   select
    271               if (pultadr==15 || pultadr==75) select(4);
   \                     ??main_logic_6:
   \   00000040   ....               RCALL   ?Subroutine76
   \                     ??CrossCallReturnLabel_114:
   \   00000042   300F               CPI     R16, 15
   \   00000044   F011               BREQ    ??main_logic_7
   \   00000046   340B               CPI     R16, 75
   \   00000048   F411               BRNE    ??main_logic_8
   \                     ??main_logic_7:
   \   0000004A   E004               LDI     R16, 4
   \   0000004C   ....               RCALL   select
    272               if ((pultadr==20  || pultadr==80) && mode!=1) select(5);
   \                     ??main_logic_8:
   \   0000004E   ....               RCALL   ?Subroutine76
   \                     ??CrossCallReturnLabel_115:
   \   00000050   3104               CPI     R16, 20
   \   00000052   F011               BREQ    ??main_logic_9
   \   00000054   3500               CPI     R16, 80
   \   00000056   F439               BRNE    ??main_logic_10
   \                     ??main_logic_9:
   \   00000058   ....               RCALL   ?Subroutine71
   \                     ??CrossCallReturnLabel_241:
   \   0000005A   F011               BREQ    ??main_logic_11
   \   0000005C   E005               LDI     R16, 5
   \   0000005E   ....               RCALL   select
    273               
    274               
    275               //тыловые  ------------------------------------------------------
    276               if ((  pultadr==20  || pultadr==80) && mode==1) 
   \                     ??main_logic_11:
   \   00000060   ....               RCALL   ?Subroutine76
   \                     ??CrossCallReturnLabel_116:
   \   00000062   3104               CPI     R16, 20
   \   00000064   F019               BREQ    ??main_logic_12
   \                     ??main_logic_10:
   \   00000066   ....               RCALL   ?Subroutine76
   \                     ??CrossCallReturnLabel_117:
   \   00000068   3500               CPI     R16, 80
   \   0000006A   F511               BRNE    ??main_logic_0
   \                     ??main_logic_12:
   \   0000006C   ....               RCALL   ?Subroutine71
   \                     ??CrossCallReturnLabel_242:
   \   0000006E   F501               BRNE    ??main_logic_0
    277               {  
    278                   
    279                 if (til==0) { SET(PORTC,5);til=1;  
   \   00000070   9100....           LDS     R16, ??til
   \   00000074   2300               TST     R16
   \   00000076   F469               BRNE    ??main_logic_13
   \   00000078   9AAD               SBI     0x15, 0x05
   \   0000007A   E001               LDI     R16, 1
   \   0000007C   9300....           STS     ??til, R16
    280                         for (uchar i=0; i<2; i++) {SET(PORTB,4);p2;RES(PORTB,4);p2;}  SET(PORTB,4);  pultadr=0;  p1;}
   \   00000080   E002               LDI     R16, 2
   \                     ??main_logic_14:
   \   00000082   9AC4               SBI     0x18, 0x04
   \   00000084   ....               RCALL   ?Subroutine106
   \                     ??CrossCallReturnLabel_192:
   \   00000086   98C4               CBI     0x18, 0x04
   \   00000088   ....               RCALL   ?Subroutine80
   \                     ??CrossCallReturnLabel_125:
   \   0000008A   F7D9               BRNE    ??main_logic_14
   \   0000008C   9AC4               SBI     0x18, 0x04
   \   0000008E   E000               LDI     R16, 0
   \   00000090   C005               RJMP    ??main_logic_15
    281                 else 
    282                 if (til==1) {   RES(PORTC,5); RES(PORTB,4); til=0; pultadr=0; p1; }
   \                     ??main_logic_13:
   \   00000092   98AD               CBI     0x15, 0x05
   \   00000094   98C4               CBI     0x18, 0x04
   \   00000096   E000               LDI     R16, 0
   \   00000098   9300....           STS     ??til, R16
   \                     ??main_logic_15:
   \   0000009C   ....               RCALL   ?Subroutine117
   \                     ??CrossCallReturnLabel_311:
   \   0000009E   E70F               LDI     R16, 127
   \   000000A0   E318               LDI     R17, 56
   \   000000A2   E021               LDI     R18, 1
   \   000000A4   5001               SUBI    R16, 1
   \   000000A6   4010               SBCI    R17, 0
   \   000000A8   4020               SBCI    R18, 0
   \   000000AA   F7E1               BRNE    $-6
   \   000000AC   C000               RJMP    $+2
   \   000000AE   0000               NOP
    283               
    284               }
    285             }//если есть команда с пульта
    286             
    287            //--------------- mute -------------------
    288            //if (mute==1) AC_OFF; else { if (zader==0) AC_ON; }
    289            if (zader==1) {timerzad++;  if (timerzad> tON)  {zader=0;timerzad=0; mute(1);} }//задержка включения
   \                     ??main_logic_0:
   \   000000B0   9100....           LDS     R16, zader
   \   000000B4   2300               TST     R16
   \   000000B6   F0B1               BREQ    ??main_logic_16
   \   000000B8   ....               LDI     R30, LOW(timerzad)
   \   000000BA   ....               LDI     R31, (timerzad) >> 8
   \   000000BC   ....               RCALL   ?Subroutine97
   \                     ??CrossCallReturnLabel_162:
   \   000000BE   5F0F               SUBI    R16, 255
   \   000000C0   4F1F               SBCI    R17, 255
   \   000000C2   ....               RCALL   ??Subroutine137_0
   \                     ??CrossCallReturnLabel_300:
   \   000000C4   ....               LDI     R30, LOW(tON)
   \   000000C6   ....               LDI     R31, (tON) >> 8
   \   000000C8   ....               RCALL   ?Subroutine97
   \                     ??CrossCallReturnLabel_163:
   \   000000CA   ....               LDI     R30, LOW(timerzad)
   \   000000CC   ....               LDI     R31, (timerzad) >> 8
   \   000000CE   ....               RCALL   ?Subroutine62
   \                     ??CrossCallReturnLabel_91:
   \   000000D0   1702               CP      R16, R18
   \   000000D2   0713               CPC     R17, R19
   \   000000D4   F438               BRCC    ??main_logic_16
   \   000000D6   E000               LDI     R16, 0
   \   000000D8   ....               RCALL   ??Subroutine140_0
   \                     ??CrossCallReturnLabel_316:
   \   000000DA   E010               LDI     R17, 0
   \   000000DC   8310               ST      Z, R17
   \   000000DE   8311               STD     Z+1, R17
   \   000000E0   E001               LDI     R16, 1
   \   000000E2   ....               RCALL   mute
    290            
    291            if (keyMUTE ||pultadr==35 || pultadr==100)  
   \                     ??main_logic_16:
   \   000000E4   9981               SBIC    0x10, 0x01
   \   000000E6   C002               RJMP    ??main_logic_17
   \   000000E8   9B85               SBIS    0x10, 0x05
   \   000000EA   C005               RJMP    ??main_logic_18
   \                     ??main_logic_17:
   \   000000EC   ....               RCALL   ?Subroutine76
   \                     ??CrossCallReturnLabel_118:
   \   000000EE   3203               CPI     R16, 35
   \   000000F0   F011               BREQ    ??main_logic_18
   \   000000F2   3604               CPI     R16, 100
   \   000000F4   F419               BRNE    ??main_logic_19
    292            {
    293              mute(-1); //инверсия состояния
   \                     ??main_logic_18:
   \   000000F6   EF0F               LDI     R16, 255
   \   000000F8   EF1F               LDI     R17, 255
   \   000000FA   ....               RCALL   mute
    294            }
    295             
    296             
    297            
    298             //--------------- ГРОМКОСТЬ -------------------
    299             if (pultadr==45 || pultadr==110) {  /* gro(1); p5;*/  pultadr=0; TimerSet(&tm4,100);}  
   \                     ??main_logic_19:
   \   000000FC   ....               RCALL   ?Subroutine76
   \                     ??CrossCallReturnLabel_119:
   \   000000FE   320D               CPI     R16, 45
   \   00000100   F011               BREQ    ??main_logic_20
   \   00000102   360E               CPI     R16, 110
   \   00000104   F421               BRNE    ??main_logic_21
   \                     ??main_logic_20:
   \   00000106   ....               RCALL   ?Subroutine12
   \                     ??CrossCallReturnLabel_340:
   \   00000108   ....               LDI     R16, LOW(tm4)
   \   0000010A   ....               LDI     R17, (tm4) >> 8
   \   0000010C   ....               RCALL   TimerSet
    300             if (pultadr==50 || pultadr==115) {/* gro(2); p5; */ pultadr=0; TimerSet(&tm5,100);}  
   \                     ??main_logic_21:
   \   0000010E   ....               RCALL   ?Subroutine76
   \                     ??CrossCallReturnLabel_120:
   \   00000110   3302               CPI     R16, 50
   \   00000112   F011               BREQ    ??main_logic_22
   \   00000114   3703               CPI     R16, 115
   \   00000116   F411               BRNE    ??CrossCallReturnLabel_96
   \                     ??main_logic_22:
   \   00000118   ....               RCALL   ?Subroutine12
   \                     ??CrossCallReturnLabel_341:
   \   0000011A   ....               RCALL   ?Subroutine65
    301             
    302             if (!tm4.out) SET(PORTB,3); else  RES(PORTB,3);
   \                     ??CrossCallReturnLabel_96:
   \   0000011C   9100....           LDS     R16, (tm4 + 8)
   \   00000120   2300               TST     R16
   \   00000122   F411               BRNE    ??main_logic_23
   \   00000124   9AC3               SBI     0x18, 0x03
   \   00000126   C001               RJMP    ??main_logic_24
   \                     ??main_logic_23:
   \   00000128   98C3               CBI     0x18, 0x03
    303             if (!tm5.out) SET(PORTB,2); else  RES(PORTB,2); 
   \                     ??main_logic_24:
   \   0000012A   9100....           LDS     R16, (tm5 + 8)
   \   0000012E   2300               TST     R16
   \   00000130   F411               BRNE    ??main_logic_25
   \   00000132   9AC2               SBI     0x18, 0x02
   \   00000134   C001               RJMP    ??main_logic_26
   \                     ??main_logic_25:
   \   00000136   98C2               CBI     0x18, 0x02
    304                                    
    305            
    306             
    307            //--------------- aoff --------------------
    308          
    309             if (keyAOFF || pultadr==30 || pultadr==95) 
   \                     ??main_logic_26:
   \   00000138   9980               SBIC    0x10, 0x00
   \   0000013A   C002               RJMP    ??main_logic_27
   \   0000013C   9B85               SBIS    0x10, 0x05
   \   0000013E   C005               RJMP    ??main_logic_28
   \                     ??main_logic_27:
   \   00000140   ....               RCALL   ?Subroutine76
   \                     ??CrossCallReturnLabel_121:
   \   00000142   310E               CPI     R16, 30
   \   00000144   F011               BREQ    ??main_logic_28
   \   00000146   350F               CPI     R16, 95
   \   00000148   F5B9               BRNE    ??main_logic_29
    310             {
    311          
    312               
    313            if ( aoff==1 && regaoff>=3)  {  RES(PORTB,5);  p5; aoff=0; regaoff=0; pultadr=0;   }//отмена aoff 
   \                     ??main_logic_28:
   \   0000014A   9100....           LDS     R16, aoff
   \   0000014E   2300               TST     R16
   \   00000150   F059               BREQ    ??main_logic_30
   \   00000152   9100....           LDS     R16, ??regaoff
   \   00000156   3003               CPI     R16, 3
   \   00000158   F038               BRCS    ??main_logic_30
   \   0000015A   98C5               CBI     0x18, 0x05
   \   0000015C   ....               RCALL   ?Subroutine102
   \                     ??CrossCallReturnLabel_235:
   \   0000015E   9300....           STS     aoff, R16
   \   00000162   ....               RCALL   ?Subroutine118
   \                     ??CrossCallReturnLabel_212:
   \   00000164   ....               RCALL   ?Subroutine117
   \                     ??CrossCallReturnLabel_312:
   \   00000166   C028               RJMP    ??main_logic_29
    314            else
    315            if ( regaoff==0) { aoff=1; regaoff++; 
   \                     ??main_logic_30:
   \   00000168   9100....           LDS     R16, ??regaoff
   \   0000016C   2300               TST     R16
   \   0000016E   F441               BRNE    ??main_logic_31
   \   00000170   ....               RCALL   ?Subroutine7
   \                     ??CrossCallReturnLabel_15:
   \   00000172   ....               RCALL   ?Subroutine118
    316                           TimerSet(&tm1, 120000)/*2 часа*/; 
   \                     ??CrossCallReturnLabel_213:
   \   00000174   EC40               LDI     R20, 192
   \   00000176   ED54               LDI     R21, 212
   \   00000178   E061               LDI     R22, 1
   \   0000017A   ....               RCALL   ??Subroutine138_0
    317          
    318                        pultadr=0; 
    319                            
    320                           for (uchar i=0; i<3; i++)  {SET(PORTB,5);p2;RES(PORTB,5);p2;}  SET(PORTB,5); 
   \                     ??CrossCallReturnLabel_308:
   \   0000017C   E003               LDI     R16, 3
   \   0000017E   C009               RJMP    ??main_logic_32
    321                            }
    322            else
    323            if (regaoff==1) { aoff=1; regaoff++; 
   \                     ??main_logic_31:
   \   00000180   3001               CPI     R16, 1
   \   00000182   F469               BRNE    ??main_logic_33
   \   00000184   ....               RCALL   ?Subroutine7
   \                     ??CrossCallReturnLabel_16:
   \   00000186   E002               LDI     R16, 2
   \   00000188   ....               RCALL   ?Subroutine118
    324            TimerSet(&tm1, 60000)/*1 часа*/; 
   \                     ??CrossCallReturnLabel_214:
   \   0000018A   E640               LDI     R20, 96
   \   0000018C   EE5A               LDI     R21, 234
   \   0000018E   ....               RCALL   ?Subroutine13
    325            pultadr=0; for (uchar i=0; i<2; i++)  {SET(PORTB,5);p2;RES(PORTB,5);p2;}  SET(PORTB,5); }
   \                     ??CrossCallReturnLabel_306:
   \   00000190   E002               LDI     R16, 2
   \                     ??main_logic_32:
   \   00000192   9AC5               SBI     0x18, 0x05
   \   00000194   ....               RCALL   ?Subroutine106
   \                     ??CrossCallReturnLabel_193:
   \   00000196   98C5               CBI     0x18, 0x05
   \   00000198   ....               RCALL   ?Subroutine80
   \                     ??CrossCallReturnLabel_126:
   \   0000019A   F7D9               BRNE    ??main_logic_32
   \   0000019C   C00C               RJMP    ??CrossCallReturnLabel_99
    326            else
    327            if (regaoff==2) { aoff=1; regaoff++;
   \                     ??main_logic_33:
   \   0000019E   3002               CPI     R16, 2
   \   000001A0   F459               BRNE    ??main_logic_29
   \   000001A2   ....               RCALL   ?Subroutine7
   \                     ??CrossCallReturnLabel_17:
   \   000001A4   E003               LDI     R16, 3
   \   000001A6   ....               RCALL   ?Subroutine118
    328            TimerSet(&tm1, 30000)/*0.5 часа*/; 
   \                     ??CrossCallReturnLabel_215:
   \   000001A8   E340               LDI     R20, 48
   \   000001AA   E755               LDI     R21, 117
   \   000001AC   ....               RCALL   ?Subroutine13
    329            pultadr=0; for (uchar i=0; i<1; i++)  {SET(PORTB,5);p2;RES(PORTB,5);p2;}  SET(PORTB,5); }
   \                     ??CrossCallReturnLabel_307:
   \   000001AE   9AC5               SBI     0x18, 0x05
   \   000001B0   ....               RCALL   ?Subroutine74
   \                     ??CrossCallReturnLabel_98:
   \   000001B2   98C5               CBI     0x18, 0x05
   \   000001B4   ....               RCALL   ?Subroutine74
   \                     ??CrossCallReturnLabel_99:
   \   000001B6   9AC5               SBI     0x18, 0x05
    330            
    331             }
    332          
    333             
    334           //  if ((keyAOFF || pultadr==30 || pultadr==95) && aoff==0) 
    335           //     {   aoff=1;  iniT1(60*60*2)/*2 часа*/; pultadr=0;
    336           //         for (uchar i=0; i<2; i++)  {SET(PORTB,5);p2;RES(PORTB,5);p2;}  SET(PORTB,5);
    337            //   
    338            //        
    339           //         for (uint i=0; i<1000; i++)
    340           //         {   char rez=du_main(0);  if (rez==1) { pultadr=analizCOD();break; }}
    341           //         
    342            //    //если user продолжает удерживать
    343            //    if ((keyAOFF || pultadr==30 || pultadr==95) ) { iniT1(60*30);/*30 мин*/
    344           //      for (uchar i=0; i<4; i++)  {SET(PORTB,5);p2;p2;p2;p2;p2;RES(PORTB,5);p2;}  SET(PORTB,5);
    345            //                                    }
    346            //    
    347             //   }
    348                                                                  
    349             
    350            
    351           
    352            if (aoff==1)  {   TimerTick(&tm1); if (tm1.out) { on=0; onok=0;  aoff=0; p5; zader=0; regaoff=0;}
   \                     ??main_logic_29:
   \   000001B8   9100....           LDS     R16, aoff
   \   000001BC   2300               TST     R16
   \   000001BE   F049               BREQ    ??CrossCallReturnLabel_211
   \   000001C0   ....               LDI     R16, LOW(tm1)
   \   000001C2   ....               LDI     R17, (tm1) >> 8
   \   000001C4   ....               RCALL   TimerTick
   \   000001C6   9100....           LDS     R16, (tm1 + 8)
   \   000001CA   2300               TST     R16
   \   000001CC   F011               BREQ    ??CrossCallReturnLabel_211
   \   000001CE   ....               RCALL   ?Subroutine18
   \                     ??CrossCallReturnLabel_33:
   \   000001D0   ....               RCALL   ?Subroutine19
    353                          } 
    354                          
    355           //--------------- select -------------------
    356                          if ( u!=1) {//что бы во время работы UART не срабатывал
   \                     ??CrossCallReturnLabel_211:
   \   000001D2   9100....           LDS     R16, ??u
   \   000001D6   2300               TST     R16
   \   000001D8   F5D1               BRNE    ??main_logic_34
    357             uchar kol;  if  (mode==1) kol=4; else kol=5;
   \   000001DA   ....               RCALL   ?Subroutine71
   \                     ??CrossCallReturnLabel_243:
   \   000001DC   F411               BRNE    ??main_logic_35
   \   000001DE   E004               LDI     R16, 4
   \   000001E0   C001               RJMP    ??main_logic_36
   \                     ??main_logic_35:
   \   000001E2   E005               LDI     R16, 5
    358             if (keySEL ||pultadr==40 || pultadr==105) 
   \                     ??main_logic_36:
   \   000001E4   9981               SBIC    0x10, 0x01
   \   000001E6   C002               RJMP    ??main_logic_37
   \   000001E8   9985               SBIC    0x10, 0x05
   \   000001EA   C006               RJMP    ??main_logic_38
   \                     ??main_logic_37:
   \   000001EC   9110....           LDS     R17, pultadr
   \   000001F0   3218               CPI     R17, 40
   \   000001F2   F011               BREQ    ??main_logic_38
   \   000001F4   3619               CPI     R17, 105
   \   000001F6   F4B9               BRNE    ??main_logic_39
    359                          { 
    360                                  if (sel<=(kol-1)) { mute(0); p2; RES(PORTB,(sel-1));lastsel=sel; sel++; pult(); } 
   \                     ??main_logic_38:
   \   000001F8   950A               DEC     R16
   \   000001FA   9110....           LDS     R17, ??sel
   \   000001FE   1701               CP      R16, R17
   \   00000200   E000               LDI     R16, 0
   \   00000202   E010               LDI     R17, 0
   \   00000204   F038               BRCS    ??main_logic_40
   \   00000206   ....               RCALL   mute
   \   00000208   ....               RCALL   ?Subroutine74
   \                     ??CrossCallReturnLabel_100:
   \   0000020A   ....               RCALL   ?Subroutine3
   \                     ??CrossCallReturnLabel_216:
   \   0000020C   9300....           STS     ??lastsel, R16
   \   00000210   9503               INC     R16
   \   00000212   C006               RJMP    ??main_logic_41
    361                                 else {  mute(0);  RES(PORTB,(sel-1)); sel=1; pult(); }
   \                     ??main_logic_40:
   \   00000214   ....               RCALL   mute
   \   00000216   9140....           LDS     R20, ??sel
   \   0000021A   954A               DEC     R20
   \   0000021C   ....               RCALL   ?Subroutine87
   \                     ??CrossCallReturnLabel_247:
   \   0000021E   E001               LDI     R16, 1
   \                     ??main_logic_41:
   \   00000220   9300....           STS     ??sel, R16
   \   00000224   ....               RCALL   pult
    362                        
    363                          }
    364                                   
    365            //--------------- return sel -------------------  возврат в предыдущий source                 
    366             if ( pultadr==55 || pultadr==85) {
   \                     ??main_logic_39:
   \   00000226   ....               RCALL   ?Subroutine76
   \                     ??CrossCallReturnLabel_122:
   \   00000228   3307               CPI     R16, 55
   \   0000022A   F011               BREQ    ??main_logic_42
   \   0000022C   3505               CPI     R16, 85
   \   0000022E   F479               BRNE    ??main_logic_34
    367               
    368               if (sel!=lastsel) {
   \                     ??main_logic_42:
   \   00000230   ....               RCALL   ?Subroutine119
   \                     ??CrossCallReturnLabel_220:
   \   00000232   9110....           LDS     R17, ??lastsel
   \   00000236   1701               CP      R16, R17
   \   00000238   F051               BREQ    ??main_logic_34
    369                 mute(0);  RES(PORTB,(sel-1)); uchar tmp1=sel; sel=lastsel;  lastsel=tmp1; pultadr=0;  pult();
   \   0000023A   ....               RCALL   ?Subroutine14
   \                     ??CrossCallReturnLabel_143:
   \   0000023C   ....               RCALL   ?Subroutine3
   \                     ??CrossCallReturnLabel_217:
   \   0000023E   9110....           LDS     R17, ??lastsel
   \   00000242   9310....           STS     ??sel, R17
   \   00000246   9300....           STS     ??lastsel, R16
   \   0000024A   ....               RCALL   ??Subroutine139_0
   \                     ??CrossCallReturnLabel_314:
   \   0000024C   ....               RCALL   pult
    370               }
    371                                                }
    372                        
    373                                    }//что бы во время работы UART не срабатывал
    374                                     
    375                                    
    376                           
    377          
    378                                    
    379           //  last_pultadr=pultadr;
    380             
    381          }
   \                     ??main_logic_34:
   \   0000024E   9508               RET
   \   00000250                      REQUIRE _A_PORTC
   \   00000250                      REQUIRE _A_PORTB
   \   00000250                      REQUIRE _A_PIND

   \                                 In  segment CODE, align 2, keep-with-next
   \                     ?Subroutine106:
   \   00000000   EF4F               LDI     R20, 255
   \   00000002   E750               LDI     R21, 112
   \   00000004   E062               LDI     R22, 2
   \   00000006   5041               SUBI    R20, 1
   \   00000008   4050               SBCI    R21, 0
   \   0000000A   4060               SBCI    R22, 0
   \   0000000C   F7E1               BRNE    $-6
   \   0000000E   C000               RJMP    $+2
   \   00000010   0000               NOP
   \   00000012   9508               RET

   \                                 In  segment CODE, align 2, keep-with-next
   \                     ?Subroutine80:
   \   00000000   ....               RCALL   ?Subroutine106
   \                     ??CrossCallReturnLabel_194:
   \   00000002   950A               DEC     R16
   \   00000004   9508               RET

   \                                 In  segment CODE, align 2, keep-with-next
   \                     ?Subroutine13:
   \   00000000   E060               LDI     R22, 0
   \   00000002                      REQUIRE ??Subroutine138_0
   \   00000002                      ;               // Fall through to label ??Subroutine138_0

   \                                 In  segment CODE, align 2, keep-with-next
   \                     ??Subroutine138_0:
   \   00000000   E070               LDI     R23, 0
   \   00000002   ....               LDI     R16, LOW(tm1)
   \   00000004   ....               LDI     R17, (tm1) >> 8
   \   00000006   ....               RCALL   TimerSet
   \   00000008                      REQUIRE ??Subroutine139_0
   \   00000008                      ;               // Fall through to label ??Subroutine139_0

   \                                 In  segment CODE, align 2, keep-with-next
   \                     ?Subroutine12:
   \   00000000   E000               LDI     R16, 0
   \   00000002   9300....           STS     pultadr, R16
   \   00000006   E644               LDI     R20, 100
   \   00000008                      REQUIRE ?Subroutine116
   \   00000008                      ;               // Fall through to label ?Subroutine116

   \                                 In  segment CODE, align 2, keep-with-next
   \                     ?Subroutine7:
   \   00000000   E001               LDI     R16, 1
   \   00000002   9300....           STS     aoff, R16
   \   00000006   9508               RET

   \                                 In  segment CODE, align 2, keep-with-next
   \                     ?Subroutine3:
   \   00000000   9140....           LDS     R20, ??sel
   \   00000004   954A               DEC     R20
   \   00000006   ....               RCALL   ?Subroutine87
   \                     ??CrossCallReturnLabel_249:
   \   00000008   ....               RJMP    ?Subroutine119

   \                                 In  segment CODE, align 2, keep-with-next
   \                     ?Subroutine71:
   \   00000000   9100....           LDS     R16, ??mode
   \   00000004   ....               RJMP    ?Subroutine123

   \                                 In  segment CODE, align 2, keep-with-next
   \                     ?Subroutine124:
   \   00000000   BB18               OUT     0x18, R17
   \   00000002   9508               RET

   \                                 In  segment CODE, align 2, keep-with-next
   \                     ?Subroutine87:
   \   00000000   ....               RCALL   ?Subroutine109
   \                     ??CrossCallReturnLabel_204:
   \   00000002   9500               COM     R16
   \   00000004   B318               IN      R17, 0x18
   \   00000006   2310               AND     R17, R16
   \   00000008   ....               RJMP    ?Subroutine124
    382           //------------------------------------------
    383          

   \                                 In  segment CODE, align 2, keep-with-next
    384          void source2(char p)
   \                     source2:
    385          {
   \   00000000   938A               ST      -Y, R24
   \   00000002   2F80               MOV     R24, R16
    386              resOUT(); resled(); SET(PORTC,p);
   \   00000004   ....               RCALL   resOUT
   \   00000006   ....               RCALL   resled
   \   00000008   2F48               MOV     R20, R24
   \   0000000A   ....               RCALL   ?Subroutine109
   \                     ??CrossCallReturnLabel_199:
   \   0000000C   B315               IN      R17, 0x15
   \   0000000E   2B10               OR      R17, R16
   \   00000010   BB15               OUT     0x15, R17
    387          }
   \   00000012   ....               RJMP    ?Subroutine120
   \   00000014                      REQUIRE _A_PORTC
    388          

   \                                 In  segment CODE, align 2, keep-with-next
    389          void source()
   \                     source:
    390          {  
    391            if (sel>0 && sel<5) source2((char) sel);
   \   00000000   ....               RCALL   ?Subroutine119
   \                     ??CrossCallReturnLabel_221:
   \   00000002   2300               TST     R16
   \   00000004   F051               BREQ    ??source_0
   \   00000006   3005               CPI     R16, 5
   \   00000008   F408               BRCC    ??source_1
   \   0000000A   ....               RCALL   source2
    392            //if (sel==1){ resOUT(); resled(); SET(PORTC,1);}
    393            //if (sel==2){ resOUT(); resled(); SET(PORTC,2);}
    394            //if (sel==3){ resOUT(); resled(); SET(PORTC,3);}
    395            //if (sel==4){ resOUT(); resled();SET(PORTC,4);}
    396            if (sel==5 && mode==0 ){ source2((char) sel);}
   \                     ??source_1:
   \   0000000C   ....               RCALL   ?Subroutine119
   \                     ??CrossCallReturnLabel_222:
   \   0000000E   3005               CPI     R16, 5
   \   00000010   F421               BRNE    ??source_0
   \   00000012   ....               RCALL   ?Subroutine70
   \                     ??CrossCallReturnLabel_228:
   \   00000014   F411               BRNE    ??source_0
   \   00000016   E005               LDI     R16, 5
   \   00000018   ....               RCALL   source2
    397            
    398            //if (mute(100)!=1 )
    399             //if (mute(100)!=1 ) mute(1);// /*if (zader==0)  */AC_ON;//вкл АС
    400          
    401             //------------------------------------------------------------------------------
    402             migINI(sel-1, 5 ,0); 
   \                     ??source_0:
   \   0000001A   E020               LDI     R18, 0
   \   0000001C   E015               LDI     R17, 5
   \   0000001E   ....               RCALL   ?Subroutine119
   \                     ??CrossCallReturnLabel_223:
   \   00000020   950A               DEC     R16
   \   00000022   ....               RCALL   migINI
    403             zader=1;
   \   00000024                      REQUIRE ?Subroutine105
   \   00000024                      ;               // Fall through to label ?Subroutine105
    404           
    405          }
    406          
    407          
    408          
    409          
    410          
    411          
    412          
    413          
    414          
    415          
    416          
    417          
    418          

   \                                 In  segment CODE, align 2, keep-with-next
    419          bool proverka(uchar adr)//защита от дублирования функции на кнопке
   \                     proverka:
    420          { 
   \   00000000   2F70               MOV     R23, R16
    421             for (uchar i=0; i<adr; i++)
   \   00000002   E060               LDI     R22, 0
   \   00000004   C001               RJMP    ??proverka_0
   \                     ??proverka_1:
   \   00000006   9563               INC     R22
   \                     ??proverka_0:
   \   00000008   1767               CP      R22, R23
   \   0000000A   F450               BRCC    ??proverka_2
    422             {
    423               if (k[i]==cod1)
   \   0000000C   E002               LDI     R16, 2
   \   0000000E   9F60               MUL     R22, R16
   \   00000010   ....               RCALL   ?Subroutine82
   \                     ??CrossCallReturnLabel_127:
   \   00000012   ....               RCALL   ?Subroutine39
   \                     ??CrossCallReturnLabel_195:
   \   00000014   F7C1               BRNE    ??proverka_1
    424                 if (k[i+1]==cod2)
   \   00000016   ....               RCALL   ?Subroutine42
   \                     ??CrossCallReturnLabel_52:
   \   00000018   F7B1               BRNE    ??proverka_1
    425                   if (k[i+2]==cod3) return 0;
   \   0000001A   ....               RCALL   ?Subroutine44
   \                     ??CrossCallReturnLabel_54:
   \   0000001C   F7A1               BRNE    ??proverka_1
   \   0000001E   ....               RJMP    ?Subroutine122
    426             }
    427          
    428             return 1;
   \                     ??proverka_2:
   \   00000020   E001               LDI     R16, 1
   \   00000022   9508               RET
    429          }

   \                                 In  segment CODE, align 2, keep-with-next
   \                     ?Subroutine82:
   \   00000000   ....               LDI     R18, LOW(k)
   \   00000002   ....               LDI     R19, (k) >> 8
   \   00000004   0D20               ADD     R18, R0
   \   00000006   1D31               ADC     R19, R1
   \   00000008   9508               RET

   \                                 In  segment CODE, align 2, keep-with-next
   \                     ?Subroutine44:
   \   00000000   5F2C               SUBI    R18, 252
   \   00000002   4F3F               SBCI    R19, 255
   \   00000004   01A9               MOVW    R21:R20, R19:R18
   \   00000006   ....               RCALL   __eeget16_16
   \   00000008   ....               LDI     R30, LOW(cod3)
   \   0000000A   ....               LDI     R31, (cod3) >> 8
   \   0000000C   8120               LD      R18, Z
   \   0000000E   8131               LDD     R19, Z+1
   \   00000010   1702               CP      R16, R18
   \   00000012   0713               CPC     R17, R19
   \   00000014   9508               RET

   \                                 In  segment CODE, align 2, keep-with-next
   \                     ?Subroutine42:
   \   00000000   01A9               MOVW    R21:R20, R19:R18
   \   00000002   5F4E               SUBI    R20, 254
   \   00000004   4F5F               SBCI    R21, 255
   \   00000006   ....               RCALL   __eeget16_16
   \   00000008   ....               LDI     R30, LOW(cod2)
   \   0000000A   ....               LDI     R31, (cod2) >> 8
   \   0000000C   ....               RJMP    ?Subroutine107

   \                                 In  segment CODE, align 2, keep-with-next
   \                     ?Subroutine39:
   \   00000000   01A9               MOVW    R21:R20, R19:R18
   \   00000002   ....               RCALL   __eeget16_16
   \   00000004   ....               RCALL   ?Subroutine101
   \                     ??CrossCallReturnLabel_189:
   \   00000006                      REQUIRE ?Subroutine107
   \   00000006                      ;               // Fall through to label ?Subroutine107

   \                                 In  segment CODE, align 2, keep-with-next
   \                     ?Subroutine107:
   \   00000000   8140               LD      R20, Z
   \   00000002   8151               LDD     R21, Z+1
   \   00000004   1704               CP      R16, R20
   \   00000006   0715               CPC     R17, R21
   \   00000008   9508               RET
    430          
    431          

   \                                 In  segment CODE, align 2, keep-with-next
    432          void programming (uchar rez)
   \                     programming:
    433          {  
   \   00000000   938A               ST      -Y, R24
   \   00000002   2F80               MOV     R24, R16
    434            uchar adr;
                         ^
Warning[Pe550]: variable "adr" was set but never used
    435             if (tekfunc==255) return;
   \   00000004   ....               RCALL   ?Subroutine75
   \                     ??CrossCallReturnLabel_104:
   \   00000006   3F0F               CPI     R16, 255
   \   00000008   F119               BREQ    ??CrossCallReturnLabel_9
    436             if (!get)  { adr=getadr(); get=1; }//получаем адрес и зажигаем программируемую функцию
   \   0000000A   9100....           LDS     R16, ??get
   \   0000000E   2300               TST     R16
   \   00000010   F421               BRNE    ??programming_0
   \   00000012   ....               RCALL   getadr
   \   00000014   E001               LDI     R16, 1
   \   00000016   9300....           STS     ??get, R16
    437             if (rez==1)
   \                     ??programming_0:
   \   0000001A   3081               CPI     R24, 1
   \   0000001C   F4C9               BRNE    ??CrossCallReturnLabel_9
    438             {
    439               if (true/*proverka(adr)*/) 
    440               {
    441                   writeCOD();
   \   0000001E   ....               RCALL   writeCOD
    442                   led_all(1); delay_s(1); led_all(0); 
   \   00000020   ....               RCALL   ?Subroutine4
   \                     ??CrossCallReturnLabel_11:
   \   00000022   ....               RCALL   ?Subroutine77
   \                     ??CrossCallReturnLabel_124:
   \   00000024   ....               RCALL   ?Subroutine15
    443                          
    444                   tekfunc++;  get=0;
   \                     ??CrossCallReturnLabel_26:
   \   00000026   ....               RCALL   ?Subroutine35
   \                     ??CrossCallReturnLabel_289:
   \   00000028   E000               LDI     R16, 0
   \   0000002A   9300....           STS     ??get, R16
    445                   if (tekfunc==12) {  for (uchar i=0; i<10;i++) 
   \   0000002E   ....               RCALL   ?Subroutine75
   \                     ??CrossCallReturnLabel_105:
   \   00000030   300C               CPI     R16, 12
   \   00000032   F439               BRNE    ??programming_1
   \   00000034   E08A               LDI     R24, 10
    446                                         {led_all(1); p4; led_all(0);p4; }
   \                     ??programming_2:
   \   00000036   ....               RCALL   ?Subroutine4
   \                     ??CrossCallReturnLabel_10:
   \   00000038   ....               RCALL   ?Subroutine84
   \                     ??CrossCallReturnLabel_129:
   \   0000003A   ....               RCALL   ?Subroutine15
   \                     ??CrossCallReturnLabel_25:
   \   0000003C   ....               RCALL   ?Subroutine84
   \                     ??CrossCallReturnLabel_130:
   \   0000003E   958A               DEC     R24
   \   00000040   F7D1               BRNE    ??programming_2
    447                                    }
    448                   if (tekfunc>MAXFUNC) {tekfunc=255;led_all(1);}
   \                     ??programming_1:
   \   00000042   ....               RCALL   ?Subroutine75
   \                     ??CrossCallReturnLabel_106:
   \   00000044   3108               CPI     R16, 24
   \   00000046   F020               BRCS    ??CrossCallReturnLabel_9
   \   00000048   EF0F               LDI     R16, 255
   \   0000004A   9300....           STS     ??tekfunc, R16
   \   0000004E   ....               RCALL   ?Subroutine4
    449               
    450               }
    451             }
    452             
    453            /* 
    454             if (keyONsm) { 
    455                          led_all(1); delay_s(1); 
    456                          led_all(0); 
    457                          tekfunc++;  get=0;
    458                             if (tekfunc==12) {  for (uchar i=0; i<10;i++) 
    459                                     {led_all(1); p4; led_all(0);p4; }
    460                                }
    461                          if (tekfunc>MAXFUNC) {tekfunc=255;led_all(1);}
    462                         
    463                           }
    464              */ 
    465          }
   \                     ??CrossCallReturnLabel_9:
   \   00000050   ....               RJMP    ?Subroutine120

   \                                 In  segment CODE, align 2, keep-with-next
   \                     ?Subroutine84:
   \   00000000   EF0F               LDI     R16, 255
   \   00000002   EE11               LDI     R17, 225
   \   00000004   E024               LDI     R18, 4
   \   00000006   5001               SUBI    R16, 1
   \   00000008   4010               SBCI    R17, 0
   \   0000000A   4020               SBCI    R18, 0
   \   0000000C   F7E1               BRNE    $-6
   \   0000000E   C000               RJMP    $+2
   \   00000010   0000               NOP
   \   00000012   9508               RET
    466          //--------------------------------------------------------------------
    467          

   \                                 In  segment CODE, align 2, keep-with-next
    468          void writeCOD()
   \                     writeCOD:
    469          {
    470            rprintfStr("write ..");
   \   00000000   ....               LDI     R16, LOW(`?<Constant "write ..">`)
   \   00000002   ....               LDI     R17, (`?<Constant "write ..">`) >> 8
   \   00000004   ....               RCALL   rprintfStr
    471            led_all(1);delay_s(3);
   \   00000006   ....               RCALL   ?Subroutine4
   \                     ??CrossCallReturnLabel_8:
   \   00000008   EF0F               LDI     R16, 255
   \   0000000A   E91E               LDI     R17, 158
   \   0000000C   E224               LDI     R18, 36
   \   0000000E   5001               SUBI    R16, 1
   \   00000010   4010               SBCI    R17, 0
   \   00000012   4020               SBCI    R18, 0
   \   00000014   F7E1               BRNE    $-6
   \   00000016   C000               RJMP    $+2
   \   00000018   0000               NOP
    472            uchar adr=getadr();
   \   0000001A   ....               RCALL   getadr
    473           
    474            
    475                 
    476                 k[adr]=cod1; delay_ms(30);
   \   0000001C   E012               LDI     R17, 2
   \   0000001E   9F01               MUL     R16, R17
   \   00000020   ....               RCALL   ?Subroutine82
   \                     ??CrossCallReturnLabel_128:
   \   00000022   ....               RCALL   ?Subroutine101
   \                     ??CrossCallReturnLabel_186:
   \   00000024   ....               RCALL   ?Subroutine97
   \                     ??CrossCallReturnLabel_164:
   \   00000026   ....               RCALL   ?Subroutine83
    477                 k[adr+1]=cod2; delay_ms(30);
   \                     ??CrossCallReturnLabel_319:
   \   00000028   ....               RCALL   ??Subroutine143_0
   \                     ??CrossCallReturnLabel_337:
   \   0000002A   ....               RCALL   ?Subroutine97
   \                     ??CrossCallReturnLabel_165:
   \   0000002C   01A9               MOVW    R21:R20, R19:R18
   \   0000002E   5F4E               SUBI    R20, 254
   \   00000030   4F5F               SBCI    R21, 255
   \   00000032   ....               RCALL   ??Subroutine141_0
    478                 k[adr+2]=cod3; delay_ms(30);
   \                     ??CrossCallReturnLabel_321:
   \   00000034   ....               RCALL   ??Subroutine142_0
   \                     ??CrossCallReturnLabel_328:
   \   00000036   ....               RCALL   ?Subroutine97
   \                     ??CrossCallReturnLabel_166:
   \   00000038   5F2C               SUBI    R18, 252
   \   0000003A   4F3F               SBCI    R19, 255
   \   0000003C   ....               RCALL   ?Subroutine83
    479              led_all(0);
   \                     ??CrossCallReturnLabel_320:
   \   0000003E   ....               RCALL   ?Subroutine15
    480                 rprintfStr("OK !   "); ent;
   \                     ??CrossCallReturnLabel_24:
   \   00000040   ....               LDI     R16, LOW(`?<Constant "OK !   ">`)
   \   00000042   ....               LDI     R17, (`?<Constant "OK !   ">`) >> 8
   \   00000044   ....               RCALL   rprintfStr
   \   00000046                      REQUIRE ?Subroutine127
   \   00000046                      ;               // Fall through to label ?Subroutine127
    481             
    482          }

   \                                 In  segment CODE, align 2, keep-with-next
   \                     ?Subroutine83:
   \   00000000   01A9               MOVW    R21:R20, R19:R18
   \   00000002                      REQUIRE ??Subroutine141_0
   \   00000002                      ;               // Fall through to label ??Subroutine141_0

   \                                 In  segment CODE, align 2, keep-with-next
   \                     ??Subroutine141_0:
   \   00000000   ....               RCALL   __eeput16_16
   \   00000002   E20F               LDI     R16, 47
   \   00000004   E715               LDI     R17, 117
   \   00000006   5001               SUBI    R16, 1
   \   00000008   4010               SBCI    R17, 0
   \   0000000A   F7E9               BRNE    $-4
   \   0000000C   C000               RJMP    $+2
   \   0000000E   0000               NOP
   \   00000010   9508               RET
    483          
    484          
    485          
    486           

   \                                 In  segment CODE, align 2, keep-with-next
    487          uchar analizCOD ()
   \                     analizCOD:
    488          {
   \   00000000   ....               RCALL   ?PROLOGUE2_L09
    489           
    490           uint i;
    491            for (i=0; i<MAXEEP-4; i++) 
   \   00000002   E080               LDI     R24, 0
   \   00000004   E090               LDI     R25, 0
    492            {
    493             // if ((kbuf[i])==cod1)  if ((kbuf[i+1])==cod2) if ((kbuf[i+2])==cod3) return(i);
    494              if ((k[i])==cod1)  if ((k[i+1])==cod2) if ((k[i+2])==cod3) return(i);   
   \                     ??analizCOD_0:
   \   00000006   018C               MOVW    R17:R16, R25:R24
   \   00000008   0F00               LSL     R16
   \   0000000A   1F11               ROL     R17
   \   0000000C   ....               LDI     R18, LOW(k)
   \   0000000E   ....               LDI     R19, (k) >> 8
   \   00000010   0F20               ADD     R18, R16
   \   00000012   1F31               ADC     R19, R17
   \   00000014   ....               RCALL   ?Subroutine39
   \                     ??CrossCallReturnLabel_196:
   \   00000016   F431               BRNE    ??analizCOD_1
   \   00000018   ....               RCALL   ?Subroutine42
   \                     ??CrossCallReturnLabel_53:
   \   0000001A   F421               BRNE    ??analizCOD_1
   \   0000001C   ....               RCALL   ?Subroutine44
   \                     ??CrossCallReturnLabel_55:
   \   0000001E   F411               BRNE    ??analizCOD_1
   \   00000020   2F08               MOV     R16, R24
   \   00000022   C005               RJMP    ??analizCOD_2
    495            }
   \                     ??analizCOD_1:
   \   00000024   9601               ADIW    R25:R24, 1
   \   00000026   3784               CPI     R24, 116
   \   00000028   E000               LDI     R16, 0
   \   0000002A   0790               CPC     R25, R16
   \   0000002C   F360               BRCS    ??analizCOD_0
    496          
    497          return(0);
   \                     ??analizCOD_2:
   \   0000002E                      REQUIRE ?Subroutine128
   \   0000002E                      ;               // Fall through to label ?Subroutine128
    498          }

   \                                 In  segment CODE, align 2, keep-with-next
   \                     ?Subroutine128:
   \   00000000   E0E2               LDI     R30, 2
   \   00000002   ....               RJMP    ?EPILOGUE_B2_L09
    499          
    500          
    501          

   \                                 In  segment CODE, align 2, keep-with-next
    502          void resled(void)
   \                     resled:
    503          {
    504            RES(PORTB,0);RES(PORTB,1);RES(PORTB,2);RES(PORTB,3); if (mode==0)RES(PORTB,4);
   \   00000000   ....               RCALL   ?Subroutine85
   \                     ??CrossCallReturnLabel_131:
   \   00000002   ....               RCALL   ?Subroutine70
   \                     ??CrossCallReturnLabel_229:
   \   00000004   F409               BRNE    ??resled_0
   \   00000006   98C4               CBI     0x18, 0x04
    505          }
   \                     ??resled_0:
   \   00000008   9508               RET
   \   0000000A                      REQUIRE _A_PORTB

   \                                 In  segment CODE, align 2, keep-with-next
   \                     ?Subroutine85:
   \   00000000   98C0               CBI     0x18, 0x00
   \   00000002   98C1               CBI     0x18, 0x01
   \   00000004   98C2               CBI     0x18, 0x02
   \   00000006   98C3               CBI     0x18, 0x03
   \   00000008   9508               RET
    506          
    507          

   \                                 In  segment CODE, align 2, keep-with-next
    508          void resOUT(void)
   \                     resOUT:
    509          {
    510            RES(PORTC,1);RES(PORTC,2);RES(PORTC,3);RES(PORTC,4); if (mode==0)RES(PORTC,5);
   \   00000000   98A9               CBI     0x15, 0x01
   \   00000002   98AA               CBI     0x15, 0x02
   \   00000004   98AB               CBI     0x15, 0x03
   \   00000006   98AC               CBI     0x15, 0x04
   \   00000008   ....               RCALL   ?Subroutine70
   \                     ??CrossCallReturnLabel_230:
   \   0000000A   F409               BRNE    ??resOUT_0
   \   0000000C   98AD               CBI     0x15, 0x05
    511            p2;//что бы не было перекрытия источников
   \                     ??resOUT_0:
   \   0000000E                      REQUIRE ?Subroutine74
   \   0000000E                      REQUIRE _A_PORTC
   \   0000000E                      ;               // Fall through to label ?Subroutine74
    512          }
    513          
    514          
    515           

   \                                 In  segment CODE, align 2, keep-with-next
    516          void led_all(bool a)
   \                     led_all:
    517          {
    518           if (a)
   \   00000000   2300               TST     R16
   \   00000002   F041               BREQ    ??led_all_0
    519           {
    520             SET(PORTB,0);SET(PORTB,1);SET(PORTB,2);SET(PORTB,3);SET(PORTB,4);SET(PORTB,5);
   \   00000004   9AC0               SBI     0x18, 0x00
   \   00000006   9AC1               SBI     0x18, 0x01
   \   00000008   9AC2               SBI     0x18, 0x02
   \   0000000A   9AC3               SBI     0x18, 0x03
   \   0000000C   9AC4               SBI     0x18, 0x04
   \   0000000E   9AC5               SBI     0x18, 0x05
    521             /*AC_ON; */SET(PORTD,7);
   \   00000010   9A97               SBI     0x12, 0x07
   \   00000012   9508               RET
    522           }
    523           else
    524            {
    525             RES(PORTB,0);RES(PORTB,1);RES(PORTB,2);RES(PORTB,3);RES(PORTB,4);RES(PORTB,5);
   \                     ??led_all_0:
   \   00000014   ....               RCALL   ?Subroutine85
   \                     ??CrossCallReturnLabel_132:
   \   00000016   98C4               CBI     0x18, 0x04
   \   00000018   98C5               CBI     0x18, 0x05
    526             AC_OFF; RES(PORTD,7);
   \   0000001A   9896               CBI     0x12, 0x06
   \   0000001C   9897               CBI     0x12, 0x07
    527           } 
    528          }
   \   0000001E   9508               RET
   \   00000020                      REQUIRE _A_PORTB
   \   00000020                      REQUIRE _A_PORTD
    529          
    530          

   \                                 In  segment CODE, align 2, keep-with-next
    531          void gro(uchar a)
   \                     gro:
    532          {
   \   00000000   2F10               MOV     R17, R16
    533            if (modegro!=1) {
   \   00000002   ....               RCALL   ?Subroutine66
   \                     ??CrossCallReturnLabel_240:
   \   00000004   F051               BREQ    ??gro_0
    534            if (a==1) {SET(PORTC,0); delay_us(100);RES(PORTC,0);}
   \   00000006   3011               CPI     R17, 1
   \   00000008   F419               BRNE    ??gro_1
   \   0000000A   9AA8               SBI     0x15, 0x00
   \   0000000C   ....               RCALL   ?Subroutine86
   \                     ??CrossCallReturnLabel_133:
   \   0000000E   C00E               RJMP    ??gro_2
    535            if (a==2) {SET(PORTD,3); delay_us(100);RES(PORTD,3);}  
   \                     ??gro_1:
   \   00000010   3012               CPI     R17, 2
   \   00000012   F511               BRNE    ??gro_3
   \   00000014   9A93               SBI     0x12, 0x03
   \   00000016   ....               RCALL   ?Subroutine86
   \                     ??CrossCallReturnLabel_134:
   \   00000018   C019               RJMP    ??gro_4
    536                            }
    537            else  { 
    538              if (a==1) { if (gro1)  { gro1=0; RES(PORTC,0);  } else { gro1=1; SET(PORTC,0);  } }
   \                     ??gro_0:
   \   0000001A   3011               CPI     R17, 1
   \   0000001C   F471               BRNE    ??gro_5
   \   0000001E   9100....           LDS     R16, ??gro1
   \   00000022   2300               TST     R16
   \   00000024   F029               BREQ    ??gro_6
   \   00000026   E000               LDI     R16, 0
   \   00000028   9300....           STS     ??gro1, R16
   \                     ??gro_2:
   \   0000002C   98A8               CBI     0x15, 0x00
   \   0000002E   9508               RET
   \                     ??gro_6:
   \   00000030   E001               LDI     R16, 1
   \   00000032   9300....           STS     ??gro1, R16
   \   00000036   9AA8               SBI     0x15, 0x00
   \   00000038   9508               RET
    539              if (a==2) { if (gro2)  { gro2=0; RES(PORTD,3);  } else { gro2=1; SET(PORTD,3);  } }
   \                     ??gro_5:
   \   0000003A   3012               CPI     R17, 2
   \   0000003C   F469               BRNE    ??gro_3
   \   0000003E   9100....           LDS     R16, ??gro2
   \   00000042   2300               TST     R16
   \   00000044   F029               BREQ    ??gro_7
   \   00000046   E000               LDI     R16, 0
   \   00000048   9300....           STS     ??gro2, R16
   \                     ??gro_4:
   \   0000004C   9893               CBI     0x12, 0x03
   \   0000004E   9508               RET
   \                     ??gro_7:
   \   00000050   E001               LDI     R16, 1
   \   00000052   9300....           STS     ??gro2, R16
   \   00000056   9A93               SBI     0x12, 0x03
    540                  }
    541          }
   \                     ??gro_3:
   \   00000058   9508               RET
   \   0000005A                      REQUIRE _A_PORTC
   \   0000005A                      REQUIRE _A_PORTD

   \                                 In  segment CODE, align 2, keep-with-next
   \                     ?Subroutine86:
   \   00000000   E805               LDI     R16, 133
   \   00000002   950A               DEC     R16
   \   00000004   F7F1               BRNE    $-2
   \   00000006   0000               NOP
   \   00000008   9508               RET
    542          
    543          
    544          
    545          
    546          
    547          
    548          //инициализация портов

   \                                 In  segment CODE, align 2, keep-with-next
    549          void iniPORTS()
   \                     iniPORTS:
    550          {
    551            
    552           
    553            //DDRx=0 - ВХОДЫ   PORTx = 0xFF; //подключаем нагрузочные резисторы
    554           //---------------------------------------------------------------
    555           //DDRx=0xFF - ВЫХОДЫ    PORTx = 0; //устанавливаем 0 на выходе
    556           
    557            
    558           DDRD = b(11011000);// 0xD8;  //PD3 4 6 7 ВЫХОДЫ  b11011000
   \   00000000   ED08               LDI     R16, 216
   \   00000002   BB01               OUT     0x11, R16
    559           PORTD = (uchar)~(b(11011000)); 
   \   00000004   E207               LDI     R16, 39
   \   00000006   BB02               OUT     0x12, R16
    560          
    561           
    562           DDRB = 0x3F; //порт B - выход    6,7-кварц
   \   00000008   E30F               LDI     R16, 63
   \   0000000A   BB07               OUT     0x17, R16
    563           PORTB = 0x00; 
   \   0000000C   E000               LDI     R16, 0
   \   0000000E   BB08               OUT     0x18, R16
    564            
    565            
    566            DDRC =0xFF; 
   \   00000010   EF0F               LDI     R16, 255
   \   00000012   BB04               OUT     0x14, R16
    567            PORTC = 0x00; //устанавливаем 0 на выходе
   \   00000014   E000               LDI     R16, 0
   \   00000016   BB05               OUT     0x15, R16
    568            
    569           
    570          // Timer(s)/Counter(s) Interrupt(s) initialization
    571          TIMSK=0x00;  
   \   00000018   BF09               OUT     0x39, R16
    572          TCNT0=0x00;
   \   0000001A   BF02               OUT     0x32, R16
    573          OCR1A=0x00;
   \   0000001C   E010               LDI     R17, 0
   \   0000001E   BD0B               OUT     0x2B, R16
   \   00000020   BD0A               OUT     0x2A, R16
    574          OCR1B=0x00;
   \   00000022   BD09               OUT     0x29, R16
   \   00000024   BD08               OUT     0x28, R16
    575          TCCR1A=0x00;
   \   00000026   BD0F               OUT     0x2F, R16
    576            SET(TIMSK,TOIE1);//разреш прерывание при переполнении
   \   00000028   B709               IN      R16, 0x39
   \   0000002A   6004               ORI     R16, 0x04
   \   0000002C   BF09               OUT     0x39, R16
    577             TCCR1B=0; TIFR = 0xFF;  
   \   0000002E   BD1E               OUT     0x2E, R17
   \   00000030   EF0F               LDI     R16, 255
   \   00000032   BF08               OUT     0x38, R16
    578          TCNT1H=0x00;
   \   00000034   BD1D               OUT     0x2D, R17
    579          TCNT1L=0x00;
   \   00000036   BD1C               OUT     0x2C, R17
    580          ICR1H=0x00;
   \   00000038   BD17               OUT     0x27, R17
    581          ICR1L=0x00;
   \   0000003A   BD16               OUT     0x26, R17
    582          OCR1AH=0;
   \   0000003C   BD1B               OUT     0x2B, R17
    583          OCR1AL=0x00;
   \   0000003E   BD1A               OUT     0x2A, R17
    584          OCR1BH=0x00;
   \   00000040   BD19               OUT     0x29, R17
    585          OCR1BL=0x00;
   \   00000042   BD18               OUT     0x28, R17
    586          
    587          
    588          // External Interrupt(s) initialization
    589          // INT0: Off
    590          // INT1: Off
    591          // Interrupt on any change on pins PCINT0-7: Off
    592          //GIMSK=0x00;
    593          //MCUCR=0x00;
    594          
    595          SET(MCUCR,0); RES(MCUCR,1);//ПРЕРЫВАНИЕ ПО ИЗМЕНЕНИЮ УРОВНЯ INT0
   \   00000044   B705               IN      R16, 0x35
   \   00000046   6001               ORI     R16, 0x01
   \   00000048   BF05               OUT     0x35, R16
   \   0000004A   B705               IN      R16, 0x35
   \   0000004C   7F0D               ANDI    R16, 0xFD
   \   0000004E   BF05               OUT     0x35, R16
    596          SET(GICR,6);//РАЗРЕШАЕМ ПРЕРЫВАНИЕ INT0
   \   00000050   B70B               IN      R16, 0x3B
   \   00000052   6400               ORI     R16, 0x40
   \   00000054   BF0B               OUT     0x3B, R16
    597          
    598          
    599          //timer2
    600          SET(TCCR2, CS20 );
   \   00000056   B505               IN      R16, 0x25
   \   00000058   6001               ORI     R16, 0x01
   \   0000005A   BD05               OUT     0x25, R16
    601          RES(TCCR2, CS21 );
   \   0000005C   B505               IN      R16, 0x25
   \   0000005E   7F0D               ANDI    R16, 0xFD
   \   00000060   BD05               OUT     0x25, R16
    602          RES(TCCR2, CS22 );//делитель 1/1
   \   00000062   B505               IN      R16, 0x25
   \   00000064   7F0B               ANDI    R16, 0xFB
   \   00000066   BD05               OUT     0x25, R16
    603          // initialize counter
    604              TCNT2 = 0;
   \   00000068   BD14               OUT     0x24, R17
    605              // enable overflow interrupt
    606              TIMSK |= (1 << TOIE2);
   \   0000006A   B709               IN      R16, 0x39
   \   0000006C   6400               ORI     R16, 0x40
   \   0000006E   BF09               OUT     0x39, R16
    607          
    608              
    609          // Analog Comparator initialization
    610          // Analog Comparator: Off
    611          // Analog Comparator Input Capture by Timer/Counter 1: Off
    612          ACSR=0x80;
   \   00000070   E800               LDI     R16, 128
   \   00000072   B908               OUT     0x08, R16
    613          //DIDR=0x00;
    614          
    615          } 
   \   00000074   9508               RET
   \   00000076                      REQUIRE _A_DDRD
   \   00000076                      REQUIRE _A_PORTD
   \   00000076                      REQUIRE _A_DDRB
   \   00000076                      REQUIRE _A_PORTB
   \   00000076                      REQUIRE _A_DDRC
   \   00000076                      REQUIRE _A_PORTC
   \   00000076                      REQUIRE _A_TIMSK
   \   00000076                      REQUIRE _A_TCNT0
   \   00000076                      REQUIRE _A_OCR1A
   \   00000076                      REQUIRE _A_OCR1B
   \   00000076                      REQUIRE _A_TCCR1A
   \   00000076                      REQUIRE _A_TCCR1B
   \   00000076                      REQUIRE _A_TIFR
   \   00000076                      REQUIRE _A_TCNT1
   \   00000076                      REQUIRE _A_ICR1
   \   00000076                      REQUIRE _A_MCUCR
   \   00000076                      REQUIRE _A_GICR
   \   00000076                      REQUIRE _A_TCCR2
   \   00000076                      REQUIRE _A_TCNT2
   \   00000076                      REQUIRE _A_ACSR
    616          //************************************************************************
    617           
    618          

   \                                 In  segment CODE, align 2, keep-with-next
    619          void diag()
   \                     diag:
    620          {
   \   00000000   ....               RCALL   ?PROLOGUE2_L09
    621            
    622            uchar sym = USART_GetChar(); //читаем буфер
   \   00000002   ....               RCALL   USART_GetChar
   \   00000004   2F90               MOV     R25, R16
    623            if (sym=='0') { pr=1;  rprintfStr("- vkluchen kratkiy viviod -");  ent;   }
   \   00000006   3300               CPI     R16, 48
   \   00000008   F439               BRNE    ??diag_0
   \   0000000A   E001               LDI     R16, 1
   \   0000000C   9300....           STS     pr, R16
   \   00000010   ....               LDI     R16, LOW(`?<Constant "- vkluchen kratkiy vi...">`)
   \   00000012   ....               LDI     R17, (`?<Constant "- vkluchen kratkiy vi...">`) >> 8
   \   00000014   ....               RCALL   ?Subroutine46
   \                     ??CrossCallReturnLabel_56:
   \   00000016   C01D               RJMP    ??diag_1
    624          
    625            if (sym=='e') {
   \                     ??diag_0:
   \   00000018   3605               CPI     R16, 101
   \   0000001A   F4C9               BRNE    ??diag_2
    626              ent;rprintfStr(" ==  EEPROM read == ");ent;
   \   0000001C   ....               RCALL   ?Subroutine127
   \                     ??CrossCallReturnLabel_252:
   \   0000001E   ....               LDI     R16, LOW(`?<Constant " ==  EEPROM read == ">`)
   \   00000020   ....               LDI     R17, (`?<Constant " ==  EEPROM read == ">`) >> 8
   \   00000022   ....               RCALL   ?Subroutine46
    627              for (uchar i=0; i<MAXEEP-1; i++) { 
   \                     ??CrossCallReturnLabel_57:
   \   00000024   E080               LDI     R24, 0
    628                rprintfFloat(4, i );   rprintfStr(" > ");
   \                     ??diag_3:
   \   00000026   2F08               MOV     R16, R24
   \   00000028   ....               RCALL   ?Subroutine110
   \                     ??CrossCallReturnLabel_278:
   \   0000002A   ....               RCALL   ?Subroutine111
   \                     ??CrossCallReturnLabel_273:
   \   0000002C   E004               LDI     R16, 4
   \   0000002E   ....               RCALL   rprintfFloat
   \   00000030   ....               LDI     R16, LOW(`?<Constant " > ">`)
   \   00000032   ....               LDI     R17, (`?<Constant " > ">`) >> 8
   \   00000034   ....               RCALL   rprintfStr
    629                 rprintfFloat(9, k[i] ); ent;
   \   00000036   E002               LDI     R16, 2
   \   00000038   9F80               MUL     R24, R16
   \   0000003A   ....               LDI     R20, LOW(k)
   \   0000003C   ....               LDI     R21, (k) >> 8
   \   0000003E   0D40               ADD     R20, R0
   \   00000040   1D51               ADC     R21, R1
   \   00000042   ....               RCALL   __eeget16_16
   \   00000044   ....               RCALL   ?Subroutine47
    630                                                }
   \                     ??CrossCallReturnLabel_178:
   \   00000046   9583               INC     R24
   \   00000048   3787               CPI     R24, 119
   \   0000004A   F418               BRCC    ??diag_1
   \   0000004C   CFEC               RJMP    ??diag_3
    631                          }
    632            
    633            if (sym) 
   \                     ??diag_2:
   \   0000004E   2300               TST     R16
   \   00000050   F0A1               BREQ    ??CrossCallReturnLabel_58
    634            {             //если что-то приняли, то 
    635                rprintfStr(" get: ");
   \                     ??diag_1:
   \   00000052   ....               LDI     R16, LOW(`?<Constant " get: ">`)
   \   00000054   ....               LDI     R17, (`?<Constant " get: ">`) >> 8
   \   00000056   ....               RCALL   rprintfStr
    636                USART_SendChar(sym); 
   \   00000058   2F09               MOV     R16, R25
   \   0000005A   ....               RCALL   USART_SendChar
    637          
    638                if (mode==1) rprintfStr("  regim  no source5 >");  
   \   0000005C   ....               RCALL   ?Subroutine71
   \                     ??CrossCallReturnLabel_244:
   \   0000005E   F419               BRNE    ??diag_4
   \   00000060   ....               LDI     R16, LOW(`?<Constant "  regim  no source5 >">`)
   \   00000062   ....               LDI     R17, (`?<Constant "  regim  no source5 >">`) >> 8
   \   00000064   ....               RCALL   rprintfStr
    639                if (mode_programming==1) rprintfStr("  regim  PROGRAMMING !!  READY >");  
   \                     ??diag_4:
   \   00000066   9100....           LDS     R16, ??mode_programming
   \   0000006A   2300               TST     R16
   \   0000006C   F019               BREQ    ??diag_5
   \   0000006E   ....               LDI     R16, LOW(`?<Constant "  regim  PROGRAMMING ...">`)
   \   00000070   ....               LDI     R17, (`?<Constant "  regim  PROGRAMMING ...">`) >> 8
   \   00000072   C002               RJMP    ??diag_6
    640                else rprintfStr("  regim  normal  READY >");  
   \                     ??diag_5:
   \   00000074   ....               LDI     R16, LOW(`?<Constant "  regim  normal  READY >">`)
   \   00000076   ....               LDI     R17, (`?<Constant "  regim  normal  READY >">`) >> 8
    641                 ent;   
    642            }
   \                     ??diag_6:
   \   00000078   ....               RCALL   ?Subroutine46
    643          }
   \                     ??CrossCallReturnLabel_58:
   \   0000007A   ....               RJMP    ?Subroutine128

   \                                 In  segment CODE, align 2, keep-with-next
   \                     ?Subroutine46:
   \   00000000   ....               RCALL   rprintfStr
   \   00000002   ....               RJMP    ?Subroutine127
    644          
F:\Dulov\RemoteAMP\SoftTimers.c
      1          
      2          #include <stdbool.h>//поддержка bool
      3          #include "iom8.h"//<ioavr.h>
      4          #include <inavr.h>
      5          #include <intrinsics.h>
      6          #include "init.h"
      7          #include "SoftTimers.h"

   \                                 In  segment NEAR_I, align 1, keep-with-next
   \   00000000                      REQUIRE `?<Segment init: NEAR_I>`
   \   static unsigned char port
   \                     ??port:
   \   00000000                      DS8 1
   \   00000001                      REQUIRE `?<Initializer for port>`
      8          #include "main.h"
      9          //***************************************************************************
     10          //
     11          //***************************************************************************

   \                                 In  segment NEAR_Z, align 1, keep-with-next
   \   00000000                      REQUIRE `?<Segment init: NEAR_Z>`
     12          timers tm1,tm2,tm3, tm4,tm5;
   \                     tm1:
   \   00000000                      DS8 9

   \                                 In  segment NEAR_Z, align 1, keep-with-next
   \   00000000                      REQUIRE `?<Segment init: NEAR_Z>`
   \                     tm2:
   \   00000000                      DS8 9

   \                                 In  segment NEAR_Z, align 1, keep-with-next
   \   00000000                      REQUIRE `?<Segment init: NEAR_Z>`
   \                     tm3:
   \   00000000                      DS8 9

   \                                 In  segment NEAR_Z, align 1, keep-with-next
   \   00000000                      REQUIRE `?<Segment init: NEAR_Z>`
   \                     tm4:
   \   00000000                      DS8 9

   \                                 In  segment NEAR_Z, align 1, keep-with-next
   \   00000000                      REQUIRE `?<Segment init: NEAR_Z>`
   \                     tm5:
   \   00000000                      DS8 9

   \                                 In  segment NEAR_Z, align 1, keep-with-next
   \   00000000                      REQUIRE `?<Segment init: NEAR_Z>`
     13          static uchar raz;
   \                     ??raz:
   \   00000000                      DS8 1
     14          static uchar port;

   \                                 In  segment NEAR_Z, align 1, keep-with-next
   \   00000000                      REQUIRE `?<Segment init: NEAR_Z>`
     15          static uchar razct;
   \                     ??razct:
   \   00000000                      DS8 1
     16          
     17          
     18          #pragma vector = TIMER2_OVF_vect

   \                                 In  segment CODE, align 2, keep-with-next
     19          __interrupt void TIMER2ovf(void)
   \                     TIMER2ovf:
     20          {
   \   00000000   938A               ST      -Y, R24
   \   00000002   93FA               ST      -Y, R31
   \   00000004   93EA               ST      -Y, R30
   \   00000006   923A               ST      -Y, R3
   \   00000008   922A               ST      -Y, R2
   \   0000000A   921A               ST      -Y, R1
   \   0000000C   920A               ST      -Y, R0
   \   0000000E   937A               ST      -Y, R23
   \   00000010   936A               ST      -Y, R22
   \   00000012   935A               ST      -Y, R21
   \   00000014   934A               ST      -Y, R20
   \   00000016   933A               ST      -Y, R19
   \   00000018   932A               ST      -Y, R18
   \   0000001A   931A               ST      -Y, R17
   \   0000001C   930A               ST      -Y, R16
   \   0000001E   B78F               IN      R24, 0x3F
     21            
     22             TCNT2 = 0;
   \   00000020   E000               LDI     R16, 0
   \   00000022   BD04               OUT     0x24, R16
     23             
     24            TimerTick(&tm3); // Work
   \   00000024   ....               LDI     R16, LOW(tm3)
   \   00000026   ....               LDI     R17, (tm3) >> 8
   \   00000028   ....               RCALL   TimerTick
     25            TimerTick(&tm2); //мигание
   \   0000002A   ....               LDI     R16, LOW(tm2)
   \   0000002C   ....               LDI     R17, (tm2) >> 8
   \   0000002E   ....               RCALL   TimerTick
     26           
     27           
     28              TimerTick(&tm4);
   \   00000030   ....               LDI     R16, LOW(tm4)
   \   00000032   ....               LDI     R17, (tm4) >> 8
   \   00000034   ....               RCALL   TimerTick
     29              TimerTick(&tm5);
   \   00000036   ....               LDI     R16, LOW(tm5)
   \   00000038   ....               LDI     R17, (tm5) >> 8
   \   0000003A   ....               RCALL   TimerTick
     30            
     31          // if (tm3.out ) { 
     32           //if (!state) {RES(PORTB,5); state=1; }   else {SET(PORTB,5); state=0;}
     33           //       TimerSet(&tm3,3000);       
     34           //             }
     35          }
   \   0000003C   BF8F               OUT     0x3F, R24
   \   0000003E   9109               LD      R16, Y+
   \   00000040   9119               LD      R17, Y+
   \   00000042   9129               LD      R18, Y+
   \   00000044   9139               LD      R19, Y+
   \   00000046   9149               LD      R20, Y+
   \   00000048   9159               LD      R21, Y+
   \   0000004A   9169               LD      R22, Y+
   \   0000004C   9179               LD      R23, Y+
   \   0000004E   9009               LD      R0, Y+
   \   00000050   9019               LD      R1, Y+
   \   00000052   9029               LD      R2, Y+
   \   00000054   9039               LD      R3, Y+
   \   00000056   91E9               LD      R30, Y+
   \   00000058   91F9               LD      R31, Y+
   \   0000005A   9189               LD      R24, Y+
   \   0000005C   9518               RETI
   \   0000005E                      REQUIRE _A_TCNT2
     36          
     37          
     38          
     39          
     40          

   \                                 In  segment CODE, align 2, keep-with-next
     41          void TimerSet(timers *t, long tm)
   \                     TimerSet:
     42          {
   \   00000000   01F8               MOVW    R31:R30, R17:R16
   \   00000002   018A               MOVW    R17:R16, R21:R20
   \   00000004   019B               MOVW    R19:R18, R23:R22
     43            t->out=0;
   \   00000006   E040               LDI     R20, 0
   \   00000008   8740               STD     Z+8, R20
     44            t->ct=0;
   \   0000000A   ....               RCALL   ?Subroutine116
   \                     ??CrossCallReturnLabel_343:
   \   0000000C   8350               ST      Z, R21
   \   0000000E   8351               STD     Z+1, R21
   \   00000010   8352               STD     Z+2, R21
   \   00000012   8353               STD     Z+3, R21
     45            //F_CPU/4/100; 1-сек
     46            t->time=F_CPU/4/100000   *tm;
   \   00000014   E04A               LDI     R20, 10
   \   00000016   ....               RCALL   ?L_EC_MUL_L03
   \   00000018   8304               STD     Z+4, R16
   \   0000001A   8315               STD     Z+5, R17
   \   0000001C   8326               STD     Z+6, R18
   \   0000001E   8337               STD     Z+7, R19
     47            //t->x=0;
     48          }
   \   00000020   9508               RET
     49          

   \                                 In  segment CODE, align 2, keep-with-next
     50          void TimerTick( timers *t)
   \                     TimerTick:
     51          {
     52            if (t->out) return;
   \   00000000   01F8               MOVW    R31:R30, R17:R16
   \   00000002   8520               LDD     R18, Z+8
   \   00000004   2322               TST     R18
   \   00000006   F4D9               BRNE    ??TimerTick_0
     53           // t->x++;
     54            //if (t->x>=CALIBR) { t->x=0; t->ct++;}
     55            t->ct++;
   \   00000008   8140               LD      R20, Z
   \   0000000A   8151               LDD     R21, Z+1
   \   0000000C   8162               LDD     R22, Z+2
   \   0000000E   8173               LDD     R23, Z+3
   \   00000010   5F4F               SUBI    R20, 255
   \   00000012   4F5F               SBCI    R21, 255
   \   00000014   4F6F               SBCI    R22, 255
   \   00000016   4F7F               SBCI    R23, 255
   \   00000018   8340               ST      Z, R20
   \   0000001A   8351               STD     Z+1, R21
   \   0000001C   8362               STD     Z+2, R22
   \   0000001E   8373               STD     Z+3, R23
     56            if (t->ct  >  t->time ) t->out=1;
   \   00000020   8144               LDD     R20, Z+4
   \   00000022   8155               LDD     R21, Z+5
   \   00000024   8166               LDD     R22, Z+6
   \   00000026   8177               LDD     R23, Z+7
   \   00000028   8000               LD      R0, Z
   \   0000002A   8011               LDD     R1, Z+1
   \   0000002C   8022               LDD     R2, Z+2
   \   0000002E   8033               LDD     R3, Z+3
   \   00000030   1540               CP      R20, R0
   \   00000032   0551               CPC     R21, R1
   \   00000034   0562               CPC     R22, R2
   \   00000036   0573               CPC     R23, R3
   \   00000038   F414               BRGE    ??TimerTick_0
   \   0000003A   E021               LDI     R18, 1
   \   0000003C   8720               STD     Z+8, R18
     57          }
   \                     ??TimerTick_0:
   \   0000003E   9508               RET
     58          //**************************************************************
     59          //**************************************************************
     60          
     61          

   \                                 In  segment CODE, align 2, keep-with-next
     62          void migINI(uchar sel,  uchar razp, bool prton)//мигание sel - кол-во раз
   \                     migINI:
     63          {
   \   00000000   2F30               MOV     R19, R16
   \   00000002   01A8               MOVW    R21:R20, R17:R16
     64            SET(PORTB,sel);//вкл-ем для ускорения индикации
   \   00000004   ....               RCALL   ?Subroutine6
     65            
     66            
     67            if (port!=255) {  //если все еще мигает
   \                     ??CrossCallReturnLabel_245:
   \   00000006   9100....           LDS     R16, ??port
   \   0000000A   3F0F               CPI     R16, 255
   \   0000000C   F061               BREQ    ??migINI_0
     68               
     69              if (prton)SET(PORTB,port); //фиксируем чтобы горел
   \   0000000E   9140....           LDS     R20, ??port
   \   00000012   ....               RCALL   ?Subroutine109
   \                     ??CrossCallReturnLabel_200:
   \   00000014   2322               TST     R18
   \   00000016   F019               BREQ    ??migINI_1
   \   00000018   B318               IN      R17, 0x18
   \   0000001A   2B10               OR      R17, R16
   \   0000001C   C003               RJMP    ??migINI_2
     70              else RES(PORTB,port);
   \                     ??migINI_1:
   \   0000001E   9500               COM     R16
   \   00000020   B318               IN      R17, 0x18
   \   00000022   2310               AND     R17, R16
   \                     ??migINI_2:
   \   00000024   BB18               OUT     0x18, R17
     71                          }
     72            
     73            
     74            raz=razp;  port=sel; razct=0;
   \                     ??migINI_0:
   \   00000026   9350....           STS     ??raz, R21
   \   0000002A   9330....           STS     ??port, R19
   \   0000002E   E000               LDI     R16, 0
   \   00000030   9300....           STS     ??razct, R16
     75            
     76            
     77            TimerSet(&tm2,5);
   \   00000034   E045               LDI     R20, 5
   \   00000036   ....               RCALL   ?Subroutine116
   \                     ??CrossCallReturnLabel_344:
   \   00000038   ....               RCALL   ?Subroutine108
     78            tm2.out=1;
   \                     ??CrossCallReturnLabel_198:
   \   0000003A   E001               LDI     R16, 1
   \   0000003C   9300....           STS     (tm2 + 8), R16
     79            //iniT2(5);
     80            //T2out=1;
     81            
     82          }
   \   00000040   9508               RET
   \   00000042                      REQUIRE _A_PORTB

   \                                 In  segment CODE, align 2, keep-with-next
   \                     ?Subroutine108:
   \   00000000   ....               LDI     R16, LOW(tm2)
   \   00000002   ....               LDI     R17, (tm2) >> 8
   \   00000004   ....               RJMP    TimerSet

   \                                 In  segment CODE, align 2, keep-with-next
   \                     ?Subroutine6:
   \   00000000   ....               RCALL   ?Subroutine109
   \                     ??CrossCallReturnLabel_203:
   \   00000002   B318               IN      R17, 0x18
   \   00000004   2B10               OR      R17, R16
   \   00000006                      REQUIRE ?Subroutine124
   \   00000006                      ;               // Fall through to label ?Subroutine124
     83          

   \                                 In  segment CODE, align 2, keep-with-next
     84          void migWORK(void)//мигание 
   \                     migWORK:
     85          {
     86            static bool sost=0;
     87           // TimerTick(&tm2); // WorkT2();
     88            if (tm2.out==1 && port!=255)  {
   \   00000000   9100....           LDS     R16, (tm2 + 8)
   \   00000004   2300               TST     R16
   \   00000006   F091               BREQ    ??CrossCallReturnLabel_248
   \   00000008   9100....           LDS     R16, ??port
   \   0000000C   3F0F               CPI     R16, 255
   \   0000000E   F071               BREQ    ??CrossCallReturnLabel_248
     89                 if (sost!=1)  {sost=1; TimerSet(&tm2,400); SET(PORTB,port); razct++;}
   \   00000010   9100....           LDS     R16, ??sost
   \   00000014   2300               TST     R16
   \   00000016   F439               BRNE    ??migWORK_0
   \   00000018   E001               LDI     R16, 1
   \   0000001A   ....               RCALL   ?Subroutine56
   \                     ??CrossCallReturnLabel_74:
   \   0000001C   ....               RCALL   ?Subroutine6
   \                     ??CrossCallReturnLabel_246:
   \   0000001E   ....               LDI     R30, LOW(??razct)
   \   00000020   ....               LDI     R31, (??razct) >> 8
   \   00000022   ....               RCALL   ??Subroutine135_0
   \                     ??CrossCallReturnLabel_287:
   \   00000024   C003               RJMP    ??CrossCallReturnLabel_248
     90            else if (sost!=0)  {sost=0; TimerSet(&tm2,400); RES(PORTB,port);}
   \                     ??migWORK_0:
   \   00000026   E000               LDI     R16, 0
   \   00000028   ....               RCALL   ?Subroutine56
     91                                        }
   \                     ??CrossCallReturnLabel_75:
   \   0000002A   ....               RCALL   ?Subroutine87
     92            if (razct>=raz) {  tm2.out=1; port=255;}
   \                     ??CrossCallReturnLabel_248:
   \   0000002C   9100....           LDS     R16, ??razct
   \   00000030   9110....           LDS     R17, ??raz
   \   00000034   1701               CP      R16, R17
   \   00000036   F030               BRCS    ??migWORK_1
   \   00000038   E001               LDI     R16, 1
   \   0000003A   9300....           STS     (tm2 + 8), R16
   \   0000003E   EF0F               LDI     R16, 255
   \   00000040   9300....           STS     ??port, R16
     93          }
   \                     ??migWORK_1:
   \   00000044   9508               RET
   \   00000046                      REQUIRE _A_PORTB

   \                                 In  segment CODE, align 2, keep-with-next
   \                     ?Subroutine56:
   \   00000000   9300....           STS     ??sost, R16
   \   00000004   E940               LDI     R20, 144
   \   00000006   E051               LDI     R21, 1
   \   00000008   E060               LDI     R22, 0
   \   0000000A   E070               LDI     R23, 0
   \   0000000C   ....               RCALL   ?Subroutine108
   \                     ??CrossCallReturnLabel_197:
   \   0000000E   9140....           LDS     R20, ??port
   \   00000012   9508               RET

   \                                 In  segment NEAR_Z, align 1, keep-with-next
   \   00000000                      REQUIRE `?<Segment init: NEAR_Z>`
   \                     ??sost:
   \   00000000                      DS8 1
     94          //uchar migSEL(void){ return(port);} //возвращает текущий мигающий порт
     95          //**************************************************************
     96          //**************************************************************
F:\Dulov\RemoteAMP\usart.c
      1          #include "usart.h"
      2          //#include <math.h>
      3          //#include <intrinsics.h>
      4          
      5          #include "init.h"
      6          
      7          //однобайтный буфер

   \                                 In  segment NEAR_Z, align 1, keep-with-next
   \   00000000                      REQUIRE `?<Segment init: NEAR_Z>`
      8          volatile unsigned char usartRxBuf = 0;
   \                     usartRxBuf:
   \   00000000                      DS8 1

   \                                 In  segment NEAR_Z, align 1, keep-with-next
   \   00000000                      REQUIRE `?<Segment init: NEAR_Z>`
      9          volatile static bool usarton;
   \                     ??usarton:
   \   00000000                      DS8 1
     10          
     11          //инициализация usart`a

   \                                 In  segment CODE, align 2, keep-with-next
     12          void USART_Init()
   \                     USART_Init:
     13          {
     14            UBRRH = 0;
   \   00000000   E000               LDI     R16, 0
   \   00000002   BD00               OUT     0x20, R16
     15            UBRRL = ((F_CPU/9600UL)-1)/16;//    26;//78; //скорость обмена 9600 бод
   \   00000004   E109               LDI     R16, 25
   \   00000006   B909               OUT     0x09, R16
     16            UCSRB = (1<<RXCIE)|(1<<RXEN)|(1<<TXEN); //разр. прерыв при приеме, разр приема, разр передачи.
   \   00000008   E908               LDI     R16, 152
   \   0000000A   B90A               OUT     0x0A, R16
     17            UCSRC = (1<<URSEL)|(1<<UCSZ1)|(1<<UCSZ0); //размер слова 8 разрядов
   \   0000000C   E806               LDI     R16, 134
   \   0000000E   BD00               OUT     0x20, R16
     18          }
   \   00000010   9508               RET
   \   00000012                      REQUIRE _A_UBRRH
   \   00000012                      REQUIRE _A_UBRRL
   \   00000012                      REQUIRE _A_UCSRB
     19          
     20          //отправка символа по usart`у

   \                                 In  segment CODE, align 2, keep-with-next
     21          void USART_SendChar(unsigned char sym)
   \                     USART_SendChar:
     22          {
     23            if (!usarton) return;
   \   00000000   9110....           LDS     R17, ??usarton
   \   00000004   2311               TST     R17
   \   00000006   F019               BREQ    ??USART_SendChar_0
     24            while(!(UCSRA & (1<<UDRE)));
   \                     ??USART_SendChar_1:
   \   00000008   9B5D               SBIS    0x0B, 0x05
   \   0000000A   CFFE               RJMP    ??USART_SendChar_1
     25            UDR = sym;
   \   0000000C   B90C               OUT     0x0C, R16
     26          }
   \                     ??USART_SendChar_0:
   \   0000000E   9508               RET
   \   00000010                      REQUIRE _A_UCSRA
   \   00000010                      REQUIRE _A_UDR
     27          
     28          //чтение буфера

   \                                 In  segment CODE, align 2, keep-with-next
     29          __monitor unsigned char USART_GetChar(void)
   \                     USART_GetChar:
     30          {
   \   00000000   B72F               IN      R18, 0x3F
   \   00000002   94F8               CLI
     31            unsigned char tmp = usartRxBuf;
   \   00000004   9100....           LDS     R16, usartRxBuf
     32            usartRxBuf = 0;
   \   00000008   E010               LDI     R17, 0
   \   0000000A   9310....           STS     usartRxBuf, R17
     33            return tmp;  
   \   0000000E   BF2F               OUT     0x3F, R18
   \   00000010   9508               RET
     34          }
     35          
     36          //прием символа по usart`у в буфер
     37          #pragma vector=USART_RXC_vect

   \                                 In  segment CODE, align 2, keep-with-next
     38          __interrupt void usart_rxc_my(void) 
   \                     usart_rxc_my:
     39          {
   \   00000000   930A               ST      -Y, R16
     40            usartRxBuf = UDR; 
   \   00000002   B10C               IN      R16, 0x0C
   \   00000004   9300....           STS     usartRxBuf, R16
     41          } 
   \   00000008   ....               RJMP    ?Subroutine125
   \   0000000A                      REQUIRE _A_UDR
     42          
     43          // *** rprintfStr ***
     44          // prints a null-terminated string stored in RAM

   \                                 In  segment CODE, align 2, keep-with-next
     45          void rprintfStr(char str[])
   \                     rprintfStr:
     46          {        
   \   00000000   ....               RCALL   ?PROLOGUE4_L09
   \   00000002   01D8               MOVW    R27:R26, R17:R16
     47              if (!usarton) return;
   \   00000004   9100....           LDS     R16, ??usarton
   \   00000008   2300               TST     R16
   \   0000000A   F041               BREQ    ??rprintfStr_0
     48          	// send a string stored in RAM
     49          	// check to make sure we have a good pointer
     50          	if (!str) return;
   \   0000000C   2F0A               MOV     R16, R26
   \   0000000E   2B01               OR      R16, R17
   \   00000010   F411               BRNE    ??rprintfStr_1
   \   00000012   C004               RJMP    ??rprintfStr_0
     51          
     52          	// print the string until a null-terminator
     53          	while (*str)
     54          		USART_SendChar(*str++);
   \                     ??rprintfStr_2:
   \   00000014   ....               RCALL   USART_SendChar
   \                     ??rprintfStr_1:
   \   00000016   910D               LD      R16, X+
   \   00000018   2300               TST     R16
   \   0000001A   F7E1               BRNE    ??rprintfStr_2
     55          }
   \                     ??rprintfStr_0:
   \   0000001C   E0E4               LDI     R30, 4
   \   0000001E   ....               RJMP    ?EPILOGUE_B4_L09
     56          
     57          // *** rprintfFloat ***Pascal Stang - Copyright (C) 2000-2002
     58          // floating-point print

   \                                 In  segment CODE, align 2, keep-with-next
     59          void rprintfFloat(char numDigits, double x)
   \                     rprintfFloat:
     60          {
   \   00000000   ....               RCALL   ?PROLOGUE12_L09
   \   00000002                      REQUIRE ?Register_R4_is_cg_reg
   \   00000002                      REQUIRE ?Register_R5_is_cg_reg
   \   00000002                      REQUIRE ?Register_R6_is_cg_reg
   \   00000002                      REQUIRE ?Register_R7_is_cg_reg
   \   00000002                      REQUIRE ?Register_R8_is_cg_reg
   \   00000002                      REQUIRE ?Register_R9_is_cg_reg
   \   00000002                      REQUIRE ?Register_R10_is_cg_reg
   \   00000002                      REQUIRE ?Register_R11_is_cg_reg
   \   00000002   2EB0               MOV     R11, R16
   \   00000004   012A               MOVW    R5:R4, R21:R20
   \   00000006   013B               MOVW    R7:R6, R23:R22
     61              if (!usarton) return;
   \   00000008   9100....           LDS     R16, ??usarton
   \   0000000C   2300               TST     R16
   \   0000000E   F409               BRNE    $+2+2
   \   00000010   C04F               RJMP    ??rprintfFloat_0
     62          	unsigned char firstplace = 0;
   \   00000012   24AA               CLR     R10
     63          	unsigned char negative;
     64          	unsigned char i, digit;
     65          	double place = 1.0;
   \   00000014   E080               LDI     R24, 0
   \   00000016   E090               LDI     R25, 0
   \   00000018   E8A0               LDI     R26, 128
   \   0000001A   E3BF               LDI     R27, 63
     66          	
     67          	// save sign
     68          	negative = (x<0);
   \   0000001C   E040               LDI     R20, 0
   \   0000001E   ....               RCALL   ?Subroutine116
   \                     ??CrossCallReturnLabel_345:
   \   00000020   ....               RCALL   ?Subroutine98
   \                     ??CrossCallReturnLabel_170:
   \   00000022   ....               RCALL   ?F_CMP_LT_L04
   \   00000024   2488               CLR     R8
   \   00000026   F408               BRCC    ??rprintfFloat_1
   \   00000028   9483               INC     R8
     69          	// convert to absolute value
     70          	x = (x>0)?(x):(-x);
   \                     ??rprintfFloat_1:
   \   0000002A   E041               LDI     R20, 1
   \   0000002C   ....               RCALL   ?F_CMP_GE_L04
   \   0000002E   F008               BRCS    ??rprintfFloat_2
   \   00000030   267A               EOR     R7, R26
     71          	
     72          	// find starting digit place
     73          	for(i=0; i<15; i++)
   \                     ??rprintfFloat_2:
   \   00000032   E00F               LDI     R16, 15
   \   00000034   2E90               MOV     R9, R16
     74          	{
     75          		if((x/place) < 10.0)
   \                     ??rprintfFloat_3:
   \   00000036   ....               RCALL   ?Subroutine53
   \                     ??CrossCallReturnLabel_67:
   \   00000038   ....               RCALL   ?Subroutine54
   \                     ??CrossCallReturnLabel_69:
   \   0000003A   ....               RCALL   ?F_CMP_LT_L04
   \   0000003C   F038               BRCS    ??rprintfFloat_4
     76          			break;
     77          		else
     78          			place *= 10.0;
   \   0000003E   018C               MOVW    R17:R16, R25:R24
   \   00000040   019D               MOVW    R19:R18, R27:R26
   \   00000042   ....               RCALL   ?F_MUL_L04
   \   00000044   01C8               MOVW    R25:R24, R17:R16
   \   00000046   01D9               MOVW    R27:R26, R19:R18
     79          	}
   \   00000048   949A               DEC     R9
   \   0000004A   F7A9               BRNE    ??rprintfFloat_3
     80          	// print polarity character
     81          	if(negative)
   \                     ??rprintfFloat_4:
   \   0000004C   FA80               BST     R8, 0
   \   0000004E   F416               BRTC    ??rprintfFloat_5
     82          		USART_SendChar('-');
   \   00000050   E20D               LDI     R16, 45
   \   00000052   C001               RJMP    ??rprintfFloat_6
     83          	else
     84          		USART_SendChar('+');
   \                     ??rprintfFloat_5:
   \   00000054   E20B               LDI     R16, 43
   \                     ??rprintfFloat_6:
   \   00000056   ....               RCALL   USART_SendChar
     85          
     86          	// print digits
     87          	for(i=0; i<numDigits; i++)
   \   00000058   2499               CLR     R9
   \   0000005A   C017               RJMP    ??rprintfFloat_7
     88          	{
     89          		digit = (unsigned char)(x/place);
     90          
     91          		if(digit | firstplace | (place == 1.0))
     92          		{
     93          			firstplace = 1;
     94          			USART_SendChar(digit+0x30);
     95          		}
     96          		else
     97          			USART_SendChar(' ');
   \                     ??rprintfFloat_8:
   \   0000005C   E200               LDI     R16, 32
   \                     ??rprintfFloat_9:
   \   0000005E   ....               RCALL   USART_SendChar
     98          		
     99          		if(place == 1.0)
   \   00000060   ....               RCALL   ?Subroutine50
   \                     ??CrossCallReturnLabel_59:
   \   00000062   F411               BRNE    ??rprintfFloat_10
    100          		{
    101          			USART_SendChar('.');
   \   00000064   E20E               LDI     R16, 46
   \   00000066   ....               RCALL   USART_SendChar
    102          		}
    103          		
    104          		x -= (digit*place);
   \                     ??rprintfFloat_10:
   \   00000068   2D08               MOV     R16, R8
   \   0000006A   ....               RCALL   ?Subroutine110
   \                     ??CrossCallReturnLabel_279:
   \   0000006C   01AC               MOVW    R21:R20, R25:R24
   \   0000006E   01BD               MOVW    R23:R22, R27:R26
   \   00000070   ....               RCALL   ?F_MUL_L04
   \   00000072   ....               RCALL   ?Subroutine111
   \                     ??CrossCallReturnLabel_274:
   \   00000074   ....               RCALL   ?Subroutine98
   \                     ??CrossCallReturnLabel_171:
   \   00000076   ....               RCALL   ?F_SUB_L04
   \   00000078   0128               MOVW    R5:R4, R17:R16
   \   0000007A   0139               MOVW    R7:R6, R19:R18
    105          		place /= 10.0;
   \   0000007C   ....               RCALL   ?Subroutine54
   \                     ??CrossCallReturnLabel_70:
   \   0000007E   018C               MOVW    R17:R16, R25:R24
   \   00000080   019D               MOVW    R19:R18, R27:R26
   \   00000082   ....               RCALL   ?F_DIV_L04
   \   00000084   01C8               MOVW    R25:R24, R17:R16
   \   00000086   01D9               MOVW    R27:R26, R19:R18
   \   00000088   9493               INC     R9
   \                     ??rprintfFloat_7:
   \   0000008A   149B               CP      R9, R11
   \   0000008C   F488               BRCC    ??rprintfFloat_0
   \   0000008E   ....               RCALL   ?Subroutine53
   \                     ??CrossCallReturnLabel_68:
   \   00000090   ....               RCALL   ?F2SL_L04
   \   00000092   2E80               MOV     R8, R16
   \   00000094   ....               RCALL   ?Subroutine50
   \                     ??CrossCallReturnLabel_60:
   \   00000096   F411               BRNE    ??rprintfFloat_11
   \   00000098   E001               LDI     R16, 1
   \   0000009A   C001               RJMP    ??rprintfFloat_12
   \                     ??rprintfFloat_11:
   \   0000009C   E000               LDI     R16, 0
   \                     ??rprintfFloat_12:
   \   0000009E   2D18               MOV     R17, R8
   \   000000A0   291A               OR      R17, R10
   \   000000A2   2B10               OR      R17, R16
   \   000000A4   F2D9               BREQ    ??rprintfFloat_8
   \   000000A6   24AA               CLR     R10
   \   000000A8   94A3               INC     R10
   \   000000AA   2D08               MOV     R16, R8
   \   000000AC   5D00               SUBI    R16, 208
   \   000000AE   CFD7               RJMP    ??rprintfFloat_9
    106          	}
    107          }
   \                     ??rprintfFloat_0:
   \   000000B0   E0EC               LDI     R30, 12
   \   000000B2   ....               RJMP    ?EPILOGUE_B12_L09

   \                                 In  segment CODE, align 2, keep-with-next
   \                     ?Subroutine54:
   \   00000000   E040               LDI     R20, 0
   \   00000002   E050               LDI     R21, 0
   \   00000004   E260               LDI     R22, 32
   \   00000006   E471               LDI     R23, 65
   \   00000008   9508               RET

   \                                 In  segment CODE, align 2, keep-with-next
   \                     ?Subroutine53:
   \   00000000   01AC               MOVW    R21:R20, R25:R24
   \   00000002   01BD               MOVW    R23:R22, R27:R26
   \   00000004   ....               RCALL   ?Subroutine98
   \                     ??CrossCallReturnLabel_174:
   \   00000006   ....               RJMP    ?F_DIV_L04

   \                                 In  segment CODE, align 2, keep-with-next
   \                     ?Subroutine50:
   \   00000000   E040               LDI     R20, 0
   \   00000002   E050               LDI     R21, 0
   \   00000004   E860               LDI     R22, 128
   \   00000006   E37F               LDI     R23, 63
   \   00000008   018C               MOVW    R17:R16, R25:R24
   \   0000000A   019D               MOVW    R19:R18, R27:R26
   \   0000000C   ....               RJMP    ?F_CMP_EQ_L04

   \                                 In  segment INTVEC, offset 0x2, root
   \                     `??funINT0_vect??INTVEC 2`:
   \   00000002   ....               RJMP    funINT0_vect

   \                                 In  segment INTVEC, offset 0x8, root
   \                     `??TIMER2ovf??INTVEC 8`:
   \   00000008   ....               RJMP    TIMER2ovf

   \                                 In  segment INTVEC, offset 0x10, root
   \                     `??funTIMER1_OVF_vect??INTVEC 16`:
   \   00000010   ....               RJMP    funTIMER1_OVF_vect

   \                                 In  segment INTVEC, offset 0x16, root
   \                     `??usart_rxc_my??INTVEC 22`:
   \   00000016   ....               RJMP    usart_rxc_my

   \                                 In  segment NEAR_ID, align 1, keep-with-next
   \                     `?<Initializer for <Constant " error ct big =">`:
   \   00000000   65207272726F       DC8 " error ct big ="
   \              632020746962
   \              2067003D    

   \                                 In  segment NEAR_ID, align 1, keep-with-next
   \                     `?<Initializer for <Constant "  /   cod1= ">>`:
   \   00000000   2020202F2020       DC8 "  /   cod1= "
   \              6F633164203D
   \              00          

   \                                 In  segment NEAR_ID, align 1, keep-with-next
   \                     `?<Initializer for <Constant "/   cod2= ">>`:
   \   00000000   202F20206F63       DC8 "/   cod2= "
   \              3264203D00  

   \                                 In  segment NEAR_ID, align 1, keep-with-next
   \                     `?<Initializer for <Constant "/   cod3= ">>`:
   \   00000000   202F20206F63       DC8 "/   cod3= "
   \              3364203D00  

   \                                 In  segment NEAR_ID, align 1, keep-with-next
   \                     `?<Initializer for <Constant "  / abslen= ">>`:
   \   00000000   2020202F6261       DC8 "  / abslen= "
   \              6C736E65203D
   \              00          

   \                                 In  segment NEAR_ID, align 1, keep-with-next
   \                     `?<Initializer for <Constant "  / len= ">>`:
   \   00000000   2020202F656C       DC8 "  / len= "
   \              3D6E0020    

   \                                 In  segment NEAR_ID, align 1, keep-with-next
   \                     `?<Initializer for <Constant "  ">>`:
   \   00000000   202000             DC8 "  "

   \                                 In  segment NEAR_ID, align 1, keep-with-next
   \                     `?<Initializer for <Constant "  / cod1= ">>`:
   \   00000000   2020202F6F63       DC8 "  / cod1= "
   \              3164203D00  

   \                                 In  segment NEAR_ID, align 1, keep-with-next
   \                     `?<Initializer for <Constant " / cod2= ">>`:
   \   00000000   2F206320646F       DC8 " / cod2= "
   \              3D320020    

   \                                 In  segment NEAR_ID, align 1, keep-with-next
   \                     `?<Initializer for <Constant " / cod3= ">>`:
   \   00000000   2F206320646F       DC8 " / cod3= "
   \              3D330020    

   \                                 In  segment NEAR_ID, align 1, keep-with-next
   \                     `?<Initializer for <Constant "/ minlen=">>`:
   \   00000000   202F696D6C6E       DC8 "/ minlen="
   \              6E65003D    

   \                                 In  segment NEAR_ID, align 1, keep-with-next
   \                     `?<Initializer for <Constant "OFF>adr=">>`:
   \   00000000   464F3E466461       DC8 "OFF>adr="
   \              3D7200      

   \                                 In  segment NEAR_ID, align 1, keep-with-next
   \                     `?<Initializer for <Constant "ON>adr=">>`:
   \   00000000   4E4F613E7264       DC8 "ON>adr="
   \              003D        

   \                                 In  segment NEAR_ID, align 1, keep-with-next
   \                     `?<Initializer for <Constant "normal>command fi`:
   \   00000000   6F6E6D726C61       DC8 "normal>command find  adr="
   \              633E6D6F616D
   \              646E66206E69
   \              206461207264
   \              003D        

   \                                 In  segment NEAR_ID, align 1, keep-with-next
   \                     `?<Initializer for <Constant "write ..">>`:
   \   00000000   727774692065       DC8 "write .."
   \              2E2E00      

   \                                 In  segment NEAR_ID, align 1, keep-with-next
   \                     `?<Initializer for <Constant "OK !   ">>`:
   \   00000000   4B4F21202020       DC8 "OK !   "
   \              0020        

   \                                 In  segment NEAR_ID, align 1, keep-with-next
   \                     `?<Initializer for <Constant "- vkluchen kratki`:
   \   00000000   202D6B76756C       DC8 "- vkluchen kratkiy viviod -"
   \              68636E656B20
   \              61726B747969
   \              762076696F69
   \              2064002D    

   \                                 In  segment NEAR_ID, align 1, keep-with-next
   \                     `?<Initializer for <Constant " ==  EEPROM read `:
   \   00000000   3D20203D4520       DC8 " ==  EEPROM read == "
   \              50454F52204D
   \              657264613D20
   \              203D00      

   \                                 In  segment NEAR_ID, align 1, keep-with-next
   \                     `?<Initializer for <Constant " > ">>`:
   \   00000000   3E200020           DC8 " > "

   \                                 In  segment NEAR_ID, align 1, keep-with-next
   \                     `?<Initializer for <Constant " get: ">>`:
   \   00000000   67207465203A       DC8 " get: "
   \              00          

   \                                 In  segment NEAR_ID, align 1, keep-with-next
   \                     `?<Initializer for <Constant "  regim  no sourc`:
   \   00000000   202065726967       DC8 "  regim  no source5 >"
   \              206D6E20206F
   \              6F7372756563
   \              2035003E    

   \                                 In  segment NEAR_ID, align 1, keep-with-next
   \                     `?<Initializer for <Constant "  regim  PROGRAMM`:
   \   00000000   202065726967       DC8 "  regim  PROGRAMMING !!  READY >"
   \              206D50204F52
   \              52474D41494D
   \              474E21202021
   \              522041455944
   \              3E2000      

   \                                 In  segment NEAR_ID, align 1, keep-with-next
   \                     `?<Initializer for <Constant "  regim  normal  `:
   \   00000000   202065726967       DC8 "  regim  normal  READY >"
   \              206D6E20726F
   \              616D206C5220
   \              414559443E20
   \              00          

   \                                 In  segment NEAR_ID, align 1, keep-with-next
   \                     `?<Initializer for ind>`:
   \   00000000   01                 DC8 1

   \                                 In  segment NEAR_ID, align 1, keep-with-next
   \                     `?<Initializer for tON>`:
   \   00000000   4E20               DC16 20000

   \                                 In  segment NEAR_ID, align 1, keep-with-next
   \                     `?<Initializer for lastsel>`:
   \   00000000   01                 DC8 1

   \                                 In  segment NEAR_ID, align 1, keep-with-next
   \                     `?<Initializer for sel>`:
   \   00000000   01                 DC8 1

   \                                 In  segment NEAR_ID, align 1, keep-with-next
   \                     `?<Initializer for port>`:
   \   00000000   FF                 DC8 255

   \                                 In  segment NEAR_I, align 1, keep-with-next
   \   00000000                      REQUIRE `?<Segment init: NEAR_I>`
   \                     `?<Constant " error ct big =">`:
   \   00000000                      DS8 16
   \   00000010                      REQUIRE `?<Initializer for <Constant " error ct big =">`

   \                                 In  segment NEAR_I, align 1, keep-with-next
   \   00000000                      REQUIRE `?<Segment init: NEAR_I>`
   \                     `?<Constant "  /   cod1= ">`:
   \   00000000                      DS8 13
   \   0000000D                      REQUIRE `?<Initializer for <Constant "  /   cod1= ">>`

   \                                 In  segment NEAR_I, align 1, keep-with-next
   \   00000000                      REQUIRE `?<Segment init: NEAR_I>`
   \                     `?<Constant "/   cod2= ">`:
   \   00000000                      DS8 11
   \   0000000B                      REQUIRE `?<Initializer for <Constant "/   cod2= ">>`

   \                                 In  segment NEAR_I, align 1, keep-with-next
   \   00000000                      REQUIRE `?<Segment init: NEAR_I>`
   \                     `?<Constant "/   cod3= ">`:
   \   00000000                      DS8 11
   \   0000000B                      REQUIRE `?<Initializer for <Constant "/   cod3= ">>`

   \                                 In  segment NEAR_I, align 1, keep-with-next
   \   00000000                      REQUIRE `?<Segment init: NEAR_I>`
   \                     `?<Constant "  / abslen= ">`:
   \   00000000                      DS8 13
   \   0000000D                      REQUIRE `?<Initializer for <Constant "  / abslen= ">>`

   \                                 In  segment NEAR_I, align 1, keep-with-next
   \   00000000                      REQUIRE `?<Segment init: NEAR_I>`
   \                     `?<Constant "  / len= ">`:
   \   00000000                      DS8 10
   \   0000000A                      REQUIRE `?<Initializer for <Constant "  / len= ">>`

   \                                 In  segment NEAR_I, align 1, keep-with-next
   \   00000000                      REQUIRE `?<Segment init: NEAR_I>`
   \                     `?<Constant "  ">`:
   \   00000000                      DS8 3
   \   00000003                      REQUIRE `?<Initializer for <Constant "  ">>`

   \                                 In  segment NEAR_I, align 1, keep-with-next
   \   00000000                      REQUIRE `?<Segment init: NEAR_I>`
   \                     `?<Constant "  / cod1= ">`:
   \   00000000                      DS8 11
   \   0000000B                      REQUIRE `?<Initializer for <Constant "  / cod1= ">>`

   \                                 In  segment NEAR_I, align 1, keep-with-next
   \   00000000                      REQUIRE `?<Segment init: NEAR_I>`
   \                     `?<Constant " / cod2= ">`:
   \   00000000                      DS8 10
   \   0000000A                      REQUIRE `?<Initializer for <Constant " / cod2= ">>`

   \                                 In  segment NEAR_I, align 1, keep-with-next
   \   00000000                      REQUIRE `?<Segment init: NEAR_I>`
   \                     `?<Constant " / cod3= ">`:
   \   00000000                      DS8 10
   \   0000000A                      REQUIRE `?<Initializer for <Constant " / cod3= ">>`

   \                                 In  segment NEAR_I, align 1, keep-with-next
   \   00000000                      REQUIRE `?<Segment init: NEAR_I>`
   \                     `?<Constant "/ minlen=">`:
   \   00000000                      DS8 10
   \   0000000A                      REQUIRE `?<Initializer for <Constant "/ minlen=">>`

   \                                 In  segment NEAR_I, align 1, keep-with-next
   \   00000000                      REQUIRE `?<Segment init: NEAR_I>`
   \                     `?<Constant "OFF>adr=">`:
   \   00000000                      DS8 9
   \   00000009                      REQUIRE `?<Initializer for <Constant "OFF>adr=">>`

   \                                 In  segment NEAR_I, align 1, keep-with-next
   \   00000000                      REQUIRE `?<Segment init: NEAR_I>`
   \                     `?<Constant "ON>adr=">`:
   \   00000000                      DS8 8
   \   00000008                      REQUIRE `?<Initializer for <Constant "ON>adr=">>`

   \                                 In  segment NEAR_I, align 1, keep-with-next
   \   00000000                      REQUIRE `?<Segment init: NEAR_I>`
   \                     `?<Constant "normal>command find  ...">`:
   \   00000000                      DS8 26
   \   0000001A                      REQUIRE `?<Initializer for <Constant "normal>command fi`

   \                                 In  segment NEAR_I, align 1, keep-with-next
   \   00000000                      REQUIRE `?<Segment init: NEAR_I>`
   \                     `?<Constant "write ..">`:
   \   00000000                      DS8 9
   \   00000009                      REQUIRE `?<Initializer for <Constant "write ..">>`

   \                                 In  segment NEAR_I, align 1, keep-with-next
   \   00000000                      REQUIRE `?<Segment init: NEAR_I>`
   \                     `?<Constant "OK !   ">`:
   \   00000000                      DS8 8
   \   00000008                      REQUIRE `?<Initializer for <Constant "OK !   ">>`

   \                                 In  segment NEAR_I, align 1, keep-with-next
   \   00000000                      REQUIRE `?<Segment init: NEAR_I>`
   \                     `?<Constant "- vkluchen kratkiy vi...">`:
   \   00000000                      DS8 28
   \   0000001C                      REQUIRE `?<Initializer for <Constant "- vkluchen kratki`

   \                                 In  segment NEAR_I, align 1, keep-with-next
   \   00000000                      REQUIRE `?<Segment init: NEAR_I>`
   \                     `?<Constant " ==  EEPROM read == ">`:
   \   00000000                      DS8 21
   \   00000015                      REQUIRE `?<Initializer for <Constant " ==  EEPROM read `

   \                                 In  segment NEAR_I, align 1, keep-with-next
   \   00000000                      REQUIRE `?<Segment init: NEAR_I>`
   \                     `?<Constant " > ">`:
   \   00000000                      DS8 4
   \   00000004                      REQUIRE `?<Initializer for <Constant " > ">>`

   \                                 In  segment NEAR_I, align 1, keep-with-next
   \   00000000                      REQUIRE `?<Segment init: NEAR_I>`
   \                     `?<Constant " get: ">`:
   \   00000000                      DS8 7
   \   00000007                      REQUIRE `?<Initializer for <Constant " get: ">>`

   \                                 In  segment NEAR_I, align 1, keep-with-next
   \   00000000                      REQUIRE `?<Segment init: NEAR_I>`
   \                     `?<Constant "  regim  no source5 >">`:
   \   00000000                      DS8 22
   \   00000016                      REQUIRE `?<Initializer for <Constant "  regim  no sourc`

   \                                 In  segment NEAR_I, align 1, keep-with-next
   \   00000000                      REQUIRE `?<Segment init: NEAR_I>`
   \                     `?<Constant "  regim  PROGRAMMING ...">`:
   \   00000000                      DS8 33
   \   00000021                      REQUIRE `?<Initializer for <Constant "  regim  PROGRAMM`

   \                                 In  segment NEAR_I, align 1, keep-with-next
   \   00000000                      REQUIRE `?<Segment init: NEAR_I>`
   \                     `?<Constant "  regim  normal  READY >">`:
   \   00000000                      DS8 25
   \   00000019                      REQUIRE `?<Initializer for <Constant "  regim  normal  `

   Maximum stack usage in bytes:

   CSTACK RSTACK Function
   ------ ------ --------
      8      4   PEREP
        8      2   -> USART_SendChar
        8      2   -> coding
        8      2   -> rprintfFloat
        8      2   -> rprintfStr
     15      2   TIMER2ovf
       15      2   -> TimerTick
      0      4   TimerSet
      0      2   TimerTick
      0      2   USART_GetChar
      0      2   USART_Init
      0      2   USART_SendChar
      2      4   analizCOD
      0      2   analiz_INT
     10      4   coding
       10      2   -> USART_SendChar
       10      2   -> rprintfFloat
       10      2   -> rprintfStr
      2      4   diag
        2      2   -> USART_GetChar
        2      2   -> USART_SendChar
        2      2   -> rprintfFloat
        2      2   -> rprintfStr
      0      2   du_init
      2      2   funINT0_vect
      2      2   funTIMER1_OVF_vect
      1      2   getadr
        1      2   -> mute
      0      4   gro
      0      2   iniPORTS
      0      2   led_all
      1      2   led_test
        1      2   -> led_all
      1      4   main
        1      2   -> TimerSet
        1      2   -> USART_Init
        1      2   -> analizCOD
        1      2   -> diag
        1      2   -> getadr
        1      2   -> iniPORTS
        1      2   -> led_all
        1      2   -> led_test
        1      2   -> main_logic
        1      2   -> main_power
        1      2   -> programming
        1      2   -> remote_main
        1      2   -> writeCOD
      0      4   main_logic
        0      2   -> TimerSet
        0      2   -> TimerTick
        0      2   -> USART_SendChar
        0      2   -> migWORK
        0      2   -> mute
        0      2   -> pult
        0      2   -> rprintfFloat
        0      2   -> rprintfStr
        0      2   -> select
      0      4   main_power
        0      2   -> USART_SendChar
        0      2   -> mute
        0      2   -> resOUT
        0      2   -> rprintfFloat
        0      2   -> rprintfStr
        0      2   -> source
      0      4   migINI
        0      2   -> TimerSet
      0      4   migWORK
        0      2   -> TimerSet
      0      2   mute
      1      2   programming
        1      2   -> getadr
        1      2   -> led_all
        1      2   -> writeCOD
      0      4   proverka
      0      2   pult
        0      2   -> source
      0      2   remote_main
        0      2   -> PEREP
        0      2   -> analiz_INT
        0      2   -> du_init
      0      2   resOUT
      0      2   resled
     12      4   rprintfFloat
       12      2   -> USART_SendChar
      4      2   rprintfStr
        4      2   -> USART_SendChar
      1      2   select
        1      2   -> migINI
        1      2   -> mute
        1      2   -> pult
      0      2   source
        0      2   -> migINI
        0      2   -> source2
      1      4   source2
        1      2   -> resOUT
        1      2   -> resled
      2      2   usart_rxc_my
      0      4   writeCOD
        0      2   -> USART_SendChar
        0      2   -> getadr
        0      2   -> led_all
        0      2   -> rprintfStr


   Segment part sizes:

   Bytes  Function/Label
   -----  --------------
       3  ?<Constant "  ">
      13  ?<Constant "  /   cod1= ">
      13  ?<Constant "  / abslen= ">
      11  ?<Constant "  / cod1= ">
      10  ?<Constant "  / len= ">
      33  ?<Constant "  regim  PROGRAMMING ...">
      22  ?<Constant "  regim  no source5 >">
      25  ?<Constant "  regim  normal  READY >">
      10  ?<Constant " / cod2= ">
      10  ?<Constant " / cod3= ">
      21  ?<Constant " ==  EEPROM read == ">
       4  ?<Constant " > ">
      16  ?<Constant " error ct big =">
       7  ?<Constant " get: ">
      28  ?<Constant "- vkluchen kratkiy vi...">
      11  ?<Constant "/   cod2= ">
      11  ?<Constant "/   cod3= ">
      10  ?<Constant "/ minlen=">
       9  ?<Constant "OFF>adr=">
       8  ?<Constant "OK !   ">
       8  ?<Constant "ON>adr=">
      26  ?<Constant "normal>command find  ...">
       9  ?<Constant "write ..">
       3  ?<Initializer for <Constant "  ">>
      13  ?<Initializer for <Constant "  /   cod1= ">>
      13  ?<Initializer for <Constant "  / abslen= ">>
      11  ?<Initializer for <Constant "  / cod1= ">>
      10  ?<Initializer for <Constant "  / len= ">>
      33  ?<Initializer for <Constant "  regim  PROGRAMM
      22  ?<Initializer for <Constant "  regim  no sourc
      25  ?<Initializer for <Constant "  regim  normal
      10  ?<Initializer for <Constant " / cod2= ">>
      10  ?<Initializer for <Constant " / cod3= ">>
      21  ?<Initializer for <Constant " ==  EEPROM read
       4  ?<Initializer for <Constant " > ">>
      16  ?<Initializer for <Constant " error ct big =">
       7  ?<Initializer for <Constant " get: ">>
      28  ?<Initializer for <Constant "- vkluchen kratki
      11  ?<Initializer for <Constant "/   cod2= ">>
      11  ?<Initializer for <Constant "/   cod3= ">>
      10  ?<Initializer for <Constant "/ minlen=">>
       9  ?<Initializer for <Constant "OFF>adr=">>
       8  ?<Initializer for <Constant "OK !   ">>
       8  ?<Initializer for <Constant "ON>adr=">>
      26  ?<Initializer for <Constant "normal>command fi
       9  ?<Initializer for <Constant "write ..">>
       1  ?<Initializer for ind>
       1  ?<Initializer for lastsel>
       1  ?<Initializer for port>
       1  ?<Initializer for sel>
       2  ?<Initializer for tON>
       2  ??Subroutine129_0
       4  ??Subroutine130_0
       8  ??Subroutine131_0
       6  ??Subroutine132_0
       2  ??Subroutine133_0
       4  ??Subroutine134_0
       6  ??Subroutine135_0
       4  ??Subroutine136_0
       6  ??Subroutine137_0
       8  ??Subroutine138_0
       4  ??Subroutine139_0
       6  ??Subroutine140_0
      18  ??Subroutine141_0
       6  ??Subroutine142_0
       6  ??Subroutine143_0
       4  ??Subroutine144_0
       2  ??TIMER2ovf??INTVEC 8
       2  ??funINT0_vect??INTVEC 2
       2  ??funTIMER1_OVF_vect??INTVEC 16
       2  ??usart_rxc_my??INTVEC 22
      18  ?Subroutine0
      16  ?Subroutine1
       6  ?Subroutine100
       6  ?Subroutine101
       2  ?Subroutine102
       6  ?Subroutine104
       2  ?Subroutine105
      20  ?Subroutine106
      10  ?Subroutine107
       6  ?Subroutine108
       6  ?Subroutine109
      16  ?Subroutine11
       4  ?Subroutine110
       6  ?Subroutine111
      20  ?Subroutine112
       4  ?Subroutine114
       4  ?Subroutine115
       8  ?Subroutine116
       6  ?Subroutine117
       6  ?Subroutine118
       6  ?Subroutine119
       8  ?Subroutine12
       4  ?Subroutine120
       4  ?Subroutine121
       4  ?Subroutine122
       4  ?Subroutine123
       4  ?Subroutine124
       4  ?Subroutine125
       4  ?Subroutine126
       4  ?Subroutine127
       4  ?Subroutine128
       2  ?Subroutine13
       2  ?Subroutine14
       4  ?Subroutine15
       8  ?Subroutine16
       8  ?Subroutine17
      12  ?Subroutine18
      10  ?Subroutine19
      12  ?Subroutine2
      10  ?Subroutine20
      10  ?Subroutine21
       4  ?Subroutine22
       6  ?Subroutine23
      24  ?Subroutine25
      10  ?Subroutine26
       8  ?Subroutine27
       2  ?Subroutine28
       2  ?Subroutine29
      10  ?Subroutine3
       4  ?Subroutine31
       8  ?Subroutine32
       4  ?Subroutine33
      10  ?Subroutine34
       4  ?Subroutine35
       2  ?Subroutine37
       6  ?Subroutine39
       4  ?Subroutine4
       4  ?Subroutine41
      14  ?Subroutine42
       2  ?Subroutine43
      22  ?Subroutine44
       2  ?Subroutine45
       4  ?Subroutine46
       2  ?Subroutine47
       2  ?Subroutine49
      14  ?Subroutine50
       6  ?Subroutine51
       6  ?Subroutine52
       8  ?Subroutine53
      10  ?Subroutine54
       8  ?Subroutine55
      20  ?Subroutine56
       6  ?Subroutine57
       4  ?Subroutine59
       6  ?Subroutine6
       4  ?Subroutine60
       4  ?Subroutine61
       6  ?Subroutine62
       4  ?Subroutine63
      16  ?Subroutine64
       6  ?Subroutine65
       2  ?Subroutine66
       2  ?Subroutine69
       8  ?Subroutine7
       6  ?Subroutine70
       6  ?Subroutine71
       6  ?Subroutine72
      20  ?Subroutine74
       6  ?Subroutine75
       6  ?Subroutine76
      20  ?Subroutine77
      10  ?Subroutine8
       6  ?Subroutine80
      10  ?Subroutine82
       2  ?Subroutine83
      20  ?Subroutine84
      10  ?Subroutine85
      10  ?Subroutine86
      10  ?Subroutine87
       2  ?Subroutine89
       4  ?Subroutine9
       8  ?Subroutine90
       8  ?Subroutine91
       4  ?Subroutine92
       6  ?Subroutine93
       6  ?Subroutine94
       4  ?Subroutine95
      10  ?Subroutine96
       6  ?Subroutine97
       6  ?Subroutine98
      10  ?Subroutine99
     256  PEREP
      94  TIMER2ovf
      34  TimerSet
      64  TimerTick
      18  USART_GetChar
      18  USART_Init
      16  USART_SendChar
       1  _A_ACSR
       1  _A_DDRB
       1  _A_DDRC
       1  _A_DDRD
       1  _A_GICR
       2  _A_ICR1
       1  _A_MCUCR
       2  _A_OCR1A
       2  _A_OCR1B
       1  _A_PIND
       1  _A_PORTB
       1  _A_PORTC
       1  _A_PORTD
       1  _A_TCCR1A
       1  _A_TCCR1B
       1  _A_TCCR2
       1  _A_TCNT0
       2  _A_TCNT1
       1  _A_TCNT2
       1  _A_TIFR
       1  _A_TIMSK
       1  _A_UBRRH
       1  _A_UBRRL
       1  _A_UCSRA
       1  _A_UCSRB
       1  _A_UDR
      46  analizCOD
      44  analiz_INT
       1  aoff
       1  big
       1  c1
       1  c2
       1  c3
       2  cod1
       2  cod2
       2  cod3
       2  cod4
       1  cod_ok
     522  coding
       1  ct
     124  diag
     100  dim1
     100  dim2
      24  du_init
       1  fmode
      46  funINT0_vect
       8  funTIMER1_OVF_vect
       1  get
     222  getadr
      90  gro
       1  gro1
       1  gro2
       1  ind
       1  ini
     118  iniPORTS
       1  intok
     240  k
       1  lastsel
      32  led_all
      18  led_test
     200  len
     292  main
     592  main_logic
     168  main_power
      66  migINI
      70  migWORK
       2  minimallen
       1  mode
       1  mode_programming
       1  modegro
      50  mute
       1  on
       1  onok
       1  perepoln
       1  port
       1  pr
      82  programming
      36  proverka
      14  pult
       1  pultadr
       1  raz
       1  razct
       1  regaoff
      42  remote_main
      14  resOUT
      10  resled
     180  rprintfFloat
      32  rprintfStr
       1  sel
      34  select
       1  sost
      36  source
      20  source2
       1  state
       1  t1
       1  t2
       2  tON
       1  tekfunc
       1  til
       2  timerzad
       9  tm1
       9  tm2
       9  tm3
       9  tm4
       9  tm5
       1  u
       1  usartRxBuf
      10  usart_rxc_my
       1  usarton
      70  writeCOD
       1  zader
      12  -- Other

 
    30 bytes in segment ABSOLUTE
 4 528 bytes in segment CODE
   242 bytes in segment EEPROM_N
    12 bytes in segment INITTAB
     8 bytes in segment INTVEC
   324 bytes in segment NEAR_I
   324 bytes in segment NEAR_ID
   489 bytes in segment NEAR_Z
 
 4 852 bytes of CODE  memory (+ 20 bytes shared)
   813 bytes of DATA  memory (+ 30 bytes shared)
   242 bytes of XDATA memory

Errors: none
Warnings: 1
