###############################################################################
#
# IAR C/C++ Compiler V6.40.1.741 for Atmel AVR            07/Feb/2017  15:42:50
# Copyright 1996-2014 IAR Systems AB.
#
#    Source file  =  F:\Dulov\remoteamp\du.c
#    Command line =  
#        F:\Dulov\remoteamp\du.c --cpu=m8 -ms -o
#        F:\Dulov\remoteamp\Release\Obj\ -D NDEBUG -lC
#        F:\Dulov\remoteamp\Release\List\ -lA F:\Dulov\remoteamp\Release\List\
#        --initializers_in_flash --no_clustering -DENABLE_BIT_DEFINITIONS -e
#        --eeprom_size 512 --dlib --dlib_config "C:\Program Files\IAR
#        Systems\Embedded Workbench 6.5\avr\LIB\DLIB\dlAVR-1s-ec_mul-n.h" -Ohz
#        --mfc F:\Dulov\remoteamp\main.c F:\Dulov\remoteamp\SoftTimers.c
#        F:\Dulov\remoteamp\usart.c
#    List file    =  F:\Dulov\remoteamp\Release\List\du.lst
#    Object file  =  F:\Dulov\remoteamp\Release\Obj\du.r90
#
###############################################################################

F:\Dulov\remoteamp\du.c
      1          //***************************************************************************
      2          //
      3          //  Author(s)...: dav COBRA 
      4          //
      5          //  Target(s)...: ATMega8
      6          //
      7          //  Compiler....: 6 40
      8          //
      9          //  Description.: Универсальный ДЕКОДЕР ДУ v1.25
     10          //
     11          //  Data........: 2014
     12          //
     13          //***************************************************************************
     14          #include <stdbool.h>//поддержка bool
     15          #include "iom8.h"//<ioavr.h>

   \                                 In  segment ABSOLUTE, at 0x28
   \   union <unnamed> volatile __io _A_ACSR
   \                     _A_ACSR:
   \   00000000                      DS8 1

   \                                 In  segment ABSOLUTE, at 0x29
   \   union <unnamed> volatile __io _A_UBRRL
   \                     _A_UBRRL:
   \   00000000                      DS8 1

   \                                 In  segment ABSOLUTE, at 0x2a
   \   union <unnamed> volatile __io _A_UCSRB
   \                     _A_UCSRB:
   \   00000000                      DS8 1

   \                                 In  segment ABSOLUTE, at 0x2b
   \   union <unnamed> volatile __io _A_UCSRA
   \                     _A_UCSRA:
   \   00000000                      DS8 1

   \                                 In  segment ABSOLUTE, at 0x2c
   \   union <unnamed> volatile __io _A_UDR
   \                     _A_UDR:
   \   00000000                      DS8 1

   \                                 In  segment ABSOLUTE, at 0x30
   \   union <unnamed> volatile __io _A_PIND
   \                     _A_PIND:
   \   00000000                      DS8 1

   \                                 In  segment ABSOLUTE, at 0x31
   \   union <unnamed> volatile __io _A_DDRD
   \                     _A_DDRD:
   \   00000000                      DS8 1

   \                                 In  segment ABSOLUTE, at 0x32
   \   union <unnamed> volatile __io _A_PORTD
   \                     _A_PORTD:
   \   00000000                      DS8 1

   \                                 In  segment ABSOLUTE, at 0x34
   \   union <unnamed> volatile __io _A_DDRC
   \                     _A_DDRC:
   \   00000000                      DS8 1

   \                                 In  segment ABSOLUTE, at 0x35
   \   union <unnamed> volatile __io _A_PORTC
   \                     _A_PORTC:
   \   00000000                      DS8 1

   \                                 In  segment ABSOLUTE, at 0x37
   \   union <unnamed> volatile __io _A_DDRB
   \                     _A_DDRB:
   \   00000000                      DS8 1

   \                                 In  segment ABSOLUTE, at 0x38
   \   union <unnamed> volatile __io _A_PORTB
   \                     _A_PORTB:
   \   00000000                      DS8 1

   \                                 In  segment ABSOLUTE, at 0x40
   \   union <unnamed> volatile __io _A_UBRRH
   \                     _A_UBRRH:
   \   00000000                      DS8 1

   \                                 In  segment ABSOLUTE, at 0x46
   \   union <unnamed> volatile __io _A_ICR1
   \                     _A_ICR1:
   \   00000000                      DS8 2

   \                                 In  segment ABSOLUTE, at 0x48
   \   union <unnamed> volatile __io _A_OCR1B
   \                     _A_OCR1B:
   \   00000000                      DS8 2

   \                                 In  segment ABSOLUTE, at 0x4a
   \   union <unnamed> volatile __io _A_OCR1A
   \                     _A_OCR1A:
   \   00000000                      DS8 2

   \                                 In  segment ABSOLUTE, at 0x4c
   \   union <unnamed> volatile __io _A_TCNT1
   \                     _A_TCNT1:
   \   00000000                      DS8 2

   \                                 In  segment ABSOLUTE, at 0x4e
   \   union <unnamed> volatile __io _A_TCCR1B
   \                     _A_TCCR1B:
   \   00000000                      DS8 1

   \                                 In  segment ABSOLUTE, at 0x4f
   \   union <unnamed> volatile __io _A_TCCR1A
   \                     _A_TCCR1A:
   \   00000000                      DS8 1

   \                                 In  segment ABSOLUTE, at 0x52
   \   union <unnamed> volatile __io _A_TCNT0
   \                     _A_TCNT0:
   \   00000000                      DS8 1

   \                                 In  segment ABSOLUTE, at 0x55
   \   union <unnamed> volatile __io _A_MCUCR
   \                     _A_MCUCR:
   \   00000000                      DS8 1

   \                                 In  segment ABSOLUTE, at 0x58
   \   union <unnamed> volatile __io _A_TIFR
   \                     _A_TIFR:
   \   00000000                      DS8 1

   \                                 In  segment ABSOLUTE, at 0x59
   \   union <unnamed> volatile __io _A_TIMSK
   \                     _A_TIMSK:
   \   00000000                      DS8 1

   \                                 In  segment ABSOLUTE, at 0x5b
   \   union <unnamed> volatile __io _A_GICR
   \                     _A_GICR:
   \   00000000                      DS8 1
     16          #include <inavr.h>
     17          #include <intrinsics.h> 
     18          #include "init.h"
     19          #include "usart.h"
     20          #include "main.h"
     21          #include "eeprom.h"

   \                                 In  segment EEPROM_N, align 1, keep-with-next
   \   unsigned int __eeprom k[120]
   \                     k:
   \   00000000                      DS8 240

   \                                 In  segment EEPROM_N, align 1, keep-with-next
   \   unsigned char __eeprom fmode
   \                     fmode:
   \   00000000                      DS8 1

   \                                 In  segment EEPROM_N, align 1, keep-with-next
   \   unsigned char __eeprom modegro
   \                     modegro:
   \   00000000                      DS8 1

   \                                 In  segment NEAR_Z, align 1, keep-with-next
   \   00000000                      REQUIRE `?<Segment init: NEAR_Z>`
   \   unsigned int cod1
   \                     cod1:
   \   00000000                      DS8 2

   \                                 In  segment NEAR_Z, align 1, keep-with-next
   \   00000000                      REQUIRE `?<Segment init: NEAR_Z>`
   \   unsigned int cod2
   \                     cod2:
   \   00000000                      DS8 2

   \                                 In  segment NEAR_Z, align 1, keep-with-next
   \   00000000                      REQUIRE `?<Segment init: NEAR_Z>`
   \   unsigned int cod3
   \                     cod3:
   \   00000000                      DS8 2

   \                                 In  segment NEAR_Z, align 1, keep-with-next
   \   00000000                      REQUIRE `?<Segment init: NEAR_Z>`
   \   unsigned int cod4
   \                     cod4:
   \   00000000                      DS8 2
     22          #include "du.h"
     23          

   \                                 In  segment NEAR_Z, align 1, keep-with-next
   \   00000000                      REQUIRE `?<Segment init: NEAR_Z>`
     24            extern uchar  perepoln=0;//кол-во переполнений счетчика
   \                     perepoln:
   \   00000000                      DS8 1

   \                                 In  segment NEAR_Z, align 1, keep-with-next
   \   00000000                      REQUIRE `?<Segment init: NEAR_Z>`
     25            extern uchar t1=0,t2=0;
   \                     t1:
   \   00000000                      DS8 1

   \                                 In  segment NEAR_Z, align 1, keep-with-next
   \   00000000                      REQUIRE `?<Segment init: NEAR_Z>`
   \                     t2:
   \   00000000                      DS8 1

   \                                 In  segment NEAR_Z, align 1, keep-with-next
   \   00000000                      REQUIRE `?<Segment init: NEAR_Z>`
     26            static bool ini; 
   \                     ??ini:
   \   00000000                      DS8 1

   \                                 In  segment NEAR_Z, align 1, keep-with-next
   \   00000000                      REQUIRE `?<Segment init: NEAR_Z>`
     27            uint dim1[MAX],dim2[MAX];
   \                     dim1:
   \   00000000                      DS8 100

   \                                 In  segment NEAR_Z, align 1, keep-with-next
   \   00000000                      REQUIRE `?<Segment init: NEAR_Z>`
   \                     dim2:
   \   00000000                      DS8 100

   \                                 In  segment NEAR_Z, align 1, keep-with-next
   \   00000000                      REQUIRE `?<Segment init: NEAR_Z>`
     28            char ct=0;
   \                     ct:
   \   00000000                      DS8 1

   \                                 In  segment NEAR_Z, align 1, keep-with-next
   \   00000000                      REQUIRE `?<Segment init: NEAR_Z>`
     29            uint minimallen;    
   \                     minimallen:
   \   00000000                      DS8 2

   \                                 In  segment NEAR_Z, align 1, keep-with-next
   \   00000000                      REQUIRE `?<Segment init: NEAR_Z>`
     30            float len[MAX];
   \                     len:
   \   00000000                      DS8 200

   \                                 In  segment NEAR_Z, align 1, keep-with-next
   \   00000000                      REQUIRE `?<Segment init: NEAR_Z>`
     31            static bool intok,readint,big;
   \                     ??intok:
   \   00000000                      DS8 1

   \                                 In  segment NEAR_Z, align 1, keep-with-next
   \   00000000                      REQUIRE `?<Segment init: NEAR_Z>`
   \                     ??big:
   \   00000000                      DS8 1
     32            static uint last;

   \                                 In  segment NEAR_Z, align 1, keep-with-next
   \   00000000                      REQUIRE `?<Segment init: NEAR_Z>`
     33            char cod_ok=0;
   \                     cod_ok:
   \   00000000                      DS8 1
     34             //static float sst=0;

   \                                 In  segment NEAR_Z, align 1, keep-with-next
   \   00000000                      REQUIRE `?<Segment init: NEAR_Z>`
     35            uchar c1,c2,c3;
   \                     c1:
   \   00000000                      DS8 1

   \                                 In  segment NEAR_Z, align 1, keep-with-next
   \   00000000                      REQUIRE `?<Segment init: NEAR_Z>`
   \                     c2:
   \   00000000                      DS8 1

   \                                 In  segment NEAR_Z, align 1, keep-with-next
   \   00000000                      REQUIRE `?<Segment init: NEAR_Z>`
   \                     c3:
   \   00000000                      DS8 1

   \                                 In  segment NEAR_I, align 1, keep-with-next
   \   00000000                      REQUIRE `?<Segment init: NEAR_I>`
     36            char ind=1;
   \                     ind:
   \   00000000                      DS8 1
   \   00000001                      REQUIRE `?<Initializer for ind>`
     37          
     38           //*****************************************************************
     39           // init
     40           //*****************************************************************

   \                                 In  segment CODE, align 2, keep-with-next
     41             void du_init(void)
   \                     du_init:
     42             {
     43               ini=1;  intok=0;
   \   00000000   E001               LDI     R16, 1
   \   00000002   9300....           STS     ??ini, R16
   \   00000006   E000               LDI     R16, 0
   \   00000008   9300....           STS     ??intok, R16
     44               //TCCR1B = (0<<CS02)|(1<<CS01)|(1<<CS00); //пуск таймера
     45               TCCR1B = (0<<CS02)|(0<<CS01)|(1<<CS00); //пуск таймера
   \   0000000C   E001               LDI     R16, 1
   \   0000000E   BD0E               OUT     0x2E, R16
     46               ct=0;
   \   00000010   E000               LDI     R16, 0
   \   00000012   9300....           STS     ct, R16
     47             }
   \   00000016   9508               RET
   \   00000018                      REQUIRE _A_TCCR1B
     48           //*****************************************************************
     49           //  INT
     50           //*****************************************************************
     51          //прерывание при изменении сигнала на ноге
     52          #pragma vector = INT0_vect

   \                                 In  segment CODE, align 2, keep-with-next
     53          __interrupt void funINT0_vect(void)
   \                     funINT0_vect:
     54          {
   \   00000000   931A               ST      -Y, R17
   \   00000002   930A               ST      -Y, R16
   \   00000004   B71F               IN      R17, 0x3F
     55            intok=1; 
   \   00000006   E001               LDI     R16, 1
   \   00000008   9300....           STS     ??intok, R16
     56            //if (readint!=0){  last=TCNT1L;   readint=0; }
     57            t1 = TCNT1L;  t2 = TCNT1H; 
   \   0000000C   B50C               IN      R16, 0x2C
   \   0000000E   9300....           STS     t1, R16
   \   00000012   B50D               IN      R16, 0x2D
   \   00000014   9300....           STS     t2, R16
     58            if (t1!=0) { TCNT1H=0;TCNT1L=0;}
   \   00000018   9100....           LDS     R16, t1
   \   0000001C   2300               TST     R16
   \   0000001E   F019               BREQ    ??funINT0_vect_0
   \   00000020   E000               LDI     R16, 0
   \   00000022   BD0D               OUT     0x2D, R16
   \   00000024   BD0C               OUT     0x2C, R16
     59               
     60          }
   \                     ??funINT0_vect_0:
   \   00000026   BF1F               OUT     0x3F, R17
   \   00000028   9109               LD      R16, Y+
   \   0000002A   9119               LD      R17, Y+
   \   0000002C   9518               RETI
   \   0000002E                      REQUIRE _A_TCNT1
     61          //*****************************************************************
     62          //  Анализ прерывания
     63          //*****************************************************************

   \                                 In  segment CODE, align 2, keep-with-next
     64          void analiz_INT()
   \                     analiz_INT:
     65          {
     66             static bool state;
     67           //  if (readint==0 && last!=TCNT1L)  {
     68                    if (state==1) {RES(PORTB,5); state=0; }   else {SET(PORTB,5); state=1;}
   \   00000000   9100....           LDS     R16, ??state
   \   00000004   2300               TST     R16
   \   00000006   F019               BREQ    ??analiz_INT_0
   \   00000008   98C5               CBI     0x18, 0x05
   \   0000000A   E000               LDI     R16, 0
   \   0000000C   C002               RJMP    ??analiz_INT_1
   \                     ??analiz_INT_0:
   \   0000000E   9AC5               SBI     0x18, 0x05
   \   00000010   E001               LDI     R16, 1
   \                     ??analiz_INT_1:
   \   00000012   9300....           STS     ??state, R16
     69                    
     70                //  t1 = TCNT1L;  t2 = TCNT1H;
     71                   
     72                  dim1[ct]=t1;  dim2[ct]=t2; ct++;
   \   00000016   ....               RCALL   ?Subroutine20
   \                     ??CrossCallReturnLabel_24:
   \   00000018   E012               LDI     R17, 2
   \   0000001A   9F01               MUL     R16, R17
   \   0000001C   9100....           LDS     R16, t1
   \   00000020   E010               LDI     R17, 0
   \   00000022   ....               RCALL   ?Subroutine91
   \                     ??CrossCallReturnLabel_144:
   \   00000024   ....               RCALL   ??Subroutine142_0
   \                     ??CrossCallReturnLabel_333:
   \   00000026   9100....           LDS     R16, t2
   \   0000002A   ....               RCALL   ?Subroutine92
   \                     ??CrossCallReturnLabel_147:
   \   0000002C   ....               RCALL   ??Subroutine142_0
   \                     ??CrossCallReturnLabel_334:
   \   0000002E   ....               LDI     R30, LOW(ct)
   \   00000030   ....               LDI     R31, (ct) >> 8
   \   00000032   ....               RCALL   ?Subroutine96
     73                  if (ct>=MAX-1) ct--;  //слишком длинная посылка переписываем каждый раз последний
   \                     ??CrossCallReturnLabel_324:
   \   00000034   3301               CPI     R16, 49
   \   00000036   F010               BRCS    ??analiz_INT_2
   \   00000038   950A               DEC     R16
   \   0000003A   8300               ST      Z, R16
     74          
     75                //  if (t1!=0) {readint=1;  TCNT1H=0;TCNT1L=0;}
     76                 intok=0;
   \                     ??analiz_INT_2:
   \   0000003C   9310....           STS     ??intok, R17
     77                  //readint=1;
     78                    //                                }
     79          
     80          }
   \   00000040   9508               RET
   \   00000042                      REQUIRE _A_PORTB

   \                                 In  segment CODE, align 2, keep-with-next
   \                     ?Subroutine92:
   \   00000000   01F0               MOVW    R31:R30, R1:R0
   \   00000002   ....               SUBI    R30, LOW((-(dim2) & 0xFFFF))
   \   00000004   ....               SBCI    R31, (-(dim2) & 0xFFFF) >> 8
   \   00000006   9508               RET

   \                                 In  segment CODE, align 2, keep-with-next
   \                     ?Subroutine91:
   \   00000000   01F0               MOVW    R31:R30, R1:R0
   \   00000002   ....               SUBI    R30, LOW((-(dim1) & 0xFFFF))
   \   00000004   ....               SBCI    R31, (-(dim1) & 0xFFFF) >> 8
   \   00000006   9508               RET

   \                                 In  segment CODE, align 2, keep-with-next
   \                     ?Subroutine20:
   \   00000000   9100....           LDS     R16, ct
   \   00000004   9508               RET

   \                                 In  segment CODE, align 2, keep-with-next
   \                     ??Subroutine139_0:
   \   00000000   8300               ST      Z, R16
   \   00000002   9508               RET

   \                                 In  segment CODE, align 2, keep-with-next
   \                     ?Subroutine96:
   \   00000000   8100               LD      R16, Z
   \   00000002   9503               INC     R16
   \   00000004   ....               RJMP    ??Subroutine139_0

   \                                 In  segment CODE, align 2, keep-with-next
   \                     ??Subroutine142_0:
   \   00000000   8300               ST      Z, R16
   \   00000002   8311               STD     Z+1, R17
   \   00000004   9508               RET

   \                                 In  segment NEAR_Z, align 1, keep-with-next
   \   00000000                      REQUIRE `?<Segment init: NEAR_Z>`
   \                     ??state:
   \   00000000                      DS8 1
     81          //*****************************************************************
     82          //  Конец кода на приемнике
     83          //*****************************************************************

   \                                 In  segment CODE, align 2, keep-with-next
     84          void PEREP()
   \                     PEREP:
     85          {
   \   00000000   ....               RCALL   ?PROLOGUE8_L09
   \   00000002                      REQUIRE ?Register_R4_is_cg_reg
   \   00000002                      REQUIRE ?Register_R5_is_cg_reg
   \   00000002                      REQUIRE ?Register_R6_is_cg_reg
   \   00000002                      REQUIRE ?Register_R7_is_cg_reg
     86           static bool state2;
     87           uchar i;
     88           
     89            if (state2==1) {RES(PORTB,2); state2=0; }   else {SET(PORTB,2); state2=1;}
   \   00000002   9100....           LDS     R16, ??state2
   \   00000006   2300               TST     R16
   \   00000008   F019               BREQ    ??PEREP_0
   \   0000000A   98C2               CBI     0x18, 0x02
   \   0000000C   E000               LDI     R16, 0
   \   0000000E   C002               RJMP    ??PEREP_1
   \                     ??PEREP_0:
   \   00000010   9AC2               SBI     0x18, 0x02
   \   00000012   E001               LDI     R16, 1
   \                     ??PEREP_1:
   \   00000014   9300....           STS     ??state2, R16
     90                 
     91                cod1=0;cod2=0;cod3=0; 
   \   00000018   ....               RCALL   ?Subroutine10
     92                c1=0; c2=0; c3=0;  //sst=0;
   \                     ??CrossCallReturnLabel_11:
   \   0000001A   9300....           STS     c1, R16
   \   0000001E   9300....           STS     c2, R16
   \   00000022   9300....           STS     c3, R16
     93                minimallen=65535;   
   \   00000026   EF0F               LDI     R16, 255
   \   00000028   ....               RCALL   ?Subroutine94
   \                     ??CrossCallReturnLabel_158:
   \   0000002A   ....               RCALL   ?Subroutine93
     94               
     95                if (ct>(MAX-1)) {  rprintfStr(" error ct big ="); rprintfFloat(6,  ct); }
   \                     ??CrossCallReturnLabel_150:
   \   0000002C   ....               RCALL   ?Subroutine20
   \                     ??CrossCallReturnLabel_25:
   \   0000002E   3302               CPI     R16, 50
   \   00000030   F028               BRCS    ??CrossCallReturnLabel_313
   \   00000032   ....               LDI     R16, LOW(`?<Constant " error ct big =">`)
   \   00000034   ....               LDI     R17, (`?<Constant " error ct big =">`) >> 8
   \   00000036   ....               RCALL   rprintfStr
   \   00000038   ....               RCALL   ?Subroutine20
   \                     ??CrossCallReturnLabel_26:
   \   0000003A   ....               RCALL   ?Subroutine19
     96                          
     97                if ((ct>5 && big==0)|| big==1) 
   \                     ??CrossCallReturnLabel_313:
   \   0000003C   ....               RCALL   ?Subroutine20
   \                     ??CrossCallReturnLabel_27:
   \   0000003E   3006               CPI     R16, 6
   \   00000040   F020               BRCS    ??PEREP_2
   \   00000042   9100....           LDS     R16, ??big
   \   00000046   2300               TST     R16
   \   00000048   F021               BREQ    ??PEREP_3
   \                     ??PEREP_2:
   \   0000004A   9100....           LDS     R16, ??big
   \   0000004E   2300               TST     R16
   \   00000050   F189               BREQ    ??PEREP_4
     98                {//от 5 посылок анализируем остальное шум
     99                  
    100                    for (i=1; i<ct; i++) //ищем миимальную длину
   \                     ??PEREP_3:
   \   00000052   E081               LDI     R24, 1
   \   00000054   C016               RJMP    ??PEREP_5
    101                    {  
    102                          len[i]=( dim1[i]+ (256*dim2[i])  );           
   \                     ??PEREP_6:
   \   00000056   ....               RCALL   ?Subroutine22
   \                     ??CrossCallReturnLabel_30:
   \   00000058   E004               LDI     R16, 4
   \   0000005A   9F80               MUL     R24, R16
   \   0000005C   ....               RCALL   ??Subroutine136_0
   \                     ??CrossCallReturnLabel_298:
   \   0000005E   8240               ST      Z, R4
   \   00000060   8311               STD     Z+1, R17
   \   00000062   8322               STD     Z+2, R18
   \   00000064   8333               STD     Z+3, R19
    103                          if (len[i]>900  && len[i]<(float)minimallen)  minimallen=(uint)len[i];
   \   00000066   E041               LDI     R20, 1
   \   00000068   E050               LDI     R21, 0
   \   0000006A   E661               LDI     R22, 97
   \   0000006C   E474               LDI     R23, 68
   \   0000006E   2D04               MOV     R16, R4
   \   00000070   ....               RCALL   ?F_CMP_GE_L04
   \   00000072   F430               BRCC    ??CrossCallReturnLabel_335
   \   00000074   ....               RCALL   ?Subroutine30
   \                     ??CrossCallReturnLabel_188:
   \   00000076   ....               RCALL   ?F_CMP_LT_L04
   \   00000078   F418               BRCC    ??CrossCallReturnLabel_335
   \   0000007A   ....               RCALL   ?F2SL_L04
   \   0000007C   ....               RCALL   ?Subroutine94
    104                    }
   \                     ??CrossCallReturnLabel_159:
   \   0000007E   ....               RCALL   ??Subroutine142_0
   \                     ??CrossCallReturnLabel_335:
   \   00000080   9583               INC     R24
   \                     ??PEREP_5:
   \   00000082   ....               RCALL   ?Subroutine20
   \                     ??CrossCallReturnLabel_28:
   \   00000084   1780               CP      R24, R16
   \   00000086   F338               BRCS    ??PEREP_6
    105               
    106                     for (i=1; i<ct; i++) 
   \   00000088   E081               LDI     R24, 1
   \   0000008A   C011               RJMP    ??PEREP_7
    107                     { //for 
    108                       uint tr;
    109                       tr=( dim1[i]+ (256*dim2[i]));
    110                       len[i]=(float)tr/minimallen;       
   \                     ??PEREP_8:
   \   0000008C   ....               RCALL   ?Subroutine22
   \                     ??CrossCallReturnLabel_31:
   \   0000008E   ....               RCALL   ?Subroutine30
   \                     ??CrossCallReturnLabel_189:
   \   00000090   ....               RCALL   ?F_DIV_L04
   \   00000092   E044               LDI     R20, 4
   \   00000094   ....               RCALL   ?Subroutine26
   \                     ??CrossCallReturnLabel_299:
   \   00000096   ....               RCALL   ??Subroutine142_0
   \                     ??CrossCallReturnLabel_336:
   \   00000098   8322               STD     Z+2, R18
   \   0000009A   8333               STD     Z+3, R19
    111                       if (len[i]!=0)   coding(i, pr);
   \   0000009C   ....               RCALL   ?Subroutine52
   \                     ??CrossCallReturnLabel_71:
   \   0000009E   ....               RCALL   ?F_CMP_EQ_L04
   \   000000A0   F029               BREQ    ??PEREP_9
   \   000000A2   9120....           LDS     R18, pr
   \   000000A6   2F08               MOV     R16, R24
   \   000000A8   E010               LDI     R17, 0
   \   000000AA   ....               RCALL   coding
    112                     }//for
   \                     ??PEREP_9:
   \   000000AC   9583               INC     R24
   \                     ??PEREP_7:
   \   000000AE   ....               RCALL   ?Subroutine20
    113                }//от 5 посылок анализируем 
   \                     ??CrossCallReturnLabel_29:
   \   000000B0   1780               CP      R24, R16
   \   000000B2   F360               BRCS    ??PEREP_8
    114                
    115                //очистка
    116                 for (i=0; i<MAX; i++) {dim1[i]=0;dim2[i]=0;len[i]=0;}
   \                     ??PEREP_4:
   \   000000B4   E080               LDI     R24, 0
   \   000000B6   E044               LDI     R20, 4
   \                     ??PEREP_10:
   \   000000B8   ....               RCALL   ?Subroutine97
   \                     ??CrossCallReturnLabel_162:
   \   000000BA   E000               LDI     R16, 0
   \   000000BC   ....               RCALL   ?Subroutine91
   \                     ??CrossCallReturnLabel_145:
   \   000000BE   ....               RCALL   ?Subroutine93
   \                     ??CrossCallReturnLabel_151:
   \   000000C0   ....               RCALL   ?Subroutine92
   \                     ??CrossCallReturnLabel_148:
   \   000000C2   ....               RCALL   ?Subroutine93
   \                     ??CrossCallReturnLabel_152:
   \   000000C4   ....               RCALL   ?Subroutine26
   \                     ??CrossCallReturnLabel_300:
   \   000000C6   ....               RCALL   ?Subroutine93
   \                     ??CrossCallReturnLabel_153:
   \   000000C8   8302               STD     Z+2, R16
   \   000000CA   8303               STD     Z+3, R16
   \   000000CC   9583               INC     R24
   \   000000CE   3382               CPI     R24, 50
   \   000000D0   F398               BRCS    ??PEREP_10
    117                 perepoln=0;  t1=0; t2=0; ct=0; big=0;     
   \   000000D2   9300....           STS     perepoln, R16
   \   000000D6   9300....           STS     t1, R16
   \   000000DA   9300....           STS     t2, R16
   \   000000DE   9300....           STS     ct, R16
   \   000000E2   9300....           STS     ??big, R16
    118                 
    119              if (pr==1 && cod_ok!=0)     
   \   000000E6   9100....           LDS     R16, pr
   \   000000EA   3001               CPI     R16, 1
   \   000000EC   F481               BRNE    ??CrossCallReturnLabel_240
   \   000000EE   9100....           LDS     R16, cod_ok
   \   000000F2   2300               TST     R16
   \   000000F4   F061               BREQ    ??CrossCallReturnLabel_240
    120               {//diag
    121                        rprintfStr("  /   cod1= ");
   \   000000F6   ....               LDI     R16, LOW(`?<Constant "  /   cod1= ">`)
   \   000000F8   ....               LDI     R17, (`?<Constant "  /   cod1= ">`) >> 8
   \   000000FA   ....               RCALL   ?Subroutine28
    122                        rprintfFloat(6,  cod1);
    123                        rprintfStr("/   cod2= ");
   \                     ??CrossCallReturnLabel_319:
   \   000000FC   ....               LDI     R16, LOW(`?<Constant "/   cod2= ">`)
   \   000000FE   ....               LDI     R17, (`?<Constant "/   cod2= ">`) >> 8
   \   00000100   ....               RCALL   ?Subroutine38
    124                        rprintfFloat(6,  cod2);
   \                     ??CrossCallReturnLabel_388:
   \   00000102   ....               RCALL   ??Subroutine138_0
    125                        rprintfStr("/   cod3= ");
   \                     ??CrossCallReturnLabel_317:
   \   00000104   ....               LDI     R16, LOW(`?<Constant "/   cod3= ">`)
   \   00000106   ....               LDI     R17, (`?<Constant "/   cod3= ">`) >> 8
   \   00000108   ....               RCALL   ?Subroutine40
    126                        rprintfFloat(6,  cod3);
   \                     ??CrossCallReturnLabel_382:
   \   0000010A   ....               RCALL   ??Subroutine138_0
    127                        ent;
   \                     ??CrossCallReturnLabel_316:
   \   0000010C   ....               RCALL   ?Subroutine120
    128                                          
    129               }//diag
    130           
    131          }
   \                     ??CrossCallReturnLabel_240:
   \   0000010E   E0E8               LDI     R30, 8
   \   00000110   ....               RJMP    ?EPILOGUE_B8_L09
   \   00000112                      REQUIRE _A_PORTB

   \                                 In  segment CODE, align 2, keep-with-next
   \                     ?Subroutine30:
   \   00000000   ....               RCALL   ?Subroutine94
   \                     ??CrossCallReturnLabel_161:
   \   00000002   ....               RCALL   ?Subroutine95
   \                     ??CrossCallReturnLabel_305:
   \   00000004                      REQUIRE ?Subroutine102
   \   00000004                      ;               // Fall through to label ?Subroutine102

   \                                 In  segment CODE, align 2, keep-with-next
   \                     ?Subroutine102:
   \   00000000   0182               MOVW    R17:R16, R5:R4
   \   00000002   0193               MOVW    R19:R18, R7:R6
   \   00000004   9508               RET

   \                                 In  segment CODE, align 2, keep-with-next
   \                     ?Subroutine95:
   \   00000000   8100               LD      R16, Z
   \   00000002   8111               LDD     R17, Z+1
   \   00000004   ....               RJMP    ?Subroutine118

   \                                 In  segment CODE, align 2, keep-with-next
   \                     ?Subroutine94:
   \   00000000   ....               LDI     R30, LOW(minimallen)
   \   00000002   ....               LDI     R31, (minimallen) >> 8
   \   00000004   9508               RET

   \                                 In  segment CODE, align 2, keep-with-next
   \                     ?Subroutine26:
   \   00000000   9F84               MUL     R24, R20
   \   00000002                      REQUIRE ??Subroutine136_0
   \   00000002                      ;               // Fall through to label ??Subroutine136_0

   \                                 In  segment CODE, align 2, keep-with-next
   \                     ??Subroutine136_0:
   \   00000000   01F0               MOVW    R31:R30, R1:R0
   \   00000002   ....               SUBI    R30, LOW((-(len) & 0xFFFF))
   \   00000004   ....               SBCI    R31, (-(len) & 0xFFFF) >> 8
   \   00000006   9508               RET

   \                                 In  segment CODE, align 2, keep-with-next
   \                     ?Subroutine22:
   \   00000000   ....               RCALL   ?Subroutine97
   \                     ??CrossCallReturnLabel_165:
   \   00000002   ....               RCALL   ?Subroutine91
   \                     ??CrossCallReturnLabel_146:
   \   00000004   ....               RCALL   ?Subroutine99
   \                     ??CrossCallReturnLabel_177:
   \   00000006   ....               RCALL   ?Subroutine92
   \                     ??CrossCallReturnLabel_149:
   \   00000008   8130               LD      R19, Z
   \   0000000A   E020               LDI     R18, 0
   \   0000000C   0F13               ADD     R17, R19
   \   0000000E   ....               RCALL   ?Subroutine101
   \                     ??CrossCallReturnLabel_184:
   \   00000010   0128               MOVW    R5:R4, R17:R16
   \   00000012   0139               MOVW    R7:R6, R19:R18
   \   00000014   9508               RET

   \                                 In  segment CODE, align 2, keep-with-next
   \                     ?Subroutine28:
   \   00000000   ....               RCALL   rprintfStr
   \   00000002   ....               LDI     R30, LOW(cod1)
   \   00000004   ....               LDI     R31, (cod1) >> 8
   \   00000006                      REQUIRE ?Subroutine134
   \   00000006                      REQUIRE ??Subroutine138_0
   \   00000006                      ;               // Fall through to label ??Subroutine138_0

   \                                 In  segment CODE, align 2, keep-with-next
   \                     ??Subroutine138_0:
   \   00000000   ....               RCALL   ?Subroutine95
   \                     ??CrossCallReturnLabel_306:
   \   00000002                      REQUIRE ?Subroutine134
   \   00000002                      ;               // Fall through to label ?Subroutine134

   \                                 In  segment CODE, align 2, keep-with-next
   \                     ?Subroutine134:
   \   00000000   E006               LDI     R16, 6
   \   00000002   ....               RJMP    rprintfFloat

   \                                 In  segment CODE, align 2, keep-with-next
   \                     ?Subroutine10:
   \   00000000   E000               LDI     R16, 0
   \   00000002   ....               LDI     R30, LOW(cod1)
   \   00000004   ....               LDI     R31, (cod1) >> 8
   \   00000006   ....               RCALL   ?Subroutine93
   \                     ??CrossCallReturnLabel_156:
   \   00000008   ....               LDI     R30, LOW(cod2)
   \   0000000A   ....               LDI     R31, (cod2) >> 8
   \   0000000C   ....               RCALL   ?Subroutine93
   \                     ??CrossCallReturnLabel_157:
   \   0000000E   ....               LDI     R30, LOW(cod3)
   \   00000010   ....               LDI     R31, (cod3) >> 8
   \   00000012   ....               RJMP    ?Subroutine93

   \                                 In  segment CODE, align 2, keep-with-next
   \                     ?Subroutine99:
   \   00000000   8100               LD      R16, Z
   \   00000002   8111               LDD     R17, Z+1
   \   00000004   9508               RET

   \                                 In  segment CODE, align 2, keep-with-next
   \                     ?Subroutine93:
   \   00000000   8300               ST      Z, R16
   \   00000002   8301               STD     Z+1, R16
   \   00000004   9508               RET

   \                                 In  segment CODE, align 2, keep-with-next
   \                     ?Subroutine19:
   \   00000000   ....               RCALL   ?Subroutine90
   \                     ??CrossCallReturnLabel_311:
   \   00000002   ....               RJMP    ?Subroutine134

   \                                 In  segment CODE, align 2, keep-with-next
   \                     ?Subroutine90:
   \   00000000   E010               LDI     R17, 0
   \   00000002                      REQUIRE ?Subroutine118
   \   00000002                      ;               // Fall through to label ?Subroutine118

   \                                 In  segment CODE, align 2, keep-with-next
   \                     ?Subroutine118:
   \   00000000   E020               LDI     R18, 0
   \   00000002   E030               LDI     R19, 0
   \   00000004   ....               RCALL   ?UL2F_L04
   \   00000006                      REQUIRE ?Subroutine121
   \   00000006                      ;               // Fall through to label ?Subroutine121

   \                                 In  segment CODE, align 2, keep-with-next
   \                     ?Subroutine121:
   \   00000000   01A8               MOVW    R21:R20, R17:R16
   \   00000002   01B9               MOVW    R23:R22, R19:R18
   \   00000004   9508               RET

   \                                 In  segment CODE, align 2, keep-with-next
   \                     ?Subroutine97:
   \   00000000   E002               LDI     R16, 2
   \   00000002   9F80               MUL     R24, R16
   \   00000004   9508               RET

   \                                 In  segment CODE, align 2, keep-with-next
   \                     ?Subroutine40:
   \   00000000   ....               RCALL   rprintfStr
   \   00000002                      REQUIRE ??Subroutine147_0
   \   00000002                      ;               // Fall through to label ??Subroutine147_0

   \                                 In  segment CODE, align 2, keep-with-next
   \                     ??Subroutine147_0:
   \   00000000   ....               LDI     R30, LOW(cod3)
   \   00000002   ....               LDI     R31, (cod3) >> 8
   \   00000004   9508               RET

   \                                 In  segment CODE, align 2, keep-with-next
   \                     ?Subroutine38:
   \   00000000   ....               RCALL   rprintfStr
   \   00000002                      REQUIRE ??Subroutine148_0
   \   00000002                      ;               // Fall through to label ??Subroutine148_0

   \                                 In  segment CODE, align 2, keep-with-next
   \                     ??Subroutine148_0:
   \   00000000   ....               LDI     R30, LOW(cod2)
   \   00000002   ....               LDI     R31, (cod2) >> 8
   \   00000004   9508               RET

   \                                 In  segment CODE, align 2, keep-with-next
   \                     ?Subroutine120:
   \   00000000   E00D               LDI     R16, 13
   \   00000002   ....               RJMP    USART_SendChar

   \                                 In  segment CODE, align 2, keep-with-next
   \                     ?Subroutine52:
   \   00000000   ....               RCALL   ?Subroutine105
   \                     ??CrossCallReturnLabel_198:
   \   00000002   E060               LDI     R22, 0
   \   00000004   E070               LDI     R23, 0
   \   00000006   9508               RET

   \                                 In  segment CODE, align 2, keep-with-next
   \                     ?Subroutine105:
   \   00000000   E040               LDI     R20, 0
   \   00000002   E050               LDI     R21, 0
   \   00000004   9508               RET

   \                                 In  segment CODE, align 2, keep-with-next
   \                     ?Subroutine101:
   \   00000000   E030               LDI     R19, 0
   \   00000002   ....               RJMP    ?UL2F_L04

   \                                 In  segment NEAR_Z, align 1, keep-with-next
   \   00000000                      REQUIRE `?<Segment init: NEAR_Z>`
   \                     ??state2:
   \   00000000                      DS8 1
    132          
    133          ///////////////////////////////////////////////////////////////
    134          //  main
    135          //////////////////////////////////////////////////////////////

   \                                 In  segment CODE, align 2, keep-with-next
    136            char du_main(uchar pr) 
   \                     du_main:
    137            {   
    138           
    139              cod_ok=0;//признак готовности кода
   \   00000000   E000               LDI     R16, 0
   \   00000002   9300....           STS     cod_ok, R16
    140              
    141              if (ini!=1) du_init();    
   \   00000006   9100....           LDS     R16, ??ini
   \   0000000A   2300               TST     R16
   \   0000000C   F409               BRNE    ??du_main_0
   \   0000000E   ....               RCALL   du_init
    142              if (intok!=0) analiz_INT();  //INT событие произошло
   \                     ??du_main_0:
   \   00000010   9100....           LDS     R16, ??intok
   \   00000014   2300               TST     R16
   \   00000016   F009               BREQ    ??du_main_1
   \   00000018   ....               RCALL   analiz_INT
    143              
    144              if (perepoln!=0 ) 
   \                     ??du_main_1:
   \   0000001A   9100....           LDS     R16, perepoln
   \   0000001E   2300               TST     R16
   \   00000020   F009               BREQ    ??du_main_2
    145              {//получили переполнение, значит сигнал закончился
    146                PEREP();
   \   00000022   ....               RCALL   PEREP
    147              }   
    148               return(cod_ok);  
   \                     ??du_main_2:
   \   00000024   9100....           LDS     R16, cod_ok
   \   00000028   9508               RET
    149            }
    150          
    151          
    152          ///////////////////////////////////////////////////////////////////       
    153          //                             кодировка
    154          ///////////////////////////////////////////////////////////////////

   \                                 In  segment CODE, align 2, keep-with-next
    155            void coding(uint i, uchar pr)  
   \                     coding:
    156            {
   \   00000000   ....               RCALL   ?PROLOGUE10_L09
   \   00000002                      REQUIRE ?Register_R4_is_cg_reg
   \   00000002                      REQUIRE ?Register_R5_is_cg_reg
   \   00000002                      REQUIRE ?Register_R6_is_cg_reg
   \   00000002                      REQUIRE ?Register_R8_is_cg_reg
   \   00000002                      REQUIRE ?Register_R9_is_cg_reg
   \   00000002   01C8               MOVW    R25:R24, R17:R16
   \   00000004   2E62               MOV     R6, R18
    157           
    158              
    159              float v=len[i];
   \   00000006   ....               RCALL   ?Subroutine103
   \                     ??CrossCallReturnLabel_191:
   \   00000008   ....               LDI     R26, LOW(len)
   \   0000000A   ....               LDI     R27, (len) >> 8
   \   0000000C   0FA0               ADD     R26, R16
   \   0000000E   1FB1               ADC     R27, R17
   \   00000010   900D               LD      R0, X+
   \   00000012   901D               LD      R1, X+
   \   00000014   902D               LD      R2, X+
   \   00000016   903C               LD      R3, X
   \   00000018   9713               SBIW    R27:R26, 3
    160                       
    161                      //  sst=sst+v;
    162                 if (i>1) {
   \   0000001A   3082               CPI     R24, 2
   \   0000001C   E000               LDI     R16, 0
   \   0000001E   0790               CPC     R25, R16
   \   00000020   F408               BRCC    $+2+2
   \   00000022   C0F0               RJMP    ??CrossCallReturnLabel_195
    163                    
    164            //-------------   версия  больше-меньше  ------------------
    165                        //  if (len[i]>len[i-1])  cod1+=1;
    166                   
    167                       //  if (len[i]<=len[i-1]) cod1+=3;
    168             /*        
    169              if (ind==4) { 
    170                                 if (len[i]>len[i-1]) { SET(cod4,c4); }
    171                                // else cod4<<=1;
    172                                 c4++;
    173                                 if (c4>=15) ind=5;
    174                              }
    175                   
    176                        
    177          
    178                     if (ind==3) { 
    179                                 if (len[i]>len[i-1]) { SET(cod3,c3); }
    180                                // else cod3<<=1;
    181                                 c3++;
    182                                 if (c3>=15) ind=4;
    183                              }
    184                  
    185                   
    186                     if (ind==2) { 
    187                                 if (len[i]>len[i-1]) { SET(cod2,c2); }
    188                                // else cod2<<=1;
    189                                 c2++;
    190                                 if (c2>=15) ind=3;
    191                              }
    192                   
    193                   if (ind==1) { 
    194                     if (len[i]>len[i-1]) { SET(cod1,c1); }
    195                                 //else cod1<<=1;
    196                                 c1++;
    197                                 if (c1>=15) ind=2;
    198                              }
    199                   
    200                */ 
    201                   
    202                 /*  
    203                   if (ind==4) { 
    204                     if (len[i]<3) { SET(cod4,c4);c4++; }
    205                     if (len[i]>=3 && len[i]<5)  {  c4++;  c4++;}
    206                     if (len[i]>=5 && len[i]<25) { SET(cod4,c4); c4++;    if (c4<=15)  SET(cod4,c4);  c4++;}
    207                     if (len[i]>=25)  {  c4++;  c4++; c4++;}
    208                                 if (c4>=15) ind=0;
    209                               }
    210                */
    211                   
    212                   
    213                //-----   версия v2  по относительной длине -------  
    214          #define   set1 SET(cod1,c1);c1++   
    215          #define   set2 SET(cod2,c2);c2++  
    216          #define   set3 SET(cod3,c3);c3++  
    217                   
    218                  
    219                 //ДЕЛАТЬ точность менее 0.5 опасно, т.к. ШУМ измерения
    220                    if (ind==3) { 
   \   00000024   012C               MOVW    R5:R4, R25:R24
   \   00000026   0C44               LSL     R4
   \   00000028   1C55               ROL     R5
   \   0000002A   9100....           LDS     R16, ind
   \   0000002E   3003               CPI     R16, 3
   \   00000030   F009               BREQ    $+2+2
   \   00000032   C040               RJMP    ??coding_0
    221                      
    222                      if (v<1.5) cod3=cod3+i;
   \   00000034   9140....           LDS     R20, c3
   \   00000038   ....               RCALL   ?Subroutine1
   \                     ??CrossCallReturnLabel_2:
   \   0000003A   F4B0               BRCC    ??coding_1
   \   0000003C   ....               RCALL   ??Subroutine147_0
   \                     ??CrossCallReturnLabel_384:
   \   0000003E   ....               RCALL   ?Subroutine25
    223                     if (v>=1.5 && v<2) { set3; c3++;    } else
    224                     if (v>=2 && v<3)   { set3; cod3=cod3+i;  c3++; } else
   \                     ??CrossCallReturnLabel_346:
   \   00000040   ....               RCALL   ?Subroutine49
   \                     ??CrossCallReturnLabel_62:
   \   00000042   F410               BRCC    ??coding_2
   \   00000044   ....               RCALL   ?Subroutine55
   \                     ??CrossCallReturnLabel_75:
   \   00000046   F058               BRCS    ??coding_3
    225                     if (v>=3 && v<5)   { set3; cod3=cod3+i+i;  c3++; if (c3<=14) {set3; cod3=cod3+i;   c3++; }  }   else                                  
   \                     ??coding_2:
   \   00000048   ....               RCALL   ?Subroutine56
   \                     ??CrossCallReturnLabel_78:
   \   0000004A   F4A8               BRCC    ??coding_4
   \   0000004C   ....               RCALL   ?Subroutine57
   \                     ??CrossCallReturnLabel_81:
   \   0000004E   F498               BRCC    ??coding_4
   \   00000050   ....               RCALL   ??Subroutine147_0
   \                     ??CrossCallReturnLabel_385:
   \   00000052   ....               RCALL   ?Subroutine29
   \                     ??CrossCallReturnLabel_32:
   \   00000054   ....               RCALL   ??Subroutine142_0
   \                     ??CrossCallReturnLabel_337:
   \   00000056   ....               RCALL   ?Subroutine37
   \                     ??CrossCallReturnLabel_303:
   \   00000058   8300               ST      Z, R16
   \   0000005A   300F               CPI     R16, 15
   \   0000005C   F4B0               BRCC    ??coding_5
   \                     ??coding_3:
   \   0000005E   ....               RCALL   ?Subroutine39
   \                     ??CrossCallReturnLabel_247:
   \   00000060   9140....           LDS     R20, c3
   \   00000064   ....               RCALL   ?Subroutine2
   \                     ??CrossCallReturnLabel_5:
   \   00000066   C005               RJMP    ??CrossCallReturnLabel_338
   \                     ??coding_1:
   \   00000068   ....               RCALL   ?Subroutine51
   \                     ??CrossCallReturnLabel_68:
   \   0000006A   F750               BRCC    ??CrossCallReturnLabel_346
   \   0000006C   ....               RCALL   ??Subroutine147_0
   \                     ??CrossCallReturnLabel_386:
   \   0000006E   ....               RCALL   ?Subroutine98
   \                     ??CrossCallReturnLabel_166:
   \   00000070   ....               RCALL   ??Subroutine142_0
   \                     ??CrossCallReturnLabel_338:
   \   00000072   ....               RCALL   ?Subroutine37
   \                     ??CrossCallReturnLabel_304:
   \   00000074   C009               RJMP    ??coding_6
    226                     if (v>5 && v<7)    { c3++;   if (c3<=15)  c3++; }
   \                     ??coding_4:
   \   00000076   ....               RCALL   ?Subroutine47
   \                     ??CrossCallReturnLabel_57:
   \   00000078   F440               BRCC    ??coding_5
   \   0000007A   ....               RCALL   ?Subroutine50
   \                     ??CrossCallReturnLabel_65:
   \   0000007C   F430               BRCC    ??coding_5
   \   0000007E   ....               LDI     R30, LOW(c3)
   \   00000080   ....               LDI     R31, (c3) >> 8
   \   00000082   ....               RCALL   ?Subroutine31
   \                     ??CrossCallReturnLabel_35:
   \   00000084   F410               BRCC    ??coding_5
   \   00000086   9503               INC     R16
   \                     ??coding_6:
   \   00000088   8300               ST      Z, R16
    227                   
    228                      
    229                     if (c3>=16) {ind=1; cod1=cod1<<2; cod2=cod2<<2; c1=0; c2=0; c3=0;}//пошли по кругу
   \                     ??coding_5:
   \   0000008A   9100....           LDS     R16, c3
   \   0000008E   3100               CPI     R16, 16
   \   00000090   F408               BRCC    $+2+2
   \   00000092   C07F               RJMP    ??coding_7
   \   00000094   E001               LDI     R16, 1
   \   00000096   9300....           STS     ind, R16
   \   0000009A   ....               RCALL   ?Subroutine34
   \                     ??CrossCallReturnLabel_38:
   \   0000009C   ....               RCALL   ?Subroutine33
   \                     ??CrossCallReturnLabel_192:
   \   0000009E   ....               RCALL   ??Subroutine142_0
   \                     ??CrossCallReturnLabel_339:
   \   000000A0   ....               RCALL   ??Subroutine148_0
   \                     ??CrossCallReturnLabel_390:
   \   000000A2   ....               RCALL   ?Subroutine33
   \                     ??CrossCallReturnLabel_193:
   \   000000A4   ....               RCALL   ??Subroutine142_0
   \                     ??CrossCallReturnLabel_340:
   \   000000A6   9350....           STS     c1, R21
   \   000000AA   9350....           STS     c2, R21
   \   000000AE   9350....           STS     c3, R21
   \   000000B2   C039               RJMP    ??coding_8
    230                  
    231                               }
    232                   
    233                          
    234                    if (ind==2) { 
   \                     ??coding_0:
   \   000000B4   3002               CPI     R16, 2
   \   000000B6   F5A9               BRNE    ??coding_9
    235                    
    236                     if (v<1.5) cod2=cod2+i;
   \   000000B8   9140....           LDS     R20, c2
   \   000000BC   ....               RCALL   ?Subroutine1
   \                     ??CrossCallReturnLabel_3:
   \   000000BE   F4C0               BRCC    ??coding_10
   \   000000C0   ....               RCALL   ??Subroutine148_0
   \                     ??CrossCallReturnLabel_391:
   \   000000C2   ....               RCALL   ?Subroutine25
    237                     if (v>=1.5 && v<2) { set2; c2++;  cod2=cod2+i;  } else
    238                     if (v>=2 && v<3)   { set2; cod2=cod2+i;  c2++; } else
   \                     ??CrossCallReturnLabel_347:
   \   000000C4   ....               RCALL   ?Subroutine49
   \                     ??CrossCallReturnLabel_63:
   \   000000C6   F410               BRCC    ??coding_11
   \   000000C8   ....               RCALL   ?Subroutine55
   \                     ??CrossCallReturnLabel_76:
   \   000000CA   F048               BRCS    ??coding_12
    239                     if (v>=3 && v<5)   { set2; cod2=cod2+i+i;  c2++; if (c2<=14) { set2; cod2=cod2+i;  c2++; }  }   else                                  
   \                     ??coding_11:
   \   000000CC   ....               RCALL   ?Subroutine56
   \                     ??CrossCallReturnLabel_79:
   \   000000CE   F4C8               BRCC    ??coding_13
   \   000000D0   ....               RCALL   ?Subroutine57
   \                     ??CrossCallReturnLabel_82:
   \   000000D2   F4B8               BRCC    ??coding_13
   \   000000D4   ....               RCALL   ??Subroutine148_0
   \                     ??CrossCallReturnLabel_392:
   \   000000D6   ....               RCALL   ?Subroutine29
   \                     ??CrossCallReturnLabel_33:
   \   000000D8   ....               RCALL   ?Subroutine23
   \                     ??CrossCallReturnLabel_320:
   \   000000DA   300F               CPI     R16, 15
   \   000000DC   F4E0               BRCC    ??coding_14
   \                     ??coding_12:
   \   000000DE   ....               RCALL   ??Subroutine148_0
   \                     ??CrossCallReturnLabel_393:
   \   000000E0   ....               RCALL   ?Subroutine123
   \                     ??CrossCallReturnLabel_243:
   \   000000E2   9140....           LDS     R20, c2
   \   000000E6   ....               RCALL   ?Subroutine2
   \                     ??CrossCallReturnLabel_6:
   \   000000E8   ....               LDI     R30, LOW(c2)
   \   000000EA   ....               LDI     R31, (c2) >> 8
   \   000000EC   ....               RCALL   ??Subroutine137_0
   \                     ??CrossCallReturnLabel_301:
   \   000000EE   C012               RJMP    ??coding_15
   \                     ??coding_10:
   \   000000F0   ....               RCALL   ?Subroutine51
   \                     ??CrossCallReturnLabel_69:
   \   000000F2   F740               BRCC    ??CrossCallReturnLabel_347
   \   000000F4   ....               RCALL   ??Subroutine148_0
   \                     ??CrossCallReturnLabel_394:
   \   000000F6   ....               RCALL   ?Subroutine98
   \                     ??CrossCallReturnLabel_167:
   \   000000F8   ....               RCALL   ?Subroutine23
   \                     ??CrossCallReturnLabel_321:
   \   000000FA   ....               RCALL   ??Subroutine148_0
   \                     ??CrossCallReturnLabel_395:
   \   000000FC   8100               LD      R16, Z
   \   000000FE   ....               RCALL   ??Subroutine141_0
   \                     ??CrossCallReturnLabel_344:
   \   00000100   C00A               RJMP    ??coding_14
    240                     if (v>5 && v<7)    { c2++;   if (c2<=15)  c2++; }
   \                     ??coding_13:
   \   00000102   ....               RCALL   ?Subroutine47
   \                     ??CrossCallReturnLabel_58:
   \   00000104   F440               BRCC    ??coding_14
   \   00000106   ....               RCALL   ?Subroutine50
   \                     ??CrossCallReturnLabel_66:
   \   00000108   F430               BRCC    ??coding_14
   \   0000010A   ....               LDI     R30, LOW(c2)
   \   0000010C   ....               LDI     R31, (c2) >> 8
   \   0000010E   ....               RCALL   ?Subroutine31
   \                     ??CrossCallReturnLabel_36:
   \   00000110   F410               BRCC    ??coding_14
   \   00000112   9503               INC     R16
   \                     ??coding_15:
   \   00000114   8300               ST      Z, R16
    241                   
    242                          if (c2>=16) ind=3;
   \                     ??coding_14:
   \   00000116   9100....           LDS     R16, c2
   \   0000011A   3100               CPI     R16, 16
   \   0000011C   F1D0               BRCS    ??coding_7
   \   0000011E   E003               LDI     R16, 3
   \   00000120   C036               RJMP    ??coding_16
    243                               }
    244                          
    245                   if (ind==1) { 
   \                     ??coding_9:
   \   00000122   3001               CPI     R16, 1
   \   00000124   F5B1               BRNE    ??coding_7
    246                     
    247                     if (v<1.5) cod1=cod1+i;
   \                     ??coding_8:
   \   00000126   9140....           LDS     R20, c1
   \   0000012A   ....               RCALL   ?Subroutine1
   \                     ??CrossCallReturnLabel_4:
   \   0000012C   F4C0               BRCC    ??coding_17
   \   0000012E   ....               RCALL   ?Subroutine34
   \                     ??CrossCallReturnLabel_39:
   \   00000130   ....               RCALL   ?Subroutine25
    248                     if (v>=1.5 && v<2) { set1; c1++;  cod1=cod1+i;  } else
    249                     if (v>=2 && v<3)   { set1; cod1=cod1+i;  c1++; } else
   \                     ??CrossCallReturnLabel_348:
   \   00000132   ....               RCALL   ?Subroutine49
   \                     ??CrossCallReturnLabel_64:
   \   00000134   F410               BRCC    ??coding_18
   \   00000136   ....               RCALL   ?Subroutine55
   \                     ??CrossCallReturnLabel_77:
   \   00000138   F048               BRCS    ??coding_19
    250                     if (v>=3 && v<5)   { set1; cod1=cod1+i+i;  c1++; if (c1<=14) { set1; cod1=cod1+i; c1++; }  }   else                                  
   \                     ??coding_18:
   \   0000013A   ....               RCALL   ?Subroutine56
   \                     ??CrossCallReturnLabel_80:
   \   0000013C   F4C8               BRCC    ??coding_20
   \   0000013E   ....               RCALL   ?Subroutine57
   \                     ??CrossCallReturnLabel_83:
   \   00000140   F4B8               BRCC    ??coding_20
   \   00000142   ....               RCALL   ?Subroutine34
   \                     ??CrossCallReturnLabel_40:
   \   00000144   ....               RCALL   ?Subroutine29
   \                     ??CrossCallReturnLabel_34:
   \   00000146   ....               RCALL   ?Subroutine24
   \                     ??CrossCallReturnLabel_322:
   \   00000148   300F               CPI     R16, 15
   \   0000014A   F4E0               BRCC    ??coding_21
   \                     ??coding_19:
   \   0000014C   ....               RCALL   ?Subroutine34
   \                     ??CrossCallReturnLabel_41:
   \   0000014E   ....               RCALL   ?Subroutine123
   \                     ??CrossCallReturnLabel_244:
   \   00000150   9140....           LDS     R20, c1
   \   00000154   ....               RCALL   ?Subroutine2
   \                     ??CrossCallReturnLabel_7:
   \   00000156   ....               LDI     R30, LOW(c1)
   \   00000158   ....               LDI     R31, (c1) >> 8
   \   0000015A   ....               RCALL   ??Subroutine137_0
   \                     ??CrossCallReturnLabel_302:
   \   0000015C   C012               RJMP    ??coding_22
   \                     ??coding_17:
   \   0000015E   ....               RCALL   ?Subroutine51
   \                     ??CrossCallReturnLabel_70:
   \   00000160   F740               BRCC    ??CrossCallReturnLabel_348
   \   00000162   ....               RCALL   ?Subroutine34
   \                     ??CrossCallReturnLabel_42:
   \   00000164   ....               RCALL   ?Subroutine98
   \                     ??CrossCallReturnLabel_168:
   \   00000166   ....               RCALL   ?Subroutine24
   \                     ??CrossCallReturnLabel_323:
   \   00000168   ....               RCALL   ?Subroutine34
   \                     ??CrossCallReturnLabel_43:
   \   0000016A   8100               LD      R16, Z
   \   0000016C   ....               RCALL   ??Subroutine141_0
   \                     ??CrossCallReturnLabel_345:
   \   0000016E   C00A               RJMP    ??coding_21
    251                     if (v>5 && v<7)    { c1++;   if (c1<=15)  c1++; }
   \                     ??coding_20:
   \   00000170   ....               RCALL   ?Subroutine47
   \                     ??CrossCallReturnLabel_59:
   \   00000172   F440               BRCC    ??coding_21
   \   00000174   ....               RCALL   ?Subroutine50
   \                     ??CrossCallReturnLabel_67:
   \   00000176   F430               BRCC    ??coding_21
   \   00000178   ....               LDI     R30, LOW(c1)
   \   0000017A   ....               LDI     R31, (c1) >> 8
   \   0000017C   ....               RCALL   ?Subroutine31
   \                     ??CrossCallReturnLabel_37:
   \   0000017E   F410               BRCC    ??coding_21
   \   00000180   9503               INC     R16
   \                     ??coding_22:
   \   00000182   8300               ST      Z, R16
    252                   
    253                          if (c1>=16) ind=2;
   \                     ??coding_21:
   \   00000184   9100....           LDS     R16, c1
   \   00000188   3100               CPI     R16, 16
   \   0000018A   F018               BRCS    ??coding_7
   \   0000018C   E002               LDI     R16, 2
   \                     ??coding_16:
   \   0000018E   9300....           STS     ind, R16
    254                               }
    255                    
    256                   
    257                  
    258                   
    259                
    260                       cod_ok=1;//код готов         
   \                     ??coding_7:
   \   00000192   E001               LDI     R16, 1
   \   00000194   9300....           STS     cod_ok, R16
    261                   
    262                   if (pr==0) {
   \   00000198   2066               TST     R6
   \   0000019A   F5A1               BRNE    ??CrossCallReturnLabel_195
    263                               rprintfFloat(2, i);
   \   0000019C   018C               MOVW    R17:R16, R25:R24
   \   0000019E   E020               LDI     R18, 0
   \   000001A0   ....               RCALL   ?Subroutine45
   \                     ??CrossCallReturnLabel_53:
   \   000001A2   E002               LDI     R16, 2
   \   000001A4   ....               RCALL   rprintfFloat
    264                               rprintfStr("  / abslen= ");
   \   000001A6   ....               LDI     R16, LOW(`?<Constant "  / abslen= ">`)
   \   000001A8   ....               LDI     R17, (`?<Constant "  / abslen= ">`) >> 8
   \   000001AA   ....               RCALL   rprintfStr
    265                                rprintfFloat(9, dim1[i]+ (256*dim2[i])  );
   \   000001AC   0F88               LSL     R24
   \   000001AE   1F99               ROL     R25
   \   000001B0   01FC               MOVW    R31:R30, R25:R24
   \   000001B2   ....               SUBI    R30, LOW((-(dim1) & 0xFFFF))
   \   000001B4   ....               SBCI    R31, (-(dim1) & 0xFFFF) >> 8
   \   000001B6   ....               RCALL   ?Subroutine99
   \                     ??CrossCallReturnLabel_170:
   \   000001B8   01FC               MOVW    R31:R30, R25:R24
   \   000001BA   ....               SUBI    R30, LOW((-(dim2) & 0xFFFF))
   \   000001BC   ....               SBCI    R31, (-(dim2) & 0xFFFF) >> 8
   \   000001BE   8130               LD      R19, Z
   \   000001C0   E020               LDI     R18, 0
   \   000001C2   0F13               ADD     R17, R19
   \   000001C4   ....               RCALL   ?Subroutine45
   \                     ??CrossCallReturnLabel_54:
   \   000001C6   E009               LDI     R16, 9
   \   000001C8   ....               RCALL   rprintfFloat
    266                                rprintfStr("  / len= ");
   \   000001CA   ....               LDI     R16, LOW(`?<Constant "  / len= ">`)
   \   000001CC   ....               LDI     R17, (`?<Constant "  / len= ">`) >> 8
   \   000001CE   ....               RCALL   rprintfStr
    267                            rprintfFloat(4,  len[i]);
   \   000001D0   914D               LD      R20, X+
   \   000001D2   915D               LD      R21, X+
   \   000001D4   916D               LD      R22, X+
   \   000001D6   917C               LD      R23, X
   \   000001D8   E004               LDI     R16, 4
   \   000001DA   ....               RCALL   rprintfFloat
    268                             rprintfStr("  ");
   \   000001DC   ....               LDI     R16, LOW(`?<Constant "  ">`)
   \   000001DE   ....               LDI     R17, (`?<Constant "  ">`) >> 8
   \   000001E0   ....               RCALL   rprintfStr
    269                           rprintfStr("  / cod1= ");
   \   000001E2   ....               LDI     R16, LOW(`?<Constant "  / cod1= ">`)
   \   000001E4   ....               LDI     R17, (`?<Constant "  / cod1= ">`) >> 8
   \   000001E6   ....               RCALL   ?Subroutine28
    270                            rprintfFloat(6, cod1);
    271                             rprintfStr(" / cod2= ");
   \                     ??CrossCallReturnLabel_318:
   \   000001E8   ....               LDI     R16, LOW(`?<Constant " / cod2= ">`)
   \   000001EA   ....               LDI     R17, (`?<Constant " / cod2= ">`) >> 8
   \   000001EC   ....               RCALL   ?Subroutine38
    272                            rprintfFloat(6,  cod2);
   \                     ??CrossCallReturnLabel_389:
   \   000001EE   ....               RCALL   ??Subroutine138_0
    273                             rprintfStr(" / cod3= ");
   \                     ??CrossCallReturnLabel_315:
   \   000001F0   ....               LDI     R16, LOW(`?<Constant " / cod3= ">`)
   \   000001F2   ....               LDI     R17, (`?<Constant " / cod3= ">`) >> 8
   \   000001F4   ....               RCALL   ?Subroutine40
    274                            rprintfFloat(6,  cod3);
   \                     ??CrossCallReturnLabel_383:
   \   000001F6   ....               RCALL   ??Subroutine138_0
    275                             rprintfStr("/ minlen=");
   \                     ??CrossCallReturnLabel_314:
   \   000001F8   ....               LDI     R16, LOW(`?<Constant "/ minlen=">`)
   \   000001FA   ....               LDI     R17, (`?<Constant "/ minlen=">`) >> 8
   \   000001FC   ....               RCALL   rprintfStr
    276                             rprintfFloat(9,   minimallen);
   \   000001FE   ....               RCALL   ?Subroutine94
    277                             ent;
    278                          }
    279                   
    280                   
    281                             }
   \                     ??CrossCallReturnLabel_160:
   \   00000200   ....               RCALL   ?Subroutine99
   \                     ??CrossCallReturnLabel_171:
   \   00000202   ....               RCALL   ?Subroutine41
    282                 
    283                 
    284                 
    285            
    286            }
   \                     ??CrossCallReturnLabel_195:
   \   00000204   E0EA               LDI     R30, 10
   \   00000206   ....               RJMP    ?EPILOGUE_B10_L09

   \                                 In  segment CODE, align 2, keep-with-next
   \                     ?Subroutine57:
   \   00000000   EA60               LDI     R22, 160
   \   00000002   ....               RJMP    ?F_CMP_LT_L04

   \                                 In  segment CODE, align 2, keep-with-next
   \                     ?Subroutine56:
   \   00000000   E460               LDI     R22, 64
   \   00000002   ....               RJMP    ?F_CMP_GE_L04

   \                                 In  segment CODE, align 2, keep-with-next
   \                     ?Subroutine55:
   \   00000000   E460               LDI     R22, 64
   \   00000002   ....               RJMP    ?F_CMP_LT_L04

   \                                 In  segment CODE, align 2, keep-with-next
   \                     ?Subroutine51:
   \   00000000   E060               LDI     R22, 0
   \   00000002   E470               LDI     R23, 64
   \   00000004   ....               RJMP    ?F_CMP_LT_L04

   \                                 In  segment CODE, align 2, keep-with-next
   \                     ?Subroutine50:
   \   00000000   E040               LDI     R20, 0
   \   00000002   EE60               LDI     R22, 224
   \   00000004   ....               RJMP    ?F_CMP_LT_L04

   \                                 In  segment CODE, align 2, keep-with-next
   \                     ?Subroutine49:
   \   00000000   E060               LDI     R22, 0
   \   00000002   E470               LDI     R23, 64
   \   00000004   0180               MOVW    R17:R16, R1:R0
   \   00000006   ....               RJMP    ?F_CMP_GE_L04

   \                                 In  segment CODE, align 2, keep-with-next
   \                     ?Subroutine47:
   \   00000000   E041               LDI     R20, 1
   \   00000002   EA60               LDI     R22, 160
   \   00000004   ....               RJMP    ?F_CMP_GE_L04

   \                                 In  segment CODE, align 2, keep-with-next
   \                     ?Subroutine45:
   \   00000000   ....               RCALL   ?Subroutine101
   \                     ??CrossCallReturnLabel_185:
   \   00000002   ....               RJMP    ?Subroutine121

   \                                 In  segment CODE, align 2, keep-with-next
   \                     ?Subroutine37:
   \   00000000   ....               LDI     R30, LOW(c3)
   \   00000002   ....               LDI     R31, (c3) >> 8
   \   00000004                      REQUIRE ??Subroutine137_0
   \   00000004                      ;               // Fall through to label ??Subroutine137_0

   \                                 In  segment CODE, align 2, keep-with-next
   \                     ??Subroutine137_0:
   \   00000000   8100               LD      R16, Z
   \   00000002   5F0E               SUBI    R16, 254
   \   00000004   9508               RET

   \                                 In  segment CODE, align 2, keep-with-next
   \                     ?Subroutine33:
   \   00000000   ....               RCALL   ?Subroutine99
   \                     ??CrossCallReturnLabel_179:
   \   00000002                      REQUIRE ?Subroutine103
   \   00000002                      ;               // Fall through to label ?Subroutine103

   \                                 In  segment CODE, align 2, keep-with-next
   \                     ?Subroutine103:
   \   00000000   0F00               LSL     R16
   \   00000002   1F11               ROL     R17
   \   00000004   0F00               LSL     R16
   \   00000006   1F11               ROL     R17
   \   00000008   9508               RET

   \                                 In  segment CODE, align 2, keep-with-next
   \                     ?Subroutine98:
   \   00000000   8100               LD      R16, Z
   \   00000002   8111               LDD     R17, Z+1
   \   00000004   2908               OR      R16, R8
   \   00000006   2919               OR      R17, R9
   \   00000008   9508               RET

   \                                 In  segment CODE, align 2, keep-with-next
   \                     ?Subroutine31:
   \   00000000   ....               RCALL   ?Subroutine96
   \                     ??CrossCallReturnLabel_328:
   \   00000002   3100               CPI     R16, 16
   \   00000004   9508               RET

   \                                 In  segment CODE, align 2, keep-with-next
   \                     ?Subroutine29:
   \   00000000   ....               RCALL   ?Subroutine98
   \                     ??CrossCallReturnLabel_169:
   \   00000002   0D04               ADD     R16, R4
   \   00000004   1D15               ADC     R17, R5
   \   00000006   9508               RET

   \                                 In  segment CODE, align 2, keep-with-next
   \                     ?Subroutine24:
   \   00000000   8300               ST      Z, R16
   \   00000002   8311               STD     Z+1, R17
   \   00000004   ....               LDI     R30, LOW(c1)
   \   00000006   ....               LDI     R31, (c1) >> 8
   \   00000008                      REQUIRE ?Subroutine122
   \   00000008                      ;               // Fall through to label ?Subroutine122

   \                                 In  segment CODE, align 2, keep-with-next
   \                     ?Subroutine122:
   \   00000000   8100               LD      R16, Z
   \   00000002   5F0E               SUBI    R16, 254
   \   00000004                      REQUIRE ??Subroutine139_0
   \   00000004                      ;               // Fall through to label ??Subroutine139_0

   \                                 In  segment CODE, align 2, keep-with-next
   \                     ?Subroutine23:
   \   00000000   8300               ST      Z, R16
   \   00000002   8311               STD     Z+1, R17
   \   00000004   ....               LDI     R30, LOW(c2)
   \   00000006   ....               LDI     R31, (c2) >> 8
   \   00000008   ....               RJMP    ?Subroutine122

   \                                 In  segment CODE, align 2, keep-with-next
   \                     ?Subroutine2:
   \   00000000   ....               RCALL   ?Subroutine117
   \                     ??CrossCallReturnLabel_233:
   \   00000002   2B20               OR      R18, R16
   \   00000004   2B31               OR      R19, R17
   \   00000006   0F28               ADD     R18, R24
   \   00000008   1F39               ADC     R19, R25
   \   0000000A   8320               ST      Z, R18
   \   0000000C   8331               STD     Z+1, R19
   \   0000000E   9508               RET

   \                                 In  segment CODE, align 2, keep-with-next
   \                     ?Subroutine1:
   \   00000000   ....               RCALL   ?Subroutine117
   \                     ??CrossCallReturnLabel_232:
   \   00000002   0148               MOVW    R9:R8, R17:R16
   \   00000004   ....               RCALL   ?Subroutine105
   \                     ??CrossCallReturnLabel_196:
   \   00000006   EC60               LDI     R22, 192
   \   00000008   E37F               LDI     R23, 63
   \   0000000A   0180               MOVW    R17:R16, R1:R0
   \   0000000C   0191               MOVW    R19:R18, R3:R2
   \   0000000E   ....               RJMP    ?F_CMP_LT_L04

   \                                 In  segment CODE, align 2, keep-with-next
   \                     ?Subroutine25:
   \   00000000   ....               RCALL   ?Subroutine99
   \                     ??CrossCallReturnLabel_178:
   \   00000002                      REQUIRE ??Subroutine141_0
   \   00000002                      ;               // Fall through to label ??Subroutine141_0

   \                                 In  segment CODE, align 2, keep-with-next
   \                     ??Subroutine141_0:
   \   00000000   0F08               ADD     R16, R24
   \   00000002   1F19               ADC     R17, R25
   \   00000004                      REQUIRE ??Subroutine142_0
   \   00000004                      ;               // Fall through to label ??Subroutine142_0

   \                                 In  segment CODE, align 2, keep-with-next
   \                     ?Subroutine123:
   \   00000000   8120               LD      R18, Z
   \   00000002   8131               LDD     R19, Z+1
   \   00000004   9508               RET

   \                                 In  segment CODE, align 2, keep-with-next
   \                     ?Subroutine34:
   \   00000000   ....               LDI     R30, LOW(cod1)
   \   00000002   ....               LDI     R31, (cod1) >> 8
   \   00000004   9508               RET

   \                                 In  segment CODE, align 2, keep-with-next
   \                     ?Subroutine39:
   \   00000000   ....               LDI     R30, LOW(cod3)
   \   00000002   ....               LDI     R31, (cod3) >> 8
   \   00000004   ....               RJMP    ?Subroutine123

   \                                 In  segment CODE, align 2, keep-with-next
   \                     ?Subroutine41:
   \   00000000   ....               RCALL   ?Subroutine118
   \                     ??CrossCallReturnLabel_309:
   \   00000002                      REQUIRE ?Subroutine104
   \   00000002                      ;               // Fall through to label ?Subroutine104

   \                                 In  segment CODE, align 2, keep-with-next
   \                     ?Subroutine104:
   \   00000000   E009               LDI     R16, 9
   \   00000002   ....               RCALL   rprintfFloat
   \   00000004   ....               RJMP    ?Subroutine120

   \                                 In  segment CODE, align 2, keep-with-next
   \                     ?Subroutine117:
   \   00000000   E001               LDI     R16, 1
   \   00000002   E010               LDI     R17, 0
   \   00000004   ....               RJMP    ?S_SHL_L02
    287            
    288          
    289           //переполнился импульс более 130мс  (1/(4000000/8)*65535)
    290          #pragma vector = TIMER1_OVF_vect

   \                                 In  segment CODE, align 2, keep-with-next
    291          __interrupt void funTIMER1_OVF_vect(void)
   \                     funTIMER1_OVF_vect:
    292          {
   \   00000000   930A               ST      -Y, R16
    293             //TIFR = 0xFF; - в прерывании сбрасывется сам
    294            
    295            perepoln=1;   
   \   00000002   E001               LDI     R16, 1
   \   00000004   9300....           STS     perepoln, R16
    296           
    297          }
   \   00000008                      REQUIRE ?Subroutine133
   \   00000008                      ;               // Fall through to label ?Subroutine133

   \                                 In  segment CODE, align 2, keep-with-next
   \                     ?Subroutine133:
   \   00000000   9109               LD      R16, Y+
   \   00000002   9518               RETI
    298          
    299          
    300          
F:\Dulov\remoteamp\main.c
      1          //***************************************************************************
      2          //  
      3          //  Author(s)...: dav COBRA 
      4          //  Target(s)...: ATMega8
      5          //  Compiler....: 6 40
      6          //  ТЕСТ1
      7          //  Description.: Система  управления  для  Усилителя  Мощности   V-ниже
      8          //  v1.1 - добавлена поддержка включения усилителя тыловых колонок вместо Source5
      9          //       - изменена установка auto off
     10          //  v1.2 - теперь во время мигания(только Source) светодиодов  команды пульта обрабатываются
     11          //       - новая команда пульта - возврат в предыдущий source
     12          //       - команды пульта можно продублировать на втором пульте, т.е. на каждую функцию 2 кнопки пульта
     13          //       - вместо импульсов громкости можно формировать постоянный сигнал
     14          //       - подправлены задержки
     15          //       - обновлен алгоритм кодирования
     16          // v1.22 - исправлена ошибка задержки вкл AC
     17          // v1.23 - исправлен при включении включается SOURCE1 
     18          // v1.24 - исправлен баг AUTOOFF на 30 минут 
     19          // v1.25 - исправлен баг AUTOOFF при выключениии питания 
     20          // v1.26 - refactoring 
     21          //  Data........: 02 2017
     22          //
     23          //   - ВЫКЛЮЧИТЬ ОПЦИЮ clustering of variables В optimization compilator !!!!
     24          //***************************************************************************
     25          #include <iom8.h>//<ioavr.h>
     26          //#include <inavr.h>  
     27          #include <intrinsics.h>
     28          #include "init.h"
     29          #include "main.h"
     30          #include "du.h"  
     31          #include "SoftTimers.h" 
     32          #include "keys.h"
     33          //#include <stdlib.h>
     34          //#include <math.h> 
     35          #include "usart.h"
     36          #include "eeprom.h"
     37          //#include <stdarg.h>
     38          //************************************************************************* 
     39          #define AC_ON    SET(PORTD,6)
     40          #define AC_OFF   RES(PORTD,6)
     41          void diag(void);
     42          void led_all(bool a);
     43          void resled(void);
     44          void source(void);
     45          void resOUT(void);  
     46          void gro(uchar a);
     47          void normal(uchar rez);
     48          void writeCOD(void);
     49          uchar analizCOD(void);
     50          void programming(uchar rez);
     51          uchar getadr(void);

   \                                 In  segment NEAR_I, align 1, keep-with-next
   \   00000000                      REQUIRE `?<Segment init: NEAR_I>`
     52          uint tON=acon; 
   \                     tON:
   \   00000000                      DS8 2
   \   00000002                      REQUIRE `?<Initializer for tON>`

   \                                 In  segment NEAR_Z, align 1, keep-with-next
   \   00000000                      REQUIRE `?<Segment init: NEAR_Z>`
     53          uchar pr;
   \                     pr:
   \   00000000                      DS8 1

   \                                 In  segment NEAR_Z, align 1, keep-with-next
   \   00000000                      REQUIRE `?<Segment init: NEAR_Z>`
     54          static bool get=0;
   \                     ??get:
   \   00000000                      DS8 1

   \                                 In  segment NEAR_Z, align 1, keep-with-next
   \   00000000                      REQUIRE `?<Segment init: NEAR_Z>`
     55          bool onok;  
   \                     onok:
   \   00000000                      DS8 1

   \                                 In  segment NEAR_Z, align 1, keep-with-next
   \   00000000                      REQUIRE `?<Segment init: NEAR_Z>`
     56          bool on,mute;
   \                     on:
   \   00000000                      DS8 1

   \                                 In  segment NEAR_Z, align 1, keep-with-next
   \   00000000                      REQUIRE `?<Segment init: NEAR_Z>`
   \                     mute:
   \   00000000                      DS8 1

   \                                 In  segment NEAR_Z, align 1, keep-with-next
   \   00000000                      REQUIRE `?<Segment init: NEAR_Z>`
     57          bool zader,aoff;
   \                     zader:
   \   00000000                      DS8 1

   \                                 In  segment NEAR_Z, align 1, keep-with-next
   \   00000000                      REQUIRE `?<Segment init: NEAR_Z>`
   \                     aoff:
   \   00000000                      DS8 1

   \                                 In  segment NEAR_Z, align 1, keep-with-next
   \   00000000                      REQUIRE `?<Segment init: NEAR_Z>`
     58          uint timerzad; 
   \                     timerzad:
   \   00000000                      DS8 2

   \                                 In  segment NEAR_Z, align 1, keep-with-next
   \   00000000                      REQUIRE `?<Segment init: NEAR_Z>`
     59          uchar pultadr; uchar rez;
   \                     pultadr:
   \   00000000                      DS8 1

   \                                 In  segment NEAR_Z, align 1, keep-with-next
   \   00000000                      REQUIRE `?<Segment init: NEAR_Z>`
   \                     rez:
   \   00000000                      DS8 1

   \                                 In  segment NEAR_Z, align 1, keep-with-next
   \   00000000                      REQUIRE `?<Segment init: NEAR_Z>`
     60           bool u=0,til=0,mode_programming=0; 
   \                     u:
   \   00000000                      DS8 1

   \                                 In  segment NEAR_Z, align 1, keep-with-next
   \   00000000                      REQUIRE `?<Segment init: NEAR_Z>`
   \                     til:
   \   00000000                      DS8 1

   \                                 In  segment NEAR_Z, align 1, keep-with-next
   \   00000000                      REQUIRE `?<Segment init: NEAR_Z>`
   \                     mode_programming:
   \   00000000                      DS8 1

   \                                 In  segment NEAR_Z, align 1, keep-with-next
   \   00000000                      REQUIRE `?<Segment init: NEAR_Z>`
     61          extern  uchar mode=0,tekfunc=0; 
   \                     mode:
   \   00000000                      DS8 1

   \                                 In  segment NEAR_Z, align 1, keep-with-next
   \   00000000                      REQUIRE `?<Segment init: NEAR_Z>`
   \                     tekfunc:
   \   00000000                      DS8 1

   \                                 In  segment NEAR_I, align 1, keep-with-next
   \   00000000                      REQUIRE `?<Segment init: NEAR_I>`
     62          static uchar lastsel=1,sel=1,gro1=0,gro2=0,regaoff=0;
   \                     ??lastsel:
   \   00000000                      DS8 1
   \   00000001                      REQUIRE `?<Initializer for lastsel>`

   \                                 In  segment NEAR_I, align 1, keep-with-next
   \   00000000                      REQUIRE `?<Segment init: NEAR_I>`
   \                     ??sel:
   \   00000000                      DS8 1
   \   00000001                      REQUIRE `?<Initializer for sel>`

   \                                 In  segment NEAR_Z, align 1, keep-with-next
   \   00000000                      REQUIRE `?<Segment init: NEAR_Z>`
   \                     ??gro1:
   \   00000000                      DS8 1

   \                                 In  segment NEAR_Z, align 1, keep-with-next
   \   00000000                      REQUIRE `?<Segment init: NEAR_Z>`
   \                     ??gro2:
   \   00000000                      DS8 1

   \                                 In  segment NEAR_Z, align 1, keep-with-next
   \   00000000                      REQUIRE `?<Segment init: NEAR_Z>`
   \                     ??regaoff:
   \   00000000                      DS8 1
     63          

   \                                 In  segment CODE, align 2, keep-with-next
     64          void led_test()
   \                     led_test:
     65          {
   \   00000000   938A               ST      -Y, R24
     66            for (uchar i=0; i<=10; i++){ led_all(1);  p5; led_all(0);}
   \   00000002   E08B               LDI     R24, 11
   \                     ??led_test_0:
   \   00000004   ....               RCALL   ??Subroutine145_0
   \                     ??CrossCallReturnLabel_376:
   \   00000006   ....               RCALL   ?Subroutine119
   \                     ??CrossCallReturnLabel_349:
   \   00000008   ....               RCALL   ?Subroutine12
   \                     ??CrossCallReturnLabel_17:
   \   0000000A   958A               DEC     R24
   \   0000000C   F7D9               BRNE    ??led_test_0
     67          }
   \   0000000E   ....               RJMP    ?Subroutine127

   \                                 In  segment CODE, align 2, keep-with-next
   \                     ?Subroutine119:
   \   00000000   E70F               LDI     R16, 127
   \   00000002   E11A               LDI     R17, 26
   \   00000004   E026               LDI     R18, 6
   \   00000006   5001               SUBI    R16, 1
   \   00000008   4010               SBCI    R17, 0
   \   0000000A   4020               SBCI    R18, 0
   \   0000000C   F7E1               BRNE    $-6
   \   0000000E   C000               RJMP    $+2
   \   00000010   0000               NOP
   \   00000012   9508               RET

   \                                 In  segment CODE, align 2, keep-with-next
   \                     ?Subroutine127:
   \   00000000   9189               LD      R24, Y+
   \   00000002   9508               RET

   \                                 In  segment CODE, align 2, keep-with-next
   \                     ?Subroutine12:
   \   00000000   E000               LDI     R16, 0
   \   00000002   ....               RJMP    led_all

   \                                 In  segment CODE, align 2, keep-with-next
   \                     ??Subroutine145_0:
   \   00000000   E001               LDI     R16, 1
   \   00000002   ....               RJMP    led_all
     68          //***************************************************************************
     69          //                  M  A  I  N
     70          //***************************************************************************

   \                                 In  segment CODE, align 2, keep-with-next
     71          int main( void )
   \                     main:
     72          {//main
   \   00000000   938A               ST      -Y, R24
     73              iniPORTS();   
   \   00000002   ....               RCALL   iniPORTS
     74            p3;//задержка при включении
   \   00000004   ....               RCALL   ?Subroutine59
     75            
     76             aoff=0; onok=0; pr=0; on=0; mute=0; zader=0;  til=0;
   \                     ??CrossCallReturnLabel_84:
   \   00000006   E000               LDI     R16, 0
   \   00000008   ....               RCALL   ?Subroutine108
   \                     ??CrossCallReturnLabel_203:
   \   0000000A   9300....           STS     onok, R16
   \   0000000E   9300....           STS     pr, R16
   \   00000012   ....               RCALL   ??Subroutine140_0
   \                     ??CrossCallReturnLabel_329:
   \   00000014   9300....           STS     mute, R16
   \   00000018   ....               RCALL   ?Subroutine68
     77           //----------------------------------
     78             if (keyONsm) {u=1; led_test(); USART_Init();}//включаем UART
   \                     ??CrossCallReturnLabel_90:
   \   0000001A   9985               SBIC    0x10, 0x05
   \   0000001C   C005               RJMP    ??main_0
   \   0000001E   E001               LDI     R16, 1
   \   00000020   9300....           STS     u, R16
   \   00000024   ....               RCALL   led_test
   \   00000026   ....               RCALL   USART_Init
     79          //----------------------------------
     80            mode=fmode; //смена режима работы
   \                     ??main_0:
   \   00000028   ....               LDI     R20, LOW(fmode)
   \   0000002A   ....               LDI     R21, (fmode) >> 8
   \   0000002C   ....               RCALL   __eeget8_16
   \   0000002E   9300....           STS     mode, R16
     81            if (mode!=1 && mode!=0) { fmode=0; mode=0;   }//ini
   \   00000032   3001               CPI     R16, 1
   \   00000034   F029               BREQ    ??main_1
   \   00000036   2300               TST     R16
   \   00000038   F019               BREQ    ??main_1
   \   0000003A   ....               RCALL   ?Subroutine13
   \                     ??CrossCallReturnLabel_210:
   \   0000003C   9300....           STS     mode, R16
     82            if (modegro!=1 && modegro!=0) { modegro=0; p1;   }//ini
   \                     ??main_1:
   \   00000040   ....               RCALL   ?Subroutine64
   \                     ??CrossCallReturnLabel_285:
   \   00000042   F021               BREQ    ??CrossCallReturnLabel_87
   \   00000044   ....               RCALL   ?Subroutine65
   \                     ??CrossCallReturnLabel_269:
   \   00000046   F011               BREQ    ??CrossCallReturnLabel_87
   \   00000048   ....               RCALL   ?Subroutine14
   \                     ??CrossCallReturnLabel_213:
   \   0000004A   ....               RCALL   ?Subroutine63
     83            
     84            if (keyMUTE && !keyAOFFsm) {  led_test();
   \                     ??CrossCallReturnLabel_87:
   \   0000004C   9981               SBIC    0x10, 0x01
   \   0000004E   C022               RJMP    ??main_2
   \   00000050   9985               SBIC    0x10, 0x05
   \   00000052   C020               RJMP    ??main_2
   \   00000054   9B80               SBIS    0x10, 0x00
   \   00000056   C01E               RJMP    ??main_2
   \   00000058   ....               RCALL   led_test
     85            if (mode==0 && modegro==0)   {  fmode=1; p5;   SET(PORTB,4);  while(1) {}   }
   \   0000005A   ....               RCALL   ?Subroutine66
   \                     ??CrossCallReturnLabel_272:
   \   0000005C   F439               BRNE    ??main_3
   \   0000005E   ....               RCALL   ?Subroutine65
   \                     ??CrossCallReturnLabel_270:
   \   00000060   F499               BRNE    ??main_4
   \   00000062   E001               LDI     R16, 1
   \   00000064   ....               RCALL   ?Subroutine110
   \                     ??CrossCallReturnLabel_209:
   \   00000066   ....               RCALL   ?Subroutine119
   \                     ??CrossCallReturnLabel_350:
   \   00000068   9AC4               SBI     0x18, 0x04
   \                     ??main_5:
   \   0000006A   CFFF               RJMP    ??main_5
     86            if (mode==1 && modegro==0)   {  modegro=1; p5; SET(PORTB,2);  SET(PORTB,3);  SET(PORTB,4);  while(1) {}  }
   \                     ??main_3:
   \   0000006C   3001               CPI     R16, 1
   \   0000006E   F491               BRNE    ??main_2
   \   00000070   ....               RCALL   ?Subroutine65
   \                     ??CrossCallReturnLabel_271:
   \   00000072   F429               BRNE    ??main_6
   \   00000074   E001               LDI     R16, 1
   \   00000076   ....               RCALL   ?Subroutine111
   \                     ??CrossCallReturnLabel_212:
   \   00000078   ....               RCALL   ?Subroutine60
   \                     ??CrossCallReturnLabel_283:
   \   0000007A   9AC4               SBI     0x18, 0x04
   \                     ??main_7:
   \   0000007C   CFFF               RJMP    ??main_7
   \                     ??main_6:
   \   0000007E   ....               RCALL   ?Subroutine64
   \                     ??CrossCallReturnLabel_286:
   \   00000080   F449               BRNE    ??main_2
     87            if (mode==1 && modegro==1)   {  fmode=0; p5; SET(PORTB,2);  SET(PORTB,3);    while(1) {}  } 
   \   00000082   ....               RCALL   ?Subroutine13
   \                     ??CrossCallReturnLabel_211:
   \   00000084   ....               RCALL   ?Subroutine60
   \                     ??CrossCallReturnLabel_284:
   \   00000086   CFFF               RJMP    ??CrossCallReturnLabel_284
   \                     ??main_4:
   \   00000088   ....               RCALL   ?Subroutine64
   \                     ??CrossCallReturnLabel_287:
   \   0000008A   F421               BRNE    ??main_2
     88            if (mode==0 && modegro==1)   {  modegro=0; p5;  led_all(1);    while(1) {}   }
   \   0000008C   ....               RCALL   ?Subroutine14
   \                     ??CrossCallReturnLabel_214:
   \   0000008E   ....               RCALL   ?Subroutine119
   \                     ??CrossCallReturnLabel_351:
   \   00000090   ....               RCALL   ??Subroutine145_0
   \                     ??CrossCallReturnLabel_375:
   \   00000092   CFFF               RJMP    ??CrossCallReturnLabel_375
     89            
     90                                        }
     91            
     92           // modegro=1; mode=1;
     93          //-----------------------------------
     94            
     95             if (keySELsm) {mode_programming=1; led_test();}//включаем программирование пульта
   \                     ??main_2:
   \   00000094   9981               SBIC    0x10, 0x01
   \   00000096   C004               RJMP    ??main_8
   \   00000098   E001               LDI     R16, 1
   \   0000009A   9300....           STS     mode_programming, R16
   \   0000009E   ....               RCALL   led_test
     96             if (keySELsm==1 && keyAOFFsm==1)//очистка
   \                     ??main_8:
   \   000000A0   9981               SBIC    0x10, 0x01
   \   000000A2   C00F               RJMP    ??main_9
   \   000000A4   9980               SBIC    0x10, 0x00
   \   000000A6   C00D               RJMP    ??main_9
     97                {
     98                  mode_programming=1; cod1=0;cod2=0;cod3=0;
   \   000000A8   E001               LDI     R16, 1
   \   000000AA   9300....           STS     mode_programming, R16
   \   000000AE   ....               RCALL   ?Subroutine10
     99                  for (uchar i=0; i<=MAXFUNC; i++) {writeCOD();tekfunc++;}
   \                     ??CrossCallReturnLabel_10:
   \   000000B0   E188               LDI     R24, 24
   \                     ??main_10:
   \   000000B2   ....               RCALL   writeCOD
   \   000000B4   ....               LDI     R30, LOW(tekfunc)
   \   000000B6   ....               LDI     R31, (tekfunc) >> 8
   \   000000B8   ....               RCALL   ?Subroutine96
   \                     ??CrossCallReturnLabel_325:
   \   000000BA   958A               DEC     R24
   \   000000BC   F7D1               BRNE    ??main_10
    100                  tekfunc=0;
    101                  led_all(1); while(1) {} //зависаем
   \   000000BE   ....               RCALL   ??Subroutine145_0
   \                     ??CrossCallReturnLabel_374:
   \   000000C0   CFFF               RJMP    ??CrossCallReturnLabel_374
    102                }
    103          
    104             if (mode_programming==1) //мигание первого программируемого
   \                     ??main_9:
   \   000000C2   ....               RCALL   ?Subroutine73
   \                     ??CrossCallReturnLabel_276:
   \   000000C4   F041               BREQ    ??main_11
    105             {
    106               for (uchar i=0; i<3; i++) {getadr(); p3;led_all(0); p3;}
   \   000000C6   E083               LDI     R24, 3
   \                     ??main_12:
   \   000000C8   ....               RCALL   getadr
   \   000000CA   ....               RCALL   ?Subroutine59
   \                     ??CrossCallReturnLabel_85:
   \   000000CC   ....               RCALL   ?Subroutine12
   \                     ??CrossCallReturnLabel_16:
   \   000000CE   ....               RCALL   ?Subroutine59
   \                     ??CrossCallReturnLabel_86:
   \   000000D0   958A               DEC     R24
   \   000000D2   F7D1               BRNE    ??main_12
    107              
    108               getadr();
   \   000000D4   ....               RCALL   getadr
    109             }
    110                     
    111          
    112              __enable_interrupt();   
   \                     ??main_11:
   \   000000D6   9478               SEI
   \   000000D8   C008               RJMP    ??main_13
    113            while(1)
    114            {
    115               rez=du_main(pr);//вызов обработчика пульта 
    116               if (mode_programming==0)  
    117               {    
    118                 pultadr=0; 
    119                 if (rez) pultadr=analizCOD();      
    120               }
    121               else programming(rez);
   \                     ??main_14:
   \   000000DA   9100....           LDS     R16, rez
   \   000000DE   ....               RCALL   programming
    122               if(u) diag();  
   \                     ??main_15:
   \   000000E0   9100....           LDS     R16, u
   \   000000E4   2300               TST     R16
   \   000000E6   F009               BREQ    ??main_13
   \   000000E8   ....               RCALL   diag
   \                     ??main_13:
   \   000000EA   9100....           LDS     R16, pr
   \   000000EE   ....               RCALL   du_main
   \   000000F0   9300....           STS     rez, R16
   \   000000F4   ....               RCALL   ?Subroutine73
   \                     ??CrossCallReturnLabel_277:
   \   000000F6   F789               BRNE    ??main_14
   \   000000F8   ....               RCALL   ??Subroutine144_0
   \                     ??CrossCallReturnLabel_364:
   \   000000FA   9100....           LDS     R16, rez
   \   000000FE   2300               TST     R16
   \   00000100   F379               BREQ    ??main_15
   \   00000102   ....               RCALL   ?Subroutine74
    123            }
   \                     ??CrossCallReturnLabel_356:
   \   00000104   CFED               RJMP    ??main_15
   \   00000106                      REQUIRE _A_PIND
   \   00000106                      REQUIRE _A_PORTB
    124          }//main

   \                                 In  segment CODE, align 2, keep-with-next
   \                     ?Subroutine65:
   \   00000000   ....               RCALL   ?Subroutine112
   \                     ??CrossCallReturnLabel_216:
   \   00000002   ....               RJMP    ?Subroutine128

   \                                 In  segment CODE, align 2, keep-with-next
   \                     ?Subroutine60:
   \   00000000   ....               RCALL   ?Subroutine119
   \                     ??CrossCallReturnLabel_353:
   \   00000002   9AC2               SBI     0x18, 0x02
   \   00000004                      REQUIRE ?Subroutine129
   \   00000004                      ;               // Fall through to label ?Subroutine129

   \                                 In  segment CODE, align 2, keep-with-next
   \                     ?Subroutine129:
   \   00000000   9AC3               SBI     0x18, 0x03
   \   00000002   9508               RET

   \                                 In  segment CODE, align 2, keep-with-next
   \                     ?Subroutine59:
   \   00000000   E70F               LDI     R16, 127
   \   00000002   EA19               LDI     R17, 169
   \   00000004   E023               LDI     R18, 3
   \   00000006   5001               SUBI    R16, 1
   \   00000008   4010               SBCI    R17, 0
   \   0000000A   4020               SBCI    R18, 0
   \   0000000C   F7E1               BRNE    $-6
   \   0000000E   C000               RJMP    $+2
   \   00000010   0000               NOP
   \   00000012   9508               RET

   \                                 In  segment CODE, align 2, keep-with-next
   \                     ?Subroutine14:
   \   00000000   E000               LDI     R16, 0
   \   00000002                      REQUIRE ?Subroutine111
   \   00000002                      ;               // Fall through to label ?Subroutine111

   \                                 In  segment CODE, align 2, keep-with-next
   \                     ?Subroutine111:
   \   00000000   ....               LDI     R20, LOW(modegro)
   \   00000002   ....               LDI     R21, (modegro) >> 8
   \   00000004   ....               RJMP    __eeput8_16

   \                                 In  segment CODE, align 2, keep-with-next
   \                     ?Subroutine13:
   \   00000000   E000               LDI     R16, 0
   \   00000002                      REQUIRE ?Subroutine110
   \   00000002                      ;               // Fall through to label ?Subroutine110

   \                                 In  segment CODE, align 2, keep-with-next
   \                     ?Subroutine110:
   \   00000000   ....               LDI     R20, LOW(fmode)
   \   00000002   ....               LDI     R21, (fmode) >> 8
   \   00000004   ....               RJMP    __eeput8_16

   \                                 In  segment CODE, align 2, keep-with-next
   \                     ??Subroutine140_0:
   \   00000000   9300....           STS     on, R16
   \   00000004   9508               RET

   \                                 In  segment CODE, align 2, keep-with-next
   \                     ?Subroutine68:
   \   00000000   ....               RCALL   ?Subroutine113
   \                     ??CrossCallReturnLabel_220:
   \   00000002   9300....           STS     til, R16
   \   00000006   9508               RET

   \                                 In  segment CODE, align 2, keep-with-next
   \                     ??Subroutine144_0:
   \   00000000   E000               LDI     R16, 0
   \   00000002                      REQUIRE ?Subroutine124
   \   00000002                      ;               // Fall through to label ?Subroutine124

   \                                 In  segment CODE, align 2, keep-with-next
   \                     ?Subroutine124:
   \   00000000   9300....           STS     pultadr, R16
   \   00000004   9508               RET

   \                                 In  segment CODE, align 2, keep-with-next
   \                     ?Subroutine113:
   \   00000000   9300....           STS     zader, R16
   \   00000004   9508               RET

   \                                 In  segment CODE, align 2, keep-with-next
   \                     ?Subroutine74:
   \   00000000   ....               RCALL   analizCOD
   \   00000002   ....               RJMP    ?Subroutine124

   \                                 In  segment CODE, align 2, keep-with-next
   \                     ?Subroutine63:
   \   00000000   E70F               LDI     R16, 127
   \   00000002   E318               LDI     R17, 56
   \   00000004   E021               LDI     R18, 1
   \   00000006   5001               SUBI    R16, 1
   \   00000008   4010               SBCI    R17, 0
   \   0000000A   4020               SBCI    R18, 0
   \   0000000C   F7E1               BRNE    $-6
   \   0000000E   C000               RJMP    $+2
   \   00000010   0000               NOP
   \   00000012   9508               RET

   \                                 In  segment CODE, align 2, keep-with-next
   \                     ?Subroutine108:
   \   00000000   9300....           STS     aoff, R16
   \   00000004   9508               RET

   \                                 In  segment CODE, align 2, keep-with-next
   \                     ?Subroutine66:
   \   00000000   9100....           LDS     R16, mode
   \   00000004                      REQUIRE ?Subroutine128
   \   00000004                      ;               // Fall through to label ?Subroutine128

   \                                 In  segment CODE, align 2, keep-with-next
   \                     ?Subroutine128:
   \   00000000   2300               TST     R16
   \   00000002   9508               RET

   \                                 In  segment CODE, align 2, keep-with-next
   \                     ?Subroutine64:
   \   00000000   ....               RCALL   ?Subroutine112
   \                     ??CrossCallReturnLabel_215:
   \   00000002                      REQUIRE ?Subroutine131
   \   00000002                      ;               // Fall through to label ?Subroutine131

   \                                 In  segment CODE, align 2, keep-with-next
   \                     ?Subroutine131:
   \   00000000   3001               CPI     R16, 1
   \   00000002   9508               RET

   \                                 In  segment CODE, align 2, keep-with-next
   \                     ?Subroutine112:
   \   00000000   ....               LDI     R20, LOW(modegro)
   \   00000002   ....               LDI     R21, (modegro) >> 8
   \   00000004   ....               RJMP    __eeget8_16

   \                                 In  segment CODE, align 2, keep-with-next
   \                     ?Subroutine73:
   \   00000000   9100....           LDS     R16, mode_programming
   \   00000004   ....               RJMP    ?Subroutine128
    125          //***************************************************************************
    126          
    127          
    128          

   \                                 In  segment CODE, align 2, keep-with-next
    129          void main_logic()
   \                     main_logic:
    130          {
    131          
    132           if ((keyON||pultadr==25 || pultadr==90) && on==1 && zader!=1) { rprintfStr("OFF>adr="); rprintfFloat(9, pultadr ); ent;
   \   00000000   9985               SBIC    0x10, 0x05
   \   00000002   C004               RJMP    ??main_logic_0
   \   00000004   9B80               SBIS    0x10, 0x00
   \   00000006   C002               RJMP    ??main_logic_0
   \   00000008   9981               SBIC    0x10, 0x01
   \   0000000A   C005               RJMP    ??main_logic_1
   \                     ??main_logic_0:
   \   0000000C   ....               RCALL   ?Subroutine72
   \                     ??CrossCallReturnLabel_103:
   \   0000000E   3109               CPI     R16, 25
   \   00000010   F011               BREQ    ??main_logic_1
   \   00000012   350A               CPI     R16, 90
   \   00000014   F499               BRNE    ??CrossCallReturnLabel_361
   \                     ??main_logic_1:
   \   00000016   9110....           LDS     R17, on
   \   0000001A   9120....           LDS     R18, zader
   \   0000001E   E001               LDI     R16, 1
   \   00000020   2720               EOR     R18, R16
   \   00000022   2312               AND     R17, R18
   \   00000024   F059               BREQ    ??CrossCallReturnLabel_361
   \   00000026   ....               LDI     R16, LOW(`?<Constant "OFF>adr=">`)
   \   00000028   ....               LDI     R17, (`?<Constant "OFF>adr=">`) >> 8
   \   0000002A   ....               RCALL   ?Subroutine18
    133                              on=0;onok=0; p5; zader=0;  til=0; gro1=0; gro2=0; pultadr=0;  }//OFF
   \                     ??CrossCallReturnLabel_22:
   \   0000002C   ....               RCALL   ?Subroutine15
   \                     ??CrossCallReturnLabel_18:
   \   0000002E   ....               RCALL   ?Subroutine106
   \                     ??CrossCallReturnLabel_200:
   \   00000030   ....               RCALL   ?Subroutine68
   \                     ??CrossCallReturnLabel_91:
   \   00000032   9300....           STS     ??gro1, R16
   \   00000036   9300....           STS     ??gro2, R16
   \   0000003A   ....               RCALL   ?Subroutine124
    134               if ((keyON||pultadr==25 || pultadr==90) && on==0) {rprintfStr("ON>adr="); rprintfFloat(9, pultadr ); ent;
   \                     ??CrossCallReturnLabel_361:
   \   0000003C   9985               SBIC    0x10, 0x05
   \   0000003E   C004               RJMP    ??main_logic_2
   \   00000040   9B80               SBIS    0x10, 0x00
   \   00000042   C002               RJMP    ??main_logic_2
   \   00000044   9981               SBIC    0x10, 0x01
   \   00000046   C005               RJMP    ??main_logic_3
   \                     ??main_logic_2:
   \   00000048   ....               RCALL   ?Subroutine72
   \                     ??CrossCallReturnLabel_104:
   \   0000004A   3109               CPI     R16, 25
   \   0000004C   F011               BREQ    ??main_logic_3
   \   0000004E   350A               CPI     R16, 90
   \   00000050   F489               BRNE    ??CrossCallReturnLabel_365
   \                     ??main_logic_3:
   \   00000052   9100....           LDS     R16, on
   \   00000056   2300               TST     R16
   \   00000058   F469               BRNE    ??CrossCallReturnLabel_365
   \   0000005A   ....               LDI     R16, LOW(`?<Constant "ON>adr=">`)
   \   0000005C   ....               LDI     R17, (`?<Constant "ON>adr=">`) >> 8
   \   0000005E   ....               RCALL   ?Subroutine18
    135                              SET(PORTD,4); SET(PORTD,7);p5; on=1; mute=0; zader=1;timerzad=0;source();pultadr=0;  }//ON
   \                     ??CrossCallReturnLabel_23:
   \   00000060   9A94               SBI     0x12, 0x04
   \   00000062   9A97               SBI     0x12, 0x07
   \   00000064   ....               RCALL   ?Subroutine119
   \                     ??CrossCallReturnLabel_352:
   \   00000066   E001               LDI     R16, 1
   \   00000068   ....               RCALL   ??Subroutine140_0
   \                     ??CrossCallReturnLabel_330:
   \   0000006A   E000               LDI     R16, 0
   \   0000006C   9300....           STS     mute, R16
   \   00000070   ....               RCALL   ?Subroutine3
   \                     ??CrossCallReturnLabel_9:
   \   00000072   ....               RCALL   ??Subroutine144_0
    136               
    137              //выключение
    138              if (on==0 && onok==0) { on=0; aoff=0; p5; zader=0; regaoff=0; AC_OFF; delay_s(1); tON=acon; 
   \                     ??CrossCallReturnLabel_365:
   \   00000074   9100....           LDS     R16, on
   \   00000078   9110....           LDS     R17, onok
   \   0000007C   2B01               OR      R16, R17
   \   0000007E   F4A1               BRNE    ??main_logic_4
   \   00000080   ....               RCALL   ?Subroutine109
   \                     ??CrossCallReturnLabel_331:
   \   00000082   ....               RCALL   ?Subroutine16
   \                     ??CrossCallReturnLabel_249:
   \   00000084   9896               CBI     0x12, 0x06
   \   00000086   ....               RCALL   ?Subroutine70
   \                     ??CrossCallReturnLabel_97:
   \   00000088   E200               LDI     R16, 32
   \   0000008A   E41E               LDI     R17, 78
   \   0000008C   ....               LDI     R30, LOW(tON)
   \   0000008E   ....               LDI     R31, (tON) >> 8
   \   00000090   ....               RCALL   ??Subroutine142_0
    139              						PORTB=0; RES(PORTD,7);RES(PORTD,4); resOUT(); RES(PORTC,5); RES(PORTC,0);RES(PORTD,3); onok=1;
   \                     ??CrossCallReturnLabel_341:
   \   00000092   E000               LDI     R16, 0
   \   00000094   BB08               OUT     0x18, R16
   \   00000096   9897               CBI     0x12, 0x07
   \   00000098   9894               CBI     0x12, 0x04
   \   0000009A   ....               RCALL   resOUT
   \   0000009C   98AD               CBI     0x15, 0x05
   \   0000009E   98A8               CBI     0x15, 0x00
   \   000000A0   9893               CBI     0x12, 0x03
   \   000000A2   E001               LDI     R16, 1
   \   000000A4   9300....           STS     onok, R16
    140                                    }
    141                                            
    142            
    143              pultadr=0;  if (on==1) normal(rez);
   \                     ??main_logic_4:
   \   000000A8   ....               RCALL   ??Subroutine144_0
   \                     ??CrossCallReturnLabel_366:
   \   000000AA   9100....           LDS     R16, on
   \   000000AE   2300               TST     R16
   \   000000B0   F019               BREQ    ??main_logic_5
   \   000000B2   9100....           LDS     R16, rez
   \   000000B6   ....               RCALL   normal
    144             
    145                           
    146            
    147          
    148          }
   \                     ??main_logic_5:
   \   000000B8   9508               RET
   \   000000BA                      REQUIRE _A_PIND
   \   000000BA                      REQUIRE _A_PORTD
   \   000000BA                      REQUIRE _A_PORTB
   \   000000BA                      REQUIRE _A_PORTC

   \                                 In  segment CODE, align 2, keep-with-next
   \                     ?Subroutine109:
   \   00000000   E000               LDI     R16, 0
   \   00000002                      REQUIRE ??Subroutine140_0
   \   00000002                      ;               // Fall through to label ??Subroutine140_0

   \                                 In  segment CODE, align 2, keep-with-next
   \                     ?Subroutine18:
   \   00000000   ....               RCALL   rprintfStr
   \   00000002   9100....           LDS     R16, pultadr
   \   00000006   ....               RCALL   ?Subroutine90
   \                     ??CrossCallReturnLabel_310:
   \   00000008   ....               RJMP    ?Subroutine104

   \                                 In  segment CODE, align 2, keep-with-next
   \                     ?Subroutine3:
   \   00000000   E001               LDI     R16, 1
   \   00000002   ....               RCALL   ?Subroutine113
   \                     ??CrossCallReturnLabel_218:
   \   00000004   E000               LDI     R16, 0
   \   00000006   ....               LDI     R30, LOW(timerzad)
   \   00000008   ....               LDI     R31, (timerzad) >> 8
   \   0000000A   ....               RCALL   ?Subroutine93
   \                     ??CrossCallReturnLabel_155:
   \   0000000C   ....               RJMP    source

   \                                 In  segment CODE, align 2, keep-with-next
   \                     ?Subroutine125:
   \   00000000   9300....           STS     ??regaoff, R16
   \   00000004   9508               RET

   \                                 In  segment CODE, align 2, keep-with-next
   \                     ?Subroutine72:
   \   00000000   9100....           LDS     R16, pultadr
   \   00000004   9508               RET

   \                                 In  segment CODE, align 2, keep-with-next
   \                     ?Subroutine106:
   \   00000000   ....               RCALL   ?Subroutine119
   \                     ??CrossCallReturnLabel_354:
   \   00000002   E000               LDI     R16, 0
   \   00000004   9508               RET

   \                                 In  segment CODE, align 2, keep-with-next
   \                     ?Subroutine16:
   \   00000000   ....               RCALL   ?Subroutine108
   \                     ??CrossCallReturnLabel_208:
   \   00000002   ....               RCALL   ?Subroutine106
   \                     ??CrossCallReturnLabel_202:
   \   00000004   ....               RCALL   ?Subroutine113
   \                     ??CrossCallReturnLabel_219:
   \   00000006   ....               RJMP    ?Subroutine125

   \                                 In  segment CODE, align 2, keep-with-next
   \                     ?Subroutine15:
   \   00000000   ....               RCALL   ?Subroutine109
   \                     ??CrossCallReturnLabel_332:
   \   00000002   9300....           STS     onok, R16
   \   00000006   9508               RET

   \                                 In  segment CODE, align 2, keep-with-next
   \                     ?Subroutine70:
   \   00000000   EF0F               LDI     R16, 255
   \   00000002   E314               LDI     R17, 52
   \   00000004   E02C               LDI     R18, 12
   \   00000006   5001               SUBI    R16, 1
   \   00000008   4010               SBCI    R17, 0
   \   0000000A   4020               SBCI    R18, 0
   \   0000000C   F7E1               BRNE    $-6
   \   0000000E   C000               RJMP    $+2
   \   00000010   0000               NOP
   \   00000012   9508               RET
    149          
    150          
    151          
    152          
    153          
    154          
    155          
    156           
    157          

   \                                 In  segment CODE, align 2, keep-with-next
    158          uchar getadr()//адреса  команд
   \                     getadr:
    159          {
    160            uchar adr=0;
   \   00000000   E000               LDI     R16, 0
    161            if (tekfunc==0) {adr=1; SET(PORTB,0);}//s1
   \   00000002   9110....           LDS     R17, tekfunc
   \   00000006   2311               TST     R17
   \   00000008   F411               BRNE    ??getadr_0
   \   0000000A   E001               LDI     R16, 1
   \   0000000C   C02F               RJMP    ??getadr_1
    162            if (tekfunc==1) {adr=5; SET(PORTB,1);}
   \                     ??getadr_0:
   \   0000000E   3011               CPI     R17, 1
   \   00000010   F411               BRNE    ??getadr_2
   \   00000012   E005               LDI     R16, 5
   \   00000014   C030               RJMP    ??getadr_3
    163            if (tekfunc==2) {adr=10;SET(PORTB,2);}
   \                     ??getadr_2:
   \   00000016   3012               CPI     R17, 2
   \   00000018   F411               BRNE    ??getadr_4
   \   0000001A   E00A               LDI     R16, 10
   \   0000001C   C031               RJMP    ??getadr_5
    164            if (tekfunc==3) {adr=15;SET(PORTB,3);}
   \                     ??getadr_4:
   \   0000001E   3013               CPI     R17, 3
   \   00000020   F411               BRNE    ??getadr_6
   \   00000022   E00F               LDI     R16, 15
   \   00000024   C032               RJMP    ??getadr_7
    165            if (tekfunc==4) {adr=20;SET(PORTB,4);}//s5 или ONтыл
   \                     ??getadr_6:
   \   00000026   3014               CPI     R17, 4
   \   00000028   F411               BRNE    ??getadr_8
   \   0000002A   E104               LDI     R16, 20
   \   0000002C   C038               RJMP    ??getadr_9
    166            if (tekfunc==5) {adr=55;SET(PORTB,0);SET(PORTB,2);SET(PORTB,4);}//command return
   \                     ??getadr_8:
   \   0000002E   3015               CPI     R17, 5
   \   00000030   F411               BRNE    ??getadr_10
   \   00000032   E307               LDI     R16, 55
   \   00000034   C032               RJMP    ??getadr_11
    167            if (tekfunc==6) {adr=25;SET(PORTD,7);}//on standby
   \                     ??getadr_10:
   \   00000036   3016               CPI     R17, 6
   \   00000038   F411               BRNE    ??getadr_12
   \   0000003A   E109               LDI     R16, 25
   \   0000003C   C035               RJMP    ??getadr_13
    168            if (tekfunc==7) {adr=30;SET(PORTB,5);}//aoff
   \                     ??getadr_12:
   \   0000003E   3017               CPI     R17, 7
   \   00000040   F411               BRNE    ??getadr_14
   \   00000042   E10E               LDI     R16, 30
   \   00000044   C035               RJMP    ??getadr_15
    169            if (tekfunc==8) {adr=35;AC_ON;}//mute
   \                     ??getadr_14:
   \   00000046   3018               CPI     R17, 8
   \   00000048   F411               BRNE    ??getadr_16
   \   0000004A   E203               LDI     R16, 35
   \   0000004C   C036               RJMP    ??getadr_17
    170            if (tekfunc==9) {adr=40; }//select
   \                     ??getadr_16:
   \   0000004E   3019               CPI     R17, 9
   \   00000050   F411               BRNE    ??getadr_18
   \   00000052   E208               LDI     R16, 40
   \   00000054   9508               RET
    171            if (tekfunc==10) {adr=45; }//громкость увеличить
   \                     ??getadr_18:
   \   00000056   301A               CPI     R17, 10
   \   00000058   F411               BRNE    ??getadr_19
   \   0000005A   E20D               LDI     R16, 45
   \   0000005C   9508               RET
    172            if (tekfunc==11) {adr=50; }//громкость уменьшить
   \                     ??getadr_19:
   \   0000005E   301B               CPI     R17, 11
   \   00000060   F411               BRNE    ??getadr_20
   \   00000062   E302               LDI     R16, 50
   \   00000064   9508               RET
    173            
    174            //дублирование команд
    175             if (tekfunc==12) {adr=60; SET(PORTB,0);}//s1
   \                     ??getadr_20:
   \   00000066   301C               CPI     R17, 12
   \   00000068   F419               BRNE    ??getadr_21
   \   0000006A   E30C               LDI     R16, 60
   \                     ??getadr_1:
   \   0000006C   9AC0               SBI     0x18, 0x00
   \   0000006E   9508               RET
    176            if (tekfunc==13) {adr=65; SET(PORTB,1);}
   \                     ??getadr_21:
   \   00000070   301D               CPI     R17, 13
   \   00000072   F419               BRNE    ??getadr_22
   \   00000074   E401               LDI     R16, 65
   \                     ??getadr_3:
   \   00000076   9AC1               SBI     0x18, 0x01
   \   00000078   9508               RET
    177            if (tekfunc==14) {adr=70;SET(PORTB,2);}
   \                     ??getadr_22:
   \   0000007A   301E               CPI     R17, 14
   \   0000007C   F419               BRNE    ??getadr_23
   \   0000007E   E406               LDI     R16, 70
   \                     ??getadr_5:
   \   00000080   9AC2               SBI     0x18, 0x02
   \   00000082   9508               RET
    178            if (tekfunc==15) {adr=75;SET(PORTB,3);}
   \                     ??getadr_23:
   \   00000084   301F               CPI     R17, 15
   \   00000086   F411               BRNE    ??getadr_24
   \   00000088   E40B               LDI     R16, 75
   \                     ??getadr_7:
   \   0000008A   ....               RJMP    ?Subroutine129
    179            if (tekfunc==16) {adr=80;SET(PORTB,4);}//s5 или ONтыл
   \                     ??getadr_24:
   \   0000008C   3110               CPI     R17, 16
   \   0000008E   F411               BRNE    ??getadr_25
   \   00000090   E500               LDI     R16, 80
   \   00000092   C005               RJMP    ??getadr_9
    180            if (tekfunc==17) {adr=85;SET(PORTB,0);SET(PORTB,2);SET(PORTB,4);}//command return
   \                     ??getadr_25:
   \   00000094   3111               CPI     R17, 17
   \   00000096   F429               BRNE    ??getadr_26
   \   00000098   E505               LDI     R16, 85
   \                     ??getadr_11:
   \   0000009A   9AC0               SBI     0x18, 0x00
   \   0000009C   9AC2               SBI     0x18, 0x02
   \                     ??getadr_9:
   \   0000009E   9AC4               SBI     0x18, 0x04
   \   000000A0   9508               RET
    181            if (tekfunc==18) {adr=90;SET(PORTD,7);}//on standby
   \                     ??getadr_26:
   \   000000A2   3112               CPI     R17, 18
   \   000000A4   F411               BRNE    ??getadr_27
   \   000000A6   E50A               LDI     R16, 90
   \                     ??getadr_13:
   \   000000A8   ....               RJMP    ?Subroutine130
    182            if (tekfunc==19) {adr=95;SET(PORTB,5);}//aoff
   \                     ??getadr_27:
   \   000000AA   3113               CPI     R17, 19
   \   000000AC   F419               BRNE    ??getadr_28
   \   000000AE   E50F               LDI     R16, 95
   \                     ??getadr_15:
   \   000000B0   9AC5               SBI     0x18, 0x05
   \   000000B2   9508               RET
    183            if (tekfunc==20) {adr=100;AC_ON;}//mute
   \                     ??getadr_28:
   \   000000B4   3114               CPI     R17, 20
   \   000000B6   F419               BRNE    ??getadr_29
   \   000000B8   E604               LDI     R16, 100
   \                     ??getadr_17:
   \   000000BA   9A96               SBI     0x12, 0x06
   \   000000BC   9508               RET
    184            if (tekfunc==21) {adr=105; }//select
   \                     ??getadr_29:
   \   000000BE   3115               CPI     R17, 21
   \   000000C0   F411               BRNE    ??getadr_30
   \   000000C2   E609               LDI     R16, 105
   \   000000C4   9508               RET
    185            if (tekfunc==22) {adr=110; }//громкость увеличить
   \                     ??getadr_30:
   \   000000C6   3116               CPI     R17, 22
   \   000000C8   F411               BRNE    ??getadr_31
   \   000000CA   E60E               LDI     R16, 110
   \   000000CC   9508               RET
    186            if (tekfunc==23) {adr=115; }//громкость уменьшить
   \                     ??getadr_31:
   \   000000CE   3117               CPI     R17, 23
   \   000000D0   F409               BRNE    ??getadr_32
   \   000000D2   E703               LDI     R16, 115
    187            return(adr);
   \                     ??getadr_32:
   \   000000D4   9508               RET
   \   000000D6                      REQUIRE _A_PORTB
   \   000000D6                      REQUIRE _A_PORTD
    188          }

   \                                 In  segment CODE, align 2, keep-with-next
   \                     ?Subroutine130:
   \   00000000   9A97               SBI     0x12, 0x07
   \   00000002   9508               RET
    189          
    190          

   \                                 In  segment CODE, align 2, keep-with-next
    191          void pult() 
   \                     pult:
    192          {
    193             tON=1500; zader=1;timerzad=0; source(); p2;   //время включения АС при переключениях
   \   00000000   ED0C               LDI     R16, 220
   \   00000002   E015               LDI     R17, 5
   \   00000004   ....               LDI     R30, LOW(tON)
   \   00000006   ....               LDI     R31, (tON) >> 8
   \   00000008   ....               RCALL   ??Subroutine142_0
   \                     ??CrossCallReturnLabel_342:
   \   0000000A   ....               RCALL   ?Subroutine3
   \                     ??CrossCallReturnLabel_8:
   \   0000000C   ....               RJMP    ?Subroutine76
    194          }

   \                                 In  segment CODE, align 2, keep-with-next
   \                     ?Subroutine76:
   \   00000000   EF0F               LDI     R16, 255
   \   00000002   E710               LDI     R17, 112
   \   00000004   E022               LDI     R18, 2
   \   00000006   5001               SUBI    R16, 1
   \   00000008   4010               SBCI    R17, 0
   \   0000000A   4020               SBCI    R18, 0
   \   0000000C   F7E1               BRNE    $-6
   \   0000000E   C000               RJMP    $+2
   \   00000010   0000               NOP
   \   00000012   9508               RET
    195          

   \                                 In  segment CODE, align 2, keep-with-next
   \                     ?Subroutine9:
   \   00000000   9300....           STS     mute, R16
   \   00000004                      REQUIRE ?Subroutine124
   \   00000004                      REQUIRE ??Subroutine143_0
   \   00000004                      ;               // Fall through to label ??Subroutine143_0

   \                                 In  segment CODE, align 2, keep-with-next
   \                     ??Subroutine143_0:
   \   00000000   ....               RCALL   ?Subroutine119
   \                     ??CrossCallReturnLabel_355:
   \   00000002                      REQUIRE ?Subroutine124
   \   00000002                      REQUIRE ??Subroutine144_0
   \   00000002                      ;               // Fall through to label ??Subroutine144_0

   \                                 In  segment CODE, align 2, keep-with-next
    196          void normal(uchar rez)//-----------------------главная логика --------------------
   \                     normal:
    197          {   
   \   00000000   938A               ST      -Y, R24
   \   00000002   2F80               MOV     R24, R16
    198             pultadr=0; 
   \   00000004   ....               RCALL   ??Subroutine144_0
    199            
    200             migWORK();
   \                     ??CrossCallReturnLabel_367:
   \   00000006   ....               RCALL   migWORK
    201             
    202            
    203             if (rez)
   \   00000008   2388               TST     R24
   \   0000000A   F409               BRNE    $+2+2
   \   0000000C   C07E               RJMP    ??CrossCallReturnLabel_89
    204             {//если есть команда с пульта
    205               
    206               pultadr=analizCOD();
   \   0000000E   ....               RCALL   ?Subroutine74
    207               
    208               if (pultadr==0){  RES(PORTD,7); delay_ms(100); SET(PORTD,7);
   \                     ??CrossCallReturnLabel_357:
   \   00000010   2300               TST     R16
   \   00000012   F439               BRNE    ??normal_0
   \   00000014   9897               CBI     0x12, 0x07
   \   00000016   ....               RCALL   ?Subroutine63
   \                     ??CrossCallReturnLabel_88:
   \   00000018   9A97               SBI     0x12, 0x07
    209                rprintfStr("normal>no find command ");  ent;}
   \   0000001A   ....               LDI     R16, LOW(`?<Constant "normal>no find command ">`)
   \   0000001C   ....               LDI     R17, (`?<Constant "normal>no find command ">`) >> 8
   \   0000001E   ....               RCALL   rprintfStr
   \   00000020   C005               RJMP    ??CrossCallReturnLabel_312
    210               else { rprintfStr("normal>command find  adr= ");
   \                     ??normal_0:
   \   00000022   ....               LDI     R16, LOW(`?<Constant "normal>command find  ...">`)
   \   00000024   ....               LDI     R17, (`?<Constant "normal>command find  ...">`) >> 8
   \   00000026   ....               RCALL   rprintfStr
    211                rprintfFloat(6, pultadr ); ent;}
   \   00000028   ....               RCALL   ?Subroutine72
   \                     ??CrossCallReturnLabel_105:
   \   0000002A   ....               RCALL   ?Subroutine19
   \                     ??CrossCallReturnLabel_312:
   \   0000002C   ....               RCALL   ?Subroutine120
    212               
    213               if (pultadr==1 || pultadr==60) {if (sel!=1)  { AC_OFF; lastsel=sel; sel=1; pult(); } else   migINI(sel-1, 3 ,0); 
   \                     ??CrossCallReturnLabel_241:
   \   0000002E   ....               RCALL   ?Subroutine72
   \                     ??CrossCallReturnLabel_106:
   \   00000030   3001               CPI     R16, 1
   \   00000032   F011               BREQ    ??normal_1
   \   00000034   330C               CPI     R16, 60
   \   00000036   F451               BRNE    ??normal_2
   \                     ??normal_1:
   \   00000038   ....               RCALL   ?Subroutine126
   \                     ??CrossCallReturnLabel_257:
   \   0000003A   3001               CPI     R16, 1
   \   0000003C   F021               BREQ    ??normal_3
   \   0000003E   ....               RCALL   ?Subroutine69
   \                     ??CrossCallReturnLabel_92:
   \   00000040   E001               LDI     R16, 1
   \   00000042   ....               RCALL   ?Subroutine78
   \                     ??CrossCallReturnLabel_125:
   \   00000044   C003               RJMP    ??normal_2
   \                     ??normal_3:
   \   00000046   ....               RCALL   ?Subroutine44
    214           }
   \                     ??CrossCallReturnLabel_48:
   \   00000048   E000               LDI     R16, 0
   \   0000004A   ....               RCALL   migINI
    215               if (pultadr==5 || pultadr==65) {if (sel!=2)  {AC_OFF; lastsel=sel;sel=2; pult(); }  else  migINI(sel-1, 3 ,0); 
   \                     ??normal_2:
   \   0000004C   ....               RCALL   ?Subroutine72
   \                     ??CrossCallReturnLabel_107:
   \   0000004E   3005               CPI     R16, 5
   \   00000050   F011               BREQ    ??normal_4
   \   00000052   3401               CPI     R16, 65
   \   00000054   F451               BRNE    ??normal_5
   \                     ??normal_4:
   \   00000056   ....               RCALL   ?Subroutine126
   \                     ??CrossCallReturnLabel_258:
   \   00000058   3002               CPI     R16, 2
   \   0000005A   F021               BREQ    ??normal_6
   \   0000005C   ....               RCALL   ?Subroutine69
   \                     ??CrossCallReturnLabel_93:
   \   0000005E   E002               LDI     R16, 2
   \   00000060   ....               RCALL   ?Subroutine78
   \                     ??CrossCallReturnLabel_124:
   \   00000062   C003               RJMP    ??normal_5
   \                     ??normal_6:
   \   00000064   ....               RCALL   ?Subroutine44
    216          }
   \                     ??CrossCallReturnLabel_49:
   \   00000066   E001               LDI     R16, 1
   \   00000068   ....               RCALL   migINI
    217               if (pultadr==10 || pultadr==70) {if (sel!=3) {AC_OFF; lastsel=sel;sel=3; pult(); } else    migINI(sel-1, 3 ,0); 
   \                     ??normal_5:
   \   0000006A   ....               RCALL   ?Subroutine72
   \                     ??CrossCallReturnLabel_108:
   \   0000006C   300A               CPI     R16, 10
   \   0000006E   F011               BREQ    ??normal_7
   \   00000070   3406               CPI     R16, 70
   \   00000072   F451               BRNE    ??normal_8
   \                     ??normal_7:
   \   00000074   ....               RCALL   ?Subroutine126
   \                     ??CrossCallReturnLabel_259:
   \   00000076   3003               CPI     R16, 3
   \   00000078   F021               BREQ    ??normal_9
   \   0000007A   ....               RCALL   ?Subroutine69
   \                     ??CrossCallReturnLabel_94:
   \   0000007C   E003               LDI     R16, 3
   \   0000007E   ....               RCALL   ?Subroutine78
   \                     ??CrossCallReturnLabel_123:
   \   00000080   C003               RJMP    ??normal_8
   \                     ??normal_9:
   \   00000082   ....               RCALL   ?Subroutine44
    218          }
   \                     ??CrossCallReturnLabel_50:
   \   00000084   E002               LDI     R16, 2
   \   00000086   ....               RCALL   migINI
    219               if (pultadr==15 || pultadr==75) {if (sel!=4) {AC_OFF; lastsel=sel;sel=4; pult(); } else   migINI(sel-1, 3 ,0); 
   \                     ??normal_8:
   \   00000088   ....               RCALL   ?Subroutine72
   \                     ??CrossCallReturnLabel_109:
   \   0000008A   300F               CPI     R16, 15
   \   0000008C   F011               BREQ    ??normal_10
   \   0000008E   340B               CPI     R16, 75
   \   00000090   F451               BRNE    ??normal_11
   \                     ??normal_10:
   \   00000092   ....               RCALL   ?Subroutine126
   \                     ??CrossCallReturnLabel_260:
   \   00000094   3004               CPI     R16, 4
   \   00000096   F021               BREQ    ??normal_12
   \   00000098   ....               RCALL   ?Subroutine69
   \                     ??CrossCallReturnLabel_95:
   \   0000009A   E004               LDI     R16, 4
   \   0000009C   ....               RCALL   ?Subroutine78
   \                     ??CrossCallReturnLabel_122:
   \   0000009E   C003               RJMP    ??normal_11
   \                     ??normal_12:
   \   000000A0   ....               RCALL   ?Subroutine44
    220           }
   \                     ??CrossCallReturnLabel_51:
   \   000000A2   E003               LDI     R16, 3
   \   000000A4   ....               RCALL   migINI
    221               if ((pultadr==20  || pultadr==80) && mode!=1) { if (sel!=5) {AC_OFF; lastsel=sel;sel=5; pult();}  else  migINI(sel-1, 3 ,0); 
   \                     ??normal_11:
   \   000000A6   ....               RCALL   ?Subroutine72
   \                     ??CrossCallReturnLabel_110:
   \   000000A8   3104               CPI     R16, 20
   \   000000AA   F011               BREQ    ??normal_13
   \   000000AC   3500               CPI     R16, 80
   \   000000AE   F479               BRNE    ??normal_14
   \                     ??normal_13:
   \   000000B0   ....               RCALL   ?Subroutine67
   \                     ??CrossCallReturnLabel_289:
   \   000000B2   F051               BREQ    ??normal_15
   \   000000B4   ....               RCALL   ?Subroutine126
   \                     ??CrossCallReturnLabel_261:
   \   000000B6   3005               CPI     R16, 5
   \   000000B8   F021               BREQ    ??normal_16
   \   000000BA   ....               RCALL   ?Subroutine69
   \                     ??CrossCallReturnLabel_96:
   \   000000BC   E005               LDI     R16, 5
   \   000000BE   ....               RCALL   ?Subroutine78
   \                     ??CrossCallReturnLabel_121:
   \   000000C0   C003               RJMP    ??normal_15
   \                     ??normal_16:
   \   000000C2   ....               RCALL   ?Subroutine44
    222          }
   \                     ??CrossCallReturnLabel_52:
   \   000000C4   E004               LDI     R16, 4
   \   000000C6   ....               RCALL   migINI
    223               
    224               
    225               //тыловые  ------------------------------------------------------
    226               if ((  pultadr==20  || pultadr==80) && mode==1) {  
   \                     ??normal_15:
   \   000000C8   ....               RCALL   ?Subroutine72
   \                     ??CrossCallReturnLabel_111:
   \   000000CA   3104               CPI     R16, 20
   \   000000CC   F019               BREQ    ??normal_17
   \                     ??normal_14:
   \   000000CE   ....               RCALL   ?Subroutine72
   \                     ??CrossCallReturnLabel_112:
   \   000000D0   3500               CPI     R16, 80
   \   000000D2   F4D9               BRNE    ??CrossCallReturnLabel_89
   \                     ??normal_17:
   \   000000D4   ....               RCALL   ?Subroutine67
   \                     ??CrossCallReturnLabel_290:
   \   000000D6   F4C9               BRNE    ??CrossCallReturnLabel_89
    227                   
    228                 if (til==0) { SET(PORTC,5);til=1;  
   \   000000D8   9100....           LDS     R16, til
   \   000000DC   2300               TST     R16
   \   000000DE   F471               BRNE    ??normal_18
   \   000000E0   9AAD               SBI     0x15, 0x05
   \   000000E2   E001               LDI     R16, 1
   \   000000E4   9300....           STS     til, R16
    229                         for (uchar i=0; i<2; i++) {SET(PORTB,4);p2;RES(PORTB,4);p2;}  SET(PORTB,4);  pultadr=0;  p1;}
   \   000000E8   E002               LDI     R16, 2
   \                     ??normal_19:
   \   000000EA   9AC4               SBI     0x18, 0x04
   \   000000EC   ....               RCALL   ?Subroutine114
   \                     ??CrossCallReturnLabel_221:
   \   000000EE   98C4               CBI     0x18, 0x04
   \   000000F0   ....               RCALL   ?Subroutine114
   \                     ??CrossCallReturnLabel_222:
   \   000000F2   950A               DEC     R16
   \   000000F4   F7D1               BRNE    ??normal_19
   \   000000F6   9AC4               SBI     0x18, 0x04
   \   000000F8   E000               LDI     R16, 0
   \   000000FA   C005               RJMP    ??normal_20
    230                 else 
    231                 if (til==1) {   RES(PORTC,5); RES(PORTB,4); til=0; pultadr=0; p1; }
   \                     ??normal_18:
   \   000000FC   98AD               CBI     0x15, 0x05
   \   000000FE   98C4               CBI     0x18, 0x04
   \   00000100   E000               LDI     R16, 0
   \   00000102   9300....           STS     til, R16
   \                     ??normal_20:
   \   00000106   ....               RCALL   ?Subroutine124
   \                     ??CrossCallReturnLabel_362:
   \   00000108   ....               RCALL   ?Subroutine63
    232               
    233                                                               }
    234             }//если есть команда с пульта
    235             
    236            //--------------- mute -------------------
    237            if (mute==1) AC_OFF; else { if (zader==0) AC_ON; }
   \                     ??CrossCallReturnLabel_89:
   \   0000010A   ....               RCALL   ?Subroutine81
   \                     ??CrossCallReturnLabel_279:
   \   0000010C   F409               BRNE    $+2+2
   \   0000010E   C0A1               RJMP    ??normal_21
   \   00000110   9896               CBI     0x12, 0x06
    238            if (zader==1) {timerzad++;  if (timerzad> tON)  {zader=0;timerzad=0; if (mute!=1)AC_ON;} }//задержка включения
   \                     ??normal_22:
   \   00000112   9100....           LDS     R16, zader
   \   00000116   2300               TST     R16
   \   00000118   F0A9               BREQ    ??normal_23
   \   0000011A   ....               LDI     R30, LOW(timerzad)
   \   0000011C   ....               LDI     R31, (timerzad) >> 8
   \   0000011E   ....               RCALL   ?Subroutine99
   \                     ??CrossCallReturnLabel_172:
   \   00000120   5F0F               SUBI    R16, 255
   \   00000122   4F1F               SBCI    R17, 255
   \   00000124   ....               RCALL   ??Subroutine142_0
   \                     ??CrossCallReturnLabel_343:
   \   00000126   ....               LDI     R30, LOW(tON)
   \   00000128   ....               LDI     R31, (tON) >> 8
   \   0000012A   ....               RCALL   ?Subroutine99
   \                     ??CrossCallReturnLabel_173:
   \   0000012C   ....               LDI     R30, LOW(timerzad)
   \   0000012E   ....               LDI     R31, (timerzad) >> 8
   \   00000130   ....               RCALL   ?Subroutine123
   \                     ??CrossCallReturnLabel_245:
   \   00000132   1702               CP      R16, R18
   \   00000134   0713               CPC     R17, R19
   \   00000136   F430               BRCC    ??normal_23
   \   00000138   E000               LDI     R16, 0
   \   0000013A   ....               RCALL   ?Subroutine113
   \                     ??CrossCallReturnLabel_217:
   \   0000013C   ....               RCALL   ?Subroutine93
   \                     ??CrossCallReturnLabel_154:
   \   0000013E   ....               RCALL   ?Subroutine81
   \                     ??CrossCallReturnLabel_280:
   \   00000140   F409               BRNE    ??normal_23
   \                     ??normal_24:
   \   00000142   9A96               SBI     0x12, 0x06
    239            
    240             if ((keyMUTE ||pultadr==35 || pultadr==100) && mute==0) { AC_OFF; mute=1; p5; pultadr=0;}
   \                     ??normal_23:
   \   00000144   9981               SBIC    0x10, 0x01
   \   00000146   C002               RJMP    ??normal_25
   \   00000148   9B85               SBIS    0x10, 0x05
   \   0000014A   C005               RJMP    ??normal_26
   \                     ??normal_25:
   \   0000014C   ....               RCALL   ?Subroutine72
   \                     ??CrossCallReturnLabel_113:
   \   0000014E   3203               CPI     R16, 35
   \   00000150   F011               BREQ    ??normal_26
   \   00000152   3604               CPI     R16, 100
   \   00000154   F429               BRNE    ??CrossCallReturnLabel_358
   \                     ??normal_26:
   \   00000156   ....               RCALL   ?Subroutine81
   \                     ??CrossCallReturnLabel_281:
   \   00000158   F419               BRNE    ??CrossCallReturnLabel_358
   \   0000015A   9896               CBI     0x12, 0x06
   \   0000015C   E001               LDI     R16, 1
   \   0000015E   ....               RCALL   ?Subroutine9
    241             if ((keyMUTE ||pultadr==35 || pultadr==100) && mute==1) { AC_ON; mute=0; p5; pultadr=0; }   
   \                     ??CrossCallReturnLabel_358:
   \   00000160   9981               SBIC    0x10, 0x01
   \   00000162   C002               RJMP    ??normal_27
   \   00000164   9B85               SBIS    0x10, 0x05
   \   00000166   C005               RJMP    ??normal_28
   \                     ??normal_27:
   \   00000168   ....               RCALL   ?Subroutine72
   \                     ??CrossCallReturnLabel_114:
   \   0000016A   3203               CPI     R16, 35
   \   0000016C   F011               BREQ    ??normal_28
   \   0000016E   3604               CPI     R16, 100
   \   00000170   F429               BRNE    ??CrossCallReturnLabel_359
   \                     ??normal_28:
   \   00000172   ....               RCALL   ?Subroutine81
   \                     ??CrossCallReturnLabel_282:
   \   00000174   F019               BREQ    ??CrossCallReturnLabel_359
   \   00000176   9A96               SBI     0x12, 0x06
   \   00000178   E000               LDI     R16, 0
   \   0000017A   ....               RCALL   ?Subroutine9
    242             
    243             
    244            //--------------- aoff --------------------
    245           
    246             
    247             if ((keyAOFF || pultadr==30 || pultadr==95) && aoff==1 && regaoff>=3)  {  RES(PORTB,5);  p5; aoff=0; regaoff=0; pultadr=0;}//отмена aoff 
   \                     ??CrossCallReturnLabel_359:
   \   0000017C   9980               SBIC    0x10, 0x00
   \   0000017E   C002               RJMP    ??normal_29
   \   00000180   9B85               SBIS    0x10, 0x05
   \   00000182   C004               RJMP    ??normal_30
   \                     ??normal_29:
   \   00000184   ....               RCALL   ?Subroutine71
   \                     ??CrossCallReturnLabel_99:
   \   00000186   F011               BREQ    ??normal_30
   \   00000188   350F               CPI     R16, 95
   \   0000018A   F461               BRNE    ??CrossCallReturnLabel_363
   \                     ??normal_30:
   \   0000018C   9100....           LDS     R16, aoff
   \   00000190   2300               TST     R16
   \   00000192   F041               BREQ    ??CrossCallReturnLabel_363
   \   00000194   ....               RCALL   ?Subroutine83
   \                     ??CrossCallReturnLabel_134:
   \   00000196   3003               CPI     R16, 3
   \   00000198   F028               BRCS    ??CrossCallReturnLabel_363
   \   0000019A   98C5               CBI     0x18, 0x05
   \   0000019C   ....               RCALL   ?Subroutine106
   \                     ??CrossCallReturnLabel_201:
   \   0000019E   ....               RCALL   ?Subroutine108
   \                     ??CrossCallReturnLabel_204:
   \   000001A0   ....               RCALL   ?Subroutine125
   \                     ??CrossCallReturnLabel_251:
   \   000001A2   ....               RCALL   ?Subroutine124
    248             
    249            if ((keyAOFF || pultadr==30 || pultadr==95) && regaoff==0) { aoff=1; regaoff++;  TimerSet(&tm1,60*60*2)/*2 часа*/; pultadr=0;  for (uchar i=0; i<3; i++)  {SET(PORTB,5);p2;RES(PORTB,5);p2;}  SET(PORTB,5); }
   \                     ??CrossCallReturnLabel_363:
   \   000001A4   9980               SBIC    0x10, 0x00
   \   000001A6   C002               RJMP    ??normal_31
   \   000001A8   9B85               SBIS    0x10, 0x05
   \   000001AA   C004               RJMP    ??normal_32
   \                     ??normal_31:
   \   000001AC   ....               RCALL   ?Subroutine71
   \                     ??CrossCallReturnLabel_100:
   \   000001AE   F011               BREQ    ??normal_32
   \   000001B0   350F               CPI     R16, 95
   \   000001B2   F469               BRNE    ??normal_33
   \                     ??normal_32:
   \   000001B4   ....               RCALL   ?Subroutine83
   \                     ??CrossCallReturnLabel_135:
   \   000001B6   2300               TST     R16
   \   000001B8   F451               BRNE    ??normal_33
   \   000001BA   ....               RCALL   ?Subroutine8
   \                     ??CrossCallReturnLabel_205:
   \   000001BC   ....               RCALL   ?Subroutine125
   \                     ??CrossCallReturnLabel_252:
   \   000001BE   E220               LDI     R18, 32
   \   000001C0   E13C               LDI     R19, 28
   \   000001C2   ....               RCALL   ?Subroutine82
   \                     ??CrossCallReturnLabel_133:
   \   000001C4   ....               RCALL   ??Subroutine144_0
   \                     ??CrossCallReturnLabel_368:
   \   000001C6   E003               LDI     R16, 3
   \                     ??normal_34:
   \   000001C8   ....               RCALL   ?Subroutine17
   \                     ??CrossCallReturnLabel_20:
   \   000001CA   F7F1               BRNE    ??normal_34
   \   000001CC   9AC5               SBI     0x18, 0x05
    250            if ((keyAOFF || pultadr==30 || pultadr==95) && regaoff==1) { aoff=1; regaoff++; TimerSet(&tm1,60*60*1)/*1 часа*/; pultadr=0; for (uchar i=0; i<2; i++)  {SET(PORTB,5);p2;RES(PORTB,5);p2;}  SET(PORTB,5); }
   \                     ??normal_33:
   \   000001CE   9980               SBIC    0x10, 0x00
   \   000001D0   C002               RJMP    ??normal_35
   \   000001D2   9B85               SBIS    0x10, 0x05
   \   000001D4   C004               RJMP    ??normal_36
   \                     ??normal_35:
   \   000001D6   ....               RCALL   ?Subroutine71
   \                     ??CrossCallReturnLabel_101:
   \   000001D8   F011               BREQ    ??normal_36
   \   000001DA   350F               CPI     R16, 95
   \   000001DC   F471               BRNE    ??normal_37
   \                     ??normal_36:
   \   000001DE   ....               RCALL   ?Subroutine83
   \                     ??CrossCallReturnLabel_136:
   \   000001E0   3001               CPI     R16, 1
   \   000001E2   F459               BRNE    ??normal_37
   \   000001E4   ....               RCALL   ?Subroutine8
   \                     ??CrossCallReturnLabel_206:
   \   000001E6   E002               LDI     R16, 2
   \   000001E8   ....               RCALL   ?Subroutine125
   \                     ??CrossCallReturnLabel_253:
   \   000001EA   E120               LDI     R18, 16
   \   000001EC   E03E               LDI     R19, 14
   \   000001EE   ....               RCALL   ?Subroutine82
   \                     ??CrossCallReturnLabel_132:
   \   000001F0   ....               RCALL   ??Subroutine144_0
   \                     ??CrossCallReturnLabel_369:
   \   000001F2   E002               LDI     R16, 2
   \                     ??normal_38:
   \   000001F4   ....               RCALL   ?Subroutine17
   \                     ??CrossCallReturnLabel_21:
   \   000001F6   F7F1               BRNE    ??normal_38
   \   000001F8   9AC5               SBI     0x18, 0x05
    251            if ((keyAOFF || pultadr==30 || pultadr==95) && regaoff==2) { aoff=1; regaoff++; TimerSet(&tm1,60*60*0.5)/*0.5 часа*/; pultadr=0; for (uchar i=0; i<1; i++)  {SET(PORTB,5);p2;RES(PORTB,5);p2;}  SET(PORTB,5); }
   \                     ??normal_37:
   \   000001FA   9980               SBIC    0x10, 0x00
   \   000001FC   C002               RJMP    ??normal_39
   \   000001FE   9B85               SBIS    0x10, 0x05
   \   00000200   C004               RJMP    ??normal_40
   \                     ??normal_39:
   \   00000202   ....               RCALL   ?Subroutine71
   \                     ??CrossCallReturnLabel_102:
   \   00000204   F011               BREQ    ??normal_40
   \   00000206   350F               CPI     R16, 95
   \   00000208   F479               BRNE    ??normal_41
   \                     ??normal_40:
   \   0000020A   ....               RCALL   ?Subroutine83
   \                     ??CrossCallReturnLabel_137:
   \   0000020C   3002               CPI     R16, 2
   \   0000020E   F461               BRNE    ??normal_41
   \   00000210   ....               RCALL   ?Subroutine8
   \                     ??CrossCallReturnLabel_207:
   \   00000212   E003               LDI     R16, 3
   \   00000214   ....               RCALL   ?Subroutine125
   \                     ??CrossCallReturnLabel_254:
   \   00000216   E028               LDI     R18, 8
   \   00000218   E037               LDI     R19, 7
   \   0000021A   ....               RCALL   ?Subroutine82
   \                     ??CrossCallReturnLabel_131:
   \   0000021C   ....               RCALL   ??Subroutine144_0
   \                     ??CrossCallReturnLabel_370:
   \   0000021E   9AC5               SBI     0x18, 0x05
   \   00000220   ....               RCALL   ?Subroutine76
   \                     ??CrossCallReturnLabel_117:
   \   00000222   98C5               CBI     0x18, 0x05
   \   00000224   ....               RCALL   ?Subroutine76
   \                     ??CrossCallReturnLabel_118:
   \   00000226   9AC5               SBI     0x18, 0x05
    252            
    253             
    254           //  if ((keyAOFF || pultadr==30 || pultadr==95) && aoff==0) 
    255           //     {   aoff=1;  iniT1(60*60*2)/*2 часа*/; pultadr=0;
    256           //         for (uchar i=0; i<2; i++)  {SET(PORTB,5);p2;RES(PORTB,5);p2;}  SET(PORTB,5);
    257            //   
    258            //        
    259           //         for (uint i=0; i<1000; i++)
    260           //         {   char rez=du_main(0);  if (rez==1) { pultadr=analizCOD();break; }}
    261           //         
    262            //    //если user продолжает удерживать
    263            //    if ((keyAOFF || pultadr==30 || pultadr==95) ) { iniT1(60*30);/*30 мин*/
    264           //      for (uchar i=0; i<4; i++)  {SET(PORTB,5);p2;p2;p2;p2;p2;RES(PORTB,5);p2;}  SET(PORTB,5);
    265            //                                    }
    266            //    
    267             //   }
    268                                                                  
    269             
    270            
    271           
    272            if (aoff==1)  {   TimerTick(&tm1); if (tm1.out) { on=0; onok=0;  aoff=0; p5; zader=0; regaoff=0;}
   \                     ??normal_41:
   \   00000228   9100....           LDS     R16, aoff
   \   0000022C   2300               TST     R16
   \   0000022E   F049               BREQ    ??CrossCallReturnLabel_250
   \   00000230   ....               LDI     R16, LOW(tm1)
   \   00000232   ....               LDI     R17, (tm1) >> 8
   \   00000234   ....               RCALL   TimerTick
   \   00000236   9100....           LDS     R16, (tm1 + 6)
   \   0000023A   2300               TST     R16
   \   0000023C   F011               BREQ    ??CrossCallReturnLabel_250
   \   0000023E   ....               RCALL   ?Subroutine15
   \                     ??CrossCallReturnLabel_19:
   \   00000240   ....               RCALL   ?Subroutine16
    273                          } 
    274                          
    275           //--------------- select -------------------
    276                          if ( u!=1) {//что бы во время работы UART не срабатывал
   \                     ??CrossCallReturnLabel_250:
   \   00000242   9100....           LDS     R16, u
   \   00000246   2300               TST     R16
   \   00000248   F5D9               BRNE    ??normal_42
    277             uchar kol;  if  (mode==1) kol=4; else kol=5;
   \   0000024A   ....               RCALL   ?Subroutine67
   \                     ??CrossCallReturnLabel_291:
   \   0000024C   F441               BRNE    ??normal_43
   \   0000024E   E004               LDI     R16, 4
   \   00000250   C007               RJMP    ??normal_44
   \                     ??normal_21:
   \   00000252   9100....           LDS     R16, zader
   \   00000256   2300               TST     R16
   \   00000258   F009               BREQ    $+2+2
   \   0000025A   CF5B               RJMP    ??normal_22
   \   0000025C   CF72               RJMP    ??normal_24
   \                     ??normal_43:
   \   0000025E   E005               LDI     R16, 5
    278             if (keySEL ||pultadr==40 || pultadr==105) 
   \                     ??normal_44:
   \   00000260   9981               SBIC    0x10, 0x01
   \   00000262   C002               RJMP    ??normal_45
   \   00000264   9985               SBIC    0x10, 0x05
   \   00000266   C006               RJMP    ??normal_46
   \                     ??normal_45:
   \   00000268   9110....           LDS     R17, pultadr
   \   0000026C   3218               CPI     R17, 40
   \   0000026E   F011               BREQ    ??normal_46
   \   00000270   3619               CPI     R17, 105
   \   00000272   F491               BRNE    ??CrossCallReturnLabel_120
    279                          { 
    280                                  if (sel<=(kol-1)) { AC_OFF; p2; RES(PORTB,(sel-1));lastsel=sel; sel++; pult(); } 
   \                     ??normal_46:
   \   00000274   950A               DEC     R16
   \   00000276   9110....           LDS     R17, ??sel
   \   0000027A   1701               CP      R16, R17
   \   0000027C   9896               CBI     0x12, 0x06
   \   0000027E   F030               BRCS    ??normal_47
   \   00000280   ....               RCALL   ?Subroutine76
   \                     ??CrossCallReturnLabel_119:
   \   00000282   ....               RCALL   ?Subroutine4
   \                     ??CrossCallReturnLabel_255:
   \   00000284   9300....           STS     ??lastsel, R16
   \   00000288   9503               INC     R16
   \   0000028A   C005               RJMP    ??normal_48
    281                                 else { AC_OFF;  RES(PORTB,(sel-1)); sel=1; pult(); }
   \                     ??normal_47:
   \   0000028C   9140....           LDS     R20, ??sel
   \   00000290   954A               DEC     R20
   \   00000292   ....               RCALL   ?Subroutine88
   \                     ??CrossCallReturnLabel_295:
   \   00000294   E001               LDI     R16, 1
    282                        
    283                          }
   \                     ??normal_48:
   \   00000296   ....               RCALL   ?Subroutine78
    284                                   
    285            //--------------- return sel -------------------  возврат в предыдущий source                 
    286             if ( pultadr==55 || pultadr==85) {
   \                     ??CrossCallReturnLabel_120:
   \   00000298   ....               RCALL   ?Subroutine72
   \                     ??CrossCallReturnLabel_115:
   \   0000029A   3307               CPI     R16, 55
   \   0000029C   F011               BREQ    ??normal_49
   \   0000029E   3505               CPI     R16, 85
   \   000002A0   F479               BRNE    ??normal_42
    287               
    288               if (sel!=lastsel) {
   \                     ??normal_49:
   \   000002A2   ....               RCALL   ?Subroutine126
   \                     ??CrossCallReturnLabel_262:
   \   000002A4   9110....           LDS     R17, ??lastsel
   \   000002A8   1701               CP      R16, R17
   \   000002AA   F051               BREQ    ??normal_42
    289                 AC_OFF;  RES(PORTB,(sel-1)); uchar tmp1=sel; sel=lastsel;  lastsel=tmp1; pultadr=0;  pult();
   \   000002AC   9896               CBI     0x12, 0x06
   \   000002AE   ....               RCALL   ?Subroutine4
   \                     ??CrossCallReturnLabel_256:
   \   000002B0   9110....           LDS     R17, ??lastsel
   \   000002B4   9310....           STS     ??sel, R17
   \   000002B8   9300....           STS     ??lastsel, R16
   \   000002BC   ....               RCALL   ??Subroutine144_0
   \                     ??CrossCallReturnLabel_371:
   \   000002BE   ....               RCALL   pult
    290               }
    291                                                }
    292                        
    293                                    }//что бы во время работы UART не срабатывал
    294                                     
    295                                    
    296                           
    297           //--------------- ГРОМКОСТЬ -------------------
    298             if (pultadr==45 || pultadr==110) { gro(1); p5;  pultadr=0; }  
   \                     ??normal_42:
   \   000002C0   ....               RCALL   ?Subroutine72
   \                     ??CrossCallReturnLabel_116:
   \   000002C2   320D               CPI     R16, 45
   \   000002C4   F011               BREQ    ??normal_50
   \   000002C6   360E               CPI     R16, 110
   \   000002C8   F411               BRNE    ??normal_51
   \                     ??normal_50:
   \   000002CA   E001               LDI     R16, 1
   \   000002CC   C005               RJMP    ??normal_52
    299             if (pultadr==50 || pultadr==115) { gro(2); p5;  pultadr=0; }  
   \                     ??normal_51:
   \   000002CE   3302               CPI     R16, 50
   \   000002D0   F011               BREQ    ??normal_53
   \   000002D2   3703               CPI     R16, 115
   \   000002D4   F419               BRNE    ??CrossCallReturnLabel_360
   \                     ??normal_53:
   \   000002D6   E002               LDI     R16, 2
   \                     ??normal_52:
   \   000002D8   ....               RCALL   gro
   \   000002DA   ....               RCALL   ??Subroutine143_0
    300             
    301             
    302                          
    303           
    304                                    
    305                                    
    306             
    307             
    308          }
   \                     ??CrossCallReturnLabel_360:
   \   000002DC   ....               RJMP    ?Subroutine127
   \   000002DE                      REQUIRE _A_PORTD
   \   000002DE                      REQUIRE _A_PORTC
   \   000002DE                      REQUIRE _A_PORTB
   \   000002DE                      REQUIRE _A_PIND

   \                                 In  segment CODE, align 2, keep-with-next
   \                     ?Subroutine83:
   \   00000000   9100....           LDS     R16, ??regaoff
   \   00000004   9508               RET

   \                                 In  segment CODE, align 2, keep-with-next
   \                     ?Subroutine82:
   \   00000000   ....               LDI     R16, LOW(tm1)
   \   00000002   ....               LDI     R17, (tm1) >> 8
   \   00000004   ....               RJMP    TimerSet

   \                                 In  segment CODE, align 2, keep-with-next
   \                     ?Subroutine81:
   \   00000000   9100....           LDS     R16, mute
   \   00000004   ....               RJMP    ?Subroutine128

   \                                 In  segment CODE, align 2, keep-with-next
   \                     ?Subroutine114:
   \   00000000   EF4F               LDI     R20, 255
   \   00000002   E750               LDI     R21, 112
   \   00000004   E062               LDI     R22, 2
   \   00000006   5041               SUBI    R20, 1
   \   00000008   4050               SBCI    R21, 0
   \   0000000A   4060               SBCI    R22, 0
   \   0000000C   F7E1               BRNE    $-6
   \   0000000E   C000               RJMP    $+2
   \   00000010   0000               NOP
   \   00000012   9508               RET

   \                                 In  segment CODE, align 2, keep-with-next
   \                     ?Subroutine78:
   \   00000000   9300....           STS     ??sel, R16
   \   00000004   ....               RJMP    pult

   \                                 In  segment CODE, align 2, keep-with-next
   \                     ?Subroutine71:
   \   00000000   9100....           LDS     R16, pultadr
   \   00000004   310E               CPI     R16, 30
   \   00000006   9508               RET

   \                                 In  segment CODE, align 2, keep-with-next
   \                     ?Subroutine69:
   \   00000000   9896               CBI     0x12, 0x06
   \   00000002   9100....           LDS     R16, ??sel
   \   00000006   9300....           STS     ??lastsel, R16
   \   0000000A   9508               RET

   \                                 In  segment CODE, align 2, keep-with-next
   \                     ?Subroutine44:
   \   00000000   E020               LDI     R18, 0
   \   00000002   E013               LDI     R17, 3
   \   00000004   9508               RET

   \                                 In  segment CODE, align 2, keep-with-next
   \                     ?Subroutine17:
   \   00000000   9AC5               SBI     0x18, 0x05
   \   00000002   ....               RCALL   ?Subroutine114
   \                     ??CrossCallReturnLabel_223:
   \   00000004   98C5               CBI     0x18, 0x05
   \   00000006   ....               RCALL   ?Subroutine114
   \                     ??CrossCallReturnLabel_224:
   \   00000008   950A               DEC     R16
   \   0000000A   9508               RET

   \                                 In  segment CODE, align 2, keep-with-next
   \                     ?Subroutine8:
   \   00000000   E001               LDI     R16, 1
   \   00000002                      REQUIRE ?Subroutine108
   \   00000002                      ;               // Fall through to label ?Subroutine108

   \                                 In  segment CODE, align 2, keep-with-next
   \                     ?Subroutine4:
   \   00000000   9140....           LDS     R20, ??sel
   \   00000004   954A               DEC     R20
   \   00000006   ....               RCALL   ?Subroutine88
   \                     ??CrossCallReturnLabel_297:
   \   00000008                      REQUIRE ?Subroutine126
   \   00000008                      ;               // Fall through to label ?Subroutine126

   \                                 In  segment CODE, align 2, keep-with-next
   \                     ?Subroutine126:
   \   00000000   9100....           LDS     R16, ??sel
   \   00000004   9508               RET

   \                                 In  segment CODE, align 2, keep-with-next
   \                     ?Subroutine67:
   \   00000000   9100....           LDS     R16, mode
   \   00000004   ....               RJMP    ?Subroutine131

   \                                 In  segment CODE, align 2, keep-with-next
   \                     ?Subroutine132:
   \   00000000   BB18               OUT     0x18, R17
   \   00000002   9508               RET

   \                                 In  segment CODE, align 2, keep-with-next
   \                     ?Subroutine88:
   \   00000000   ....               RCALL   ?Subroutine117
   \                     ??CrossCallReturnLabel_235:
   \   00000002   9500               COM     R16
   \   00000004   B318               IN      R17, 0x18
   \   00000006   2310               AND     R17, R16
   \   00000008   ....               RJMP    ?Subroutine132
    309           //------------------------------------------

   \                                 In  segment CODE, align 2, keep-with-next
    310          void source()
   \                     source:
    311          {  
    312           
    313            
    314             
    315            if (sel==1){ resOUT(); resled(); SET(PORTC,1);}
   \   00000000   ....               RCALL   ?Subroutine126
   \                     ??CrossCallReturnLabel_263:
   \   00000002   3001               CPI     R16, 1
   \   00000004   F411               BRNE    ??source_0
   \   00000006   ....               RCALL   ?Subroutine79
   \                     ??CrossCallReturnLabel_130:
   \   00000008   9AA9               SBI     0x15, 0x01
    316            if (sel==2){ resOUT(); resled(); SET(PORTC,2);}
   \                     ??source_0:
   \   0000000A   ....               RCALL   ?Subroutine126
   \                     ??CrossCallReturnLabel_264:
   \   0000000C   3002               CPI     R16, 2
   \   0000000E   F411               BRNE    ??source_1
   \   00000010   ....               RCALL   ?Subroutine79
   \                     ??CrossCallReturnLabel_129:
   \   00000012   9AAA               SBI     0x15, 0x02
    317            if (sel==3){ resOUT(); resled(); SET(PORTC,3);}
   \                     ??source_1:
   \   00000014   ....               RCALL   ?Subroutine126
   \                     ??CrossCallReturnLabel_265:
   \   00000016   3003               CPI     R16, 3
   \   00000018   F411               BRNE    ??source_2
   \   0000001A   ....               RCALL   ?Subroutine79
   \                     ??CrossCallReturnLabel_128:
   \   0000001C   9AAB               SBI     0x15, 0x03
    318            if (sel==4){ resOUT(); resled();SET(PORTC,4);}
   \                     ??source_2:
   \   0000001E   ....               RCALL   ?Subroutine126
   \                     ??CrossCallReturnLabel_266:
   \   00000020   3004               CPI     R16, 4
   \   00000022   F411               BRNE    ??source_3
   \   00000024   ....               RCALL   ?Subroutine79
   \                     ??CrossCallReturnLabel_127:
   \   00000026   9AAC               SBI     0x15, 0x04
    319            if (sel==5 && mode==0 ){  resOUT(); resled();SET(PORTC,5);}
   \                     ??source_3:
   \   00000028   ....               RCALL   ?Subroutine126
   \                     ??CrossCallReturnLabel_267:
   \   0000002A   3005               CPI     R16, 5
   \   0000002C   F421               BRNE    ??source_4
   \   0000002E   ....               RCALL   ?Subroutine66
   \                     ??CrossCallReturnLabel_273:
   \   00000030   F411               BRNE    ??source_4
   \   00000032   ....               RCALL   ?Subroutine79
   \                     ??CrossCallReturnLabel_126:
   \   00000034   9AAD               SBI     0x15, 0x05
    320            
    321            if (mute!=1 ) if (zader==0) AC_ON;//вкл АС
   \                     ??source_4:
   \   00000036   9100....           LDS     R16, mute
   \   0000003A   9110....           LDS     R17, zader
   \   0000003E   2B01               OR      R16, R17
   \   00000040   F409               BRNE    ??source_5
   \   00000042   9A96               SBI     0x12, 0x06
    322           
    323             migINI(sel-1, 5 ,0); 
   \                     ??source_5:
   \   00000044   E020               LDI     R18, 0
   \   00000046   E015               LDI     R17, 5
   \   00000048   ....               RCALL   ?Subroutine126
   \                     ??CrossCallReturnLabel_268:
   \   0000004A   950A               DEC     R16
   \   0000004C   ....               RJMP    migINI
   \   0000004E                      REQUIRE _A_PORTC
   \   0000004E                      REQUIRE _A_PORTD
    324           
    325          }

   \                                 In  segment CODE, align 2, keep-with-next
   \                     ?Subroutine79:
   \   00000000   ....               RCALL   resOUT
   \   00000002   ....               RJMP    resled
    326          
    327          
    328          
    329          
    330          
    331          
    332          
    333          
    334          
    335          
    336          
    337          
    338          
    339          
    340          
    341          

   \                                 In  segment CODE, align 2, keep-with-next
    342          void programming (uchar rez)
   \                     programming:
    343          {  
   \   00000000   938A               ST      -Y, R24
   \   00000002   2F80               MOV     R24, R16
    344             if (tekfunc==255) return;
   \   00000004   ....               RCALL   ?Subroutine116
   \                     ??CrossCallReturnLabel_227:
   \   00000006   3F0F               CPI     R16, 255
   \   00000008   F111               BREQ    ??CrossCallReturnLabel_377
    345             if (!get)  { getadr(); get=1; }//получаем адрес и зажигаем программируемую функцию
   \   0000000A   9100....           LDS     R16, ??get
   \   0000000E   2300               TST     R16
   \   00000010   F421               BRNE    ??programming_0
   \   00000012   ....               RCALL   getadr
   \   00000014   E001               LDI     R16, 1
   \   00000016   9300....           STS     ??get, R16
    346             if (rez==1)
   \                     ??programming_0:
   \   0000001A   3081               CPI     R24, 1
   \   0000001C   F451               BRNE    ??CrossCallReturnLabel_378
    347             {
    348               writeCOD();
   \   0000001E   ....               RCALL   writeCOD
    349               tekfunc++;  get=0;
   \   00000020   ....               RCALL   ?Subroutine11
    350              if (tekfunc==12) {  for (uchar i=0; i<10;i++) 
   \                     ??CrossCallReturnLabel_12:
   \   00000022   F419               BRNE    ??programming_1
   \   00000024   E08A               LDI     R24, 10
    351                                     {led_all(1); p4; led_all(0);p4; }
   \                     ??programming_2:
   \   00000026   ....               RCALL   ?Subroutine0
   \                     ??CrossCallReturnLabel_0:
   \   00000028   F7F1               BRNE    ??programming_2
    352                                }
    353               if (tekfunc>MAXFUNC) {tekfunc=255;led_all(1);}
   \                     ??programming_1:
   \   0000002A   ....               RCALL   ?Subroutine116
   \                     ??CrossCallReturnLabel_228:
   \   0000002C   3108               CPI     R16, 24
   \   0000002E   F008               BRCS    ??CrossCallReturnLabel_378
   \   00000030   ....               RCALL   ?Subroutine5
    354          
    355             }
    356             
    357             
    358             if (keyONsm) { 
   \                     ??CrossCallReturnLabel_378:
   \   00000032   9985               SBIC    0x10, 0x05
   \   00000034   C00C               RJMP    ??CrossCallReturnLabel_377
    359                          led_all(1); delay_s(1); 
   \   00000036   ....               RCALL   ??Subroutine145_0
   \                     ??CrossCallReturnLabel_373:
   \   00000038   ....               RCALL   ?Subroutine70
    360                          led_all(0); 
   \                     ??CrossCallReturnLabel_98:
   \   0000003A   ....               RCALL   ?Subroutine12
    361                          tekfunc++;  get=0;
   \                     ??CrossCallReturnLabel_15:
   \   0000003C   ....               RCALL   ?Subroutine11
    362                             if (tekfunc==12) {  for (uchar i=0; i<10;i++) 
   \                     ??CrossCallReturnLabel_13:
   \   0000003E   F419               BRNE    ??programming_3
   \   00000040   E08A               LDI     R24, 10
    363                                     {led_all(1); p4; led_all(0);p4; }
   \                     ??programming_4:
   \   00000042   ....               RCALL   ?Subroutine0
   \                     ??CrossCallReturnLabel_1:
   \   00000044   F7F1               BRNE    ??programming_4
    364                                }
    365                          if (tekfunc>MAXFUNC) {tekfunc=255;led_all(1);}
   \                     ??programming_3:
   \   00000046   ....               RCALL   ?Subroutine116
   \                     ??CrossCallReturnLabel_229:
   \   00000048   3108               CPI     R16, 24
   \   0000004A   F008               BRCS    ??CrossCallReturnLabel_377
   \   0000004C   ....               RCALL   ?Subroutine5
    366                         
    367                           }
    368               
    369          }
   \                     ??CrossCallReturnLabel_377:
   \   0000004E                      REQUIRE ?Subroutine127
   \   0000004E                      REQUIRE _A_PIND
   \   0000004E                      ;               // Fall through to label ?Subroutine127

   \                                 In  segment CODE, align 2, keep-with-next
   \                     ?Subroutine11:
   \   00000000   ....               LDI     R30, LOW(tekfunc)
   \   00000002   ....               LDI     R31, (tekfunc) >> 8
   \   00000004   ....               RCALL   ?Subroutine96
   \                     ??CrossCallReturnLabel_327:
   \   00000006   E000               LDI     R16, 0
   \   00000008   9300....           STS     ??get, R16
   \   0000000C   ....               RCALL   ?Subroutine116
   \                     ??CrossCallReturnLabel_230:
   \   0000000E   300C               CPI     R16, 12
   \   00000010   9508               RET

   \                                 In  segment CODE, align 2, keep-with-next
   \                     ?Subroutine116:
   \   00000000   9100....           LDS     R16, tekfunc
   \   00000004   9508               RET

   \                                 In  segment CODE, align 2, keep-with-next
   \                     ?Subroutine5:
   \   00000000   EF0F               LDI     R16, 255
   \   00000002   9300....           STS     tekfunc, R16
   \   00000006                      REQUIRE ??Subroutine145_0
   \   00000006                      ;               // Fall through to label ??Subroutine145_0

   \                                 In  segment CODE, align 2, keep-with-next
   \                     ?Subroutine0:
   \   00000000   E001               LDI     R16, 1
   \   00000002   ....               RCALL   ?Subroutine115
   \                     ??CrossCallReturnLabel_225:
   \   00000004   E000               LDI     R16, 0
   \   00000006   ....               RCALL   ?Subroutine115
   \                     ??CrossCallReturnLabel_226:
   \   00000008   958A               DEC     R24
   \   0000000A   9508               RET

   \                                 In  segment CODE, align 2, keep-with-next
   \                     ?Subroutine115:
   \   00000000   ....               RCALL   led_all
   \   00000002   EF0F               LDI     R16, 255
   \   00000004   EE11               LDI     R17, 225
   \   00000006   E024               LDI     R18, 4
   \   00000008   5001               SUBI    R16, 1
   \   0000000A   4010               SBCI    R17, 0
   \   0000000C   4020               SBCI    R18, 0
   \   0000000E   F7E1               BRNE    $-6
   \   00000010   C000               RJMP    $+2
   \   00000012   0000               NOP
   \   00000014   9508               RET
    370          //--------------------------------------------------------------------
    371          

   \                                 In  segment CODE, align 2, keep-with-next
    372          void writeCOD()
   \                     writeCOD:
    373          {
   \   00000000   938A               ST      -Y, R24
    374            rprintfStr("write ..");
   \   00000002   ....               LDI     R16, LOW(`?<Constant "write ..">`)
   \   00000004   ....               LDI     R17, (`?<Constant "write ..">`) >> 8
   \   00000006   ....               RCALL   rprintfStr
    375            led_all(1);delay_s(3);
   \   00000008   ....               RCALL   ??Subroutine145_0
   \                     ??CrossCallReturnLabel_372:
   \   0000000A   EF0F               LDI     R16, 255
   \   0000000C   E91E               LDI     R17, 158
   \   0000000E   E224               LDI     R18, 36
   \   00000010   5001               SUBI    R16, 1
   \   00000012   4010               SBCI    R17, 0
   \   00000014   4020               SBCI    R18, 0
   \   00000016   F7E1               BRNE    $-6
   \   00000018   C000               RJMP    $+2
   \   0000001A   0000               NOP
    376            uchar adr=getadr();
   \   0000001C   ....               RCALL   getadr
   \   0000001E   2F80               MOV     R24, R16
    377            led_all(0);
   \   00000020   ....               RCALL   ?Subroutine12
    378            
    379                 
    380                 k[adr]=cod1; delay_ms(30);
   \                     ??CrossCallReturnLabel_14:
   \   00000022   ....               RCALL   ?Subroutine97
   \                     ??CrossCallReturnLabel_163:
   \   00000024   ....               LDI     R18, LOW(k)
   \   00000026   ....               LDI     R19, (k) >> 8
   \   00000028   0D20               ADD     R18, R0
   \   0000002A   1D31               ADC     R19, R1
   \   0000002C   ....               RCALL   ?Subroutine34
   \                     ??CrossCallReturnLabel_44:
   \   0000002E   ....               RCALL   ?Subroutine99
   \                     ??CrossCallReturnLabel_174:
   \   00000030   ....               RCALL   ?Subroutine84
    381                 k[adr+1]=cod2; delay_ms(30);
   \                     ??CrossCallReturnLabel_379:
   \   00000032   ....               RCALL   ??Subroutine148_0
   \                     ??CrossCallReturnLabel_396:
   \   00000034   ....               RCALL   ?Subroutine99
   \                     ??CrossCallReturnLabel_175:
   \   00000036   01A9               MOVW    R21:R20, R19:R18
   \   00000038   5F4E               SUBI    R20, 254
   \   0000003A   4F5F               SBCI    R21, 255
   \   0000003C   ....               RCALL   ??Subroutine146_0
    382                 k[adr+2]=cod3; delay_ms(30);
   \                     ??CrossCallReturnLabel_381:
   \   0000003E   ....               RCALL   ??Subroutine147_0
   \                     ??CrossCallReturnLabel_387:
   \   00000040   ....               RCALL   ?Subroutine99
   \                     ??CrossCallReturnLabel_176:
   \   00000042   5F2C               SUBI    R18, 252
   \   00000044   4F3F               SBCI    R19, 255
   \   00000046   ....               RCALL   ?Subroutine84
    383                 
    384                 rprintfStr("OK !   "); ent;
   \                     ??CrossCallReturnLabel_380:
   \   00000048   ....               LDI     R16, LOW(`?<Constant "OK !   ">`)
   \   0000004A   ....               LDI     R17, (`?<Constant "OK !   ">`) >> 8
   \   0000004C   ....               RCALL   ?Subroutine42
    385             
    386          }
   \                     ??CrossCallReturnLabel_236:
   \   0000004E   ....               RJMP    ?Subroutine127

   \                                 In  segment CODE, align 2, keep-with-next
   \                     ?Subroutine84:
   \   00000000   01A9               MOVW    R21:R20, R19:R18
   \   00000002                      REQUIRE ??Subroutine146_0
   \   00000002                      ;               // Fall through to label ??Subroutine146_0

   \                                 In  segment CODE, align 2, keep-with-next
   \                     ??Subroutine146_0:
   \   00000000   ....               RCALL   __eeput16_16
   \   00000002   E20F               LDI     R16, 47
   \   00000004   E715               LDI     R17, 117
   \   00000006   5001               SUBI    R16, 1
   \   00000008   4010               SBCI    R17, 0
   \   0000000A   F7E9               BRNE    $-4
   \   0000000C   C000               RJMP    $+2
   \   0000000E   0000               NOP
   \   00000010   9508               RET

   \                                 In  segment CODE, align 2, keep-with-next
   \                     ?Subroutine42:
   \   00000000   ....               RCALL   rprintfStr
   \   00000002                      REQUIRE ?Subroutine120
   \   00000002                      ;               // Fall through to label ?Subroutine120
    387          
    388          
    389          
    390           

   \                                 In  segment CODE, align 2, keep-with-next
    391          uchar analizCOD ()
   \                     analizCOD:
    392          {
   \   00000000   ....               RCALL   ?PROLOGUE2_L09
    393           uint i;
    394            for (i=0; i<MAXEEP-4; i++) 
   \   00000002   E080               LDI     R24, 0
   \   00000004   E090               LDI     R25, 0
    395            {
    396             // if ((kbuf[i])==cod1)  if ((kbuf[i+1])==cod2) if ((kbuf[i+2])==cod3) return(i);
    397              if ((k[i])==cod1)  if ((k[i+1])==cod2) if ((k[i+2])==cod3) return(i);   
   \                     ??analizCOD_0:
   \   00000006   018C               MOVW    R17:R16, R25:R24
   \   00000008   0F00               LSL     R16
   \   0000000A   1F11               ROL     R17
   \   0000000C   ....               LDI     R18, LOW(k)
   \   0000000E   ....               LDI     R19, (k) >> 8
   \   00000010   0F20               ADD     R18, R16
   \   00000012   1F31               ADC     R19, R17
   \   00000014   01A9               MOVW    R21:R20, R19:R18
   \   00000016   ....               RCALL   __eeget16_16
   \   00000018   ....               RCALL   ?Subroutine34
   \                     ??CrossCallReturnLabel_45:
   \   0000001A   ....               RCALL   ?Subroutine85
   \                     ??CrossCallReturnLabel_138:
   \   0000001C   F489               BRNE    ??analizCOD_1
   \   0000001E   01A9               MOVW    R21:R20, R19:R18
   \   00000020   5F4E               SUBI    R20, 254
   \   00000022   4F5F               SBCI    R21, 255
   \   00000024   ....               RCALL   __eeget16_16
   \   00000026   ....               RCALL   ??Subroutine148_0
   \                     ??CrossCallReturnLabel_397:
   \   00000028   ....               RCALL   ?Subroutine85
   \                     ??CrossCallReturnLabel_139:
   \   0000002A   F451               BRNE    ??analizCOD_1
   \   0000002C   5F2C               SUBI    R18, 252
   \   0000002E   4F3F               SBCI    R19, 255
   \   00000030   01A9               MOVW    R21:R20, R19:R18
   \   00000032   ....               RCALL   __eeget16_16
   \   00000034   ....               RCALL   ?Subroutine39
   \                     ??CrossCallReturnLabel_248:
   \   00000036   1702               CP      R16, R18
   \   00000038   0713               CPC     R17, R19
   \   0000003A   F411               BRNE    ??analizCOD_1
   \   0000003C   2F08               MOV     R16, R24
   \   0000003E   C005               RJMP    ??analizCOD_2
    398            }
   \                     ??analizCOD_1:
   \   00000040   9601               ADIW    R25:R24, 1
   \   00000042   3784               CPI     R24, 116
   \   00000044   E000               LDI     R16, 0
   \   00000046   0790               CPC     R25, R16
   \   00000048   F2F0               BRCS    ??analizCOD_0
    399          
    400          return(0);
   \                     ??analizCOD_2:
   \   0000004A                      REQUIRE ?Subroutine135
   \   0000004A                      ;               // Fall through to label ?Subroutine135
    401          }

   \                                 In  segment CODE, align 2, keep-with-next
   \                     ?Subroutine135:
   \   00000000   E0E2               LDI     R30, 2
   \   00000002   ....               RJMP    ?EPILOGUE_B2_L09

   \                                 In  segment CODE, align 2, keep-with-next
   \                     ?Subroutine85:
   \   00000000   8140               LD      R20, Z
   \   00000002   8151               LDD     R21, Z+1
   \   00000004   1704               CP      R16, R20
   \   00000006   0715               CPC     R17, R21
   \   00000008   9508               RET
    402          
    403          
    404          

   \                                 In  segment CODE, align 2, keep-with-next
    405          void resled(void)
   \                     resled:
    406          {
    407            RES(PORTB,0);RES(PORTB,1);RES(PORTB,2);RES(PORTB,3); if (mode==0)RES(PORTB,4);
   \   00000000   ....               RCALL   ?Subroutine86
   \                     ??CrossCallReturnLabel_140:
   \   00000002   ....               RCALL   ?Subroutine66
   \                     ??CrossCallReturnLabel_274:
   \   00000004   F409               BRNE    ??resled_0
   \   00000006   98C4               CBI     0x18, 0x04
    408          }
   \                     ??resled_0:
   \   00000008   9508               RET
   \   0000000A                      REQUIRE _A_PORTB

   \                                 In  segment CODE, align 2, keep-with-next
   \                     ?Subroutine86:
   \   00000000   98C0               CBI     0x18, 0x00
   \   00000002   98C1               CBI     0x18, 0x01
   \   00000004   98C2               CBI     0x18, 0x02
   \   00000006   98C3               CBI     0x18, 0x03
   \   00000008   9508               RET
    409          
    410          

   \                                 In  segment CODE, align 2, keep-with-next
    411          void resOUT(void)
   \                     resOUT:
    412          {
    413            RES(PORTC,1);RES(PORTC,2);RES(PORTC,3);RES(PORTC,4); if (mode==0)RES(PORTC,5);
   \   00000000   98A9               CBI     0x15, 0x01
   \   00000002   98AA               CBI     0x15, 0x02
   \   00000004   98AB               CBI     0x15, 0x03
   \   00000006   98AC               CBI     0x15, 0x04
   \   00000008   ....               RCALL   ?Subroutine66
   \                     ??CrossCallReturnLabel_275:
   \   0000000A   F409               BRNE    ??resOUT_0
   \   0000000C   98AD               CBI     0x15, 0x05
    414            p2;//что бы не было перекрытия источников
   \                     ??resOUT_0:
   \   0000000E                      REQUIRE ?Subroutine76
   \   0000000E                      REQUIRE _A_PORTC
   \   0000000E                      ;               // Fall through to label ?Subroutine76
    415          }
    416          
    417          
    418           

   \                                 In  segment CODE, align 2, keep-with-next
    419          void led_all(bool a)
   \                     led_all:
    420          {
    421           if (a)
   \   00000000   2300               TST     R16
   \   00000002   F039               BREQ    ??led_all_0
    422           {
    423             SET(PORTB,0);SET(PORTB,1);SET(PORTB,2);SET(PORTB,3);SET(PORTB,4);SET(PORTB,5);
   \   00000004   9AC0               SBI     0x18, 0x00
   \   00000006   9AC1               SBI     0x18, 0x01
   \   00000008   9AC2               SBI     0x18, 0x02
   \   0000000A   9AC3               SBI     0x18, 0x03
   \   0000000C   9AC4               SBI     0x18, 0x04
   \   0000000E   9AC5               SBI     0x18, 0x05
    424             /*AC_ON; */SET(PORTD,7);
   \   00000010   ....               RJMP    ?Subroutine130
    425           }
    426           else
    427            {
    428             RES(PORTB,0);RES(PORTB,1);RES(PORTB,2);RES(PORTB,3);RES(PORTB,4);RES(PORTB,5);
   \                     ??led_all_0:
   \   00000012   ....               RCALL   ?Subroutine86
   \                     ??CrossCallReturnLabel_141:
   \   00000014   98C4               CBI     0x18, 0x04
   \   00000016   98C5               CBI     0x18, 0x05
    429             AC_OFF; RES(PORTD,7);
   \   00000018   9896               CBI     0x12, 0x06
   \   0000001A   9897               CBI     0x12, 0x07
    430           } 
    431          }
   \   0000001C   9508               RET
   \   0000001E                      REQUIRE _A_PORTB
   \   0000001E                      REQUIRE _A_PORTD
    432          
    433          

   \                                 In  segment CODE, align 2, keep-with-next
    434          void gro(uchar a)
   \                     gro:
    435          {
   \   00000000   2F10               MOV     R17, R16
    436            if (modegro!=1) {
   \   00000002   ....               RCALL   ?Subroutine64
   \                     ??CrossCallReturnLabel_288:
   \   00000004   F051               BREQ    ??gro_0
    437            if (a==1) {SET(PORTC,0); delay_us(100);RES(PORTC,0);}
   \   00000006   3011               CPI     R17, 1
   \   00000008   F419               BRNE    ??gro_1
   \   0000000A   9AA8               SBI     0x15, 0x00
   \   0000000C   ....               RCALL   ?Subroutine87
   \                     ??CrossCallReturnLabel_142:
   \   0000000E   C00E               RJMP    ??gro_2
    438            if (a==2) {SET(PORTD,3); delay_us(100);RES(PORTD,3);}  
   \                     ??gro_1:
   \   00000010   3012               CPI     R17, 2
   \   00000012   F511               BRNE    ??gro_3
   \   00000014   9A93               SBI     0x12, 0x03
   \   00000016   ....               RCALL   ?Subroutine87
   \                     ??CrossCallReturnLabel_143:
   \   00000018   C019               RJMP    ??gro_4
    439                            }
    440            else  { 
    441              if (a==1) { if (gro1)  { gro1=0; RES(PORTC,0);  } else { gro1=1; SET(PORTC,0);  } }
   \                     ??gro_0:
   \   0000001A   3011               CPI     R17, 1
   \   0000001C   F471               BRNE    ??gro_5
   \   0000001E   9100....           LDS     R16, ??gro1
   \   00000022   2300               TST     R16
   \   00000024   F029               BREQ    ??gro_6
   \   00000026   E000               LDI     R16, 0
   \   00000028   9300....           STS     ??gro1, R16
   \                     ??gro_2:
   \   0000002C   98A8               CBI     0x15, 0x00
   \   0000002E   9508               RET
   \                     ??gro_6:
   \   00000030   E001               LDI     R16, 1
   \   00000032   9300....           STS     ??gro1, R16
   \   00000036   9AA8               SBI     0x15, 0x00
   \   00000038   9508               RET
    442              if (a==2) { if (gro2)  { gro2=0; RES(PORTD,3);  } else { gro2=1; SET(PORTD,3);  } }
   \                     ??gro_5:
   \   0000003A   3012               CPI     R17, 2
   \   0000003C   F469               BRNE    ??gro_3
   \   0000003E   9100....           LDS     R16, ??gro2
   \   00000042   2300               TST     R16
   \   00000044   F029               BREQ    ??gro_7
   \   00000046   E000               LDI     R16, 0
   \   00000048   9300....           STS     ??gro2, R16
   \                     ??gro_4:
   \   0000004C   9893               CBI     0x12, 0x03
   \   0000004E   9508               RET
   \                     ??gro_7:
   \   00000050   E001               LDI     R16, 1
   \   00000052   9300....           STS     ??gro2, R16
   \   00000056   9A93               SBI     0x12, 0x03
    443                  }
    444          }
   \                     ??gro_3:
   \   00000058   9508               RET
   \   0000005A                      REQUIRE _A_PORTC
   \   0000005A                      REQUIRE _A_PORTD

   \                                 In  segment CODE, align 2, keep-with-next
   \                     ?Subroutine87:
   \   00000000   E805               LDI     R16, 133
   \   00000002   950A               DEC     R16
   \   00000004   F7F1               BRNE    $-2
   \   00000006   0000               NOP
   \   00000008   9508               RET
    445          
    446          
    447          
    448          
    449          
    450          
    451          //инициализация портов

   \                                 In  segment CODE, align 2, keep-with-next
    452          void iniPORTS()
   \                     iniPORTS:
    453          {
    454            
    455           
    456            //DDRx=0 - ВХОДЫ   PORTx = 0xFF; //подключаем нагрузочные резисторы
    457           //---------------------------------------------------------------
    458           //DDRx=0xFF - ВЫХОДЫ    PORTx = 0; //устанавливаем 0 на выходе
    459           
    460            
    461           DDRD = b(11011000);// 0xD8;  //PD3 4 6 7 ВЫХОДЫ  b11011000
   \   00000000   ED08               LDI     R16, 216
   \   00000002   BB01               OUT     0x11, R16
    462           PORTD = (uchar)~(b(11011000)); 
   \   00000004   E207               LDI     R16, 39
   \   00000006   BB02               OUT     0x12, R16
    463          
    464           
    465           DDRB = 0x3F; //порт B - выход    6,7-кварц
   \   00000008   E30F               LDI     R16, 63
   \   0000000A   BB07               OUT     0x17, R16
    466           PORTB = 0x00; 
   \   0000000C   E000               LDI     R16, 0
   \   0000000E   BB08               OUT     0x18, R16
    467            
    468            
    469            DDRC =0xFF; 
   \   00000010   EF0F               LDI     R16, 255
   \   00000012   BB04               OUT     0x14, R16
    470            PORTC = 0x00; //устанавливаем 0 на выходе
   \   00000014   E000               LDI     R16, 0
   \   00000016   BB05               OUT     0x15, R16
    471            
    472           
    473          // Timer(s)/Counter(s) Interrupt(s) initialization
    474          TIMSK=0x00;  
   \   00000018   BF09               OUT     0x39, R16
    475          TCNT0=0x00;
   \   0000001A   BF02               OUT     0x32, R16
    476          OCR1A=0x00;
   \   0000001C   E010               LDI     R17, 0
   \   0000001E   BD0B               OUT     0x2B, R16
   \   00000020   BD0A               OUT     0x2A, R16
    477          OCR1B=0x00;
   \   00000022   BD09               OUT     0x29, R16
   \   00000024   BD08               OUT     0x28, R16
    478          TCCR1A=0x00;
   \   00000026   BD0F               OUT     0x2F, R16
    479            SET(TIMSK,TOIE1);//разреш прерывание при переполнении
   \   00000028   B709               IN      R16, 0x39
   \   0000002A   6004               ORI     R16, 0x04
   \   0000002C   BF09               OUT     0x39, R16
    480             TCCR1B=0; TIFR = 0xFF;  
   \   0000002E   BD1E               OUT     0x2E, R17
   \   00000030   EF0F               LDI     R16, 255
   \   00000032   BF08               OUT     0x38, R16
    481          TCNT1H=0x00;
   \   00000034   BD1D               OUT     0x2D, R17
    482          TCNT1L=0x00;
   \   00000036   BD1C               OUT     0x2C, R17
    483          ICR1H=0x00;
   \   00000038   BD17               OUT     0x27, R17
    484          ICR1L=0x00;
   \   0000003A   BD16               OUT     0x26, R17
    485          OCR1AH=0;
   \   0000003C   BD1B               OUT     0x2B, R17
    486          OCR1AL=0x00;
   \   0000003E   BD1A               OUT     0x2A, R17
    487          OCR1BH=0x00;
   \   00000040   BD19               OUT     0x29, R17
    488          OCR1BL=0x00;
   \   00000042   BD18               OUT     0x28, R17
    489          
    490          
    491          // External Interrupt(s) initialization
    492          // INT0: Off
    493          // INT1: Off
    494          // Interrupt on any change on pins PCINT0-7: Off
    495          //GIMSK=0x00;
    496          //MCUCR=0x00;
    497          
    498          SET(MCUCR,0); RES(MCUCR,1);//ПРЕРЫВАНИЕ ПО ИЗМЕНЕНИЮ УРОВНЯ INT0
   \   00000044   B705               IN      R16, 0x35
   \   00000046   6001               ORI     R16, 0x01
   \   00000048   BF05               OUT     0x35, R16
   \   0000004A   B705               IN      R16, 0x35
   \   0000004C   7F0D               ANDI    R16, 0xFD
   \   0000004E   BF05               OUT     0x35, R16
    499          SET(GICR,6);//РАЗРЕШАЕМ ПРЕРЫВАНИЕ INT0
   \   00000050   B70B               IN      R16, 0x3B
   \   00000052   6400               ORI     R16, 0x40
   \   00000054   BF0B               OUT     0x3B, R16
    500          
    501          
    502          
    503          
    504          // Analog Comparator initialization
    505          // Analog Comparator: Off
    506          // Analog Comparator Input Capture by Timer/Counter 1: Off
    507          ACSR=0x80;
   \   00000056   E800               LDI     R16, 128
   \   00000058   B908               OUT     0x08, R16
    508          //DIDR=0x00;
    509          
    510          } 
   \   0000005A   9508               RET
   \   0000005C                      REQUIRE _A_DDRD
   \   0000005C                      REQUIRE _A_PORTD
   \   0000005C                      REQUIRE _A_DDRB
   \   0000005C                      REQUIRE _A_PORTB
   \   0000005C                      REQUIRE _A_DDRC
   \   0000005C                      REQUIRE _A_PORTC
   \   0000005C                      REQUIRE _A_TIMSK
   \   0000005C                      REQUIRE _A_TCNT0
   \   0000005C                      REQUIRE _A_OCR1A
   \   0000005C                      REQUIRE _A_OCR1B
   \   0000005C                      REQUIRE _A_TCCR1A
   \   0000005C                      REQUIRE _A_TCCR1B
   \   0000005C                      REQUIRE _A_TIFR
   \   0000005C                      REQUIRE _A_TCNT1
   \   0000005C                      REQUIRE _A_ICR1
   \   0000005C                      REQUIRE _A_MCUCR
   \   0000005C                      REQUIRE _A_GICR
   \   0000005C                      REQUIRE _A_ACSR
    511          //************************************************************************
    512           
    513          

   \                                 In  segment CODE, align 2, keep-with-next
    514          void diag()
   \                     diag:
    515          {
   \   00000000   ....               RCALL   ?PROLOGUE2_L09
    516            
    517            uchar sym = USART_GetChar(); //читаем буфер
   \   00000002   ....               RCALL   USART_GetChar
   \   00000004   2F90               MOV     R25, R16
    518            if (sym=='0') { pr=1;  rprintfStr("- vkluchen kratkiy viviod -");  ent;   }
   \   00000006   3300               CPI     R16, 48
   \   00000008   F439               BRNE    ??diag_0
   \   0000000A   E001               LDI     R16, 1
   \   0000000C   9300....           STS     pr, R16
   \   00000010   ....               LDI     R16, LOW(`?<Constant "- vkluchen kratkiy vi...">`)
   \   00000012   ....               LDI     R17, (`?<Constant "- vkluchen kratkiy vi...">`) >> 8
   \   00000014   ....               RCALL   ?Subroutine42
   \                     ??CrossCallReturnLabel_237:
   \   00000016   C01C               RJMP    ??diag_1
    519          
    520            if (sym=='e') {
   \                     ??diag_0:
   \   00000018   3605               CPI     R16, 101
   \   0000001A   F4C1               BRNE    ??diag_2
    521              ent;rprintfStr(" ==  EEPROM read == ");ent;
   \   0000001C   ....               RCALL   ?Subroutine120
   \                     ??CrossCallReturnLabel_242:
   \   0000001E   ....               LDI     R16, LOW(`?<Constant " ==  EEPROM read == ">`)
   \   00000020   ....               LDI     R17, (`?<Constant " ==  EEPROM read == ">`) >> 8
   \   00000022   ....               RCALL   ?Subroutine42
    522              for (uchar i=0; i<MAXEEP-1; i++) { 
   \                     ??CrossCallReturnLabel_238:
   \   00000024   E080               LDI     R24, 0
    523                rprintfFloat(4, i );   rprintfStr(" > ");
   \                     ??diag_3:
   \   00000026   2F08               MOV     R16, R24
   \   00000028   ....               RCALL   ?Subroutine21
   \                     ??CrossCallReturnLabel_182:
   \   0000002A   ....               RCALL   ?Subroutine121
   \                     ??CrossCallReturnLabel_307:
   \   0000002C   E004               LDI     R16, 4
   \   0000002E   ....               RCALL   rprintfFloat
   \   00000030   ....               LDI     R16, LOW(`?<Constant " > ">`)
   \   00000032   ....               LDI     R17, (`?<Constant " > ">`) >> 8
   \   00000034   ....               RCALL   rprintfStr
    524                 rprintfFloat(9, k[i] ); ent;
   \   00000036   ....               RCALL   ?Subroutine97
    525                                                }
   \                     ??CrossCallReturnLabel_164:
   \   00000038   ....               LDI     R20, LOW(k)
   \   0000003A   ....               LDI     R21, (k) >> 8
   \   0000003C   0D40               ADD     R20, R0
   \   0000003E   1D51               ADC     R21, R1
   \   00000040   ....               RCALL   __eeget16_16
   \   00000042   ....               RCALL   ?Subroutine41
   \                     ??CrossCallReturnLabel_194:
   \   00000044   9583               INC     R24
   \   00000046   3787               CPI     R24, 119
   \   00000048   F418               BRCC    ??diag_1
   \   0000004A   CFED               RJMP    ??diag_3
    526                          }
    527            
    528            if (sym) 
   \                     ??diag_2:
   \   0000004C   2300               TST     R16
   \   0000004E   F091               BREQ    ??CrossCallReturnLabel_239
    529            {             //если что-то приняли, то 
    530                rprintfStr(" get: ");
   \                     ??diag_1:
   \   00000050   ....               LDI     R16, LOW(`?<Constant " get: ">`)
   \   00000052   ....               LDI     R17, (`?<Constant " get: ">`) >> 8
   \   00000054   ....               RCALL   rprintfStr
    531                USART_SendChar(sym); 
   \   00000056   2F09               MOV     R16, R25
   \   00000058   ....               RCALL   USART_SendChar
    532          
    533                if (mode==1) rprintfStr("  regim  no source5 >");  
   \   0000005A   ....               RCALL   ?Subroutine67
   \                     ??CrossCallReturnLabel_292:
   \   0000005C   F419               BRNE    ??diag_4
   \   0000005E   ....               LDI     R16, LOW(`?<Constant "  regim  no source5 >">`)
   \   00000060   ....               LDI     R17, (`?<Constant "  regim  no source5 >">`) >> 8
   \   00000062   ....               RCALL   rprintfStr
    534                if (mode_programming==1) rprintfStr("  regim  PROGRAMMING !!  READY >");  
   \                     ??diag_4:
   \   00000064   ....               RCALL   ?Subroutine73
   \                     ??CrossCallReturnLabel_278:
   \   00000066   F019               BREQ    ??diag_5
   \   00000068   ....               LDI     R16, LOW(`?<Constant "  regim  PROGRAMMING ...">`)
   \   0000006A   ....               LDI     R17, (`?<Constant "  regim  PROGRAMMING ...">`) >> 8
   \   0000006C   C002               RJMP    ??diag_6
    535                else rprintfStr("  regim  normal  READY >");  
   \                     ??diag_5:
   \   0000006E   ....               LDI     R16, LOW(`?<Constant "  regim  normal  READY >">`)
   \   00000070   ....               LDI     R17, (`?<Constant "  regim  normal  READY >">`) >> 8
    536                 ent;   
    537            }
   \                     ??diag_6:
   \   00000072   ....               RCALL   ?Subroutine42
    538          }
   \                     ??CrossCallReturnLabel_239:
   \   00000074   ....               RJMP    ?Subroutine135

   \                                 In  segment CODE, align 2, keep-with-next
   \                     ?Subroutine21:
   \   00000000   E010               LDI     R17, 0
   \   00000002   E020               LDI     R18, 0
   \   00000004                      REQUIRE ?Subroutine101
   \   00000004                      ;               // Fall through to label ?Subroutine101
    539          
F:\Dulov\remoteamp\SoftTimers.c
      1          
      2          #include <stdbool.h>//поддержка bool
      3          #include "iom8.h"//<ioavr.h>
      4          #include <inavr.h>
      5          #include <intrinsics.h>
      6          #include "init.h"
      7          #include "SoftTimers.h"

   \                                 In  segment NEAR_I, align 1, keep-with-next
   \   00000000                      REQUIRE `?<Segment init: NEAR_I>`
   \   static unsigned char port
   \                     ??port:
   \   00000000                      DS8 1
   \   00000001                      REQUIRE `?<Initializer for port>`
      8          
      9          //***************************************************************************
     10          //
     11          //***************************************************************************

   \                                 In  segment NEAR_Z, align 1, keep-with-next
   \   00000000                      REQUIRE `?<Segment init: NEAR_Z>`
     12          timers tm1,tm2;
   \                     tm1:
   \   00000000                      DS8 7

   \                                 In  segment NEAR_Z, align 1, keep-with-next
   \   00000000                      REQUIRE `?<Segment init: NEAR_Z>`
   \                     tm2:
   \   00000000                      DS8 7

   \                                 In  segment NEAR_Z, align 1, keep-with-next
   \   00000000                      REQUIRE `?<Segment init: NEAR_Z>`
     13          static uchar raz;
   \                     ??raz:
   \   00000000                      DS8 1
     14          static uchar port;

   \                                 In  segment NEAR_Z, align 1, keep-with-next
   \   00000000                      REQUIRE `?<Segment init: NEAR_Z>`
     15          static uchar razct;
   \                     ??razct:
   \   00000000                      DS8 1
     16          
     17          /*
     18          #pragma vector = TIMER0_OVF_vect 
     19          __interrupt void funTIMER0_OVF_vect(void)
     20          {
     21             
     22           
     23          }
     24          */
     25          

   \                                 In  segment CODE, align 2, keep-with-next
     26          void TimerSet(timers *t, uint tm)
   \                     TimerSet:
     27          {
     28            t->out=0;
   \   00000000   E040               LDI     R20, 0
   \   00000002   01F8               MOVW    R31:R30, R17:R16
   \   00000004   8346               STD     Z+6, R20
     29            t->ct=0;
   \   00000006   8342               STD     Z+2, R20
   \   00000008   8343               STD     Z+3, R20
     30            t->time=tm;
   \   0000000A   8324               STD     Z+4, R18
   \   0000000C   8335               STD     Z+5, R19
     31            t->x=0;
   \   0000000E   8340               ST      Z, R20
   \   00000010   8341               STD     Z+1, R20
     32          }
   \   00000012   9508               RET
     33          

   \                                 In  segment CODE, align 2, keep-with-next
     34          void TimerTick( timers *t)
   \                     TimerTick:
     35          {
     36            if (t->out) return;
   \   00000000   01F8               MOVW    R31:R30, R17:R16
   \   00000002   8126               LDD     R18, Z+6
   \   00000004   2322               TST     R18
   \   00000006   F4D1               BRNE    ??TimerTick_0
     37            t->x++;
   \   00000008   ....               RCALL   ?Subroutine123
   \                     ??CrossCallReturnLabel_246:
   \   0000000A   5F2F               SUBI    R18, 255
   \   0000000C   4F3F               SBCI    R19, 255
   \   0000000E   8320               ST      Z, R18
   \   00000010   8331               STD     Z+1, R19
     38            if (t->x>=CALIBR) { t->x=0; t->ct++;}
   \   00000012   372C               CPI     R18, 124
   \   00000014   4135               SBCI    R19, 21
   \   00000016   F048               BRCS    ??TimerTick_1
   \   00000018   E020               LDI     R18, 0
   \   0000001A   8320               ST      Z, R18
   \   0000001C   8321               STD     Z+1, R18
   \   0000001E   8122               LDD     R18, Z+2
   \   00000020   8133               LDD     R19, Z+3
   \   00000022   5F2F               SUBI    R18, 255
   \   00000024   4F3F               SBCI    R19, 255
   \   00000026   8322               STD     Z+2, R18
   \   00000028   8333               STD     Z+3, R19
     39            if (t->ct >t->time ) t->out=1;
   \                     ??TimerTick_1:
   \   0000002A   8124               LDD     R18, Z+4
   \   0000002C   8135               LDD     R19, Z+5
   \   0000002E   8142               LDD     R20, Z+2
   \   00000030   8153               LDD     R21, Z+3
   \   00000032   1724               CP      R18, R20
   \   00000034   0735               CPC     R19, R21
   \   00000036   F410               BRCC    ??TimerTick_0
   \   00000038   E021               LDI     R18, 1
   \   0000003A   8326               STD     Z+6, R18
     40          }
   \                     ??TimerTick_0:
   \   0000003C   9508               RET
     41          //**************************************************************
     42          //**************************************************************
     43          //void ResetT1(void)/
     44          //{
     45          //  T1=0;T1x=0;  T1out=0;
     46          //}
     47            
     48          
     49          //void iniT1(ulong max)
     50          //{
     51           //инициализация таймера Т0 - прерывания каждую ms
     52           // TIMSK = (1<<OCIE0);
     53           // TCCR0 = (1<<WGM01)|(0<<WGM00)|(0<<COM01)|(0<<COM00)|(0<<CS02)|(1<<CS01)|(1<<CS00);
     54           // TCNT0 = 0;
     55           // OCR0 = 0x7d;
     56          
     57            //T1max=max; ResetT1();
     58          //}
     59          
     60          
     61          //void WorkT1(void)
     62          //{
     63          //  if (T1out) return;
     64          //  T1x++; if (T1x>=CALIBR) { T1x=0; T1++; }
     65          //  if (T1>=T1max) T1out=1;
     66          //}
     67          
     68          //**************************************************************
     69          //**************************************************************
     70          /*
     71          //void ResetT2(void)/
     72          {
     73            T2=0;T2x=0;  T2out=0;
     74          }
     75            
     76          
     77          void iniT2(ulong max)
     78          {
     79           //инициализация таймера Т0 - прерывания каждую ms
     80           // TIMSK = (1<<OCIE0);
     81           // TCCR0 = (1<<WGM01)|(0<<WGM00)|(0<<COM01)|(0<<COM00)|(0<<CS02)|(1<<CS01)|(1<<CS00);
     82           // TCNT0 = 0;
     83           // OCR0 = 0x7d;
     84          
     85            T2max=max; ResetT2();
     86          }
     87          
     88          
     89          void WorkT2(void)
     90          {
     91            if (T2out) return;
     92            T2x++; if (T2x>=(CALIBR/1000)) { T2x=0; T2++; }
     93            if (T2>=T2max) T2out=1;
     94          }
     95          
     96          
     97          |*/
     98          
     99          
    100          
    101          
    102          
    103          
    104          

   \                                 In  segment CODE, align 2, keep-with-next
    105          void migINI(uchar sel,  uchar razp, bool prton)//мигание sel - кол-во раз
   \                     migINI:
    106          {
   \   00000000   2F30               MOV     R19, R16
   \   00000002   01A8               MOVW    R21:R20, R17:R16
    107            SET(PORTB,sel);//вкл-ем для ускорения индикации
   \   00000004   ....               RCALL   ?Subroutine7
    108            
    109            
    110            if (port!=255) {  //если все еще мигает
   \                     ??CrossCallReturnLabel_293:
   \   00000006   9100....           LDS     R16, ??port
   \   0000000A   3F0F               CPI     R16, 255
   \   0000000C   F061               BREQ    ??migINI_0
    111               
    112              if (prton)SET(PORTB,port); //фиксируем чтобы горел
   \   0000000E   9140....           LDS     R20, ??port
   \   00000012   ....               RCALL   ?Subroutine117
   \                     ??CrossCallReturnLabel_231:
   \   00000014   2322               TST     R18
   \   00000016   F019               BREQ    ??migINI_1
   \   00000018   B318               IN      R17, 0x18
   \   0000001A   2B10               OR      R17, R16
   \   0000001C   C003               RJMP    ??migINI_2
    113              else RES(PORTB,port);
   \                     ??migINI_1:
   \   0000001E   9500               COM     R16
   \   00000020   B318               IN      R17, 0x18
   \   00000022   2310               AND     R17, R16
   \                     ??migINI_2:
   \   00000024   BB18               OUT     0x18, R17
    114                          }
    115            
    116            
    117            raz=razp;  port=sel; razct=0;
   \                     ??migINI_0:
   \   00000026   9350....           STS     ??raz, R21
   \   0000002A   9330....           STS     ??port, R19
   \   0000002E   E000               LDI     R16, 0
   \   00000030   9300....           STS     ??razct, R16
    118            
    119            
    120            TimerSet(&tm2,5);
   \   00000034   E025               LDI     R18, 5
   \   00000036   ....               RCALL   ?Subroutine100
    121            tm2.out=1;
   \                     ??CrossCallReturnLabel_181:
   \   00000038   E001               LDI     R16, 1
   \   0000003A   9300....           STS     (tm2 + 6), R16
    122            //iniT2(5);
    123            //T2out=1;
    124            
    125          }
   \   0000003E   9508               RET
   \   00000040                      REQUIRE _A_PORTB

   \                                 In  segment CODE, align 2, keep-with-next
   \                     ?Subroutine100:
   \   00000000   E030               LDI     R19, 0
   \   00000002   ....               LDI     R16, LOW(tm2)
   \   00000004   ....               LDI     R17, (tm2) >> 8
   \   00000006   ....               RJMP    TimerSet

   \                                 In  segment CODE, align 2, keep-with-next
   \                     ?Subroutine7:
   \   00000000   ....               RCALL   ?Subroutine117
   \                     ??CrossCallReturnLabel_234:
   \   00000002   B318               IN      R17, 0x18
   \   00000004   2B10               OR      R17, R16
   \   00000006                      REQUIRE ?Subroutine132
   \   00000006                      ;               // Fall through to label ?Subroutine132
    126          

   \                                 In  segment CODE, align 2, keep-with-next
    127          void migWORK(void)//мигание 
   \                     migWORK:
    128          {
    129            static bool sost=0;
    130            TimerTick(&tm2); // WorkT2();
   \   00000000   ....               LDI     R16, LOW(tm2)
   \   00000002   ....               LDI     R17, (tm2) >> 8
   \   00000004   ....               RCALL   TimerTick
    131            if (tm2.out==1 && port!=255)  {
   \   00000006   9100....           LDS     R16, (tm2 + 6)
   \   0000000A   2300               TST     R16
   \   0000000C   F091               BREQ    ??CrossCallReturnLabel_296
   \   0000000E   9100....           LDS     R16, ??port
   \   00000012   3F0F               CPI     R16, 255
   \   00000014   F071               BREQ    ??CrossCallReturnLabel_296
    132                 if (sost!=1)  {sost=1; TimerSet(&tm2,200); SET(PORTB,port); razct++;}
   \   00000016   9100....           LDS     R16, ??sost
   \   0000001A   2300               TST     R16
   \   0000001C   F439               BRNE    ??migWORK_0
   \   0000001E   E001               LDI     R16, 1
   \   00000020   ....               RCALL   ?Subroutine43
   \                     ??CrossCallReturnLabel_46:
   \   00000022   ....               RCALL   ?Subroutine7
   \                     ??CrossCallReturnLabel_294:
   \   00000024   ....               LDI     R30, LOW(??razct)
   \   00000026   ....               LDI     R31, (??razct) >> 8
   \   00000028   ....               RCALL   ?Subroutine96
   \                     ??CrossCallReturnLabel_326:
   \   0000002A   C003               RJMP    ??CrossCallReturnLabel_296
    133            else if (sost!=0)  {sost=0; TimerSet(&tm2,200); RES(PORTB,port);}
   \                     ??migWORK_0:
   \   0000002C   E000               LDI     R16, 0
   \   0000002E   ....               RCALL   ?Subroutine43
    134                                        }
   \                     ??CrossCallReturnLabel_47:
   \   00000030   ....               RCALL   ?Subroutine88
    135            if (razct>=raz) {  tm2.out=1; port=255;}
   \                     ??CrossCallReturnLabel_296:
   \   00000032   9100....           LDS     R16, ??razct
   \   00000036   9110....           LDS     R17, ??raz
   \   0000003A   1701               CP      R16, R17
   \   0000003C   F030               BRCS    ??migWORK_1
   \   0000003E   E001               LDI     R16, 1
   \   00000040   9300....           STS     (tm2 + 6), R16
   \   00000044   EF0F               LDI     R16, 255
   \   00000046   9300....           STS     ??port, R16
    136          }
   \                     ??migWORK_1:
   \   0000004A   9508               RET
   \   0000004C                      REQUIRE _A_PORTB

   \                                 In  segment CODE, align 2, keep-with-next
   \                     ?Subroutine43:
   \   00000000   9300....           STS     ??sost, R16
   \   00000004   EC28               LDI     R18, 200
   \   00000006   ....               RCALL   ?Subroutine100
   \                     ??CrossCallReturnLabel_180:
   \   00000008   9140....           LDS     R20, ??port
   \   0000000C   9508               RET

   \                                 In  segment NEAR_Z, align 1, keep-with-next
   \   00000000                      REQUIRE `?<Segment init: NEAR_Z>`
   \                     ??sost:
   \   00000000                      DS8 1
    137          //uchar migSEL(void){ return(port);} //возвращает текущий мигающий порт
    138          //**************************************************************
    139          //**************************************************************
F:\Dulov\remoteamp\usart.c
      1          #include "usart.h"
      2          //#include <math.h>
      3          //#include <intrinsics.h>
      4          
      5          #include "init.h"
      6          
      7          //однобайтный буфер

   \                                 In  segment NEAR_Z, align 1, keep-with-next
   \   00000000                      REQUIRE `?<Segment init: NEAR_Z>`
      8          volatile unsigned char usartRxBuf = 0;
   \                     usartRxBuf:
   \   00000000                      DS8 1

   \                                 In  segment NEAR_Z, align 1, keep-with-next
   \   00000000                      REQUIRE `?<Segment init: NEAR_Z>`
      9          volatile static bool usarton;
   \                     ??usarton:
   \   00000000                      DS8 1
     10          
     11          //инициализация usart`a

   \                                 In  segment CODE, align 2, keep-with-next
     12          void USART_Init()
   \                     USART_Init:
     13          {
     14            UBRRH = 0;
   \   00000000   E000               LDI     R16, 0
   \   00000002   BD00               OUT     0x20, R16
     15            UBRRL = ((F_CPU/9600UL)-1)/16;//    26;//78; //скорость обмена 9600 бод
   \   00000004   E109               LDI     R16, 25
   \   00000006   B909               OUT     0x09, R16
     16            UCSRB = (1<<RXCIE)|(1<<RXEN)|(1<<TXEN); //разр. прерыв при приеме, разр приема, разр передачи.
   \   00000008   E908               LDI     R16, 152
   \   0000000A   B90A               OUT     0x0A, R16
     17            UCSRC = (1<<URSEL)|(1<<UCSZ1)|(1<<UCSZ0); //размер слова 8 разрядов
   \   0000000C   E806               LDI     R16, 134
   \   0000000E   BD00               OUT     0x20, R16
     18          }
   \   00000010   9508               RET
   \   00000012                      REQUIRE _A_UBRRH
   \   00000012                      REQUIRE _A_UBRRL
   \   00000012                      REQUIRE _A_UCSRB
     19          
     20          //отправка символа по usart`у

   \                                 In  segment CODE, align 2, keep-with-next
     21          void USART_SendChar(unsigned char sym)
   \                     USART_SendChar:
     22          {
     23            if (!usarton) return;
   \   00000000   9110....           LDS     R17, ??usarton
   \   00000004   2311               TST     R17
   \   00000006   F019               BREQ    ??USART_SendChar_0
     24            while(!(UCSRA & (1<<UDRE)));
   \                     ??USART_SendChar_1:
   \   00000008   9B5D               SBIS    0x0B, 0x05
   \   0000000A   CFFE               RJMP    ??USART_SendChar_1
     25            UDR = sym;
   \   0000000C   B90C               OUT     0x0C, R16
     26          }
   \                     ??USART_SendChar_0:
   \   0000000E   9508               RET
   \   00000010                      REQUIRE _A_UCSRA
   \   00000010                      REQUIRE _A_UDR
     27          
     28          //чтение буфера

   \                                 In  segment CODE, align 2, keep-with-next
     29          __monitor unsigned char USART_GetChar(void)
   \                     USART_GetChar:
     30          {
   \   00000000   B72F               IN      R18, 0x3F
   \   00000002   94F8               CLI
     31            unsigned char tmp = usartRxBuf;
   \   00000004   9100....           LDS     R16, usartRxBuf
     32            usartRxBuf = 0;
   \   00000008   E010               LDI     R17, 0
   \   0000000A   9310....           STS     usartRxBuf, R17
     33            return tmp;  
   \   0000000E   BF2F               OUT     0x3F, R18
   \   00000010   9508               RET
     34          }
     35          
     36          //прием символа по usart`у в буфер
     37          #pragma vector=USART_RXC_vect

   \                                 In  segment CODE, align 2, keep-with-next
     38          __interrupt void usart_rxc_my(void) 
   \                     usart_rxc_my:
     39          {
   \   00000000   930A               ST      -Y, R16
     40            usartRxBuf = UDR; 
   \   00000002   B10C               IN      R16, 0x0C
   \   00000004   9300....           STS     usartRxBuf, R16
     41          } 
   \   00000008   ....               RJMP    ?Subroutine133
   \   0000000A                      REQUIRE _A_UDR
     42          
     43          // *** rprintfStr ***
     44          // prints a null-terminated string stored in RAM

   \                                 In  segment CODE, align 2, keep-with-next
     45          void rprintfStr(char str[])
   \                     rprintfStr:
     46          {        
   \   00000000   ....               RCALL   ?PROLOGUE4_L09
   \   00000002   01D8               MOVW    R27:R26, R17:R16
     47              if (!usarton) return;
   \   00000004   9100....           LDS     R16, ??usarton
   \   00000008   2300               TST     R16
   \   0000000A   F041               BREQ    ??rprintfStr_0
     48          	// send a string stored in RAM
     49          	// check to make sure we have a good pointer
     50          	if (!str) return;
   \   0000000C   2F0A               MOV     R16, R26
   \   0000000E   2B01               OR      R16, R17
   \   00000010   F411               BRNE    ??rprintfStr_1
   \   00000012   C004               RJMP    ??rprintfStr_0
     51          
     52          	// print the string until a null-terminator
     53          	while (*str)
     54          		USART_SendChar(*str++);
   \                     ??rprintfStr_2:
   \   00000014   ....               RCALL   USART_SendChar
   \                     ??rprintfStr_1:
   \   00000016   910D               LD      R16, X+
   \   00000018   2300               TST     R16
   \   0000001A   F7E1               BRNE    ??rprintfStr_2
     55          }
   \                     ??rprintfStr_0:
   \   0000001C   E0E4               LDI     R30, 4
   \   0000001E   ....               RJMP    ?EPILOGUE_B4_L09
     56          
     57          // *** rprintfFloat ***Pascal Stang - Copyright (C) 2000-2002
     58          // floating-point print

   \                                 In  segment CODE, align 2, keep-with-next
     59          void rprintfFloat(char numDigits, double x)
   \                     rprintfFloat:
     60          {
   \   00000000   ....               RCALL   ?PROLOGUE12_L09
   \   00000002                      REQUIRE ?Register_R4_is_cg_reg
   \   00000002                      REQUIRE ?Register_R5_is_cg_reg
   \   00000002                      REQUIRE ?Register_R6_is_cg_reg
   \   00000002                      REQUIRE ?Register_R7_is_cg_reg
   \   00000002                      REQUIRE ?Register_R8_is_cg_reg
   \   00000002                      REQUIRE ?Register_R9_is_cg_reg
   \   00000002                      REQUIRE ?Register_R10_is_cg_reg
   \   00000002                      REQUIRE ?Register_R11_is_cg_reg
   \   00000002   2EB0               MOV     R11, R16
   \   00000004   012A               MOVW    R5:R4, R21:R20
   \   00000006   013B               MOVW    R7:R6, R23:R22
     61              if (!usarton) return;
   \   00000008   9100....           LDS     R16, ??usarton
   \   0000000C   2300               TST     R16
   \   0000000E   F409               BRNE    $+2+2
   \   00000010   C04E               RJMP    ??rprintfFloat_0
     62          	unsigned char firstplace = 0;
   \   00000012   24AA               CLR     R10
     63          	unsigned char negative;
     64          	unsigned char i, digit;
     65          	double place = 1.0;
   \   00000014   E080               LDI     R24, 0
   \   00000016   E090               LDI     R25, 0
   \   00000018   E8A0               LDI     R26, 128
   \   0000001A   E3BF               LDI     R27, 63
     66          	
     67          	// save sign
     68          	negative = (x<0);
   \   0000001C   ....               RCALL   ?Subroutine52
   \                     ??CrossCallReturnLabel_72:
   \   0000001E   ....               RCALL   ?Subroutine102
   \                     ??CrossCallReturnLabel_186:
   \   00000020   ....               RCALL   ?F_CMP_LT_L04
   \   00000022   2488               CLR     R8
   \   00000024   F408               BRCC    ??rprintfFloat_1
   \   00000026   9483               INC     R8
     69          	// convert to absolute value
     70          	x = (x>0)?(x):(-x);
   \                     ??rprintfFloat_1:
   \   00000028   E041               LDI     R20, 1
   \   0000002A   ....               RCALL   ?F_CMP_GE_L04
   \   0000002C   F008               BRCS    ??rprintfFloat_2
   \   0000002E   267A               EOR     R7, R26
     71          	
     72          	// find starting digit place
     73          	for(i=0; i<15; i++)
   \                     ??rprintfFloat_2:
   \   00000030   E00F               LDI     R16, 15
   \   00000032   2E90               MOV     R9, R16
     74          	{
     75          		if((x/place) < 10.0)
   \                     ??rprintfFloat_3:
   \   00000034   ....               RCALL   ?Subroutine48
   \                     ??CrossCallReturnLabel_60:
   \   00000036   ....               RCALL   ?Subroutine53
   \                     ??CrossCallReturnLabel_73:
   \   00000038   ....               RCALL   ?F_CMP_LT_L04
   \   0000003A   F038               BRCS    ??rprintfFloat_4
     76          			break;
     77          		else
     78          			place *= 10.0;
   \   0000003C   018C               MOVW    R17:R16, R25:R24
   \   0000003E   019D               MOVW    R19:R18, R27:R26
   \   00000040   ....               RCALL   ?F_MUL_L04
   \   00000042   01C8               MOVW    R25:R24, R17:R16
   \   00000044   01D9               MOVW    R27:R26, R19:R18
     79          	}
   \   00000046   949A               DEC     R9
   \   00000048   F7A9               BRNE    ??rprintfFloat_3
     80          	// print polarity character
     81          	if(negative)
   \                     ??rprintfFloat_4:
   \   0000004A   FA80               BST     R8, 0
   \   0000004C   F416               BRTC    ??rprintfFloat_5
     82          		USART_SendChar('-');
   \   0000004E   E20D               LDI     R16, 45
   \   00000050   C001               RJMP    ??rprintfFloat_6
     83          	else
     84          		USART_SendChar('+');
   \                     ??rprintfFloat_5:
   \   00000052   E20B               LDI     R16, 43
   \                     ??rprintfFloat_6:
   \   00000054   ....               RCALL   USART_SendChar
     85          
     86          	// print digits
     87          	for(i=0; i<numDigits; i++)
   \   00000056   2499               CLR     R9
   \   00000058   C017               RJMP    ??rprintfFloat_7
     88          	{
     89          		digit = (unsigned char)(x/place);
     90          
     91          		if(digit | firstplace | (place == 1.0))
     92          		{
     93          			firstplace = 1;
     94          			USART_SendChar(digit+0x30);
     95          		}
     96          		else
     97          			USART_SendChar(' ');
   \                     ??rprintfFloat_8:
   \   0000005A   E200               LDI     R16, 32
   \                     ??rprintfFloat_9:
   \   0000005C   ....               RCALL   USART_SendChar
     98          		
     99          		if(place == 1.0)
   \   0000005E   ....               RCALL   ?Subroutine46
   \                     ??CrossCallReturnLabel_55:
   \   00000060   F411               BRNE    ??rprintfFloat_10
    100          		{
    101          			USART_SendChar('.');
   \   00000062   E20E               LDI     R16, 46
   \   00000064   ....               RCALL   USART_SendChar
    102          		}
    103          		
    104          		x -= (digit*place);
   \                     ??rprintfFloat_10:
   \   00000066   2D08               MOV     R16, R8
   \   00000068   ....               RCALL   ?Subroutine21
   \                     ??CrossCallReturnLabel_183:
   \   0000006A   01AC               MOVW    R21:R20, R25:R24
   \   0000006C   01BD               MOVW    R23:R22, R27:R26
   \   0000006E   ....               RCALL   ?F_MUL_L04
   \   00000070   ....               RCALL   ?Subroutine121
   \                     ??CrossCallReturnLabel_308:
   \   00000072   ....               RCALL   ?Subroutine102
   \                     ??CrossCallReturnLabel_187:
   \   00000074   ....               RCALL   ?F_SUB_L04
   \   00000076   0128               MOVW    R5:R4, R17:R16
   \   00000078   0139               MOVW    R7:R6, R19:R18
    105          		place /= 10.0;
   \   0000007A   ....               RCALL   ?Subroutine53
   \                     ??CrossCallReturnLabel_74:
   \   0000007C   018C               MOVW    R17:R16, R25:R24
   \   0000007E   019D               MOVW    R19:R18, R27:R26
   \   00000080   ....               RCALL   ?F_DIV_L04
   \   00000082   01C8               MOVW    R25:R24, R17:R16
   \   00000084   01D9               MOVW    R27:R26, R19:R18
   \   00000086   9493               INC     R9
   \                     ??rprintfFloat_7:
   \   00000088   149B               CP      R9, R11
   \   0000008A   F488               BRCC    ??rprintfFloat_0
   \   0000008C   ....               RCALL   ?Subroutine48
   \                     ??CrossCallReturnLabel_61:
   \   0000008E   ....               RCALL   ?F2SL_L04
   \   00000090   2E80               MOV     R8, R16
   \   00000092   ....               RCALL   ?Subroutine46
   \                     ??CrossCallReturnLabel_56:
   \   00000094   F411               BRNE    ??rprintfFloat_11
   \   00000096   E001               LDI     R16, 1
   \   00000098   C001               RJMP    ??rprintfFloat_12
   \                     ??rprintfFloat_11:
   \   0000009A   E000               LDI     R16, 0
   \                     ??rprintfFloat_12:
   \   0000009C   2D18               MOV     R17, R8
   \   0000009E   291A               OR      R17, R10
   \   000000A0   2B10               OR      R17, R16
   \   000000A2   F2D9               BREQ    ??rprintfFloat_8
   \   000000A4   24AA               CLR     R10
   \   000000A6   94A3               INC     R10
   \   000000A8   2D08               MOV     R16, R8
   \   000000AA   5D00               SUBI    R16, 208
   \   000000AC   CFD7               RJMP    ??rprintfFloat_9
    106          	}
    107          }
   \                     ??rprintfFloat_0:
   \   000000AE   E0EC               LDI     R30, 12
   \   000000B0   ....               RJMP    ?EPILOGUE_B12_L09

   \                                 In  segment CODE, align 2, keep-with-next
   \                     ?Subroutine53:
   \   00000000   ....               RCALL   ?Subroutine105
   \                     ??CrossCallReturnLabel_199:
   \   00000002   E260               LDI     R22, 32
   \   00000004   E471               LDI     R23, 65
   \   00000006   9508               RET

   \                                 In  segment CODE, align 2, keep-with-next
   \                     ?Subroutine48:
   \   00000000   01AC               MOVW    R21:R20, R25:R24
   \   00000002   01BD               MOVW    R23:R22, R27:R26
   \   00000004   ....               RCALL   ?Subroutine102
   \                     ??CrossCallReturnLabel_190:
   \   00000006   ....               RJMP    ?F_DIV_L04

   \                                 In  segment CODE, align 2, keep-with-next
   \                     ?Subroutine46:
   \   00000000   ....               RCALL   ?Subroutine105
   \                     ??CrossCallReturnLabel_197:
   \   00000002   E860               LDI     R22, 128
   \   00000004   E37F               LDI     R23, 63
   \   00000006   018C               MOVW    R17:R16, R25:R24
   \   00000008   019D               MOVW    R19:R18, R27:R26
   \   0000000A   ....               RJMP    ?F_CMP_EQ_L04

   \                                 In  segment INTVEC, offset 0x2, root
   \                     `??funINT0_vect??INTVEC 2`:
   \   00000002   ....               RJMP    funINT0_vect

   \                                 In  segment INTVEC, offset 0x10, root
   \                     `??funTIMER1_OVF_vect??INTVEC 16`:
   \   00000010   ....               RJMP    funTIMER1_OVF_vect

   \                                 In  segment INTVEC, offset 0x16, root
   \                     `??usart_rxc_my??INTVEC 22`:
   \   00000016   ....               RJMP    usart_rxc_my

   \                                 In  segment NEAR_ID, align 1, keep-with-next
   \                     `?<Initializer for <Constant " error ct big =">`:
   \   00000000   65207272726F       DC8 " error ct big ="
   \              632020746962
   \              2067003D    

   \                                 In  segment NEAR_ID, align 1, keep-with-next
   \                     `?<Initializer for <Constant "  /   cod1= ">>`:
   \   00000000   2020202F2020       DC8 "  /   cod1= "
   \              6F633164203D
   \              00          

   \                                 In  segment NEAR_ID, align 1, keep-with-next
   \                     `?<Initializer for <Constant "/   cod2= ">>`:
   \   00000000   202F20206F63       DC8 "/   cod2= "
   \              3264203D00  

   \                                 In  segment NEAR_ID, align 1, keep-with-next
   \                     `?<Initializer for <Constant "/   cod3= ">>`:
   \   00000000   202F20206F63       DC8 "/   cod3= "
   \              3364203D00  

   \                                 In  segment NEAR_ID, align 1, keep-with-next
   \                     `?<Initializer for <Constant "  / abslen= ">>`:
   \   00000000   2020202F6261       DC8 "  / abslen= "
   \              6C736E65203D
   \              00          

   \                                 In  segment NEAR_ID, align 1, keep-with-next
   \                     `?<Initializer for <Constant "  / len= ">>`:
   \   00000000   2020202F656C       DC8 "  / len= "
   \              3D6E0020    

   \                                 In  segment NEAR_ID, align 1, keep-with-next
   \                     `?<Initializer for <Constant "  ">>`:
   \   00000000   202000             DC8 "  "

   \                                 In  segment NEAR_ID, align 1, keep-with-next
   \                     `?<Initializer for <Constant "  / cod1= ">>`:
   \   00000000   2020202F6F63       DC8 "  / cod1= "
   \              3164203D00  

   \                                 In  segment NEAR_ID, align 1, keep-with-next
   \                     `?<Initializer for <Constant " / cod2= ">>`:
   \   00000000   2F206320646F       DC8 " / cod2= "
   \              3D320020    

   \                                 In  segment NEAR_ID, align 1, keep-with-next
   \                     `?<Initializer for <Constant " / cod3= ">>`:
   \   00000000   2F206320646F       DC8 " / cod3= "
   \              3D330020    

   \                                 In  segment NEAR_ID, align 1, keep-with-next
   \                     `?<Initializer for <Constant "/ minlen=">>`:
   \   00000000   202F696D6C6E       DC8 "/ minlen="
   \              6E65003D    

   \                                 In  segment NEAR_ID, align 1, keep-with-next
   \                     `?<Initializer for <Constant "OFF>adr=">>`:
   \   00000000   464F3E466461       DC8 "OFF>adr="
   \              3D7200      

   \                                 In  segment NEAR_ID, align 1, keep-with-next
   \                     `?<Initializer for <Constant "ON>adr=">>`:
   \   00000000   4E4F613E7264       DC8 "ON>adr="
   \              003D        

   \                                 In  segment NEAR_ID, align 1, keep-with-next
   \                     `?<Initializer for <Constant "normal>no find co`:
   \   00000000   6F6E6D726C61       DC8 "normal>no find command "
   \              6E3E206F6966
   \              646E63206D6F
   \              616D646E0020

   \                                 In  segment NEAR_ID, align 1, keep-with-next
   \                     `?<Initializer for <Constant "normal>command fi`:
   \   00000000   6F6E6D726C61       DC8 "normal>command find  adr= "
   \              633E6D6F616D
   \              646E66206E69
   \              206461207264
   \              203D00      

   \                                 In  segment NEAR_ID, align 1, keep-with-next
   \                     `?<Initializer for <Constant "write ..">>`:
   \   00000000   727774692065       DC8 "write .."
   \              2E2E00      

   \                                 In  segment NEAR_ID, align 1, keep-with-next
   \                     `?<Initializer for <Constant "OK !   ">>`:
   \   00000000   4B4F21202020       DC8 "OK !   "
   \              0020        

   \                                 In  segment NEAR_ID, align 1, keep-with-next
   \                     `?<Initializer for <Constant "- vkluchen kratki`:
   \   00000000   202D6B76756C       DC8 "- vkluchen kratkiy viviod -"
   \              68636E656B20
   \              61726B747969
   \              762076696F69
   \              2064002D    

   \                                 In  segment NEAR_ID, align 1, keep-with-next
   \                     `?<Initializer for <Constant " ==  EEPROM read `:
   \   00000000   3D20203D4520       DC8 " ==  EEPROM read == "
   \              50454F52204D
   \              657264613D20
   \              203D00      

   \                                 In  segment NEAR_ID, align 1, keep-with-next
   \                     `?<Initializer for <Constant " > ">>`:
   \   00000000   3E200020           DC8 " > "

   \                                 In  segment NEAR_ID, align 1, keep-with-next
   \                     `?<Initializer for <Constant " get: ">>`:
   \   00000000   67207465203A       DC8 " get: "
   \              00          

   \                                 In  segment NEAR_ID, align 1, keep-with-next
   \                     `?<Initializer for <Constant "  regim  no sourc`:
   \   00000000   202065726967       DC8 "  regim  no source5 >"
   \              206D6E20206F
   \              6F7372756563
   \              2035003E    

   \                                 In  segment NEAR_ID, align 1, keep-with-next
   \                     `?<Initializer for <Constant "  regim  PROGRAMM`:
   \   00000000   202065726967       DC8 "  regim  PROGRAMMING !!  READY >"
   \              206D50204F52
   \              52474D41494D
   \              474E21202021
   \              522041455944
   \              3E2000      

   \                                 In  segment NEAR_ID, align 1, keep-with-next
   \                     `?<Initializer for <Constant "  regim  normal  `:
   \   00000000   202065726967       DC8 "  regim  normal  READY >"
   \              206D6E20726F
   \              616D206C5220
   \              414559443E20
   \              00          

   \                                 In  segment NEAR_ID, align 1, keep-with-next
   \                     `?<Initializer for ind>`:
   \   00000000   01                 DC8 1

   \                                 In  segment NEAR_ID, align 1, keep-with-next
   \                     `?<Initializer for tON>`:
   \   00000000   4E20               DC16 20000

   \                                 In  segment NEAR_ID, align 1, keep-with-next
   \                     `?<Initializer for lastsel>`:
   \   00000000   01                 DC8 1

   \                                 In  segment NEAR_ID, align 1, keep-with-next
   \                     `?<Initializer for sel>`:
   \   00000000   01                 DC8 1

   \                                 In  segment NEAR_ID, align 1, keep-with-next
   \                     `?<Initializer for port>`:
   \   00000000   FF                 DC8 255

   \                                 In  segment NEAR_I, align 1, keep-with-next
   \   00000000                      REQUIRE `?<Segment init: NEAR_I>`
   \                     `?<Constant " error ct big =">`:
   \   00000000                      DS8 16
   \   00000010                      REQUIRE `?<Initializer for <Constant " error ct big =">`

   \                                 In  segment NEAR_I, align 1, keep-with-next
   \   00000000                      REQUIRE `?<Segment init: NEAR_I>`
   \                     `?<Constant "  /   cod1= ">`:
   \   00000000                      DS8 13
   \   0000000D                      REQUIRE `?<Initializer for <Constant "  /   cod1= ">>`

   \                                 In  segment NEAR_I, align 1, keep-with-next
   \   00000000                      REQUIRE `?<Segment init: NEAR_I>`
   \                     `?<Constant "/   cod2= ">`:
   \   00000000                      DS8 11
   \   0000000B                      REQUIRE `?<Initializer for <Constant "/   cod2= ">>`

   \                                 In  segment NEAR_I, align 1, keep-with-next
   \   00000000                      REQUIRE `?<Segment init: NEAR_I>`
   \                     `?<Constant "/   cod3= ">`:
   \   00000000                      DS8 11
   \   0000000B                      REQUIRE `?<Initializer for <Constant "/   cod3= ">>`

   \                                 In  segment NEAR_I, align 1, keep-with-next
   \   00000000                      REQUIRE `?<Segment init: NEAR_I>`
   \                     `?<Constant "  / abslen= ">`:
   \   00000000                      DS8 13
   \   0000000D                      REQUIRE `?<Initializer for <Constant "  / abslen= ">>`

   \                                 In  segment NEAR_I, align 1, keep-with-next
   \   00000000                      REQUIRE `?<Segment init: NEAR_I>`
   \                     `?<Constant "  / len= ">`:
   \   00000000                      DS8 10
   \   0000000A                      REQUIRE `?<Initializer for <Constant "  / len= ">>`

   \                                 In  segment NEAR_I, align 1, keep-with-next
   \   00000000                      REQUIRE `?<Segment init: NEAR_I>`
   \                     `?<Constant "  ">`:
   \   00000000                      DS8 3
   \   00000003                      REQUIRE `?<Initializer for <Constant "  ">>`

   \                                 In  segment NEAR_I, align 1, keep-with-next
   \   00000000                      REQUIRE `?<Segment init: NEAR_I>`
   \                     `?<Constant "  / cod1= ">`:
   \   00000000                      DS8 11
   \   0000000B                      REQUIRE `?<Initializer for <Constant "  / cod1= ">>`

   \                                 In  segment NEAR_I, align 1, keep-with-next
   \   00000000                      REQUIRE `?<Segment init: NEAR_I>`
   \                     `?<Constant " / cod2= ">`:
   \   00000000                      DS8 10
   \   0000000A                      REQUIRE `?<Initializer for <Constant " / cod2= ">>`

   \                                 In  segment NEAR_I, align 1, keep-with-next
   \   00000000                      REQUIRE `?<Segment init: NEAR_I>`
   \                     `?<Constant " / cod3= ">`:
   \   00000000                      DS8 10
   \   0000000A                      REQUIRE `?<Initializer for <Constant " / cod3= ">>`

   \                                 In  segment NEAR_I, align 1, keep-with-next
   \   00000000                      REQUIRE `?<Segment init: NEAR_I>`
   \                     `?<Constant "/ minlen=">`:
   \   00000000                      DS8 10
   \   0000000A                      REQUIRE `?<Initializer for <Constant "/ minlen=">>`

   \                                 In  segment NEAR_I, align 1, keep-with-next
   \   00000000                      REQUIRE `?<Segment init: NEAR_I>`
   \                     `?<Constant "OFF>adr=">`:
   \   00000000                      DS8 9
   \   00000009                      REQUIRE `?<Initializer for <Constant "OFF>adr=">>`

   \                                 In  segment NEAR_I, align 1, keep-with-next
   \   00000000                      REQUIRE `?<Segment init: NEAR_I>`
   \                     `?<Constant "ON>adr=">`:
   \   00000000                      DS8 8
   \   00000008                      REQUIRE `?<Initializer for <Constant "ON>adr=">>`

   \                                 In  segment NEAR_I, align 1, keep-with-next
   \   00000000                      REQUIRE `?<Segment init: NEAR_I>`
   \                     `?<Constant "normal>no find command ">`:
   \   00000000                      DS8 24
   \   00000018                      REQUIRE `?<Initializer for <Constant "normal>no find co`

   \                                 In  segment NEAR_I, align 1, keep-with-next
   \   00000000                      REQUIRE `?<Segment init: NEAR_I>`
   \                     `?<Constant "normal>command find  ...">`:
   \   00000000                      DS8 27
   \   0000001B                      REQUIRE `?<Initializer for <Constant "normal>command fi`

   \                                 In  segment NEAR_I, align 1, keep-with-next
   \   00000000                      REQUIRE `?<Segment init: NEAR_I>`
   \                     `?<Constant "write ..">`:
   \   00000000                      DS8 9
   \   00000009                      REQUIRE `?<Initializer for <Constant "write ..">>`

   \                                 In  segment NEAR_I, align 1, keep-with-next
   \   00000000                      REQUIRE `?<Segment init: NEAR_I>`
   \                     `?<Constant "OK !   ">`:
   \   00000000                      DS8 8
   \   00000008                      REQUIRE `?<Initializer for <Constant "OK !   ">>`

   \                                 In  segment NEAR_I, align 1, keep-with-next
   \   00000000                      REQUIRE `?<Segment init: NEAR_I>`
   \                     `?<Constant "- vkluchen kratkiy vi...">`:
   \   00000000                      DS8 28
   \   0000001C                      REQUIRE `?<Initializer for <Constant "- vkluchen kratki`

   \                                 In  segment NEAR_I, align 1, keep-with-next
   \   00000000                      REQUIRE `?<Segment init: NEAR_I>`
   \                     `?<Constant " ==  EEPROM read == ">`:
   \   00000000                      DS8 21
   \   00000015                      REQUIRE `?<Initializer for <Constant " ==  EEPROM read `

   \                                 In  segment NEAR_I, align 1, keep-with-next
   \   00000000                      REQUIRE `?<Segment init: NEAR_I>`
   \                     `?<Constant " > ">`:
   \   00000000                      DS8 4
   \   00000004                      REQUIRE `?<Initializer for <Constant " > ">>`

   \                                 In  segment NEAR_I, align 1, keep-with-next
   \   00000000                      REQUIRE `?<Segment init: NEAR_I>`
   \                     `?<Constant " get: ">`:
   \   00000000                      DS8 7
   \   00000007                      REQUIRE `?<Initializer for <Constant " get: ">>`

   \                                 In  segment NEAR_I, align 1, keep-with-next
   \   00000000                      REQUIRE `?<Segment init: NEAR_I>`
   \                     `?<Constant "  regim  no source5 >">`:
   \   00000000                      DS8 22
   \   00000016                      REQUIRE `?<Initializer for <Constant "  regim  no sourc`

   \                                 In  segment NEAR_I, align 1, keep-with-next
   \   00000000                      REQUIRE `?<Segment init: NEAR_I>`
   \                     `?<Constant "  regim  PROGRAMMING ...">`:
   \   00000000                      DS8 33
   \   00000021                      REQUIRE `?<Initializer for <Constant "  regim  PROGRAMM`

   \                                 In  segment NEAR_I, align 1, keep-with-next
   \   00000000                      REQUIRE `?<Segment init: NEAR_I>`
   \                     `?<Constant "  regim  normal  READY >">`:
   \   00000000                      DS8 25
   \   00000019                      REQUIRE `?<Initializer for <Constant "  regim  normal  `

   Maximum stack usage in bytes:

   CSTACK RSTACK Function
   ------ ------ --------
      8      4   PEREP
        8      2   -> USART_SendChar
        8      2   -> coding
        8      2   -> rprintfFloat
        8      2   -> rprintfStr
      0      2   TimerSet
      0      2   TimerTick
      0      2   USART_GetChar
      0      2   USART_Init
      0      2   USART_SendChar
      2      4   analizCOD
      0      2   analiz_INT
     10      4   coding
       10      2   -> USART_SendChar
       10      2   -> rprintfFloat
       10      2   -> rprintfStr
      2      4   diag
        2      2   -> USART_GetChar
        2      2   -> USART_SendChar
        2      2   -> rprintfFloat
        2      2   -> rprintfStr
      0      2   du_init
      0      2   du_main
        0      2   -> PEREP
        0      2   -> analiz_INT
        0      2   -> du_init
      2      2   funINT0_vect
      2      2   funTIMER1_OVF_vect
      0      2   getadr
      0      4   gro
      0      2   iniPORTS
      0      2   led_all
      1      2   led_test
        1      2   -> led_all
      1      4   main
        1      2   -> USART_Init
        1      2   -> analizCOD
        1      2   -> diag
        1      2   -> du_main
        1      2   -> getadr
        1      2   -> iniPORTS
        1      2   -> led_all
        1      2   -> led_test
        1      2   -> programming
        1      2   -> writeCOD
      0      4   main_logic
        0      2   -> USART_SendChar
        0      2   -> normal
        0      2   -> resOUT
        0      2   -> rprintfFloat
        0      2   -> rprintfStr
        0      2   -> source
      0      4   migINI
        0      2   -> TimerSet
      0      4   migWORK
        0      2   -> TimerSet
        0      2   -> TimerTick
      1      4   normal
        1      2   -> TimerSet
        1      2   -> TimerTick
        1      2   -> USART_SendChar
        1      2   -> analizCOD
        1      2   -> gro
        1      2   -> migINI
        1      2   -> migWORK
        1      2   -> pult
        1      2   -> rprintfFloat
        1      2   -> rprintfStr
      1      2   programming
        1      2   -> getadr
        1      2   -> led_all
        1      2   -> writeCOD
      0      2   pult
        0      2   -> source
      0      2   resOUT
      0      2   resled
     12      4   rprintfFloat
       12      2   -> USART_SendChar
      4      2   rprintfStr
        4      2   -> USART_SendChar
      0      2   source
        0      2   -> migINI
        0      2   -> resOUT
        0      2   -> resled
      2      2   usart_rxc_my
      1      4   writeCOD
        1      2   -> USART_SendChar
        1      2   -> getadr
        1      2   -> led_all
        1      2   -> rprintfStr


   Segment part sizes:

   Bytes  Function/Label
   -----  --------------
       3  ?<Constant "  ">
      13  ?<Constant "  /   cod1= ">
      13  ?<Constant "  / abslen= ">
      11  ?<Constant "  / cod1= ">
      10  ?<Constant "  / len= ">
      33  ?<Constant "  regim  PROGRAMMING ...">
      22  ?<Constant "  regim  no source5 >">
      25  ?<Constant "  regim  normal  READY >">
      10  ?<Constant " / cod2= ">
      10  ?<Constant " / cod3= ">
      21  ?<Constant " ==  EEPROM read == ">
       4  ?<Constant " > ">
      16  ?<Constant " error ct big =">
       7  ?<Constant " get: ">
      28  ?<Constant "- vkluchen kratkiy vi...">
      11  ?<Constant "/   cod2= ">
      11  ?<Constant "/   cod3= ">
      10  ?<Constant "/ minlen=">
       9  ?<Constant "OFF>adr=">
       8  ?<Constant "OK !   ">
       8  ?<Constant "ON>adr=">
      27  ?<Constant "normal>command find  ...">
      24  ?<Constant "normal>no find command ">
       9  ?<Constant "write ..">
       3  ?<Initializer for <Constant "  ">>
      13  ?<Initializer for <Constant "  /   cod1= ">>
      13  ?<Initializer for <Constant "  / abslen= ">>
      11  ?<Initializer for <Constant "  / cod1= ">>
      10  ?<Initializer for <Constant "  / len= ">>
      33  ?<Initializer for <Constant "  regim  PROGRAMM
      22  ?<Initializer for <Constant "  regim  no sourc
      25  ?<Initializer for <Constant "  regim  normal
      10  ?<Initializer for <Constant " / cod2= ">>
      10  ?<Initializer for <Constant " / cod3= ">>
      21  ?<Initializer for <Constant " ==  EEPROM read
       4  ?<Initializer for <Constant " > ">>
      16  ?<Initializer for <Constant " error ct big =">
       7  ?<Initializer for <Constant " get: ">>
      28  ?<Initializer for <Constant "- vkluchen kratki
      11  ?<Initializer for <Constant "/   cod2= ">>
      11  ?<Initializer for <Constant "/   cod3= ">>
      10  ?<Initializer for <Constant "/ minlen=">>
       9  ?<Initializer for <Constant "OFF>adr=">>
       8  ?<Initializer for <Constant "OK !   ">>
       8  ?<Initializer for <Constant "ON>adr=">>
      27  ?<Initializer for <Constant "normal>command fi
      24  ?<Initializer for <Constant "normal>no find co
       9  ?<Initializer for <Constant "write ..">>
       1  ?<Initializer for ind>
       1  ?<Initializer for lastsel>
       1  ?<Initializer for port>
       1  ?<Initializer for sel>
       2  ?<Initializer for tON>
       8  ??Subroutine136_0
       6  ??Subroutine137_0
       2  ??Subroutine138_0
       4  ??Subroutine139_0
       6  ??Subroutine140_0
       4  ??Subroutine141_0
       6  ??Subroutine142_0
       2  ??Subroutine143_0
       2  ??Subroutine144_0
       4  ??Subroutine145_0
      18  ??Subroutine146_0
       6  ??Subroutine147_0
       6  ??Subroutine148_0
       2  ??funINT0_vect??INTVEC 2
       2  ??funTIMER1_OVF_vect??INTVEC 16
       2  ??usart_rxc_my??INTVEC 22
      12  ?Subroutine0
      16  ?Subroutine1
      20  ?Subroutine10
       8  ?Subroutine100
       4  ?Subroutine101
       6  ?Subroutine102
      10  ?Subroutine103
       6  ?Subroutine104
       6  ?Subroutine105
       6  ?Subroutine106
       6  ?Subroutine108
       2  ?Subroutine109
      18  ?Subroutine11
       6  ?Subroutine110
       6  ?Subroutine111
       6  ?Subroutine112
       6  ?Subroutine113
      20  ?Subroutine114
      22  ?Subroutine115
       6  ?Subroutine116
       6  ?Subroutine117
       6  ?Subroutine118
      20  ?Subroutine119
       4  ?Subroutine12
       4  ?Subroutine120
       6  ?Subroutine121
       4  ?Subroutine122
       6  ?Subroutine123
       6  ?Subroutine124
       6  ?Subroutine125
       6  ?Subroutine126
       4  ?Subroutine127
       4  ?Subroutine128
       4  ?Subroutine129
       2  ?Subroutine13
       4  ?Subroutine130
       4  ?Subroutine131
       4  ?Subroutine132
       4  ?Subroutine133
       4  ?Subroutine134
       4  ?Subroutine135
       2  ?Subroutine14
       8  ?Subroutine15
       8  ?Subroutine16
      12  ?Subroutine17
      10  ?Subroutine18
       4  ?Subroutine19
      16  ?Subroutine2
       6  ?Subroutine20
       4  ?Subroutine21
      22  ?Subroutine22
      10  ?Subroutine23
       8  ?Subroutine24
       2  ?Subroutine25
       2  ?Subroutine26
       6  ?Subroutine28
       8  ?Subroutine29
      14  ?Subroutine3
       4  ?Subroutine30
       6  ?Subroutine31
       2  ?Subroutine33
       6  ?Subroutine34
       4  ?Subroutine37
       2  ?Subroutine38
       6  ?Subroutine39
       8  ?Subroutine4
       2  ?Subroutine40
       2  ?Subroutine41
       2  ?Subroutine42
      14  ?Subroutine43
       6  ?Subroutine44
       4  ?Subroutine45
      12  ?Subroutine46
       6  ?Subroutine47
       8  ?Subroutine48
       8  ?Subroutine49
       6  ?Subroutine5
       6  ?Subroutine50
       6  ?Subroutine51
       8  ?Subroutine52
       8  ?Subroutine53
       4  ?Subroutine55
       4  ?Subroutine56
       4  ?Subroutine57
      20  ?Subroutine59
       4  ?Subroutine60
      20  ?Subroutine63
       2  ?Subroutine64
       4  ?Subroutine65
       4  ?Subroutine66
       6  ?Subroutine67
       8  ?Subroutine68
      12  ?Subroutine69
       6  ?Subroutine7
      20  ?Subroutine70
       8  ?Subroutine71
       6  ?Subroutine72
       6  ?Subroutine73
       4  ?Subroutine74
      20  ?Subroutine76
       6  ?Subroutine78
       4  ?Subroutine79
       2  ?Subroutine8
       6  ?Subroutine81
       6  ?Subroutine82
       6  ?Subroutine83
       2  ?Subroutine84
      10  ?Subroutine85
      10  ?Subroutine86
      10  ?Subroutine87
      10  ?Subroutine88
       4  ?Subroutine9
       2  ?Subroutine90
       8  ?Subroutine91
       8  ?Subroutine92
       6  ?Subroutine93
       6  ?Subroutine94
       6  ?Subroutine95
       6  ?Subroutine96
       6  ?Subroutine97
      10  ?Subroutine98
       6  ?Subroutine99
     274  PEREP
      20  TimerSet
      62  TimerTick
      18  USART_GetChar
      18  USART_Init
      16  USART_SendChar
       1  _A_ACSR
       1  _A_DDRB
       1  _A_DDRC
       1  _A_DDRD
       1  _A_GICR
       2  _A_ICR1
       1  _A_MCUCR
       2  _A_OCR1A
       2  _A_OCR1B
       1  _A_PIND
       1  _A_PORTB
       1  _A_PORTC
       1  _A_PORTD
       1  _A_TCCR1A
       1  _A_TCCR1B
       1  _A_TCNT0
       2  _A_TCNT1
       1  _A_TIFR
       1  _A_TIMSK
       1  _A_UBRRH
       1  _A_UBRRL
       1  _A_UCSRA
       1  _A_UCSRB
       1  _A_UDR
      74  analizCOD
      66  analiz_INT
       1  aoff
       1  big
       1  c1
       1  c2
       1  c3
       2  cod1
       2  cod2
       2  cod3
       2  cod4
       1  cod_ok
     520  coding
       1  ct
     118  diag
     100  dim1
     100  dim2
      24  du_init
      42  du_main
       1  fmode
      46  funINT0_vect
       8  funTIMER1_OVF_vect
       1  get
     214  getadr
      90  gro
       1  gro1
       1  gro2
       1  ind
       1  ini
      92  iniPORTS
       1  intok
     240  k
       1  lastsel
      30  led_all
      16  led_test
     200  len
     262  main
     186  main_logic
      64  migINI
      76  migWORK
       2  minimallen
       1  mode
       1  mode_programming
       1  modegro
       1  mute
     734  normal
       1  on
       1  onok
       1  perepoln
       1  port
       1  pr
      78  programming
      14  pult
       1  pultadr
       1  raz
       1  razct
       1  regaoff
      14  resOUT
      10  resled
       1  rez
     178  rprintfFloat
      32  rprintfStr
       1  sel
       1  sost
      78  source
       1  state
       1  state2
       1  t1
       1  t2
       2  tON
       1  tekfunc
       1  til
       2  timerzad
       7  tm1
       7  tm2
       1  u
       1  usartRxBuf
      10  usart_rxc_my
       1  usarton
      80  writeCOD
       1  zader
      12  -- Other

 
    28 bytes in segment ABSOLUTE
 4 522 bytes in segment CODE
   242 bytes in segment EEPROM_N
    12 bytes in segment INITTAB
     6 bytes in segment INTVEC
   349 bytes in segment NEAR_I
   349 bytes in segment NEAR_ID
   461 bytes in segment NEAR_Z
 
 4 871 bytes of CODE  memory (+ 18 bytes shared)
   810 bytes of DATA  memory (+ 28 bytes shared)
   242 bytes of XDATA memory

Errors: none
Warnings: none
