///////////////////////////////////////////////////////////////////////////////
//
// IAR C/C++ Compiler V6.40.1.741 for Atmel AVR           23/Feb/2017  19:09:24
// Copyright 1996-2014 IAR Systems AB.
//
//    Source file  =  F:\Dulov\RemoteAMP\du.c
//    Command line =  
//        F:\Dulov\RemoteAMP\du.c --cpu=m8 -ms -o
//        F:\Dulov\RemoteAMP\Release\Obj\ -D NDEBUG -lC
//        F:\Dulov\RemoteAMP\Release\List\ -lA F:\Dulov\RemoteAMP\Release\List\
//        --initializers_in_flash --no_clustering -DENABLE_BIT_DEFINITIONS -e
//        --eeprom_size 512 --dlib --dlib_config "C:\Program Files\IAR
//        Systems\Embedded Workbench 6.5\avr\LIB\DLIB\dlAVR-1s-ec_mul-n.h" -Ohz
//        --mfc F:\Dulov\RemoteAMP\main.c F:\Dulov\RemoteAMP\SoftTimers.c
//        F:\Dulov\RemoteAMP\usart.c
//    List file    =  F:\Dulov\RemoteAMP\Release\List\du.s90
//
///////////////////////////////////////////////////////////////////////////////

        NAME du

        RTMODEL "__64bit_doubles", "disabled"
        RTMODEL "__SystemLibrary", "DLib"
        RTMODEL "__cpu", "1"
        RTMODEL "__cpu_name", "ATmega8"
        RTMODEL "__enhanced_core", "enabled"
        RTMODEL "__has_elpm", "false"
        RTMODEL "__memory_model", "2"
        RTMODEL "__rt_version", "3"

        RSEG CSTACK:DATA:NOROOT(0)
        RSEG RSTACK:DATA:NOROOT(0)

        EXTERN ?EPILOGUE_B10_L09
        EXTERN ?EPILOGUE_B12_L09
        EXTERN ?EPILOGUE_B2_L09
        EXTERN ?EPILOGUE_B4_L09
        EXTERN ?EPILOGUE_B8_L09
        EXTERN ?F2SL_L04
        EXTERN ?F_CMP_EQ_L04
        EXTERN ?F_CMP_GE_L04
        EXTERN ?F_CMP_LT_L04
        EXTERN ?F_DIV_L04
        EXTERN ?F_MUL_L04
        EXTERN ?F_SUB_L04
        EXTERN ?L_EC_MUL_L03
        EXTERN ?PROLOGUE10_L09
        EXTERN ?PROLOGUE12_L09
        EXTERN ?PROLOGUE2_L09
        EXTERN ?PROLOGUE4_L09
        EXTERN ?PROLOGUE8_L09
        EXTERN ?Register_R10_is_cg_reg
        EXTERN ?Register_R11_is_cg_reg
        EXTERN ?Register_R4_is_cg_reg
        EXTERN ?Register_R5_is_cg_reg
        EXTERN ?Register_R6_is_cg_reg
        EXTERN ?Register_R7_is_cg_reg
        EXTERN ?Register_R8_is_cg_reg
        EXTERN ?Register_R9_is_cg_reg
        EXTERN ?S_SHL_L02
        EXTERN ?UL2F_L04
        EXTERN ?need_segment_init
        EXTERN __eeget16_16
        EXTERN __eeget8_16
        EXTERN __eeput16_16
        EXTERN __eeput8_16

        PUBWEAK `?<Segment init: NEAR_I>`
        PUBWEAK `?<Segment init: NEAR_Z>`
        PUBWEAK `??TIMER2ovf??INTVEC 8`
        PUBWEAK `??funINT0_vect??INTVEC 2`
        PUBWEAK `??funTIMER1_OVF_vect??INTVEC 16`
        PUBWEAK `??usart_rxc_my??INTVEC 22`
        PUBLIC PEREP
        FUNCTION PEREP,021201H
        ARGFRAME RSTACK, 0, STACK
        LOCFRAME CSTACK, 8, STACK
        LOCFRAME RSTACK, 4, STACK
        PUBLIC TIMER2ovf
        FUNCTION TIMER2ovf,021233H
        ARGFRAME CSTACK, 0, STACK
        LOCFRAME CSTACK, 15, STACK
        LOCFRAME RSTACK, 2, STACK
        PUBLIC TimerSet
        FUNCTION TimerSet,0203H
        ARGFRAME RSTACK, 0, STACK
        LOCFRAME RSTACK, 4, STACK
        PUBLIC TimerTick
        FUNCTION TimerTick,0203H
        ARGFRAME RSTACK, 0, STACK
        LOCFRAME RSTACK, 2, STACK
        PUBLIC USART_GetChar
        FUNCTION USART_GetChar,0203H
        ARGFRAME RSTACK, 0, STACK
        LOCFRAME RSTACK, 2, STACK
        PUBLIC USART_Init
        FUNCTION USART_Init,0201H
        ARGFRAME RSTACK, 0, STACK
        LOCFRAME RSTACK, 2, STACK
        PUBLIC USART_SendChar
        FUNCTION USART_SendChar,0203H
        ARGFRAME RSTACK, 0, STACK
        LOCFRAME RSTACK, 2, STACK
        PUBWEAK _A_ACSR
        PUBWEAK _A_DDRB
        PUBWEAK _A_DDRC
        PUBWEAK _A_DDRD
        PUBWEAK _A_GICR
        PUBWEAK _A_ICR1
        PUBWEAK _A_MCUCR
        PUBWEAK _A_OCR1A
        PUBWEAK _A_OCR1B
        PUBWEAK _A_PIND
        PUBWEAK _A_PORTB
        PUBWEAK _A_PORTC
        PUBWEAK _A_PORTD
        PUBWEAK _A_TCCR1A
        PUBWEAK _A_TCCR1B
        PUBWEAK _A_TCCR2
        PUBWEAK _A_TCNT0
        PUBWEAK _A_TCNT1
        PUBWEAK _A_TCNT2
        PUBWEAK _A_TIFR
        PUBWEAK _A_TIMSK
        PUBWEAK _A_UBRRH
        PUBWEAK _A_UBRRL
        PUBWEAK _A_UCSRA
        PUBWEAK _A_UCSRB
        PUBWEAK _A_UDR
        PUBWEAK __?EEARH
        PUBWEAK __?EEARL
        PUBWEAK __?EECR
        PUBWEAK __?EEDR
        PUBLIC analizCOD
        FUNCTION analizCOD,0203H
        ARGFRAME RSTACK, 0, STACK
        LOCFRAME CSTACK, 2, STACK
        LOCFRAME RSTACK, 4, STACK
        PUBLIC analiz_INT
        FUNCTION analiz_INT,0201H
        ARGFRAME RSTACK, 0, STACK
        LOCFRAME RSTACK, 2, STACK
        PUBLIC aoff
        PUBLIC c1
        PUBLIC c2
        PUBLIC c3
        PUBLIC cod1
        PUBLIC cod2
        PUBLIC cod3
        PUBLIC cod4
        PUBLIC cod_ok
        PUBLIC coding
        FUNCTION coding,021203H
        ARGFRAME RSTACK, 0, STACK
        LOCFRAME CSTACK, 10, STACK
        LOCFRAME RSTACK, 4, STACK
        PUBLIC ct
        PUBLIC diag
        FUNCTION diag,021203H
        ARGFRAME RSTACK, 0, STACK
        LOCFRAME CSTACK, 2, STACK
        LOCFRAME RSTACK, 4, STACK
        PUBLIC dim1
        PUBLIC dim2
        PUBLIC du_init
        FUNCTION du_init,0203H
        ARGFRAME RSTACK, 0, STACK
        LOCFRAME RSTACK, 2, STACK
        PUBLIC fmode
        PUBLIC funINT0_vect
        FUNCTION funINT0_vect,0233H
        ARGFRAME CSTACK, 0, STACK
        LOCFRAME CSTACK, 2, STACK
        LOCFRAME RSTACK, 2, STACK
        PUBLIC funTIMER1_OVF_vect
        FUNCTION funTIMER1_OVF_vect,0233H
        ARGFRAME CSTACK, 0, STACK
        LOCFRAME CSTACK, 2, STACK
        LOCFRAME RSTACK, 2, STACK
        PUBLIC getadr
        FUNCTION getadr,021203H
        ARGFRAME RSTACK, 0, STACK
        LOCFRAME CSTACK, 1, STACK
        LOCFRAME RSTACK, 2, STACK
        PUBLIC gro
        FUNCTION gro,0203H
        ARGFRAME RSTACK, 0, STACK
        LOCFRAME RSTACK, 4, STACK
        PUBLIC ind
        PUBLIC iniPORTS
        FUNCTION iniPORTS,0203H
        ARGFRAME RSTACK, 0, STACK
        LOCFRAME RSTACK, 2, STACK
        PUBLIC k
        PUBLIC led_all
        FUNCTION led_all,0203H
        ARGFRAME RSTACK, 0, STACK
        LOCFRAME RSTACK, 2, STACK
        PUBLIC led_test
        FUNCTION led_test,021201H
        ARGFRAME RSTACK, 0, STACK
        LOCFRAME CSTACK, 1, STACK
        LOCFRAME RSTACK, 2, STACK
        PUBLIC len
        PUBLIC main
        FUNCTION main,021a03H
        ARGFRAME CSTACK, 0, STACK
        LOCFRAME CSTACK, 1, STACK
        LOCFRAME RSTACK, 4, STACK
        PUBLIC main_logic
        FUNCTION main_logic,021203H
        ARGFRAME RSTACK, 0, STACK
        LOCFRAME RSTACK, 4, STACK
        PUBLIC main_power
        FUNCTION main_power,021203H
        ARGFRAME RSTACK, 0, STACK
        LOCFRAME RSTACK, 4, STACK
        PUBLIC migINI
        FUNCTION migINI,021203H
        ARGFRAME RSTACK, 0, STACK
        LOCFRAME RSTACK, 4, STACK
        PUBLIC migWORK
        FUNCTION migWORK,021203H
        ARGFRAME RSTACK, 0, STACK
        LOCFRAME RSTACK, 4, STACK
        PUBLIC minimallen
        PUBLIC modegro
        PUBLIC mute
        FUNCTION mute,0203H
        ARGFRAME RSTACK, 0, STACK
        LOCFRAME RSTACK, 2, STACK
        PUBLIC on
        PUBLIC onok
        PUBLIC pr
        PUBLIC programming
        FUNCTION programming,021203H
        ARGFRAME RSTACK, 0, STACK
        LOCFRAME CSTACK, 1, STACK
        LOCFRAME RSTACK, 2, STACK
        PUBLIC proverka
        FUNCTION proverka,0203H
        ARGFRAME RSTACK, 0, STACK
        LOCFRAME RSTACK, 4, STACK
        PUBLIC pult
        FUNCTION pult,021201H
        ARGFRAME RSTACK, 0, STACK
        LOCFRAME RSTACK, 2, STACK
        PUBLIC pultadr
        PUBLIC remote_main
        FUNCTION remote_main,021201H
        ARGFRAME RSTACK, 0, STACK
        LOCFRAME RSTACK, 2, STACK
        PUBLIC resOUT
        FUNCTION resOUT,0203H
        ARGFRAME RSTACK, 0, STACK
        LOCFRAME RSTACK, 2, STACK
        PUBLIC resled
        FUNCTION resled,0203H
        ARGFRAME RSTACK, 0, STACK
        LOCFRAME RSTACK, 2, STACK
        PUBLIC rprintfFloat
        FUNCTION rprintfFloat,021203H
        ARGFRAME RSTACK, 0, STACK
        LOCFRAME CSTACK, 12, STACK
        LOCFRAME RSTACK, 4, STACK
        PUBLIC rprintfStr
        FUNCTION rprintfStr,021203H
        ARGFRAME RSTACK, 0, STACK
        LOCFRAME CSTACK, 4, STACK
        LOCFRAME RSTACK, 2, STACK
        PUBLIC source
        FUNCTION source,021203H
        ARGFRAME RSTACK, 0, STACK
        LOCFRAME RSTACK, 2, STACK
        PUBLIC tON
        PUBLIC timerzad
        PUBLIC tm1
        PUBLIC tm2
        PUBLIC tm3
        PUBLIC usartRxBuf
        PUBLIC usart_rxc_my
        FUNCTION usart_rxc_my,0233H
        ARGFRAME CSTACK, 0, STACK
        LOCFRAME CSTACK, 2, STACK
        LOCFRAME RSTACK, 2, STACK
        PUBLIC writeCOD
        FUNCTION writeCOD,021203H
        ARGFRAME RSTACK, 0, STACK
        LOCFRAME CSTACK, 1, STACK
        LOCFRAME RSTACK, 4, STACK
        PUBLIC zader
        
          CFI Names cfiNames0
          CFI StackFrame CFA_Y Y DATA
          CFI StackFrame CFA_SP SP DATA
          CFI VirtualResource ?RetPad:1, ?RetHigh:8, ?RetLow:8, ?Ret:17
          CFI Resource R0:8, R1:8, R2:8, R3:8, R4:8, R5:8, R6:8, R7:8, R8:8, R9:8
          CFI Resource R10:8, R11:8, R12:8, R13:8, R14:8, R15:8, R16:8, R17:8
          CFI Resource R18:8, R19:8, R20:8, R21:8, R22:8, R23:8, R24:8, R25:8
          CFI Resource R26:8, R27:8, R28:8, R29:8, R30:8, R31:8
          CFI Resource ?RetHighByteMask:8, SP:16, SPH:8, SPL:8, Y:16
          CFI ResourceParts ?Ret ?RetHigh, ?RetLow, ?RetPad
          CFI ResourceParts SP SPH, SPL
          CFI ResourceParts Y R29, R28
          CFI EndNames cfiNames0
        
          CFI Common cfiCommon0 Using cfiNames0
          CFI CodeAlign 1
          CFI DataAlign 1
          CFI ReturnAddress ?Ret CODE
          CFI CFA_Y Y+0
          CFI CFA_SP SP+2
          CFI ?RetPad 0
          CFI ?RetHigh and(load(1, DATA, sub(CFA_SP, 1)), ?RetHighByteMask)
          CFI ?RetLow Frame(CFA_SP, 0)
          CFI ?Ret Concat
          CFI R0 Undefined
          CFI R1 Undefined
          CFI R2 Undefined
          CFI R3 Undefined
          CFI R4 SameValue
          CFI R5 SameValue
          CFI R6 SameValue
          CFI R7 SameValue
          CFI R8 SameValue
          CFI R9 SameValue
          CFI R10 SameValue
          CFI R11 SameValue
          CFI R12 SameValue
          CFI R13 SameValue
          CFI R14 SameValue
          CFI R15 SameValue
          CFI R16 Undefined
          CFI R17 Undefined
          CFI R18 Undefined
          CFI R19 Undefined
          CFI R20 Undefined
          CFI R21 Undefined
          CFI R22 Undefined
          CFI R23 Undefined
          CFI R24 SameValue
          CFI R25 SameValue
          CFI R26 SameValue
          CFI R27 SameValue
          CFI R28 Undefined
          CFI R29 Undefined
          CFI R30 Undefined
          CFI R31 Undefined
          CFI ?RetHighByteMask SameValue
          CFI SPH Undefined
          CFI SPL Undefined
          CFI EndCommon cfiCommon0
        
        
          CFI Common cfiCommon1 Using cfiNames0
          CFI CodeAlign 1
          CFI DataAlign 1
          CFI ReturnAddress ?Ret CODE
          CFI CFA_Y Y+0
          CFI CFA_SP SP+2
          CFI ?RetPad 0
          CFI ?RetHigh and(load(1, DATA, sub(CFA_SP, 1)), ?RetHighByteMask)
          CFI ?RetLow Frame(CFA_SP, 0)
          CFI ?Ret Concat
          CFI R0 SameValue
          CFI R1 SameValue
          CFI R2 SameValue
          CFI R3 SameValue
          CFI R4 SameValue
          CFI R5 SameValue
          CFI R6 SameValue
          CFI R7 SameValue
          CFI R8 SameValue
          CFI R9 SameValue
          CFI R10 SameValue
          CFI R11 SameValue
          CFI R12 SameValue
          CFI R13 SameValue
          CFI R14 SameValue
          CFI R15 SameValue
          CFI R16 SameValue
          CFI R17 SameValue
          CFI R18 SameValue
          CFI R19 SameValue
          CFI R20 SameValue
          CFI R21 SameValue
          CFI R22 SameValue
          CFI R23 SameValue
          CFI R24 SameValue
          CFI R25 SameValue
          CFI R26 SameValue
          CFI R27 SameValue
          CFI R28 Undefined
          CFI R29 Undefined
          CFI R30 SameValue
          CFI R31 SameValue
          CFI ?RetHighByteMask SameValue
          CFI SPH Undefined
          CFI SPL Undefined
          CFI EndCommon cfiCommon1
        
        
          CFI Common cfiCommon2 Using cfiNames0
          CFI CodeAlign 1
          CFI DataAlign 1
          CFI ReturnAddress ?Ret CODE
          CFI CFA_Y Notused
          CFI CFA_SP SP+2
          CFI ?RetPad 0
          CFI ?RetHigh and(load(1, DATA, sub(CFA_SP, 1)), ?RetHighByteMask)
          CFI ?RetLow Frame(CFA_SP, 0)
          CFI ?Ret Concat
          CFI R0 SameValue
          CFI R1 SameValue
          CFI R2 SameValue
          CFI R3 SameValue
          CFI R4 SameValue
          CFI R5 SameValue
          CFI R6 SameValue
          CFI R7 SameValue
          CFI R8 SameValue
          CFI R9 SameValue
          CFI R10 SameValue
          CFI R11 SameValue
          CFI R12 SameValue
          CFI R13 SameValue
          CFI R14 SameValue
          CFI R15 SameValue
          CFI R16 SameValue
          CFI R17 SameValue
          CFI R18 SameValue
          CFI R19 SameValue
          CFI R20 SameValue
          CFI R21 SameValue
          CFI R22 SameValue
          CFI R23 SameValue
          CFI R24 SameValue
          CFI R25 SameValue
          CFI R26 SameValue
          CFI R27 SameValue
          CFI R28 Undefined
          CFI R29 Undefined
          CFI R30 SameValue
          CFI R31 SameValue
          CFI ?RetHighByteMask SameValue
          CFI SPH Undefined
          CFI SPL Undefined
          CFI Y SameValue
          CFI EndCommon cfiCommon2
        
TIMER2ovf           SYMBOL "TIMER2ovf"
`??TIMER2ovf??INTVEC 8` SYMBOL "??INTVEC 8", TIMER2ovf
funINT0_vect        SYMBOL "funINT0_vect"
`??funINT0_vect??INTVEC 2` SYMBOL "??INTVEC 2", funINT0_vect
funTIMER1_OVF_vect  SYMBOL "funTIMER1_OVF_vect"
`??funTIMER1_OVF_vect??INTVEC 16` SYMBOL "??INTVEC 16", funTIMER1_OVF_vect
usart_rxc_my        SYMBOL "usart_rxc_my"
`??usart_rxc_my??INTVEC 22` SYMBOL "??INTVEC 22", usart_rxc_my

// F:\Dulov\RemoteAMP\du.c
//    1 //***************************************************************************
//    2 //
//    3 //  Author(s)...: dav COBRA 
//    4 //
//    5 //  Target(s)...: ATMega8
//    6 //
//    7 //  Compiler....: 6 40
//    8 //
//    9 //  Description.: Универсальный ДЕКОДЕР ДУ v1.25
//   10 //
//   11 //  Data........: 2014
//   12 //
//   13 //***************************************************************************
//   14 #include <stdbool.h>//поддержка bool
//   15 #include "iom8.h"//<ioavr.h>

        ASEGN ABSOLUTE:DATA:NOROOT,028H
// union <unnamed> volatile __io _A_ACSR
_A_ACSR:
        DS8 1

        ASEGN ABSOLUTE:DATA:NOROOT,029H
// union <unnamed> volatile __io _A_UBRRL
_A_UBRRL:
        DS8 1

        ASEGN ABSOLUTE:DATA:NOROOT,02aH
// union <unnamed> volatile __io _A_UCSRB
_A_UCSRB:
        DS8 1

        ASEGN ABSOLUTE:DATA:NOROOT,02bH
// union <unnamed> volatile __io _A_UCSRA
_A_UCSRA:
        DS8 1

        ASEGN ABSOLUTE:DATA:NOROOT,02cH
// union <unnamed> volatile __io _A_UDR
_A_UDR:
        DS8 1

        ASEGN ABSOLUTE:DATA:NOROOT,030H
// union <unnamed> volatile __io _A_PIND
_A_PIND:
        DS8 1

        ASEGN ABSOLUTE:DATA:NOROOT,031H
// union <unnamed> volatile __io _A_DDRD
_A_DDRD:
        DS8 1

        ASEGN ABSOLUTE:DATA:NOROOT,032H
// union <unnamed> volatile __io _A_PORTD
_A_PORTD:
        DS8 1

        ASEGN ABSOLUTE:DATA:NOROOT,034H
// union <unnamed> volatile __io _A_DDRC
_A_DDRC:
        DS8 1

        ASEGN ABSOLUTE:DATA:NOROOT,035H
// union <unnamed> volatile __io _A_PORTC
_A_PORTC:
        DS8 1

        ASEGN ABSOLUTE:DATA:NOROOT,037H
// union <unnamed> volatile __io _A_DDRB
_A_DDRB:
        DS8 1

        ASEGN ABSOLUTE:DATA:NOROOT,038H
// union <unnamed> volatile __io _A_PORTB
_A_PORTB:
        DS8 1

        ASEGN ABSOLUTE:DATA:NOROOT,040H
// union <unnamed> volatile __io _A_UBRRH
_A_UBRRH:
        DS8 1

        ASEGN ABSOLUTE:DATA:NOROOT,044H
// union <unnamed> volatile __io _A_TCNT2
_A_TCNT2:
        DS8 1

        ASEGN ABSOLUTE:DATA:NOROOT,045H
// union <unnamed> volatile __io _A_TCCR2
_A_TCCR2:
        DS8 1

        ASEGN ABSOLUTE:DATA:NOROOT,046H
// union <unnamed> volatile __io _A_ICR1
_A_ICR1:
        DS8 2

        ASEGN ABSOLUTE:DATA:NOROOT,048H
// union <unnamed> volatile __io _A_OCR1B
_A_OCR1B:
        DS8 2

        ASEGN ABSOLUTE:DATA:NOROOT,04aH
// union <unnamed> volatile __io _A_OCR1A
_A_OCR1A:
        DS8 2

        ASEGN ABSOLUTE:DATA:NOROOT,04cH
// union <unnamed> volatile __io _A_TCNT1
_A_TCNT1:
        DS8 2

        ASEGN ABSOLUTE:DATA:NOROOT,04eH
// union <unnamed> volatile __io _A_TCCR1B
_A_TCCR1B:
        DS8 1

        ASEGN ABSOLUTE:DATA:NOROOT,04fH
// union <unnamed> volatile __io _A_TCCR1A
_A_TCCR1A:
        DS8 1

        ASEGN ABSOLUTE:DATA:NOROOT,052H
// union <unnamed> volatile __io _A_TCNT0
_A_TCNT0:
        DS8 1

        ASEGN ABSOLUTE:DATA:NOROOT,055H
// union <unnamed> volatile __io _A_MCUCR
_A_MCUCR:
        DS8 1

        ASEGN ABSOLUTE:DATA:NOROOT,058H
// union <unnamed> volatile __io _A_TIFR
_A_TIFR:
        DS8 1

        ASEGN ABSOLUTE:DATA:NOROOT,059H
// union <unnamed> volatile __io _A_TIMSK
_A_TIMSK:
        DS8 1

        ASEGN ABSOLUTE:DATA:NOROOT,05bH
// union <unnamed> volatile __io _A_GICR
_A_GICR:
        DS8 1
//   16 #include <inavr.h>
//   17 #include <intrinsics.h> 
//   18 #include "init.h"
//   19 #include "usart.h"
//   20 #include "main.h"
//   21 #include "eeprom.h"

        RSEG EEPROM_N:XDATA:NOROOT(0)
// unsigned int __eeprom k[120]
k:
        DS8 240

        RSEG EEPROM_N:XDATA:NOROOT(0)
// unsigned char __eeprom fmode
fmode:
        DS8 1

        RSEG EEPROM_N:XDATA:NOROOT(0)
// unsigned char __eeprom modegro
modegro:
        DS8 1

        RSEG NEAR_Z:DATA:NOROOT(0)
        REQUIRE `?<Segment init: NEAR_Z>`
// unsigned int cod1
cod1:
        DS8 2

        RSEG NEAR_Z:DATA:NOROOT(0)
        REQUIRE `?<Segment init: NEAR_Z>`
// unsigned int cod2
cod2:
        DS8 2

        RSEG NEAR_Z:DATA:NOROOT(0)
        REQUIRE `?<Segment init: NEAR_Z>`
// unsigned int cod3
cod3:
        DS8 2

        RSEG NEAR_Z:DATA:NOROOT(0)
        REQUIRE `?<Segment init: NEAR_Z>`
// unsigned int cod4
cod4:
        DS8 2
//   22 #include "du.h"
//   23 

        RSEG NEAR_Z:DATA:NOROOT(0)
        REQUIRE `?<Segment init: NEAR_Z>`
//   24   static uchar  perepoln=0;//кол-во переполнений счетчика
??perepoln:
        DS8 1

        RSEG NEAR_Z:DATA:NOROOT(0)
        REQUIRE `?<Segment init: NEAR_Z>`
//   25   static uchar t1=0,t2=0;
??t1:
        DS8 1

        RSEG NEAR_Z:DATA:NOROOT(0)
        REQUIRE `?<Segment init: NEAR_Z>`
??t2:
        DS8 1

        RSEG NEAR_Z:DATA:NOROOT(0)
        REQUIRE `?<Segment init: NEAR_Z>`
//   26   static bool ini; 
??ini:
        DS8 1

        RSEG NEAR_Z:DATA:NOROOT(0)
        REQUIRE `?<Segment init: NEAR_Z>`
//   27   uint dim1[MAX],dim2[MAX];
dim1:
        DS8 100

        RSEG NEAR_Z:DATA:NOROOT(0)
        REQUIRE `?<Segment init: NEAR_Z>`
dim2:
        DS8 100

        RSEG NEAR_Z:DATA:NOROOT(0)
        REQUIRE `?<Segment init: NEAR_Z>`
//   28   char ct=0;
ct:
        DS8 1

        RSEG NEAR_Z:DATA:NOROOT(0)
        REQUIRE `?<Segment init: NEAR_Z>`
//   29   uint minimallen;    
minimallen:
        DS8 2

        RSEG NEAR_Z:DATA:NOROOT(0)
        REQUIRE `?<Segment init: NEAR_Z>`
//   30   float len[MAX];
len:
        DS8 200

        RSEG NEAR_Z:DATA:NOROOT(0)
        REQUIRE `?<Segment init: NEAR_Z>`
//   31   static bool intok,big;
??intok:
        DS8 1

        RSEG NEAR_Z:DATA:NOROOT(0)
        REQUIRE `?<Segment init: NEAR_Z>`
??big:
        DS8 1
//   32  

        RSEG NEAR_Z:DATA:NOROOT(0)
        REQUIRE `?<Segment init: NEAR_Z>`
//   33   bool cod_ok=0;
cod_ok:
        DS8 1

        RSEG NEAR_Z:DATA:NOROOT(0)
        REQUIRE `?<Segment init: NEAR_Z>`
//   34   uchar c1,c2,c3;
c1:
        DS8 1

        RSEG NEAR_Z:DATA:NOROOT(0)
        REQUIRE `?<Segment init: NEAR_Z>`
c2:
        DS8 1

        RSEG NEAR_Z:DATA:NOROOT(0)
        REQUIRE `?<Segment init: NEAR_Z>`
c3:
        DS8 1

        RSEG NEAR_I:DATA:NOROOT(0)
        REQUIRE `?<Segment init: NEAR_I>`
`?<Constant " error ct big =">`:
        DS8 16
        REQUIRE `?<Initializer for <Constant " error ct big =">`

        RSEG NEAR_I:DATA:NOROOT(0)
        REQUIRE `?<Segment init: NEAR_I>`
`?<Constant "  /   cod1= ">`:
        DS8 13
        REQUIRE `?<Initializer for <Constant "  /   cod1= ">>`

        RSEG NEAR_I:DATA:NOROOT(0)
        REQUIRE `?<Segment init: NEAR_I>`
`?<Constant "/   cod2= ">`:
        DS8 11
        REQUIRE `?<Initializer for <Constant "/   cod2= ">>`

        RSEG NEAR_I:DATA:NOROOT(0)
        REQUIRE `?<Segment init: NEAR_I>`
`?<Constant "/   cod3= ">`:
        DS8 11
        REQUIRE `?<Initializer for <Constant "/   cod3= ">>`

        RSEG NEAR_I:DATA:NOROOT(0)
        REQUIRE `?<Segment init: NEAR_I>`
`?<Constant "  / abslen= ">`:
        DS8 13
        REQUIRE `?<Initializer for <Constant "  / abslen= ">>`

        RSEG NEAR_I:DATA:NOROOT(0)
        REQUIRE `?<Segment init: NEAR_I>`
`?<Constant "  / len= ">`:
        DS8 10
        REQUIRE `?<Initializer for <Constant "  / len= ">>`

        RSEG NEAR_I:DATA:NOROOT(0)
        REQUIRE `?<Segment init: NEAR_I>`
`?<Constant "  ">`:
        DS8 3
        REQUIRE `?<Initializer for <Constant "  ">>`

        RSEG NEAR_I:DATA:NOROOT(0)
        REQUIRE `?<Segment init: NEAR_I>`
`?<Constant "  / cod1= ">`:
        DS8 11
        REQUIRE `?<Initializer for <Constant "  / cod1= ">>`

        RSEG NEAR_I:DATA:NOROOT(0)
        REQUIRE `?<Segment init: NEAR_I>`
`?<Constant " / cod2= ">`:
        DS8 10
        REQUIRE `?<Initializer for <Constant " / cod2= ">>`

        RSEG NEAR_I:DATA:NOROOT(0)
        REQUIRE `?<Segment init: NEAR_I>`
`?<Constant " / cod3= ">`:
        DS8 10
        REQUIRE `?<Initializer for <Constant " / cod3= ">>`

        RSEG NEAR_I:DATA:NOROOT(0)
        REQUIRE `?<Segment init: NEAR_I>`
`?<Constant "/ minlen=">`:
        DS8 10
        REQUIRE `?<Initializer for <Constant "/ minlen=">>`

        RSEG NEAR_I:DATA:NOROOT(0)
        REQUIRE `?<Segment init: NEAR_I>`
`?<Constant "OFF>adr=">`:
        DS8 9
        REQUIRE `?<Initializer for <Constant "OFF>adr=">>`

        RSEG NEAR_I:DATA:NOROOT(0)
        REQUIRE `?<Segment init: NEAR_I>`
`?<Constant "ON>adr=">`:
        DS8 8
        REQUIRE `?<Initializer for <Constant "ON>adr=">>`

        RSEG NEAR_I:DATA:NOROOT(0)
        REQUIRE `?<Segment init: NEAR_I>`
`?<Constant "normal>command find  ...">`:
        DS8 26
        REQUIRE `?<Initializer for <Constant "normal>command fi`

        RSEG NEAR_I:DATA:NOROOT(0)
        REQUIRE `?<Segment init: NEAR_I>`
`?<Constant "write ..">`:
        DS8 9
        REQUIRE `?<Initializer for <Constant "write ..">>`

        RSEG NEAR_I:DATA:NOROOT(0)
        REQUIRE `?<Segment init: NEAR_I>`
`?<Constant "OK !   ">`:
        DS8 8
        REQUIRE `?<Initializer for <Constant "OK !   ">>`

        RSEG NEAR_I:DATA:NOROOT(0)
        REQUIRE `?<Segment init: NEAR_I>`
`?<Constant "- vkluchen kratkiy vi...">`:
        DS8 28
        REQUIRE `?<Initializer for <Constant "- vkluchen kratki`

        RSEG NEAR_I:DATA:NOROOT(0)
        REQUIRE `?<Segment init: NEAR_I>`
`?<Constant " ==  EEPROM read == ">`:
        DS8 21
        REQUIRE `?<Initializer for <Constant " ==  EEPROM read `

        RSEG NEAR_I:DATA:NOROOT(0)
        REQUIRE `?<Segment init: NEAR_I>`
`?<Constant " > ">`:
        DS8 4
        REQUIRE `?<Initializer for <Constant " > ">>`

        RSEG NEAR_I:DATA:NOROOT(0)
        REQUIRE `?<Segment init: NEAR_I>`
`?<Constant " get: ">`:
        DS8 7
        REQUIRE `?<Initializer for <Constant " get: ">>`

        RSEG NEAR_I:DATA:NOROOT(0)
        REQUIRE `?<Segment init: NEAR_I>`
`?<Constant "  regim  no source5 >">`:
        DS8 22
        REQUIRE `?<Initializer for <Constant "  regim  no sourc`

        RSEG NEAR_I:DATA:NOROOT(0)
        REQUIRE `?<Segment init: NEAR_I>`
`?<Constant "  regim  PROGRAMMING ...">`:
        DS8 33
        REQUIRE `?<Initializer for <Constant "  regim  PROGRAMM`

        RSEG NEAR_I:DATA:NOROOT(0)
        REQUIRE `?<Segment init: NEAR_I>`
`?<Constant "  regim  normal  READY >">`:
        DS8 25
        REQUIRE `?<Initializer for <Constant "  regim  normal  `

        RSEG NEAR_I:DATA:NOROOT(0)
        REQUIRE `?<Segment init: NEAR_I>`
//   35   char ind=1;
ind:
        DS8 1
        REQUIRE `?<Initializer for ind>`
//   36 
//   37  //*****************************************************************
//   38  // init
//   39  //*****************************************************************

        RSEG CODE:CODE:NOROOT(1)
//   40    void du_init(void)
du_init:
          CFI Block cfiBlock0 Using cfiCommon0
          CFI Function du_init
//   41    {
//   42      ini=1;  intok=0;
        LDI     R16, 1
        STS     ??ini, R16
        LDI     R16, 0
        STS     ??intok, R16
//   43      //TCCR1B = (0<<CS02)|(1<<CS01)|(1<<CS00); //пуск таймера
//   44      TCCR1B = (0<<CS02)|(0<<CS01)|(1<<CS00); //пуск таймера
        LDI     R16, 1
        OUT     0x2E, R16
//   45      ct=0;
        LDI     R16, 0
        STS     ct, R16
//   46    }
        RET
          CFI EndBlock cfiBlock0
        REQUIRE _A_TCCR1B
//   47  //*****************************************************************
//   48  //  INT
//   49  //*****************************************************************
//   50 //прерывание при изменении сигнала на ноге
//   51 #pragma vector = INT0_vect

        RSEG CODE:CODE:NOROOT(1)
//   52 __interrupt void funINT0_vect(void)
funINT0_vect:
          CFI Block cfiBlock1 Using cfiCommon1
          CFI Function funINT0_vect
//   53 {
        ST      -Y, R17
          CFI R17 Frame(CFA_Y, -1)
          CFI CFA_Y Y+1
        ST      -Y, R16
          CFI R16 Frame(CFA_Y, -2)
          CFI CFA_Y Y+2
        IN      R17, 0x3F
//   54   intok=1; 
        LDI     R16, 1
        STS     ??intok, R16
//   55   //if (readint!=0){  last=TCNT1L;   readint=0; }
//   56   t1 = TCNT1L;  t2 = TCNT1H; 
        IN      R16, 0x2C
        STS     ??t1, R16
        IN      R16, 0x2D
        STS     ??t2, R16
//   57   if (t1!=0) { TCNT1H=0;TCNT1L=0;}
        LDS     R16, ??t1
        TST     R16
        BREQ    ??funINT0_vect_0
        LDI     R16, 0
        OUT     0x2D, R16
        OUT     0x2C, R16
//   58      
//   59 }
??funINT0_vect_0:
        OUT     0x3F, R17
        LD      R16, Y+
          CFI R16 SameValue
          CFI CFA_Y Y+1
        LD      R17, Y+
          CFI R17 SameValue
          CFI CFA_Y Y+0
        RETI
          CFI EndBlock cfiBlock1
        REQUIRE _A_TCNT1
//   60 //*****************************************************************
//   61 //  Анализ прерывания
//   62 //*****************************************************************

        RSEG CODE:CODE:NOROOT(1)
//   63 void analiz_INT()
analiz_INT:
          CFI Block cfiBlock2 Using cfiCommon0
          CFI Function analiz_INT
//   64 {
//   65   // static bool state;
//   66       // if (state==1) {RES(PORTB,5); state=0; }   else {SET(PORTB,5); state=1;}
//   67 
//   68         dim1[ct]=t1;  dim2[ct]=t2; ct++;
        RCALL   ?Subroutine24
??CrossCallReturnLabel_38:
        LDI     R17, 2
        MUL     R16, R17
        LDS     R16, ??t1
        LDI     R17, 0
        RCALL   ?Subroutine93
??CrossCallReturnLabel_148:
        RCALL   ??Subroutine143_0
??CrossCallReturnLabel_332:
        LDS     R16, ??t2
        RCALL   ?Subroutine94
??CrossCallReturnLabel_151:
        RCALL   ??Subroutine143_0
??CrossCallReturnLabel_333:
        LDI     R30, LOW(ct)
        LDI     R31, (ct) >> 8
        RCALL   ?Subroutine98
//   69         if (ct>=MAX-1) ct--;  //слишком длинная посылка переписываем каждый раз последний
??CrossCallReturnLabel_327:
        CPI     R16, 49
        BRCS    ??analiz_INT_0
        DEC     R16
        ST      Z, R16
//   70         intok=0;
??analiz_INT_0:
        STS     ??intok, R17
//   71 
//   72 
//   73 }
        RET
          CFI EndBlock cfiBlock2
//   74 //*****************************************************************
//   75 //  Конец кода на приемнике
//   76 //*****************************************************************

        RSEG CODE:CODE:NOROOT(1)
//   77 void PEREP()
PEREP:
          CFI Block cfiBlock3 Using cfiCommon0
          CFI Function PEREP
//   78 {
        FUNCALL PEREP, rprintfStr
        LOCFRAME CSTACK, 8, STACK
        LOCFRAME RSTACK, 2, STACK
        ARGFRAME RSTACK, 0, STACK
        FUNCALL PEREP, rprintfFloat
        LOCFRAME CSTACK, 8, STACK
        LOCFRAME RSTACK, 2, STACK
        ARGFRAME RSTACK, 0, STACK
        FUNCALL PEREP, coding
        LOCFRAME CSTACK, 8, STACK
        LOCFRAME RSTACK, 2, STACK
        ARGFRAME RSTACK, 0, STACK
        FUNCALL PEREP, rprintfStr
        LOCFRAME CSTACK, 8, STACK
        LOCFRAME RSTACK, 2, STACK
        ARGFRAME RSTACK, 0, STACK
        FUNCALL PEREP, rprintfFloat
        LOCFRAME CSTACK, 8, STACK
        LOCFRAME RSTACK, 2, STACK
        ARGFRAME RSTACK, 0, STACK
        FUNCALL PEREP, rprintfStr
        LOCFRAME CSTACK, 8, STACK
        LOCFRAME RSTACK, 2, STACK
        ARGFRAME RSTACK, 0, STACK
        FUNCALL PEREP, rprintfFloat
        LOCFRAME CSTACK, 8, STACK
        LOCFRAME RSTACK, 2, STACK
        ARGFRAME RSTACK, 0, STACK
        FUNCALL PEREP, rprintfStr
        LOCFRAME CSTACK, 8, STACK
        LOCFRAME RSTACK, 2, STACK
        ARGFRAME RSTACK, 0, STACK
        FUNCALL PEREP, rprintfFloat
        LOCFRAME CSTACK, 8, STACK
        LOCFRAME RSTACK, 2, STACK
        ARGFRAME RSTACK, 0, STACK
        FUNCALL PEREP, USART_SendChar
        LOCFRAME CSTACK, 8, STACK
        LOCFRAME RSTACK, 2, STACK
        ARGFRAME RSTACK, 0, STACK
        RCALL   ?PROLOGUE8_L09
          CFI R7 Frame(CFA_Y, -1)
          CFI R6 Frame(CFA_Y, -2)
          CFI R5 Frame(CFA_Y, -3)
          CFI R4 Frame(CFA_Y, -4)
          CFI R27 Frame(CFA_Y, -5)
          CFI R26 Frame(CFA_Y, -6)
          CFI R25 Frame(CFA_Y, -7)
          CFI R24 Frame(CFA_Y, -8)
          CFI CFA_Y Y+8
        REQUIRE ?Register_R4_is_cg_reg
        REQUIRE ?Register_R5_is_cg_reg
        REQUIRE ?Register_R6_is_cg_reg
        REQUIRE ?Register_R7_is_cg_reg
//   79  static bool state2;
//   80  uchar i;
//   81  
//   82   //if (state2==1) {RES(PORTB,2); state2=0; }   else {SET(PORTB,2); state2=1;}
//   83        
//   84       cod1=0;cod2=0;cod3=0; 
        RCALL   ?Subroutine12
//   85       c1=0; c2=0; c3=0;  //sst=0;
??CrossCallReturnLabel_23:
        STS     c1, R16
        STS     c2, R16
        STS     c3, R16
//   86       minimallen=65535;   
        LDI     R16, 255
        RCALL   ?Subroutine96
??CrossCallReturnLabel_161:
        RCALL   ?Subroutine95
//   87      
//   88       if (ct>(MAX-1)) {  rprintfStr(" error ct big ="); rprintfFloat(6,  ct); }
??CrossCallReturnLabel_154:
        RCALL   ?Subroutine24
??CrossCallReturnLabel_39:
        CPI     R16, 50
        BRCS    ??CrossCallReturnLabel_302
        LDI     R16, LOW(`?<Constant " error ct big =">`)
        LDI     R17, (`?<Constant " error ct big =">`) >> 8
        RCALL   rprintfStr
        RCALL   ?Subroutine24
??CrossCallReturnLabel_40:
        RCALL   ?Subroutine23
//   89                 
//   90       if ((ct>5 && big==0)|| big==1) 
??CrossCallReturnLabel_302:
        RCALL   ?Subroutine24
??CrossCallReturnLabel_41:
        CPI     R16, 6
        BRCS    ??PEREP_0
        LDS     R16, ??big
        TST     R16
        BREQ    ??PEREP_1
??PEREP_0:
        LDS     R16, ??big
        TST     R16
        BREQ    ??PEREP_2
//   91       {//от 5 посылок анализируем остальное шум
//   92         
//   93           for (i=1; i<ct; i++) //ищем миимальную длину
??PEREP_1:
        LDI     R24, 1
        RJMP    ??PEREP_3
//   94           {  
//   95                 len[i]=( dim1[i]+ (256*dim2[i])  );           
??PEREP_4:
        RCALL   ?Subroutine26
??CrossCallReturnLabel_44:
        LDI     R16, 4
        MUL     R24, R16
        RCALL   ??Subroutine138_0
??CrossCallReturnLabel_294:
        ST      Z, R4
        STD     Z+1, R17
        STD     Z+2, R18
        STD     Z+3, R19
//   96                 if (len[i]>900  && len[i]<(float)minimallen)  minimallen=(uint)len[i];
        LDI     R20, 1
        LDI     R21, 0
        LDI     R22, 97
        LDI     R23, 68
        MOV     R16, R4
        RCALL   ?F_CMP_GE_L04
        BRCC    ??CrossCallReturnLabel_334
        RCALL   ?Subroutine34
??CrossCallReturnLabel_185:
        RCALL   ?F_CMP_LT_L04
        BRCC    ??CrossCallReturnLabel_334
        RCALL   ?F2SL_L04
        RCALL   ?Subroutine96
//   97           }
??CrossCallReturnLabel_162:
        RCALL   ??Subroutine143_0
??CrossCallReturnLabel_334:
        INC     R24
??PEREP_3:
        RCALL   ?Subroutine24
??CrossCallReturnLabel_42:
        CP      R24, R16
        BRCS    ??PEREP_4
//   98      
//   99            for (i=1; i<ct; i++) 
        LDI     R24, 1
        RJMP    ??PEREP_5
//  100            { //for 
//  101              uint tr;
//  102              tr=( dim1[i]+ (256*dim2[i]));
//  103              len[i]=(float)tr/minimallen;       
??PEREP_6:
        RCALL   ?Subroutine26
??CrossCallReturnLabel_45:
        RCALL   ?Subroutine34
??CrossCallReturnLabel_186:
        RCALL   ?F_DIV_L04
        LDI     R20, 4
        RCALL   ?Subroutine30
??CrossCallReturnLabel_295:
        RCALL   ??Subroutine143_0
??CrossCallReturnLabel_335:
        STD     Z+2, R18
        STD     Z+3, R19
//  104              if (len[i]!=0)   coding(i, pr);
        RCALL   ?Subroutine52
??CrossCallReturnLabel_384:
        RCALL   ?F_CMP_EQ_L04
        BREQ    ??PEREP_7
        LDS     R18, pr
        MOV     R16, R24
        LDI     R17, 0
        RCALL   coding
//  105            }//for
??PEREP_7:
        INC     R24
??PEREP_5:
        RCALL   ?Subroutine24
//  106       }//от 5 посылок анализируем 
??CrossCallReturnLabel_43:
        CP      R24, R16
        BRCS    ??PEREP_6
//  107       
//  108       //очистка
//  109        for (i=0; i<MAX; i++) {dim1[i]=0;dim2[i]=0;len[i]=0;}
??PEREP_2:
        LDI     R24, 0
        LDI     R20, 4
??PEREP_8:
        RCALL   ?Subroutine99
??CrossCallReturnLabel_165:
        LDI     R16, 0
        RCALL   ?Subroutine93
??CrossCallReturnLabel_149:
        RCALL   ?Subroutine95
??CrossCallReturnLabel_155:
        RCALL   ?Subroutine94
??CrossCallReturnLabel_152:
        RCALL   ?Subroutine95
??CrossCallReturnLabel_156:
        RCALL   ?Subroutine30
??CrossCallReturnLabel_296:
        RCALL   ?Subroutine95
??CrossCallReturnLabel_157:
        STD     Z+2, R16
        STD     Z+3, R16
        INC     R24
        CPI     R24, 50
        BRCS    ??PEREP_8
//  110        perepoln=0;  t1=0; t2=0; ct=0; big=0;     
        STS     ??perepoln, R16
        STS     ??t1, R16
        STS     ??t2, R16
        STS     ct, R16
        STS     ??big, R16
//  111        
//  112     if (pr==1 && cod_ok!=0)     
        LDS     R16, pr
        CPI     R16, 1
        BRNE    ??CrossCallReturnLabel_251
        LDS     R16, cod_ok
        TST     R16
        BREQ    ??CrossCallReturnLabel_251
//  113      {//diag
//  114               rprintfStr("  /   cod1= ");
        LDI     R16, LOW(`?<Constant "  /   cod1= ">`)
        LDI     R17, (`?<Constant "  /   cod1= ">`) >> 8
        RCALL   ?Subroutine32
//  115               rprintfFloat(6,  cod1);
//  116               rprintfStr("/   cod2= ");
??CrossCallReturnLabel_308:
        LDI     R16, LOW(`?<Constant "/   cod2= ">`)
        LDI     R17, (`?<Constant "/   cod2= ">`) >> 8
        RCALL   ?Subroutine44
//  117               rprintfFloat(6,  cod2);
??CrossCallReturnLabel_372:
        RCALL   ??Subroutine140_0
//  118               rprintfStr("/   cod3= ");
??CrossCallReturnLabel_306:
        LDI     R16, LOW(`?<Constant "/   cod3= ">`)
        LDI     R17, (`?<Constant "/   cod3= ">`) >> 8
        RCALL   ?Subroutine46
//  119               rprintfFloat(6,  cod3);
??CrossCallReturnLabel_365:
        RCALL   ??Subroutine140_0
//  120               ent;
??CrossCallReturnLabel_305:
        RCALL   ?Subroutine123
//  121                                 
//  122      }//diag
//  123  
//  124 }
??CrossCallReturnLabel_251:
        LDI     R30, 8
        RJMP    ?EPILOGUE_B8_L09
          CFI EndBlock cfiBlock3

        RSEG CODE:CODE:NOROOT(1)
?Subroutine94:
          CFI Block cfiCond4 Using cfiCommon0
          CFI Function analiz_INT
          CFI Conditional ??CrossCallReturnLabel_151
          CFI CFA_SP SP+4
          CFI Block cfiCond5 Using cfiCommon0
          CFI (cfiCond5) Function PEREP
          CFI (cfiCond5) Conditional ??CrossCallReturnLabel_152
          CFI (cfiCond5) R24 Frame(CFA_Y, -8)
          CFI (cfiCond5) R25 Frame(CFA_Y, -7)
          CFI (cfiCond5) R26 Frame(CFA_Y, -6)
          CFI (cfiCond5) R27 Frame(CFA_Y, -5)
          CFI (cfiCond5) R4 Frame(CFA_Y, -4)
          CFI (cfiCond5) R5 Frame(CFA_Y, -3)
          CFI (cfiCond5) R6 Frame(CFA_Y, -2)
          CFI (cfiCond5) R7 Frame(CFA_Y, -1)
          CFI (cfiCond5) CFA_SP SP+4
          CFI (cfiCond5) CFA_Y Y+8
          CFI Block cfiCond6 Using cfiCommon0
          CFI (cfiCond6) Function PEREP
          CFI (cfiCond6) Conditional ??CrossCallReturnLabel_153, ??CrossCallReturnLabel_44
          CFI (cfiCond6) R24 Frame(CFA_Y, -8)
          CFI (cfiCond6) R25 Frame(CFA_Y, -7)
          CFI (cfiCond6) R26 Frame(CFA_Y, -6)
          CFI (cfiCond6) R27 Frame(CFA_Y, -5)
          CFI (cfiCond6) R4 Frame(CFA_Y, -4)
          CFI (cfiCond6) R5 Frame(CFA_Y, -3)
          CFI (cfiCond6) R6 Frame(CFA_Y, -2)
          CFI (cfiCond6) R7 Frame(CFA_Y, -1)
          CFI (cfiCond6) CFA_SP SP+6
          CFI (cfiCond6) CFA_Y Y+8
          CFI Block cfiCond7 Using cfiCommon0
          CFI (cfiCond7) Function PEREP
          CFI (cfiCond7) Conditional ??CrossCallReturnLabel_153, ??CrossCallReturnLabel_45
          CFI (cfiCond7) R24 Frame(CFA_Y, -8)
          CFI (cfiCond7) R25 Frame(CFA_Y, -7)
          CFI (cfiCond7) R26 Frame(CFA_Y, -6)
          CFI (cfiCond7) R27 Frame(CFA_Y, -5)
          CFI (cfiCond7) R4 Frame(CFA_Y, -4)
          CFI (cfiCond7) R5 Frame(CFA_Y, -3)
          CFI (cfiCond7) R6 Frame(CFA_Y, -2)
          CFI (cfiCond7) R7 Frame(CFA_Y, -1)
          CFI (cfiCond7) CFA_SP SP+6
          CFI (cfiCond7) CFA_Y Y+8
          CFI Block cfiPicker8 Using cfiCommon2
          CFI (cfiPicker8) NoFunction
          CFI (cfiPicker8) Picker
        MOVW    R31:R30, R1:R0
        SUBI    R30, LOW((-(dim2) & 0xFFFF))
        SBCI    R31, (-(dim2) & 0xFFFF) >> 8
        RET
          CFI EndBlock cfiCond4
          CFI EndBlock cfiCond5
          CFI EndBlock cfiCond6
          CFI EndBlock cfiCond7
          CFI EndBlock cfiPicker8

        RSEG CODE:CODE:NOROOT(1)
?Subroutine93:
          CFI Block cfiCond9 Using cfiCommon0
          CFI Function analiz_INT
          CFI Conditional ??CrossCallReturnLabel_148
          CFI CFA_SP SP+4
          CFI Block cfiCond10 Using cfiCommon0
          CFI (cfiCond10) Function PEREP
          CFI (cfiCond10) Conditional ??CrossCallReturnLabel_149
          CFI (cfiCond10) R24 Frame(CFA_Y, -8)
          CFI (cfiCond10) R25 Frame(CFA_Y, -7)
          CFI (cfiCond10) R26 Frame(CFA_Y, -6)
          CFI (cfiCond10) R27 Frame(CFA_Y, -5)
          CFI (cfiCond10) R4 Frame(CFA_Y, -4)
          CFI (cfiCond10) R5 Frame(CFA_Y, -3)
          CFI (cfiCond10) R6 Frame(CFA_Y, -2)
          CFI (cfiCond10) R7 Frame(CFA_Y, -1)
          CFI (cfiCond10) CFA_SP SP+4
          CFI (cfiCond10) CFA_Y Y+8
          CFI Block cfiCond11 Using cfiCommon0
          CFI (cfiCond11) Function PEREP
          CFI (cfiCond11) Conditional ??CrossCallReturnLabel_150, ??CrossCallReturnLabel_44
          CFI (cfiCond11) R24 Frame(CFA_Y, -8)
          CFI (cfiCond11) R25 Frame(CFA_Y, -7)
          CFI (cfiCond11) R26 Frame(CFA_Y, -6)
          CFI (cfiCond11) R27 Frame(CFA_Y, -5)
          CFI (cfiCond11) R4 Frame(CFA_Y, -4)
          CFI (cfiCond11) R5 Frame(CFA_Y, -3)
          CFI (cfiCond11) R6 Frame(CFA_Y, -2)
          CFI (cfiCond11) R7 Frame(CFA_Y, -1)
          CFI (cfiCond11) CFA_SP SP+6
          CFI (cfiCond11) CFA_Y Y+8
          CFI Block cfiCond12 Using cfiCommon0
          CFI (cfiCond12) Function PEREP
          CFI (cfiCond12) Conditional ??CrossCallReturnLabel_150, ??CrossCallReturnLabel_45
          CFI (cfiCond12) R24 Frame(CFA_Y, -8)
          CFI (cfiCond12) R25 Frame(CFA_Y, -7)
          CFI (cfiCond12) R26 Frame(CFA_Y, -6)
          CFI (cfiCond12) R27 Frame(CFA_Y, -5)
          CFI (cfiCond12) R4 Frame(CFA_Y, -4)
          CFI (cfiCond12) R5 Frame(CFA_Y, -3)
          CFI (cfiCond12) R6 Frame(CFA_Y, -2)
          CFI (cfiCond12) R7 Frame(CFA_Y, -1)
          CFI (cfiCond12) CFA_SP SP+6
          CFI (cfiCond12) CFA_Y Y+8
          CFI Block cfiPicker13 Using cfiCommon2
          CFI (cfiPicker13) NoFunction
          CFI (cfiPicker13) Picker
        MOVW    R31:R30, R1:R0
        SUBI    R30, LOW((-(dim1) & 0xFFFF))
        SBCI    R31, (-(dim1) & 0xFFFF) >> 8
        RET
          CFI EndBlock cfiCond9
          CFI EndBlock cfiCond10
          CFI EndBlock cfiCond11
          CFI EndBlock cfiCond12
          CFI EndBlock cfiPicker13

        RSEG CODE:CODE:NOROOT(1)
?Subroutine34:
          CFI Block cfiCond14 Using cfiCommon0
          CFI Function PEREP
          CFI Conditional ??CrossCallReturnLabel_185
          CFI R24 Frame(CFA_Y, -8)
          CFI R25 Frame(CFA_Y, -7)
          CFI R26 Frame(CFA_Y, -6)
          CFI R27 Frame(CFA_Y, -5)
          CFI R4 Frame(CFA_Y, -4)
          CFI R5 Frame(CFA_Y, -3)
          CFI R6 Frame(CFA_Y, -2)
          CFI R7 Frame(CFA_Y, -1)
          CFI CFA_SP SP+4
          CFI CFA_Y Y+8
          CFI Block cfiCond15 Using cfiCommon0
          CFI (cfiCond15) Function PEREP
          CFI (cfiCond15) Conditional ??CrossCallReturnLabel_186
          CFI (cfiCond15) R24 Frame(CFA_Y, -8)
          CFI (cfiCond15) R25 Frame(CFA_Y, -7)
          CFI (cfiCond15) R26 Frame(CFA_Y, -6)
          CFI (cfiCond15) R27 Frame(CFA_Y, -5)
          CFI (cfiCond15) R4 Frame(CFA_Y, -4)
          CFI (cfiCond15) R5 Frame(CFA_Y, -3)
          CFI (cfiCond15) R6 Frame(CFA_Y, -2)
          CFI (cfiCond15) R7 Frame(CFA_Y, -1)
          CFI (cfiCond15) CFA_SP SP+4
          CFI (cfiCond15) CFA_Y Y+8
          CFI Block cfiPicker16 Using cfiCommon2
          CFI (cfiPicker16) NoFunction
          CFI (cfiPicker16) Picker
        RCALL   ?Subroutine96
??CrossCallReturnLabel_164:
        RCALL   ?Subroutine97
          CFI EndBlock cfiCond14
          CFI EndBlock cfiCond15
          CFI EndBlock cfiPicker16
??CrossCallReturnLabel_312:
        REQUIRE ?Subroutine102
        ;               // Fall through to label ?Subroutine102

        RSEG CODE:CODE:NOROOT(1)
?Subroutine102:
          CFI Block cfiCond17 Using cfiCommon0
          CFI Function PEREP
          CFI Conditional ??CrossCallReturnLabel_185
          CFI R24 Frame(CFA_Y, -8)
          CFI R25 Frame(CFA_Y, -7)
          CFI R26 Frame(CFA_Y, -6)
          CFI R27 Frame(CFA_Y, -5)
          CFI R4 Frame(CFA_Y, -4)
          CFI R5 Frame(CFA_Y, -3)
          CFI R6 Frame(CFA_Y, -2)
          CFI R7 Frame(CFA_Y, -1)
          CFI CFA_SP SP+4
          CFI CFA_Y Y+8
          CFI Block cfiCond18 Using cfiCommon0
          CFI (cfiCond18) Function PEREP
          CFI (cfiCond18) Conditional ??CrossCallReturnLabel_186
          CFI (cfiCond18) R24 Frame(CFA_Y, -8)
          CFI (cfiCond18) R25 Frame(CFA_Y, -7)
          CFI (cfiCond18) R26 Frame(CFA_Y, -6)
          CFI (cfiCond18) R27 Frame(CFA_Y, -5)
          CFI (cfiCond18) R4 Frame(CFA_Y, -4)
          CFI (cfiCond18) R5 Frame(CFA_Y, -3)
          CFI (cfiCond18) R6 Frame(CFA_Y, -2)
          CFI (cfiCond18) R7 Frame(CFA_Y, -1)
          CFI (cfiCond18) CFA_SP SP+4
          CFI (cfiCond18) CFA_Y Y+8
          CFI Block cfiCond19 Using cfiCommon0
          CFI (cfiCond19) Function rprintfFloat
          CFI (cfiCond19) Conditional ??CrossCallReturnLabel_183
          CFI (cfiCond19) R24 Frame(CFA_Y, -12)
          CFI (cfiCond19) R25 Frame(CFA_Y, -11)
          CFI (cfiCond19) R26 Frame(CFA_Y, -10)
          CFI (cfiCond19) R27 Frame(CFA_Y, -9)
          CFI (cfiCond19) R4 Frame(CFA_Y, -8)
          CFI (cfiCond19) R5 Frame(CFA_Y, -7)
          CFI (cfiCond19) R6 Frame(CFA_Y, -6)
          CFI (cfiCond19) R7 Frame(CFA_Y, -5)
          CFI (cfiCond19) R8 Frame(CFA_Y, -4)
          CFI (cfiCond19) R9 Frame(CFA_Y, -3)
          CFI (cfiCond19) R10 Frame(CFA_Y, -2)
          CFI (cfiCond19) R11 Frame(CFA_Y, -1)
          CFI (cfiCond19) CFA_SP SP+4
          CFI (cfiCond19) CFA_Y Y+12
          CFI Block cfiCond20 Using cfiCommon0
          CFI (cfiCond20) Function rprintfFloat
          CFI (cfiCond20) Conditional ??CrossCallReturnLabel_184
          CFI (cfiCond20) R24 Frame(CFA_Y, -12)
          CFI (cfiCond20) R25 Frame(CFA_Y, -11)
          CFI (cfiCond20) R26 Frame(CFA_Y, -10)
          CFI (cfiCond20) R27 Frame(CFA_Y, -9)
          CFI (cfiCond20) R4 Frame(CFA_Y, -8)
          CFI (cfiCond20) R5 Frame(CFA_Y, -7)
          CFI (cfiCond20) R6 Frame(CFA_Y, -6)
          CFI (cfiCond20) R7 Frame(CFA_Y, -5)
          CFI (cfiCond20) R8 Frame(CFA_Y, -4)
          CFI (cfiCond20) R9 Frame(CFA_Y, -3)
          CFI (cfiCond20) R10 Frame(CFA_Y, -2)
          CFI (cfiCond20) R11 Frame(CFA_Y, -1)
          CFI (cfiCond20) CFA_SP SP+4
          CFI (cfiCond20) CFA_Y Y+12
          CFI Block cfiCond21 Using cfiCommon0
          CFI (cfiCond21) Function rprintfFloat
          CFI (cfiCond21) Conditional ??CrossCallReturnLabel_187, ??CrossCallReturnLabel_68
          CFI (cfiCond21) R24 Frame(CFA_Y, -12)
          CFI (cfiCond21) R25 Frame(CFA_Y, -11)
          CFI (cfiCond21) R26 Frame(CFA_Y, -10)
          CFI (cfiCond21) R27 Frame(CFA_Y, -9)
          CFI (cfiCond21) R4 Frame(CFA_Y, -8)
          CFI (cfiCond21) R5 Frame(CFA_Y, -7)
          CFI (cfiCond21) R6 Frame(CFA_Y, -6)
          CFI (cfiCond21) R7 Frame(CFA_Y, -5)
          CFI (cfiCond21) R8 Frame(CFA_Y, -4)
          CFI (cfiCond21) R9 Frame(CFA_Y, -3)
          CFI (cfiCond21) R10 Frame(CFA_Y, -2)
          CFI (cfiCond21) R11 Frame(CFA_Y, -1)
          CFI (cfiCond21) CFA_SP SP+6
          CFI (cfiCond21) CFA_Y Y+12
          CFI Block cfiCond22 Using cfiCommon0
          CFI (cfiCond22) Function rprintfFloat
          CFI (cfiCond22) Conditional ??CrossCallReturnLabel_187, ??CrossCallReturnLabel_69
          CFI (cfiCond22) R24 Frame(CFA_Y, -12)
          CFI (cfiCond22) R25 Frame(CFA_Y, -11)
          CFI (cfiCond22) R26 Frame(CFA_Y, -10)
          CFI (cfiCond22) R27 Frame(CFA_Y, -9)
          CFI (cfiCond22) R4 Frame(CFA_Y, -8)
          CFI (cfiCond22) R5 Frame(CFA_Y, -7)
          CFI (cfiCond22) R6 Frame(CFA_Y, -6)
          CFI (cfiCond22) R7 Frame(CFA_Y, -5)
          CFI (cfiCond22) R8 Frame(CFA_Y, -4)
          CFI (cfiCond22) R9 Frame(CFA_Y, -3)
          CFI (cfiCond22) R10 Frame(CFA_Y, -2)
          CFI (cfiCond22) R11 Frame(CFA_Y, -1)
          CFI (cfiCond22) CFA_SP SP+6
          CFI (cfiCond22) CFA_Y Y+12
          CFI Block cfiPicker23 Using cfiCommon2
          CFI (cfiPicker23) NoFunction
          CFI (cfiPicker23) Picker
        MOVW    R17:R16, R5:R4
        MOVW    R19:R18, R7:R6
        RET
          CFI EndBlock cfiCond17
          CFI EndBlock cfiCond18
          CFI EndBlock cfiCond19
          CFI EndBlock cfiCond20
          CFI EndBlock cfiCond21
          CFI EndBlock cfiCond22
          CFI EndBlock cfiPicker23

        RSEG CODE:CODE:NOROOT(1)
?Subroutine97:
          CFI Block cfiCond24 Using cfiCommon0
          CFI Function PEREP
          CFI Conditional ??CrossCallReturnLabel_312, ??CrossCallReturnLabel_185
          CFI R24 Frame(CFA_Y, -8)
          CFI R25 Frame(CFA_Y, -7)
          CFI R26 Frame(CFA_Y, -6)
          CFI R27 Frame(CFA_Y, -5)
          CFI R4 Frame(CFA_Y, -4)
          CFI R5 Frame(CFA_Y, -3)
          CFI R6 Frame(CFA_Y, -2)
          CFI R7 Frame(CFA_Y, -1)
          CFI CFA_SP SP+6
          CFI CFA_Y Y+8
          CFI Block cfiCond25 Using cfiCommon0
          CFI (cfiCond25) Function PEREP
          CFI (cfiCond25) Conditional ??CrossCallReturnLabel_312, ??CrossCallReturnLabel_186
          CFI (cfiCond25) R24 Frame(CFA_Y, -8)
          CFI (cfiCond25) R25 Frame(CFA_Y, -7)
          CFI (cfiCond25) R26 Frame(CFA_Y, -6)
          CFI (cfiCond25) R27 Frame(CFA_Y, -5)
          CFI (cfiCond25) R4 Frame(CFA_Y, -4)
          CFI (cfiCond25) R5 Frame(CFA_Y, -3)
          CFI (cfiCond25) R6 Frame(CFA_Y, -2)
          CFI (cfiCond25) R7 Frame(CFA_Y, -1)
          CFI (cfiCond25) CFA_SP SP+6
          CFI (cfiCond25) CFA_Y Y+8
          CFI Block cfiCond26 Using cfiCommon0
          CFI (cfiCond26) Function PEREP
          CFI (cfiCond26) Conditional ??CrossCallReturnLabel_313, ??CrossCallReturnLabel_308
          CFI (cfiCond26) R24 Frame(CFA_Y, -8)
          CFI (cfiCond26) R25 Frame(CFA_Y, -7)
          CFI (cfiCond26) R26 Frame(CFA_Y, -6)
          CFI (cfiCond26) R27 Frame(CFA_Y, -5)
          CFI (cfiCond26) R4 Frame(CFA_Y, -4)
          CFI (cfiCond26) R5 Frame(CFA_Y, -3)
          CFI (cfiCond26) R6 Frame(CFA_Y, -2)
          CFI (cfiCond26) R7 Frame(CFA_Y, -1)
          CFI (cfiCond26) CFA_SP SP+6
          CFI (cfiCond26) CFA_Y Y+8
          CFI Block cfiCond27 Using cfiCommon0
          CFI (cfiCond27) Function coding
          CFI (cfiCond27) Conditional ??CrossCallReturnLabel_313, ??CrossCallReturnLabel_307
          CFI (cfiCond27) R24 Frame(CFA_Y, -10)
          CFI (cfiCond27) R25 Frame(CFA_Y, -9)
          CFI (cfiCond27) R26 Frame(CFA_Y, -8)
          CFI (cfiCond27) R27 Frame(CFA_Y, -7)
          CFI (cfiCond27) R4 Frame(CFA_Y, -6)
          CFI (cfiCond27) R5 Frame(CFA_Y, -5)
          CFI (cfiCond27) R6 Frame(CFA_Y, -4)
          CFI (cfiCond27) R7 Frame(CFA_Y, -3)
          CFI (cfiCond27) R8 Frame(CFA_Y, -2)
          CFI (cfiCond27) R9 Frame(CFA_Y, -1)
          CFI (cfiCond27) CFA_SP SP+6
          CFI (cfiCond27) CFA_Y Y+10
          CFI Block cfiCond28 Using cfiCommon0
          CFI (cfiCond28) Function PEREP
          CFI (cfiCond28) Conditional ??CrossCallReturnLabel_313, ??CrossCallReturnLabel_306
          CFI (cfiCond28) R24 Frame(CFA_Y, -8)
          CFI (cfiCond28) R25 Frame(CFA_Y, -7)
          CFI (cfiCond28) R26 Frame(CFA_Y, -6)
          CFI (cfiCond28) R27 Frame(CFA_Y, -5)
          CFI (cfiCond28) R4 Frame(CFA_Y, -4)
          CFI (cfiCond28) R5 Frame(CFA_Y, -3)
          CFI (cfiCond28) R6 Frame(CFA_Y, -2)
          CFI (cfiCond28) R7 Frame(CFA_Y, -1)
          CFI (cfiCond28) CFA_SP SP+6
          CFI (cfiCond28) CFA_Y Y+8
          CFI Block cfiCond29 Using cfiCommon0
          CFI (cfiCond29) Function PEREP
          CFI (cfiCond29) Conditional ??CrossCallReturnLabel_313, ??CrossCallReturnLabel_305
          CFI (cfiCond29) R24 Frame(CFA_Y, -8)
          CFI (cfiCond29) R25 Frame(CFA_Y, -7)
          CFI (cfiCond29) R26 Frame(CFA_Y, -6)
          CFI (cfiCond29) R27 Frame(CFA_Y, -5)
          CFI (cfiCond29) R4 Frame(CFA_Y, -4)
          CFI (cfiCond29) R5 Frame(CFA_Y, -3)
          CFI (cfiCond29) R6 Frame(CFA_Y, -2)
          CFI (cfiCond29) R7 Frame(CFA_Y, -1)
          CFI (cfiCond29) CFA_SP SP+6
          CFI (cfiCond29) CFA_Y Y+8
          CFI Block cfiCond30 Using cfiCommon0
          CFI (cfiCond30) Function coding
          CFI (cfiCond30) Conditional ??CrossCallReturnLabel_313, ??CrossCallReturnLabel_304
          CFI (cfiCond30) R24 Frame(CFA_Y, -10)
          CFI (cfiCond30) R25 Frame(CFA_Y, -9)
          CFI (cfiCond30) R26 Frame(CFA_Y, -8)
          CFI (cfiCond30) R27 Frame(CFA_Y, -7)
          CFI (cfiCond30) R4 Frame(CFA_Y, -6)
          CFI (cfiCond30) R5 Frame(CFA_Y, -5)
          CFI (cfiCond30) R6 Frame(CFA_Y, -4)
          CFI (cfiCond30) R7 Frame(CFA_Y, -3)
          CFI (cfiCond30) R8 Frame(CFA_Y, -2)
          CFI (cfiCond30) R9 Frame(CFA_Y, -1)
          CFI (cfiCond30) CFA_SP SP+6
          CFI (cfiCond30) CFA_Y Y+10
          CFI Block cfiCond31 Using cfiCommon0
          CFI (cfiCond31) Function coding
          CFI (cfiCond31) Conditional ??CrossCallReturnLabel_313, ??CrossCallReturnLabel_303
          CFI (cfiCond31) R24 Frame(CFA_Y, -10)
          CFI (cfiCond31) R25 Frame(CFA_Y, -9)
          CFI (cfiCond31) R26 Frame(CFA_Y, -8)
          CFI (cfiCond31) R27 Frame(CFA_Y, -7)
          CFI (cfiCond31) R4 Frame(CFA_Y, -6)
          CFI (cfiCond31) R5 Frame(CFA_Y, -5)
          CFI (cfiCond31) R6 Frame(CFA_Y, -4)
          CFI (cfiCond31) R7 Frame(CFA_Y, -3)
          CFI (cfiCond31) R8 Frame(CFA_Y, -2)
          CFI (cfiCond31) R9 Frame(CFA_Y, -1)
          CFI (cfiCond31) CFA_SP SP+6
          CFI (cfiCond31) CFA_Y Y+10
          CFI Block cfiPicker32 Using cfiCommon2
          CFI (cfiPicker32) NoFunction
          CFI (cfiPicker32) Picker
        LD      R16, Z
        LDD     R17, Z+1
          CFI EndBlock cfiCond24
          CFI EndBlock cfiCond25
          CFI EndBlock cfiCond26
          CFI EndBlock cfiCond27
          CFI EndBlock cfiCond28
          CFI EndBlock cfiCond29
          CFI EndBlock cfiCond30
          CFI EndBlock cfiCond31
          CFI EndBlock cfiPicker32
        REQUIRE ??Subroutine136_0
        ;               // Fall through to label ??Subroutine136_0

        RSEG CODE:CODE:NOROOT(1)
??Subroutine136_0:
          CFI Block cfiCond33 Using cfiCommon0
          CFI Function coding
          CFI Conditional ??CrossCallReturnLabel_311, ??CrossCallReturnLabel_192
          CFI R24 Frame(CFA_Y, -10)
          CFI R25 Frame(CFA_Y, -9)
          CFI R26 Frame(CFA_Y, -8)
          CFI R27 Frame(CFA_Y, -7)
          CFI R4 Frame(CFA_Y, -6)
          CFI R5 Frame(CFA_Y, -5)
          CFI R6 Frame(CFA_Y, -4)
          CFI R7 Frame(CFA_Y, -3)
          CFI R8 Frame(CFA_Y, -2)
          CFI R9 Frame(CFA_Y, -1)
          CFI CFA_SP SP+6
          CFI CFA_Y Y+10
          CFI Block cfiCond34 Using cfiCommon0
          CFI (cfiCond34) Function diag
          CFI (cfiCond34) Conditional ??CrossCallReturnLabel_311, ??CrossCallReturnLabel_191
          CFI (cfiCond34) R24 Frame(CFA_Y, -2)
          CFI (cfiCond34) R25 Frame(CFA_Y, -1)
          CFI (cfiCond34) CFA_SP SP+6
          CFI (cfiCond34) CFA_Y Y+2
          CFI Block cfiCond35 Using cfiCommon0
          CFI (cfiCond35) Function PEREP
          CFI (cfiCond35) Conditional ??CrossCallReturnLabel_312, ??CrossCallReturnLabel_185
          CFI (cfiCond35) R24 Frame(CFA_Y, -8)
          CFI (cfiCond35) R25 Frame(CFA_Y, -7)
          CFI (cfiCond35) R26 Frame(CFA_Y, -6)
          CFI (cfiCond35) R27 Frame(CFA_Y, -5)
          CFI (cfiCond35) R4 Frame(CFA_Y, -4)
          CFI (cfiCond35) R5 Frame(CFA_Y, -3)
          CFI (cfiCond35) R6 Frame(CFA_Y, -2)
          CFI (cfiCond35) R7 Frame(CFA_Y, -1)
          CFI (cfiCond35) CFA_SP SP+6
          CFI (cfiCond35) CFA_Y Y+8
          CFI Block cfiCond36 Using cfiCommon0
          CFI (cfiCond36) Function PEREP
          CFI (cfiCond36) Conditional ??CrossCallReturnLabel_312, ??CrossCallReturnLabel_186
          CFI (cfiCond36) R24 Frame(CFA_Y, -8)
          CFI (cfiCond36) R25 Frame(CFA_Y, -7)
          CFI (cfiCond36) R26 Frame(CFA_Y, -6)
          CFI (cfiCond36) R27 Frame(CFA_Y, -5)
          CFI (cfiCond36) R4 Frame(CFA_Y, -4)
          CFI (cfiCond36) R5 Frame(CFA_Y, -3)
          CFI (cfiCond36) R6 Frame(CFA_Y, -2)
          CFI (cfiCond36) R7 Frame(CFA_Y, -1)
          CFI (cfiCond36) CFA_SP SP+6
          CFI (cfiCond36) CFA_Y Y+8
          CFI Block cfiCond37 Using cfiCommon0
          CFI (cfiCond37) Function PEREP
          CFI (cfiCond37) Conditional ??CrossCallReturnLabel_313, ??CrossCallReturnLabel_308
          CFI (cfiCond37) R24 Frame(CFA_Y, -8)
          CFI (cfiCond37) R25 Frame(CFA_Y, -7)
          CFI (cfiCond37) R26 Frame(CFA_Y, -6)
          CFI (cfiCond37) R27 Frame(CFA_Y, -5)
          CFI (cfiCond37) R4 Frame(CFA_Y, -4)
          CFI (cfiCond37) R5 Frame(CFA_Y, -3)
          CFI (cfiCond37) R6 Frame(CFA_Y, -2)
          CFI (cfiCond37) R7 Frame(CFA_Y, -1)
          CFI (cfiCond37) CFA_SP SP+6
          CFI (cfiCond37) CFA_Y Y+8
          CFI Block cfiCond38 Using cfiCommon0
          CFI (cfiCond38) Function coding
          CFI (cfiCond38) Conditional ??CrossCallReturnLabel_313, ??CrossCallReturnLabel_307
          CFI (cfiCond38) R24 Frame(CFA_Y, -10)
          CFI (cfiCond38) R25 Frame(CFA_Y, -9)
          CFI (cfiCond38) R26 Frame(CFA_Y, -8)
          CFI (cfiCond38) R27 Frame(CFA_Y, -7)
          CFI (cfiCond38) R4 Frame(CFA_Y, -6)
          CFI (cfiCond38) R5 Frame(CFA_Y, -5)
          CFI (cfiCond38) R6 Frame(CFA_Y, -4)
          CFI (cfiCond38) R7 Frame(CFA_Y, -3)
          CFI (cfiCond38) R8 Frame(CFA_Y, -2)
          CFI (cfiCond38) R9 Frame(CFA_Y, -1)
          CFI (cfiCond38) CFA_SP SP+6
          CFI (cfiCond38) CFA_Y Y+10
          CFI Block cfiCond39 Using cfiCommon0
          CFI (cfiCond39) Function PEREP
          CFI (cfiCond39) Conditional ??CrossCallReturnLabel_313, ??CrossCallReturnLabel_306
          CFI (cfiCond39) R24 Frame(CFA_Y, -8)
          CFI (cfiCond39) R25 Frame(CFA_Y, -7)
          CFI (cfiCond39) R26 Frame(CFA_Y, -6)
          CFI (cfiCond39) R27 Frame(CFA_Y, -5)
          CFI (cfiCond39) R4 Frame(CFA_Y, -4)
          CFI (cfiCond39) R5 Frame(CFA_Y, -3)
          CFI (cfiCond39) R6 Frame(CFA_Y, -2)
          CFI (cfiCond39) R7 Frame(CFA_Y, -1)
          CFI (cfiCond39) CFA_SP SP+6
          CFI (cfiCond39) CFA_Y Y+8
          CFI Block cfiCond40 Using cfiCommon0
          CFI (cfiCond40) Function PEREP
          CFI (cfiCond40) Conditional ??CrossCallReturnLabel_313, ??CrossCallReturnLabel_305
          CFI (cfiCond40) R24 Frame(CFA_Y, -8)
          CFI (cfiCond40) R25 Frame(CFA_Y, -7)
          CFI (cfiCond40) R26 Frame(CFA_Y, -6)
          CFI (cfiCond40) R27 Frame(CFA_Y, -5)
          CFI (cfiCond40) R4 Frame(CFA_Y, -4)
          CFI (cfiCond40) R5 Frame(CFA_Y, -3)
          CFI (cfiCond40) R6 Frame(CFA_Y, -2)
          CFI (cfiCond40) R7 Frame(CFA_Y, -1)
          CFI (cfiCond40) CFA_SP SP+6
          CFI (cfiCond40) CFA_Y Y+8
          CFI Block cfiCond41 Using cfiCommon0
          CFI (cfiCond41) Function coding
          CFI (cfiCond41) Conditional ??CrossCallReturnLabel_313, ??CrossCallReturnLabel_304
          CFI (cfiCond41) R24 Frame(CFA_Y, -10)
          CFI (cfiCond41) R25 Frame(CFA_Y, -9)
          CFI (cfiCond41) R26 Frame(CFA_Y, -8)
          CFI (cfiCond41) R27 Frame(CFA_Y, -7)
          CFI (cfiCond41) R4 Frame(CFA_Y, -6)
          CFI (cfiCond41) R5 Frame(CFA_Y, -5)
          CFI (cfiCond41) R6 Frame(CFA_Y, -4)
          CFI (cfiCond41) R7 Frame(CFA_Y, -3)
          CFI (cfiCond41) R8 Frame(CFA_Y, -2)
          CFI (cfiCond41) R9 Frame(CFA_Y, -1)
          CFI (cfiCond41) CFA_SP SP+6
          CFI (cfiCond41) CFA_Y Y+10
          CFI Block cfiCond42 Using cfiCommon0
          CFI (cfiCond42) Function coding
          CFI (cfiCond42) Conditional ??CrossCallReturnLabel_313, ??CrossCallReturnLabel_303
          CFI (cfiCond42) R24 Frame(CFA_Y, -10)
          CFI (cfiCond42) R25 Frame(CFA_Y, -9)
          CFI (cfiCond42) R26 Frame(CFA_Y, -8)
          CFI (cfiCond42) R27 Frame(CFA_Y, -7)
          CFI (cfiCond42) R4 Frame(CFA_Y, -6)
          CFI (cfiCond42) R5 Frame(CFA_Y, -5)
          CFI (cfiCond42) R6 Frame(CFA_Y, -4)
          CFI (cfiCond42) R7 Frame(CFA_Y, -3)
          CFI (cfiCond42) R8 Frame(CFA_Y, -2)
          CFI (cfiCond42) R9 Frame(CFA_Y, -1)
          CFI (cfiCond42) CFA_SP SP+6
          CFI (cfiCond42) CFA_Y Y+10
          CFI Block cfiPicker43 Using cfiCommon2
          CFI (cfiPicker43) NoFunction
          CFI (cfiPicker43) Picker
        LDI     R18, 0
          CFI EndBlock cfiCond33
          CFI EndBlock cfiCond34
          CFI EndBlock cfiCond35
          CFI EndBlock cfiCond36
          CFI EndBlock cfiCond37
          CFI EndBlock cfiCond38
          CFI EndBlock cfiCond39
          CFI EndBlock cfiCond40
          CFI EndBlock cfiCond41
          CFI EndBlock cfiCond42
          CFI EndBlock cfiPicker43
        REQUIRE ??Subroutine137_0
        ;               // Fall through to label ??Subroutine137_0

        RSEG CODE:CODE:NOROOT(1)
??Subroutine137_0:
          CFI Block cfiCond44 Using cfiCommon0
          CFI Function coding
          CFI Conditional ??CrossCallReturnLabel_309
          CFI R24 Frame(CFA_Y, -10)
          CFI R25 Frame(CFA_Y, -9)
          CFI R26 Frame(CFA_Y, -8)
          CFI R27 Frame(CFA_Y, -7)
          CFI R4 Frame(CFA_Y, -6)
          CFI R5 Frame(CFA_Y, -5)
          CFI R6 Frame(CFA_Y, -4)
          CFI R7 Frame(CFA_Y, -3)
          CFI R8 Frame(CFA_Y, -2)
          CFI R9 Frame(CFA_Y, -1)
          CFI CFA_SP SP+4
          CFI CFA_Y Y+10
          CFI Block cfiCond45 Using cfiCommon0
          CFI (cfiCond45) Function coding
          CFI (cfiCond45) Conditional ??CrossCallReturnLabel_310
          CFI (cfiCond45) R24 Frame(CFA_Y, -10)
          CFI (cfiCond45) R25 Frame(CFA_Y, -9)
          CFI (cfiCond45) R26 Frame(CFA_Y, -8)
          CFI (cfiCond45) R27 Frame(CFA_Y, -7)
          CFI (cfiCond45) R4 Frame(CFA_Y, -6)
          CFI (cfiCond45) R5 Frame(CFA_Y, -5)
          CFI (cfiCond45) R6 Frame(CFA_Y, -4)
          CFI (cfiCond45) R7 Frame(CFA_Y, -3)
          CFI (cfiCond45) R8 Frame(CFA_Y, -2)
          CFI (cfiCond45) R9 Frame(CFA_Y, -1)
          CFI (cfiCond45) CFA_SP SP+4
          CFI (cfiCond45) CFA_Y Y+10
          CFI Block cfiCond46 Using cfiCommon0
          CFI (cfiCond46) Function coding
          CFI (cfiCond46) Conditional ??CrossCallReturnLabel_311, ??CrossCallReturnLabel_192
          CFI (cfiCond46) R24 Frame(CFA_Y, -10)
          CFI (cfiCond46) R25 Frame(CFA_Y, -9)
          CFI (cfiCond46) R26 Frame(CFA_Y, -8)
          CFI (cfiCond46) R27 Frame(CFA_Y, -7)
          CFI (cfiCond46) R4 Frame(CFA_Y, -6)
          CFI (cfiCond46) R5 Frame(CFA_Y, -5)
          CFI (cfiCond46) R6 Frame(CFA_Y, -4)
          CFI (cfiCond46) R7 Frame(CFA_Y, -3)
          CFI (cfiCond46) R8 Frame(CFA_Y, -2)
          CFI (cfiCond46) R9 Frame(CFA_Y, -1)
          CFI (cfiCond46) CFA_SP SP+6
          CFI (cfiCond46) CFA_Y Y+10
          CFI Block cfiCond47 Using cfiCommon0
          CFI (cfiCond47) Function diag
          CFI (cfiCond47) Conditional ??CrossCallReturnLabel_311, ??CrossCallReturnLabel_191
          CFI (cfiCond47) R24 Frame(CFA_Y, -2)
          CFI (cfiCond47) R25 Frame(CFA_Y, -1)
          CFI (cfiCond47) CFA_SP SP+6
          CFI (cfiCond47) CFA_Y Y+2
          CFI Block cfiCond48 Using cfiCommon0
          CFI (cfiCond48) Function PEREP
          CFI (cfiCond48) Conditional ??CrossCallReturnLabel_312, ??CrossCallReturnLabel_185
          CFI (cfiCond48) R24 Frame(CFA_Y, -8)
          CFI (cfiCond48) R25 Frame(CFA_Y, -7)
          CFI (cfiCond48) R26 Frame(CFA_Y, -6)
          CFI (cfiCond48) R27 Frame(CFA_Y, -5)
          CFI (cfiCond48) R4 Frame(CFA_Y, -4)
          CFI (cfiCond48) R5 Frame(CFA_Y, -3)
          CFI (cfiCond48) R6 Frame(CFA_Y, -2)
          CFI (cfiCond48) R7 Frame(CFA_Y, -1)
          CFI (cfiCond48) CFA_SP SP+6
          CFI (cfiCond48) CFA_Y Y+8
          CFI Block cfiCond49 Using cfiCommon0
          CFI (cfiCond49) Function PEREP
          CFI (cfiCond49) Conditional ??CrossCallReturnLabel_312, ??CrossCallReturnLabel_186
          CFI (cfiCond49) R24 Frame(CFA_Y, -8)
          CFI (cfiCond49) R25 Frame(CFA_Y, -7)
          CFI (cfiCond49) R26 Frame(CFA_Y, -6)
          CFI (cfiCond49) R27 Frame(CFA_Y, -5)
          CFI (cfiCond49) R4 Frame(CFA_Y, -4)
          CFI (cfiCond49) R5 Frame(CFA_Y, -3)
          CFI (cfiCond49) R6 Frame(CFA_Y, -2)
          CFI (cfiCond49) R7 Frame(CFA_Y, -1)
          CFI (cfiCond49) CFA_SP SP+6
          CFI (cfiCond49) CFA_Y Y+8
          CFI Block cfiCond50 Using cfiCommon0
          CFI (cfiCond50) Function PEREP
          CFI (cfiCond50) Conditional ??CrossCallReturnLabel_313, ??CrossCallReturnLabel_308
          CFI (cfiCond50) R24 Frame(CFA_Y, -8)
          CFI (cfiCond50) R25 Frame(CFA_Y, -7)
          CFI (cfiCond50) R26 Frame(CFA_Y, -6)
          CFI (cfiCond50) R27 Frame(CFA_Y, -5)
          CFI (cfiCond50) R4 Frame(CFA_Y, -4)
          CFI (cfiCond50) R5 Frame(CFA_Y, -3)
          CFI (cfiCond50) R6 Frame(CFA_Y, -2)
          CFI (cfiCond50) R7 Frame(CFA_Y, -1)
          CFI (cfiCond50) CFA_SP SP+6
          CFI (cfiCond50) CFA_Y Y+8
          CFI Block cfiCond51 Using cfiCommon0
          CFI (cfiCond51) Function coding
          CFI (cfiCond51) Conditional ??CrossCallReturnLabel_313, ??CrossCallReturnLabel_307
          CFI (cfiCond51) R24 Frame(CFA_Y, -10)
          CFI (cfiCond51) R25 Frame(CFA_Y, -9)
          CFI (cfiCond51) R26 Frame(CFA_Y, -8)
          CFI (cfiCond51) R27 Frame(CFA_Y, -7)
          CFI (cfiCond51) R4 Frame(CFA_Y, -6)
          CFI (cfiCond51) R5 Frame(CFA_Y, -5)
          CFI (cfiCond51) R6 Frame(CFA_Y, -4)
          CFI (cfiCond51) R7 Frame(CFA_Y, -3)
          CFI (cfiCond51) R8 Frame(CFA_Y, -2)
          CFI (cfiCond51) R9 Frame(CFA_Y, -1)
          CFI (cfiCond51) CFA_SP SP+6
          CFI (cfiCond51) CFA_Y Y+10
          CFI Block cfiCond52 Using cfiCommon0
          CFI (cfiCond52) Function PEREP
          CFI (cfiCond52) Conditional ??CrossCallReturnLabel_313, ??CrossCallReturnLabel_306
          CFI (cfiCond52) R24 Frame(CFA_Y, -8)
          CFI (cfiCond52) R25 Frame(CFA_Y, -7)
          CFI (cfiCond52) R26 Frame(CFA_Y, -6)
          CFI (cfiCond52) R27 Frame(CFA_Y, -5)
          CFI (cfiCond52) R4 Frame(CFA_Y, -4)
          CFI (cfiCond52) R5 Frame(CFA_Y, -3)
          CFI (cfiCond52) R6 Frame(CFA_Y, -2)
          CFI (cfiCond52) R7 Frame(CFA_Y, -1)
          CFI (cfiCond52) CFA_SP SP+6
          CFI (cfiCond52) CFA_Y Y+8
          CFI Block cfiCond53 Using cfiCommon0
          CFI (cfiCond53) Function PEREP
          CFI (cfiCond53) Conditional ??CrossCallReturnLabel_313, ??CrossCallReturnLabel_305
          CFI (cfiCond53) R24 Frame(CFA_Y, -8)
          CFI (cfiCond53) R25 Frame(CFA_Y, -7)
          CFI (cfiCond53) R26 Frame(CFA_Y, -6)
          CFI (cfiCond53) R27 Frame(CFA_Y, -5)
          CFI (cfiCond53) R4 Frame(CFA_Y, -4)
          CFI (cfiCond53) R5 Frame(CFA_Y, -3)
          CFI (cfiCond53) R6 Frame(CFA_Y, -2)
          CFI (cfiCond53) R7 Frame(CFA_Y, -1)
          CFI (cfiCond53) CFA_SP SP+6
          CFI (cfiCond53) CFA_Y Y+8
          CFI Block cfiCond54 Using cfiCommon0
          CFI (cfiCond54) Function coding
          CFI (cfiCond54) Conditional ??CrossCallReturnLabel_313, ??CrossCallReturnLabel_304
          CFI (cfiCond54) R24 Frame(CFA_Y, -10)
          CFI (cfiCond54) R25 Frame(CFA_Y, -9)
          CFI (cfiCond54) R26 Frame(CFA_Y, -8)
          CFI (cfiCond54) R27 Frame(CFA_Y, -7)
          CFI (cfiCond54) R4 Frame(CFA_Y, -6)
          CFI (cfiCond54) R5 Frame(CFA_Y, -5)
          CFI (cfiCond54) R6 Frame(CFA_Y, -4)
          CFI (cfiCond54) R7 Frame(CFA_Y, -3)
          CFI (cfiCond54) R8 Frame(CFA_Y, -2)
          CFI (cfiCond54) R9 Frame(CFA_Y, -1)
          CFI (cfiCond54) CFA_SP SP+6
          CFI (cfiCond54) CFA_Y Y+10
          CFI Block cfiCond55 Using cfiCommon0
          CFI (cfiCond55) Function coding
          CFI (cfiCond55) Conditional ??CrossCallReturnLabel_313, ??CrossCallReturnLabel_303
          CFI (cfiCond55) R24 Frame(CFA_Y, -10)
          CFI (cfiCond55) R25 Frame(CFA_Y, -9)
          CFI (cfiCond55) R26 Frame(CFA_Y, -8)
          CFI (cfiCond55) R27 Frame(CFA_Y, -7)
          CFI (cfiCond55) R4 Frame(CFA_Y, -6)
          CFI (cfiCond55) R5 Frame(CFA_Y, -5)
          CFI (cfiCond55) R6 Frame(CFA_Y, -4)
          CFI (cfiCond55) R7 Frame(CFA_Y, -3)
          CFI (cfiCond55) R8 Frame(CFA_Y, -2)
          CFI (cfiCond55) R9 Frame(CFA_Y, -1)
          CFI (cfiCond55) CFA_SP SP+6
          CFI (cfiCond55) CFA_Y Y+10
          CFI Block cfiPicker56 Using cfiCommon2
          CFI (cfiPicker56) NoFunction
          CFI (cfiPicker56) Picker
        RCALL   ?Subroutine124
??CrossCallReturnLabel_322:
        RJMP    ?Subroutine121
          CFI EndBlock cfiCond44
          CFI EndBlock cfiCond45
          CFI EndBlock cfiCond46
          CFI EndBlock cfiCond47
          CFI EndBlock cfiCond48
          CFI EndBlock cfiCond49
          CFI EndBlock cfiCond50
          CFI EndBlock cfiCond51
          CFI EndBlock cfiCond52
          CFI EndBlock cfiCond53
          CFI EndBlock cfiCond54
          CFI EndBlock cfiCond55
          CFI EndBlock cfiPicker56

        RSEG CODE:CODE:NOROOT(1)
?Subroutine96:
          CFI Block cfiCond57 Using cfiCommon0
          CFI Function PEREP
          CFI Conditional ??CrossCallReturnLabel_161
          CFI R24 Frame(CFA_Y, -8)
          CFI R25 Frame(CFA_Y, -7)
          CFI R26 Frame(CFA_Y, -6)
          CFI R27 Frame(CFA_Y, -5)
          CFI R4 Frame(CFA_Y, -4)
          CFI R5 Frame(CFA_Y, -3)
          CFI R6 Frame(CFA_Y, -2)
          CFI R7 Frame(CFA_Y, -1)
          CFI CFA_SP SP+4
          CFI CFA_Y Y+8
          CFI Block cfiCond58 Using cfiCommon0
          CFI (cfiCond58) Function PEREP
          CFI (cfiCond58) Conditional ??CrossCallReturnLabel_162
          CFI (cfiCond58) R24 Frame(CFA_Y, -8)
          CFI (cfiCond58) R25 Frame(CFA_Y, -7)
          CFI (cfiCond58) R26 Frame(CFA_Y, -6)
          CFI (cfiCond58) R27 Frame(CFA_Y, -5)
          CFI (cfiCond58) R4 Frame(CFA_Y, -4)
          CFI (cfiCond58) R5 Frame(CFA_Y, -3)
          CFI (cfiCond58) R6 Frame(CFA_Y, -2)
          CFI (cfiCond58) R7 Frame(CFA_Y, -1)
          CFI (cfiCond58) CFA_SP SP+4
          CFI (cfiCond58) CFA_Y Y+8
          CFI Block cfiCond59 Using cfiCommon0
          CFI (cfiCond59) Function PEREP
          CFI (cfiCond59) Conditional ??CrossCallReturnLabel_164, ??CrossCallReturnLabel_185
          CFI (cfiCond59) R24 Frame(CFA_Y, -8)
          CFI (cfiCond59) R25 Frame(CFA_Y, -7)
          CFI (cfiCond59) R26 Frame(CFA_Y, -6)
          CFI (cfiCond59) R27 Frame(CFA_Y, -5)
          CFI (cfiCond59) R4 Frame(CFA_Y, -4)
          CFI (cfiCond59) R5 Frame(CFA_Y, -3)
          CFI (cfiCond59) R6 Frame(CFA_Y, -2)
          CFI (cfiCond59) R7 Frame(CFA_Y, -1)
          CFI (cfiCond59) CFA_SP SP+6
          CFI (cfiCond59) CFA_Y Y+8
          CFI Block cfiCond60 Using cfiCommon0
          CFI (cfiCond60) Function PEREP
          CFI (cfiCond60) Conditional ??CrossCallReturnLabel_164, ??CrossCallReturnLabel_186
          CFI (cfiCond60) R24 Frame(CFA_Y, -8)
          CFI (cfiCond60) R25 Frame(CFA_Y, -7)
          CFI (cfiCond60) R26 Frame(CFA_Y, -6)
          CFI (cfiCond60) R27 Frame(CFA_Y, -5)
          CFI (cfiCond60) R4 Frame(CFA_Y, -4)
          CFI (cfiCond60) R5 Frame(CFA_Y, -3)
          CFI (cfiCond60) R6 Frame(CFA_Y, -2)
          CFI (cfiCond60) R7 Frame(CFA_Y, -1)
          CFI (cfiCond60) CFA_SP SP+6
          CFI (cfiCond60) CFA_Y Y+8
          CFI Block cfiCond61 Using cfiCommon0
          CFI (cfiCond61) Function coding
          CFI (cfiCond61) Conditional ??CrossCallReturnLabel_163
          CFI (cfiCond61) R24 Frame(CFA_Y, -10)
          CFI (cfiCond61) R25 Frame(CFA_Y, -9)
          CFI (cfiCond61) R26 Frame(CFA_Y, -8)
          CFI (cfiCond61) R27 Frame(CFA_Y, -7)
          CFI (cfiCond61) R4 Frame(CFA_Y, -6)
          CFI (cfiCond61) R5 Frame(CFA_Y, -5)
          CFI (cfiCond61) R6 Frame(CFA_Y, -4)
          CFI (cfiCond61) R7 Frame(CFA_Y, -3)
          CFI (cfiCond61) R8 Frame(CFA_Y, -2)
          CFI (cfiCond61) R9 Frame(CFA_Y, -1)
          CFI (cfiCond61) CFA_SP SP+4
          CFI (cfiCond61) CFA_Y Y+10
          CFI Block cfiPicker62 Using cfiCommon2
          CFI (cfiPicker62) NoFunction
          CFI (cfiPicker62) Picker
        LDI     R30, LOW(minimallen)
        LDI     R31, (minimallen) >> 8
        RET
          CFI EndBlock cfiCond57
          CFI EndBlock cfiCond58
          CFI EndBlock cfiCond59
          CFI EndBlock cfiCond60
          CFI EndBlock cfiCond61
          CFI EndBlock cfiPicker62

        RSEG CODE:CODE:NOROOT(1)
?Subroutine30:
          CFI Block cfiCond63 Using cfiCommon0
          CFI Function PEREP
          CFI Conditional ??CrossCallReturnLabel_295
          CFI R24 Frame(CFA_Y, -8)
          CFI R25 Frame(CFA_Y, -7)
          CFI R26 Frame(CFA_Y, -6)
          CFI R27 Frame(CFA_Y, -5)
          CFI R4 Frame(CFA_Y, -4)
          CFI R5 Frame(CFA_Y, -3)
          CFI R6 Frame(CFA_Y, -2)
          CFI R7 Frame(CFA_Y, -1)
          CFI CFA_SP SP+4
          CFI CFA_Y Y+8
          CFI Block cfiCond64 Using cfiCommon0
          CFI (cfiCond64) Function PEREP
          CFI (cfiCond64) Conditional ??CrossCallReturnLabel_296
          CFI (cfiCond64) R24 Frame(CFA_Y, -8)
          CFI (cfiCond64) R25 Frame(CFA_Y, -7)
          CFI (cfiCond64) R26 Frame(CFA_Y, -6)
          CFI (cfiCond64) R27 Frame(CFA_Y, -5)
          CFI (cfiCond64) R4 Frame(CFA_Y, -4)
          CFI (cfiCond64) R5 Frame(CFA_Y, -3)
          CFI (cfiCond64) R6 Frame(CFA_Y, -2)
          CFI (cfiCond64) R7 Frame(CFA_Y, -1)
          CFI (cfiCond64) CFA_SP SP+4
          CFI (cfiCond64) CFA_Y Y+8
          CFI Block cfiPicker65 Using cfiCommon2
          CFI (cfiPicker65) NoFunction
          CFI (cfiPicker65) Picker
        MUL     R24, R20
          CFI EndBlock cfiCond63
          CFI EndBlock cfiCond64
          CFI EndBlock cfiPicker65
        REQUIRE ??Subroutine138_0
        ;               // Fall through to label ??Subroutine138_0

        RSEG CODE:CODE:NOROOT(1)
??Subroutine138_0:
          CFI Block cfiCond66 Using cfiCommon0
          CFI Function PEREP
          CFI Conditional ??CrossCallReturnLabel_294
          CFI R24 Frame(CFA_Y, -8)
          CFI R25 Frame(CFA_Y, -7)
          CFI R26 Frame(CFA_Y, -6)
          CFI R27 Frame(CFA_Y, -5)
          CFI R4 Frame(CFA_Y, -4)
          CFI R5 Frame(CFA_Y, -3)
          CFI R6 Frame(CFA_Y, -2)
          CFI R7 Frame(CFA_Y, -1)
          CFI CFA_SP SP+4
          CFI CFA_Y Y+8
          CFI Block cfiCond67 Using cfiCommon0
          CFI (cfiCond67) Function PEREP
          CFI (cfiCond67) Conditional ??CrossCallReturnLabel_295
          CFI (cfiCond67) R24 Frame(CFA_Y, -8)
          CFI (cfiCond67) R25 Frame(CFA_Y, -7)
          CFI (cfiCond67) R26 Frame(CFA_Y, -6)
          CFI (cfiCond67) R27 Frame(CFA_Y, -5)
          CFI (cfiCond67) R4 Frame(CFA_Y, -4)
          CFI (cfiCond67) R5 Frame(CFA_Y, -3)
          CFI (cfiCond67) R6 Frame(CFA_Y, -2)
          CFI (cfiCond67) R7 Frame(CFA_Y, -1)
          CFI (cfiCond67) CFA_SP SP+4
          CFI (cfiCond67) CFA_Y Y+8
          CFI Block cfiCond68 Using cfiCommon0
          CFI (cfiCond68) Function PEREP
          CFI (cfiCond68) Conditional ??CrossCallReturnLabel_296
          CFI (cfiCond68) R24 Frame(CFA_Y, -8)
          CFI (cfiCond68) R25 Frame(CFA_Y, -7)
          CFI (cfiCond68) R26 Frame(CFA_Y, -6)
          CFI (cfiCond68) R27 Frame(CFA_Y, -5)
          CFI (cfiCond68) R4 Frame(CFA_Y, -4)
          CFI (cfiCond68) R5 Frame(CFA_Y, -3)
          CFI (cfiCond68) R6 Frame(CFA_Y, -2)
          CFI (cfiCond68) R7 Frame(CFA_Y, -1)
          CFI (cfiCond68) CFA_SP SP+4
          CFI (cfiCond68) CFA_Y Y+8
          CFI Block cfiPicker69 Using cfiCommon2
          CFI (cfiPicker69) NoFunction
          CFI (cfiPicker69) Picker
        MOVW    R31:R30, R1:R0
        SUBI    R30, LOW((-(len) & 0xFFFF))
        SBCI    R31, (-(len) & 0xFFFF) >> 8
        RET
          CFI EndBlock cfiCond66
          CFI EndBlock cfiCond67
          CFI EndBlock cfiCond68
          CFI EndBlock cfiPicker69

        RSEG CODE:CODE:NOROOT(1)
?Subroutine26:
          CFI Block cfiCond70 Using cfiCommon0
          CFI Function PEREP
          CFI Conditional ??CrossCallReturnLabel_44
          CFI R24 Frame(CFA_Y, -8)
          CFI R25 Frame(CFA_Y, -7)
          CFI R26 Frame(CFA_Y, -6)
          CFI R27 Frame(CFA_Y, -5)
          CFI R4 Frame(CFA_Y, -4)
          CFI R5 Frame(CFA_Y, -3)
          CFI R6 Frame(CFA_Y, -2)
          CFI R7 Frame(CFA_Y, -1)
          CFI CFA_SP SP+4
          CFI CFA_Y Y+8
          CFI Block cfiCond71 Using cfiCommon0
          CFI (cfiCond71) Function PEREP
          CFI (cfiCond71) Conditional ??CrossCallReturnLabel_45
          CFI (cfiCond71) R24 Frame(CFA_Y, -8)
          CFI (cfiCond71) R25 Frame(CFA_Y, -7)
          CFI (cfiCond71) R26 Frame(CFA_Y, -6)
          CFI (cfiCond71) R27 Frame(CFA_Y, -5)
          CFI (cfiCond71) R4 Frame(CFA_Y, -4)
          CFI (cfiCond71) R5 Frame(CFA_Y, -3)
          CFI (cfiCond71) R6 Frame(CFA_Y, -2)
          CFI (cfiCond71) R7 Frame(CFA_Y, -1)
          CFI (cfiCond71) CFA_SP SP+4
          CFI (cfiCond71) CFA_Y Y+8
          CFI Block cfiPicker72 Using cfiCommon2
          CFI (cfiPicker72) NoFunction
          CFI (cfiPicker72) Picker
        RCALL   ?Subroutine99
??CrossCallReturnLabel_168:
        RCALL   ?Subroutine93
??CrossCallReturnLabel_150:
        RCALL   ?Subroutine101
??CrossCallReturnLabel_180:
        RCALL   ?Subroutine94
??CrossCallReturnLabel_153:
        LD      R19, Z
        LDI     R18, 0
        ADD     R17, R19
        RCALL   ?Subroutine124
??CrossCallReturnLabel_318:
        MOVW    R5:R4, R17:R16
        MOVW    R7:R6, R19:R18
        RET
          CFI EndBlock cfiCond70
          CFI EndBlock cfiCond71
          CFI EndBlock cfiPicker72

        RSEG CODE:CODE:NOROOT(1)
?Subroutine24:
          CFI Block cfiCond73 Using cfiCommon0
          CFI Function analiz_INT
          CFI Conditional ??CrossCallReturnLabel_38
          CFI CFA_SP SP+4
          CFI Block cfiCond74 Using cfiCommon0
          CFI (cfiCond74) Function PEREP
          CFI (cfiCond74) Conditional ??CrossCallReturnLabel_39
          CFI (cfiCond74) R24 Frame(CFA_Y, -8)
          CFI (cfiCond74) R25 Frame(CFA_Y, -7)
          CFI (cfiCond74) R26 Frame(CFA_Y, -6)
          CFI (cfiCond74) R27 Frame(CFA_Y, -5)
          CFI (cfiCond74) R4 Frame(CFA_Y, -4)
          CFI (cfiCond74) R5 Frame(CFA_Y, -3)
          CFI (cfiCond74) R6 Frame(CFA_Y, -2)
          CFI (cfiCond74) R7 Frame(CFA_Y, -1)
          CFI (cfiCond74) CFA_SP SP+4
          CFI (cfiCond74) CFA_Y Y+8
          CFI Block cfiCond75 Using cfiCommon0
          CFI (cfiCond75) Function PEREP
          CFI (cfiCond75) Conditional ??CrossCallReturnLabel_40
          CFI (cfiCond75) R24 Frame(CFA_Y, -8)
          CFI (cfiCond75) R25 Frame(CFA_Y, -7)
          CFI (cfiCond75) R26 Frame(CFA_Y, -6)
          CFI (cfiCond75) R27 Frame(CFA_Y, -5)
          CFI (cfiCond75) R4 Frame(CFA_Y, -4)
          CFI (cfiCond75) R5 Frame(CFA_Y, -3)
          CFI (cfiCond75) R6 Frame(CFA_Y, -2)
          CFI (cfiCond75) R7 Frame(CFA_Y, -1)
          CFI (cfiCond75) CFA_SP SP+4
          CFI (cfiCond75) CFA_Y Y+8
          CFI Block cfiCond76 Using cfiCommon0
          CFI (cfiCond76) Function PEREP
          CFI (cfiCond76) Conditional ??CrossCallReturnLabel_41
          CFI (cfiCond76) R24 Frame(CFA_Y, -8)
          CFI (cfiCond76) R25 Frame(CFA_Y, -7)
          CFI (cfiCond76) R26 Frame(CFA_Y, -6)
          CFI (cfiCond76) R27 Frame(CFA_Y, -5)
          CFI (cfiCond76) R4 Frame(CFA_Y, -4)
          CFI (cfiCond76) R5 Frame(CFA_Y, -3)
          CFI (cfiCond76) R6 Frame(CFA_Y, -2)
          CFI (cfiCond76) R7 Frame(CFA_Y, -1)
          CFI (cfiCond76) CFA_SP SP+4
          CFI (cfiCond76) CFA_Y Y+8
          CFI Block cfiCond77 Using cfiCommon0
          CFI (cfiCond77) Function PEREP
          CFI (cfiCond77) Conditional ??CrossCallReturnLabel_42
          CFI (cfiCond77) R24 Frame(CFA_Y, -8)
          CFI (cfiCond77) R25 Frame(CFA_Y, -7)
          CFI (cfiCond77) R26 Frame(CFA_Y, -6)
          CFI (cfiCond77) R27 Frame(CFA_Y, -5)
          CFI (cfiCond77) R4 Frame(CFA_Y, -4)
          CFI (cfiCond77) R5 Frame(CFA_Y, -3)
          CFI (cfiCond77) R6 Frame(CFA_Y, -2)
          CFI (cfiCond77) R7 Frame(CFA_Y, -1)
          CFI (cfiCond77) CFA_SP SP+4
          CFI (cfiCond77) CFA_Y Y+8
          CFI Block cfiCond78 Using cfiCommon0
          CFI (cfiCond78) Function PEREP
          CFI (cfiCond78) Conditional ??CrossCallReturnLabel_43
          CFI (cfiCond78) R24 Frame(CFA_Y, -8)
          CFI (cfiCond78) R25 Frame(CFA_Y, -7)
          CFI (cfiCond78) R26 Frame(CFA_Y, -6)
          CFI (cfiCond78) R27 Frame(CFA_Y, -5)
          CFI (cfiCond78) R4 Frame(CFA_Y, -4)
          CFI (cfiCond78) R5 Frame(CFA_Y, -3)
          CFI (cfiCond78) R6 Frame(CFA_Y, -2)
          CFI (cfiCond78) R7 Frame(CFA_Y, -1)
          CFI (cfiCond78) CFA_SP SP+4
          CFI (cfiCond78) CFA_Y Y+8
          CFI Block cfiPicker79 Using cfiCommon2
          CFI (cfiPicker79) NoFunction
          CFI (cfiPicker79) Picker
        LDS     R16, ct
        RET
          CFI EndBlock cfiCond73
          CFI EndBlock cfiCond74
          CFI EndBlock cfiCond75
          CFI EndBlock cfiCond76
          CFI EndBlock cfiCond77
          CFI EndBlock cfiCond78
          CFI EndBlock cfiPicker79
//  125 
//  126 ///////////////////////////////////////////////////////////////
//  127 //  main
//  128 //////////////////////////////////////////////////////////////

        RSEG CODE:CODE:NOROOT(1)
//  129   bool remote_main() 
remote_main:
          CFI Block cfiBlock80 Using cfiCommon0
          CFI Function remote_main
//  130   {   
//  131     cod_ok=0;//признак готовности кода
        FUNCALL remote_main, du_init
        LOCFRAME CSTACK, 0, STACK
        LOCFRAME RSTACK, 2, STACK
        ARGFRAME RSTACK, 0, STACK
        FUNCALL remote_main, analiz_INT
        LOCFRAME CSTACK, 0, STACK
        LOCFRAME RSTACK, 2, STACK
        ARGFRAME RSTACK, 0, STACK
        FUNCALL remote_main, PEREP
        LOCFRAME CSTACK, 0, STACK
        LOCFRAME RSTACK, 2, STACK
        ARGFRAME RSTACK, 0, STACK
        LDI     R16, 0
        STS     cod_ok, R16
//  132     
//  133     if (ini!=1) du_init();    
        LDS     R16, ??ini
        TST     R16
        BRNE    ??remote_main_0
        RCALL   du_init
//  134     if (intok!=0) analiz_INT();  //INT событие произошло
??remote_main_0:
        LDS     R16, ??intok
        TST     R16
        BREQ    ??remote_main_1
        RCALL   analiz_INT
//  135     
//  136     if (perepoln!=0 ) 
??remote_main_1:
        LDS     R16, ??perepoln
        TST     R16
        BREQ    ??remote_main_2
//  137     {//получили переполнение, значит сигнал закончился
//  138       PEREP();
        RCALL   PEREP
//  139     }   
//  140      return(cod_ok);  
??remote_main_2:
        LDS     R16, cod_ok
        RET
          CFI EndBlock cfiBlock80
//  141   }
//  142 
//  143 
//  144 ///////////////////////////////////////////////////////////////////       
//  145 //                             кодировка
//  146 ///////////////////////////////////////////////////////////////////

        RSEG CODE:CODE:NOROOT(1)
//  147   void coding(uint i, uchar pr)  
coding:
          CFI Block cfiBlock81 Using cfiCommon0
          CFI Function coding
//  148   {
        FUNCALL coding, rprintfFloat
        LOCFRAME CSTACK, 10, STACK
        LOCFRAME RSTACK, 2, STACK
        ARGFRAME RSTACK, 0, STACK
        FUNCALL coding, rprintfStr
        LOCFRAME CSTACK, 10, STACK
        LOCFRAME RSTACK, 2, STACK
        ARGFRAME RSTACK, 0, STACK
        FUNCALL coding, rprintfFloat
        LOCFRAME CSTACK, 10, STACK
        LOCFRAME RSTACK, 2, STACK
        ARGFRAME RSTACK, 0, STACK
        FUNCALL coding, rprintfStr
        LOCFRAME CSTACK, 10, STACK
        LOCFRAME RSTACK, 2, STACK
        ARGFRAME RSTACK, 0, STACK
        FUNCALL coding, rprintfFloat
        LOCFRAME CSTACK, 10, STACK
        LOCFRAME RSTACK, 2, STACK
        ARGFRAME RSTACK, 0, STACK
        FUNCALL coding, rprintfStr
        LOCFRAME CSTACK, 10, STACK
        LOCFRAME RSTACK, 2, STACK
        ARGFRAME RSTACK, 0, STACK
        FUNCALL coding, rprintfStr
        LOCFRAME CSTACK, 10, STACK
        LOCFRAME RSTACK, 2, STACK
        ARGFRAME RSTACK, 0, STACK
        FUNCALL coding, rprintfFloat
        LOCFRAME CSTACK, 10, STACK
        LOCFRAME RSTACK, 2, STACK
        ARGFRAME RSTACK, 0, STACK
        FUNCALL coding, rprintfStr
        LOCFRAME CSTACK, 10, STACK
        LOCFRAME RSTACK, 2, STACK
        ARGFRAME RSTACK, 0, STACK
        FUNCALL coding, rprintfFloat
        LOCFRAME CSTACK, 10, STACK
        LOCFRAME RSTACK, 2, STACK
        ARGFRAME RSTACK, 0, STACK
        FUNCALL coding, rprintfStr
        LOCFRAME CSTACK, 10, STACK
        LOCFRAME RSTACK, 2, STACK
        ARGFRAME RSTACK, 0, STACK
        FUNCALL coding, rprintfFloat
        LOCFRAME CSTACK, 10, STACK
        LOCFRAME RSTACK, 2, STACK
        ARGFRAME RSTACK, 0, STACK
        FUNCALL coding, rprintfStr
        LOCFRAME CSTACK, 10, STACK
        LOCFRAME RSTACK, 2, STACK
        ARGFRAME RSTACK, 0, STACK
        FUNCALL coding, rprintfFloat
        LOCFRAME CSTACK, 10, STACK
        LOCFRAME RSTACK, 2, STACK
        ARGFRAME RSTACK, 0, STACK
        FUNCALL coding, USART_SendChar
        LOCFRAME CSTACK, 10, STACK
        LOCFRAME RSTACK, 2, STACK
        ARGFRAME RSTACK, 0, STACK
        RCALL   ?PROLOGUE10_L09
          CFI R9 Frame(CFA_Y, -1)
          CFI R8 Frame(CFA_Y, -2)
          CFI R7 Frame(CFA_Y, -3)
          CFI R6 Frame(CFA_Y, -4)
          CFI R5 Frame(CFA_Y, -5)
          CFI R4 Frame(CFA_Y, -6)
          CFI R27 Frame(CFA_Y, -7)
          CFI R26 Frame(CFA_Y, -8)
          CFI R25 Frame(CFA_Y, -9)
          CFI R24 Frame(CFA_Y, -10)
          CFI CFA_Y Y+10
        REQUIRE ?Register_R4_is_cg_reg
        REQUIRE ?Register_R5_is_cg_reg
        REQUIRE ?Register_R6_is_cg_reg
        REQUIRE ?Register_R8_is_cg_reg
        REQUIRE ?Register_R9_is_cg_reg
        MOVW    R25:R24, R17:R16
        MOV     R6, R18
//  149  
//  150     
//  151     float v=len[i];
        RCALL   ?Subroutine103
??CrossCallReturnLabel_188:
        LDI     R26, LOW(len)
        LDI     R27, (len) >> 8
        ADD     R26, R16
        ADC     R27, R17
        LD      R0, X+
        LD      R1, X+
        LD      R2, X+
        LD      R3, X
        SBIW    R27:R26, 3
//  152              
//  153             //  sst=sst+v;
//  154        if (i>1) {
        CPI     R24, 2
        LDI     R16, 0
        CPC     R25, R16
        BRCC    $+2+2
        RJMP    ??CrossCallReturnLabel_192
//  155           
//  156   //-------------   версия  больше-меньше  ------------------
//  157               //  if (len[i]>len[i-1])  cod1+=1;
//  158          
//  159              //  if (len[i]<=len[i-1]) cod1+=3;
//  160    /*        
//  161     if (ind==4) { 
//  162                        if (len[i]>len[i-1]) { SET(cod4,c4); }
//  163                       // else cod4<<=1;
//  164                        c4++;
//  165                        if (c4>=15) ind=5;
//  166                     }
//  167          
//  168               
//  169 
//  170            if (ind==3) { 
//  171                        if (len[i]>len[i-1]) { SET(cod3,c3); }
//  172                       // else cod3<<=1;
//  173                        c3++;
//  174                        if (c3>=15) ind=4;
//  175                     }
//  176         
//  177          
//  178            if (ind==2) { 
//  179                        if (len[i]>len[i-1]) { SET(cod2,c2); }
//  180                       // else cod2<<=1;
//  181                        c2++;
//  182                        if (c2>=15) ind=3;
//  183                     }
//  184          
//  185          if (ind==1) { 
//  186            if (len[i]>len[i-1]) { SET(cod1,c1); }
//  187                        //else cod1<<=1;
//  188                        c1++;
//  189                        if (c1>=15) ind=2;
//  190                     }
//  191          
//  192       */ 
//  193          
//  194        /*  
//  195          if (ind==4) { 
//  196            if (len[i]<3) { SET(cod4,c4);c4++; }
//  197            if (len[i]>=3 && len[i]<5)  {  c4++;  c4++;}
//  198            if (len[i]>=5 && len[i]<25) { SET(cod4,c4); c4++;    if (c4<=15)  SET(cod4,c4);  c4++;}
//  199            if (len[i]>=25)  {  c4++;  c4++; c4++;}
//  200                        if (c4>=15) ind=0;
//  201                      }
//  202       */
//  203          
//  204          
//  205       //-----   версия v2  по относительной длине -------  
//  206 #define   set1 SET(cod1,c1);c1++   
//  207 #define   set2 SET(cod2,c2);c2++  
//  208 #define   set3 SET(cod3,c3);c3++  
//  209          
//  210         
//  211        //ДЕЛАТЬ точность менее 0.5 опасно, т.к. ШУМ измерения
//  212           if (ind==3) { 
        MOVW    R5:R4, R25:R24
        LSL     R4
        ROL     R5
        LDS     R16, ind
        CPI     R16, 3
        BREQ    $+2+2
        RJMP    ??coding_0
//  213             
//  214             if (v<1.5) cod3=cod3+i;
        LDS     R20, c3
        RCALL   ?Subroutine1
??CrossCallReturnLabel_2:
        BRCC    ??coding_1
        RCALL   ??Subroutine147_0
??CrossCallReturnLabel_367:
        RCALL   ?Subroutine29
//  215            if (v>=1.5 && v<2) { set3; c3++;    } else
//  216            if (v>=2 && v<3)   { set3; cod3=cod3+i;  c3++; } else
??CrossCallReturnLabel_345:
        RCALL   ?Subroutine56
??CrossCallReturnLabel_70:
        BRCC    ??coding_2
        RCALL   ?Subroutine61
??CrossCallReturnLabel_81:
        BRCS    ??coding_3
//  217            if (v>=3 && v<5)   { set3; cod3=cod3+i+i;  c3++; if (c3<=14) {set3; cod3=cod3+i;   c3++; }  }   else                                  
??coding_2:
        RCALL   ?Subroutine62
??CrossCallReturnLabel_84:
        BRCC    ??coding_4
        RCALL   ?Subroutine63
??CrossCallReturnLabel_87:
        BRCC    ??coding_4
        RCALL   ??Subroutine147_0
??CrossCallReturnLabel_368:
        RCALL   ?Subroutine33
??CrossCallReturnLabel_46:
        RCALL   ??Subroutine143_0
??CrossCallReturnLabel_336:
        RCALL   ?Subroutine42
??CrossCallReturnLabel_299:
        ST      Z, R16
        CPI     R16, 15
        BRCC    ??coding_5
??coding_3:
        RCALL   ??Subroutine147_0
??CrossCallReturnLabel_369:
        RCALL   ?Subroutine64
??CrossCallReturnLabel_90:
        LDS     R20, c3
        RCALL   ?Subroutine2
??CrossCallReturnLabel_5:
        RJMP    ??CrossCallReturnLabel_337
??coding_1:
        RCALL   ?Subroutine58
??CrossCallReturnLabel_76:
        BRCC    ??CrossCallReturnLabel_345
        RCALL   ??Subroutine147_0
??CrossCallReturnLabel_370:
        RCALL   ?Subroutine100
??CrossCallReturnLabel_169:
        RCALL   ??Subroutine143_0
??CrossCallReturnLabel_337:
        RCALL   ?Subroutine42
??CrossCallReturnLabel_300:
        RJMP    ??coding_6
//  218            if (v>5 && v<7)    { c3++;   if (c3<=15)  c3++; }
??coding_4:
        RCALL   ?Subroutine54
??CrossCallReturnLabel_65:
        BRCC    ??coding_5
        RCALL   ?Subroutine57
??CrossCallReturnLabel_73:
        BRCC    ??coding_5
        LDI     R30, LOW(c3)
        LDI     R31, (c3) >> 8
        RCALL   ?Subroutine35
??CrossCallReturnLabel_49:
        BRCC    ??coding_5
        INC     R16
??coding_6:
        ST      Z, R16
//  219          
//  220             
//  221            if (c3>=16) {ind=1; cod1=cod1<<2; cod2=cod2<<2; c1=0; c2=0; c3=0;}//пошли по кругу
??coding_5:
        LDS     R16, c3
        CPI     R16, 16
        BRCC    $+2+2
        RJMP    ??coding_7
        LDI     R16, 1
        STS     ind, R16
        RCALL   ?Subroutine105
??CrossCallReturnLabel_193:
        RCALL   ?Subroutine37
??CrossCallReturnLabel_189:
        RCALL   ??Subroutine143_0
??CrossCallReturnLabel_338:
        RCALL   ??Subroutine148_0
??CrossCallReturnLabel_374:
        RCALL   ?Subroutine37
??CrossCallReturnLabel_190:
        RCALL   ??Subroutine143_0
??CrossCallReturnLabel_339:
        STS     c1, R21
        STS     c2, R21
        STS     c3, R21
        RJMP    ??coding_8
//  222         
//  223                      }
//  224          
//  225                 
//  226           if (ind==2) { 
??coding_0:
        CPI     R16, 2
        BRNE    ??coding_9
//  227           
//  228            if (v<1.5) cod2=cod2+i;
        LDS     R20, c2
        RCALL   ?Subroutine1
??CrossCallReturnLabel_3:
        BRCC    ??coding_10
        RCALL   ??Subroutine148_0
??CrossCallReturnLabel_375:
        RCALL   ?Subroutine29
//  229            if (v>=1.5 && v<2) { set2; c2++;  cod2=cod2+i;  } else
//  230            if (v>=2 && v<3)   { set2; cod2=cod2+i;  c2++; } else
??CrossCallReturnLabel_346:
        RCALL   ?Subroutine56
??CrossCallReturnLabel_71:
        BRCC    ??coding_11
        RCALL   ?Subroutine61
??CrossCallReturnLabel_82:
        BRCS    ??coding_12
//  231            if (v>=3 && v<5)   { set2; cod2=cod2+i+i;  c2++; if (c2<=14) { set2; cod2=cod2+i;  c2++; }  }   else                                  
??coding_11:
        RCALL   ?Subroutine62
??CrossCallReturnLabel_85:
        BRCC    ??coding_13
        RCALL   ?Subroutine63
??CrossCallReturnLabel_88:
        BRCC    ??coding_13
        RCALL   ??Subroutine148_0
??CrossCallReturnLabel_376:
        RCALL   ?Subroutine33
??CrossCallReturnLabel_47:
        RCALL   ?Subroutine27
??CrossCallReturnLabel_323:
        CPI     R16, 15
        BRCC    ??coding_14
??coding_12:
        RCALL   ??Subroutine148_0
??CrossCallReturnLabel_377:
        RCALL   ?Subroutine64
??CrossCallReturnLabel_91:
        LDS     R20, c2
        RCALL   ?Subroutine2
??CrossCallReturnLabel_6:
        LDI     R30, LOW(c2)
        LDI     R31, (c2) >> 8
        RCALL   ??Subroutine139_0
??CrossCallReturnLabel_297:
        RJMP    ??coding_15
??coding_10:
        RCALL   ?Subroutine58
??CrossCallReturnLabel_77:
        BRCC    ??CrossCallReturnLabel_346
        RCALL   ??Subroutine148_0
??CrossCallReturnLabel_378:
        RCALL   ?Subroutine100
??CrossCallReturnLabel_170:
        RCALL   ?Subroutine27
??CrossCallReturnLabel_324:
        RCALL   ??Subroutine148_0
??CrossCallReturnLabel_379:
        LD      R16, Z
        RCALL   ??Subroutine142_0
??CrossCallReturnLabel_343:
        RJMP    ??coding_14
//  232            if (v>5 && v<7)    { c2++;   if (c2<=15)  c2++; }
??coding_13:
        RCALL   ?Subroutine54
??CrossCallReturnLabel_66:
        BRCC    ??coding_14
        RCALL   ?Subroutine57
??CrossCallReturnLabel_74:
        BRCC    ??coding_14
        LDI     R30, LOW(c2)
        LDI     R31, (c2) >> 8
        RCALL   ?Subroutine35
??CrossCallReturnLabel_50:
        BRCC    ??coding_14
        INC     R16
??coding_15:
        ST      Z, R16
//  233          
//  234                 if (c2>=16) ind=3;
??coding_14:
        LDS     R16, c2
        CPI     R16, 16
        BRCS    ??coding_7
        LDI     R16, 3
        RJMP    ??coding_16
//  235                      }
//  236                 
//  237          if (ind==1) { 
??coding_9:
        CPI     R16, 1
        BRNE    ??coding_7
//  238            
//  239            if (v<1.5) cod1=cod1+i;
??coding_8:
        LDS     R20, c1
        RCALL   ?Subroutine1
??CrossCallReturnLabel_4:
        BRCC    ??coding_17
        RCALL   ?Subroutine105
??CrossCallReturnLabel_194:
        RCALL   ?Subroutine29
//  240            if (v>=1.5 && v<2) { set1; c1++;  cod1=cod1+i;  } else
//  241            if (v>=2 && v<3)   { set1; cod1=cod1+i;  c1++; } else
??CrossCallReturnLabel_347:
        RCALL   ?Subroutine56
??CrossCallReturnLabel_72:
        BRCC    ??coding_18
        RCALL   ?Subroutine61
??CrossCallReturnLabel_83:
        BRCS    ??coding_19
//  242            if (v>=3 && v<5)   { set1; cod1=cod1+i+i;  c1++; if (c1<=14) { set1; cod1=cod1+i; c1++; }  }   else                                  
??coding_18:
        RCALL   ?Subroutine62
??CrossCallReturnLabel_86:
        BRCC    ??coding_20
        RCALL   ?Subroutine63
??CrossCallReturnLabel_89:
        BRCC    ??coding_20
        RCALL   ?Subroutine105
??CrossCallReturnLabel_195:
        RCALL   ?Subroutine33
??CrossCallReturnLabel_48:
        RCALL   ?Subroutine28
??CrossCallReturnLabel_325:
        CPI     R16, 15
        BRCC    ??coding_21
??coding_19:
        RCALL   ?Subroutine105
??CrossCallReturnLabel_196:
        RCALL   ?Subroutine64
??CrossCallReturnLabel_92:
        LDS     R20, c1
        RCALL   ?Subroutine2
??CrossCallReturnLabel_7:
        LDI     R30, LOW(c1)
        LDI     R31, (c1) >> 8
        RCALL   ??Subroutine139_0
??CrossCallReturnLabel_298:
        RJMP    ??coding_22
??coding_17:
        RCALL   ?Subroutine58
??CrossCallReturnLabel_78:
        BRCC    ??CrossCallReturnLabel_347
        RCALL   ?Subroutine105
??CrossCallReturnLabel_197:
        RCALL   ?Subroutine100
??CrossCallReturnLabel_171:
        RCALL   ?Subroutine28
??CrossCallReturnLabel_326:
        RCALL   ?Subroutine105
??CrossCallReturnLabel_198:
        LD      R16, Z
        RCALL   ??Subroutine142_0
??CrossCallReturnLabel_344:
        RJMP    ??coding_21
//  243            if (v>5 && v<7)    { c1++;   if (c1<=15)  c1++; }
??coding_20:
        RCALL   ?Subroutine54
??CrossCallReturnLabel_67:
        BRCC    ??coding_21
        RCALL   ?Subroutine57
??CrossCallReturnLabel_75:
        BRCC    ??coding_21
        LDI     R30, LOW(c1)
        LDI     R31, (c1) >> 8
        RCALL   ?Subroutine35
??CrossCallReturnLabel_51:
        BRCC    ??coding_21
        INC     R16
??coding_22:
        ST      Z, R16
//  244          
//  245                 if (c1>=16) ind=2;
??coding_21:
        LDS     R16, c1
        CPI     R16, 16
        BRCS    ??coding_7
        LDI     R16, 2
??coding_16:
        STS     ind, R16
//  246                      }
//  247           
//  248          
//  249         
//  250          
//  251       
//  252              cod_ok=1;//код готов         
??coding_7:
        LDI     R16, 1
        STS     cod_ok, R16
//  253          
//  254          if (pr==0) {
        TST     R6
        BRNE    ??CrossCallReturnLabel_192
//  255                      rprintfFloat(2, i);
        MOVW    R17:R16, R25:R24
        LDI     R18, 0
        RCALL   ??Subroutine137_0
??CrossCallReturnLabel_309:
        LDI     R16, 2
        RCALL   rprintfFloat
//  256                      rprintfStr("  / abslen= ");
        LDI     R16, LOW(`?<Constant "  / abslen= ">`)
        LDI     R17, (`?<Constant "  / abslen= ">`) >> 8
        RCALL   rprintfStr
//  257                       rprintfFloat(9, dim1[i]+ (256*dim2[i])  );
        LSL     R24
        ROL     R25
        MOVW    R31:R30, R25:R24
        SUBI    R30, LOW((-(dim1) & 0xFFFF))
        SBCI    R31, (-(dim1) & 0xFFFF) >> 8
        RCALL   ?Subroutine101
??CrossCallReturnLabel_173:
        MOVW    R31:R30, R25:R24
        SUBI    R30, LOW((-(dim2) & 0xFFFF))
        SBCI    R31, (-(dim2) & 0xFFFF) >> 8
        LD      R19, Z
        LDI     R18, 0
        ADD     R17, R19
        RCALL   ??Subroutine137_0
??CrossCallReturnLabel_310:
        LDI     R16, 9
        RCALL   rprintfFloat
//  258                       rprintfStr("  / len= ");
        LDI     R16, LOW(`?<Constant "  / len= ">`)
        LDI     R17, (`?<Constant "  / len= ">`) >> 8
        RCALL   rprintfStr
//  259                   rprintfFloat(4,  len[i]);
        LD      R20, X+
        LD      R21, X+
        LD      R22, X+
        LD      R23, X
        LDI     R16, 4
        RCALL   rprintfFloat
//  260                    rprintfStr("  ");
        LDI     R16, LOW(`?<Constant "  ">`)
        LDI     R17, (`?<Constant "  ">`) >> 8
        RCALL   rprintfStr
//  261                  rprintfStr("  / cod1= ");
        LDI     R16, LOW(`?<Constant "  / cod1= ">`)
        LDI     R17, (`?<Constant "  / cod1= ">`) >> 8
        RCALL   ?Subroutine32
//  262                   rprintfFloat(6, cod1);
//  263                    rprintfStr(" / cod2= ");
??CrossCallReturnLabel_307:
        LDI     R16, LOW(`?<Constant " / cod2= ">`)
        LDI     R17, (`?<Constant " / cod2= ">`) >> 8
        RCALL   ?Subroutine44
//  264                   rprintfFloat(6,  cod2);
??CrossCallReturnLabel_373:
        RCALL   ??Subroutine140_0
//  265                    rprintfStr(" / cod3= ");
??CrossCallReturnLabel_304:
        LDI     R16, LOW(`?<Constant " / cod3= ">`)
        LDI     R17, (`?<Constant " / cod3= ">`) >> 8
        RCALL   ?Subroutine46
//  266                   rprintfFloat(6,  cod3);
??CrossCallReturnLabel_366:
        RCALL   ??Subroutine140_0
//  267                    rprintfStr("/ minlen=");
??CrossCallReturnLabel_303:
        LDI     R16, LOW(`?<Constant "/ minlen=">`)
        LDI     R17, (`?<Constant "/ minlen=">`) >> 8
        RCALL   rprintfStr
//  268                    rprintfFloat(9,   minimallen);
        RCALL   ?Subroutine96
//  269                    ent;
//  270                 }
//  271          
//  272          
//  273                    }
??CrossCallReturnLabel_163:
        RCALL   ?Subroutine101
??CrossCallReturnLabel_174:
        RCALL   ?Subroutine47
//  274        
//  275        
//  276        
//  277   
//  278   }
??CrossCallReturnLabel_192:
        LDI     R30, 10
        RJMP    ?EPILOGUE_B10_L09
          CFI EndBlock cfiBlock81

        RSEG CODE:CODE:NOROOT(1)
?Subroutine63:
          CFI Block cfiCond82 Using cfiCommon0
          CFI Function coding
          CFI Conditional ??CrossCallReturnLabel_87
          CFI R24 Frame(CFA_Y, -10)
          CFI R25 Frame(CFA_Y, -9)
          CFI R26 Frame(CFA_Y, -8)
          CFI R27 Frame(CFA_Y, -7)
          CFI R4 Frame(CFA_Y, -6)
          CFI R5 Frame(CFA_Y, -5)
          CFI R6 Frame(CFA_Y, -4)
          CFI R7 Frame(CFA_Y, -3)
          CFI R8 Frame(CFA_Y, -2)
          CFI R9 Frame(CFA_Y, -1)
          CFI CFA_SP SP+4
          CFI CFA_Y Y+10
          CFI Block cfiCond83 Using cfiCommon0
          CFI (cfiCond83) Function coding
          CFI (cfiCond83) Conditional ??CrossCallReturnLabel_88
          CFI (cfiCond83) R24 Frame(CFA_Y, -10)
          CFI (cfiCond83) R25 Frame(CFA_Y, -9)
          CFI (cfiCond83) R26 Frame(CFA_Y, -8)
          CFI (cfiCond83) R27 Frame(CFA_Y, -7)
          CFI (cfiCond83) R4 Frame(CFA_Y, -6)
          CFI (cfiCond83) R5 Frame(CFA_Y, -5)
          CFI (cfiCond83) R6 Frame(CFA_Y, -4)
          CFI (cfiCond83) R7 Frame(CFA_Y, -3)
          CFI (cfiCond83) R8 Frame(CFA_Y, -2)
          CFI (cfiCond83) R9 Frame(CFA_Y, -1)
          CFI (cfiCond83) CFA_SP SP+4
          CFI (cfiCond83) CFA_Y Y+10
          CFI Block cfiCond84 Using cfiCommon0
          CFI (cfiCond84) Function coding
          CFI (cfiCond84) Conditional ??CrossCallReturnLabel_89
          CFI (cfiCond84) R24 Frame(CFA_Y, -10)
          CFI (cfiCond84) R25 Frame(CFA_Y, -9)
          CFI (cfiCond84) R26 Frame(CFA_Y, -8)
          CFI (cfiCond84) R27 Frame(CFA_Y, -7)
          CFI (cfiCond84) R4 Frame(CFA_Y, -6)
          CFI (cfiCond84) R5 Frame(CFA_Y, -5)
          CFI (cfiCond84) R6 Frame(CFA_Y, -4)
          CFI (cfiCond84) R7 Frame(CFA_Y, -3)
          CFI (cfiCond84) R8 Frame(CFA_Y, -2)
          CFI (cfiCond84) R9 Frame(CFA_Y, -1)
          CFI (cfiCond84) CFA_SP SP+4
          CFI (cfiCond84) CFA_Y Y+10
          CFI Block cfiPicker85 Using cfiCommon2
          CFI (cfiPicker85) NoFunction
          CFI (cfiPicker85) Picker
        LDI     R22, 160
        RJMP    ?F_CMP_LT_L04
          CFI EndBlock cfiCond82
          CFI EndBlock cfiCond83
          CFI EndBlock cfiCond84
          CFI EndBlock cfiPicker85

        RSEG CODE:CODE:NOROOT(1)
?Subroutine62:
          CFI Block cfiCond86 Using cfiCommon0
          CFI Function coding
          CFI Conditional ??CrossCallReturnLabel_84
          CFI R24 Frame(CFA_Y, -10)
          CFI R25 Frame(CFA_Y, -9)
          CFI R26 Frame(CFA_Y, -8)
          CFI R27 Frame(CFA_Y, -7)
          CFI R4 Frame(CFA_Y, -6)
          CFI R5 Frame(CFA_Y, -5)
          CFI R6 Frame(CFA_Y, -4)
          CFI R7 Frame(CFA_Y, -3)
          CFI R8 Frame(CFA_Y, -2)
          CFI R9 Frame(CFA_Y, -1)
          CFI CFA_SP SP+4
          CFI CFA_Y Y+10
          CFI Block cfiCond87 Using cfiCommon0
          CFI (cfiCond87) Function coding
          CFI (cfiCond87) Conditional ??CrossCallReturnLabel_85
          CFI (cfiCond87) R24 Frame(CFA_Y, -10)
          CFI (cfiCond87) R25 Frame(CFA_Y, -9)
          CFI (cfiCond87) R26 Frame(CFA_Y, -8)
          CFI (cfiCond87) R27 Frame(CFA_Y, -7)
          CFI (cfiCond87) R4 Frame(CFA_Y, -6)
          CFI (cfiCond87) R5 Frame(CFA_Y, -5)
          CFI (cfiCond87) R6 Frame(CFA_Y, -4)
          CFI (cfiCond87) R7 Frame(CFA_Y, -3)
          CFI (cfiCond87) R8 Frame(CFA_Y, -2)
          CFI (cfiCond87) R9 Frame(CFA_Y, -1)
          CFI (cfiCond87) CFA_SP SP+4
          CFI (cfiCond87) CFA_Y Y+10
          CFI Block cfiCond88 Using cfiCommon0
          CFI (cfiCond88) Function coding
          CFI (cfiCond88) Conditional ??CrossCallReturnLabel_86
          CFI (cfiCond88) R24 Frame(CFA_Y, -10)
          CFI (cfiCond88) R25 Frame(CFA_Y, -9)
          CFI (cfiCond88) R26 Frame(CFA_Y, -8)
          CFI (cfiCond88) R27 Frame(CFA_Y, -7)
          CFI (cfiCond88) R4 Frame(CFA_Y, -6)
          CFI (cfiCond88) R5 Frame(CFA_Y, -5)
          CFI (cfiCond88) R6 Frame(CFA_Y, -4)
          CFI (cfiCond88) R7 Frame(CFA_Y, -3)
          CFI (cfiCond88) R8 Frame(CFA_Y, -2)
          CFI (cfiCond88) R9 Frame(CFA_Y, -1)
          CFI (cfiCond88) CFA_SP SP+4
          CFI (cfiCond88) CFA_Y Y+10
          CFI Block cfiPicker89 Using cfiCommon2
          CFI (cfiPicker89) NoFunction
          CFI (cfiPicker89) Picker
        LDI     R22, 64
        RJMP    ?F_CMP_GE_L04
          CFI EndBlock cfiCond86
          CFI EndBlock cfiCond87
          CFI EndBlock cfiCond88
          CFI EndBlock cfiPicker89

        RSEG CODE:CODE:NOROOT(1)
?Subroutine61:
          CFI Block cfiCond90 Using cfiCommon0
          CFI Function coding
          CFI Conditional ??CrossCallReturnLabel_81
          CFI R24 Frame(CFA_Y, -10)
          CFI R25 Frame(CFA_Y, -9)
          CFI R26 Frame(CFA_Y, -8)
          CFI R27 Frame(CFA_Y, -7)
          CFI R4 Frame(CFA_Y, -6)
          CFI R5 Frame(CFA_Y, -5)
          CFI R6 Frame(CFA_Y, -4)
          CFI R7 Frame(CFA_Y, -3)
          CFI R8 Frame(CFA_Y, -2)
          CFI R9 Frame(CFA_Y, -1)
          CFI CFA_SP SP+4
          CFI CFA_Y Y+10
          CFI Block cfiCond91 Using cfiCommon0
          CFI (cfiCond91) Function coding
          CFI (cfiCond91) Conditional ??CrossCallReturnLabel_82
          CFI (cfiCond91) R24 Frame(CFA_Y, -10)
          CFI (cfiCond91) R25 Frame(CFA_Y, -9)
          CFI (cfiCond91) R26 Frame(CFA_Y, -8)
          CFI (cfiCond91) R27 Frame(CFA_Y, -7)
          CFI (cfiCond91) R4 Frame(CFA_Y, -6)
          CFI (cfiCond91) R5 Frame(CFA_Y, -5)
          CFI (cfiCond91) R6 Frame(CFA_Y, -4)
          CFI (cfiCond91) R7 Frame(CFA_Y, -3)
          CFI (cfiCond91) R8 Frame(CFA_Y, -2)
          CFI (cfiCond91) R9 Frame(CFA_Y, -1)
          CFI (cfiCond91) CFA_SP SP+4
          CFI (cfiCond91) CFA_Y Y+10
          CFI Block cfiCond92 Using cfiCommon0
          CFI (cfiCond92) Function coding
          CFI (cfiCond92) Conditional ??CrossCallReturnLabel_83
          CFI (cfiCond92) R24 Frame(CFA_Y, -10)
          CFI (cfiCond92) R25 Frame(CFA_Y, -9)
          CFI (cfiCond92) R26 Frame(CFA_Y, -8)
          CFI (cfiCond92) R27 Frame(CFA_Y, -7)
          CFI (cfiCond92) R4 Frame(CFA_Y, -6)
          CFI (cfiCond92) R5 Frame(CFA_Y, -5)
          CFI (cfiCond92) R6 Frame(CFA_Y, -4)
          CFI (cfiCond92) R7 Frame(CFA_Y, -3)
          CFI (cfiCond92) R8 Frame(CFA_Y, -2)
          CFI (cfiCond92) R9 Frame(CFA_Y, -1)
          CFI (cfiCond92) CFA_SP SP+4
          CFI (cfiCond92) CFA_Y Y+10
          CFI Block cfiPicker93 Using cfiCommon2
          CFI (cfiPicker93) NoFunction
          CFI (cfiPicker93) Picker
        LDI     R22, 64
        RJMP    ?F_CMP_LT_L04
          CFI EndBlock cfiCond90
          CFI EndBlock cfiCond91
          CFI EndBlock cfiCond92
          CFI EndBlock cfiPicker93

        RSEG CODE:CODE:NOROOT(1)
?Subroutine58:
          CFI Block cfiCond94 Using cfiCommon0
          CFI Function coding
          CFI Conditional ??CrossCallReturnLabel_76
          CFI R24 Frame(CFA_Y, -10)
          CFI R25 Frame(CFA_Y, -9)
          CFI R26 Frame(CFA_Y, -8)
          CFI R27 Frame(CFA_Y, -7)
          CFI R4 Frame(CFA_Y, -6)
          CFI R5 Frame(CFA_Y, -5)
          CFI R6 Frame(CFA_Y, -4)
          CFI R7 Frame(CFA_Y, -3)
          CFI R8 Frame(CFA_Y, -2)
          CFI R9 Frame(CFA_Y, -1)
          CFI CFA_SP SP+4
          CFI CFA_Y Y+10
          CFI Block cfiCond95 Using cfiCommon0
          CFI (cfiCond95) Function coding
          CFI (cfiCond95) Conditional ??CrossCallReturnLabel_77
          CFI (cfiCond95) R24 Frame(CFA_Y, -10)
          CFI (cfiCond95) R25 Frame(CFA_Y, -9)
          CFI (cfiCond95) R26 Frame(CFA_Y, -8)
          CFI (cfiCond95) R27 Frame(CFA_Y, -7)
          CFI (cfiCond95) R4 Frame(CFA_Y, -6)
          CFI (cfiCond95) R5 Frame(CFA_Y, -5)
          CFI (cfiCond95) R6 Frame(CFA_Y, -4)
          CFI (cfiCond95) R7 Frame(CFA_Y, -3)
          CFI (cfiCond95) R8 Frame(CFA_Y, -2)
          CFI (cfiCond95) R9 Frame(CFA_Y, -1)
          CFI (cfiCond95) CFA_SP SP+4
          CFI (cfiCond95) CFA_Y Y+10
          CFI Block cfiCond96 Using cfiCommon0
          CFI (cfiCond96) Function coding
          CFI (cfiCond96) Conditional ??CrossCallReturnLabel_78
          CFI (cfiCond96) R24 Frame(CFA_Y, -10)
          CFI (cfiCond96) R25 Frame(CFA_Y, -9)
          CFI (cfiCond96) R26 Frame(CFA_Y, -8)
          CFI (cfiCond96) R27 Frame(CFA_Y, -7)
          CFI (cfiCond96) R4 Frame(CFA_Y, -6)
          CFI (cfiCond96) R5 Frame(CFA_Y, -5)
          CFI (cfiCond96) R6 Frame(CFA_Y, -4)
          CFI (cfiCond96) R7 Frame(CFA_Y, -3)
          CFI (cfiCond96) R8 Frame(CFA_Y, -2)
          CFI (cfiCond96) R9 Frame(CFA_Y, -1)
          CFI (cfiCond96) CFA_SP SP+4
          CFI (cfiCond96) CFA_Y Y+10
          CFI Block cfiPicker97 Using cfiCommon2
          CFI (cfiPicker97) NoFunction
          CFI (cfiPicker97) Picker
        LDI     R22, 0
        LDI     R23, 64
        RJMP    ?F_CMP_LT_L04
          CFI EndBlock cfiCond94
          CFI EndBlock cfiCond95
          CFI EndBlock cfiCond96
          CFI EndBlock cfiPicker97

        RSEG CODE:CODE:NOROOT(1)
?Subroutine57:
          CFI Block cfiCond98 Using cfiCommon0
          CFI Function coding
          CFI Conditional ??CrossCallReturnLabel_73
          CFI R24 Frame(CFA_Y, -10)
          CFI R25 Frame(CFA_Y, -9)
          CFI R26 Frame(CFA_Y, -8)
          CFI R27 Frame(CFA_Y, -7)
          CFI R4 Frame(CFA_Y, -6)
          CFI R5 Frame(CFA_Y, -5)
          CFI R6 Frame(CFA_Y, -4)
          CFI R7 Frame(CFA_Y, -3)
          CFI R8 Frame(CFA_Y, -2)
          CFI R9 Frame(CFA_Y, -1)
          CFI CFA_SP SP+4
          CFI CFA_Y Y+10
          CFI Block cfiCond99 Using cfiCommon0
          CFI (cfiCond99) Function coding
          CFI (cfiCond99) Conditional ??CrossCallReturnLabel_74
          CFI (cfiCond99) R24 Frame(CFA_Y, -10)
          CFI (cfiCond99) R25 Frame(CFA_Y, -9)
          CFI (cfiCond99) R26 Frame(CFA_Y, -8)
          CFI (cfiCond99) R27 Frame(CFA_Y, -7)
          CFI (cfiCond99) R4 Frame(CFA_Y, -6)
          CFI (cfiCond99) R5 Frame(CFA_Y, -5)
          CFI (cfiCond99) R6 Frame(CFA_Y, -4)
          CFI (cfiCond99) R7 Frame(CFA_Y, -3)
          CFI (cfiCond99) R8 Frame(CFA_Y, -2)
          CFI (cfiCond99) R9 Frame(CFA_Y, -1)
          CFI (cfiCond99) CFA_SP SP+4
          CFI (cfiCond99) CFA_Y Y+10
          CFI Block cfiCond100 Using cfiCommon0
          CFI (cfiCond100) Function coding
          CFI (cfiCond100) Conditional ??CrossCallReturnLabel_75
          CFI (cfiCond100) R24 Frame(CFA_Y, -10)
          CFI (cfiCond100) R25 Frame(CFA_Y, -9)
          CFI (cfiCond100) R26 Frame(CFA_Y, -8)
          CFI (cfiCond100) R27 Frame(CFA_Y, -7)
          CFI (cfiCond100) R4 Frame(CFA_Y, -6)
          CFI (cfiCond100) R5 Frame(CFA_Y, -5)
          CFI (cfiCond100) R6 Frame(CFA_Y, -4)
          CFI (cfiCond100) R7 Frame(CFA_Y, -3)
          CFI (cfiCond100) R8 Frame(CFA_Y, -2)
          CFI (cfiCond100) R9 Frame(CFA_Y, -1)
          CFI (cfiCond100) CFA_SP SP+4
          CFI (cfiCond100) CFA_Y Y+10
          CFI Block cfiPicker101 Using cfiCommon2
          CFI (cfiPicker101) NoFunction
          CFI (cfiPicker101) Picker
        LDI     R20, 0
        LDI     R22, 224
        RJMP    ?F_CMP_LT_L04
          CFI EndBlock cfiCond98
          CFI EndBlock cfiCond99
          CFI EndBlock cfiCond100
          CFI EndBlock cfiPicker101

        RSEG CODE:CODE:NOROOT(1)
?Subroutine56:
          CFI Block cfiCond102 Using cfiCommon0
          CFI Function coding
          CFI Conditional ??CrossCallReturnLabel_70
          CFI R24 Frame(CFA_Y, -10)
          CFI R25 Frame(CFA_Y, -9)
          CFI R26 Frame(CFA_Y, -8)
          CFI R27 Frame(CFA_Y, -7)
          CFI R4 Frame(CFA_Y, -6)
          CFI R5 Frame(CFA_Y, -5)
          CFI R6 Frame(CFA_Y, -4)
          CFI R7 Frame(CFA_Y, -3)
          CFI R8 Frame(CFA_Y, -2)
          CFI R9 Frame(CFA_Y, -1)
          CFI CFA_SP SP+4
          CFI CFA_Y Y+10
          CFI Block cfiCond103 Using cfiCommon0
          CFI (cfiCond103) Function coding
          CFI (cfiCond103) Conditional ??CrossCallReturnLabel_71
          CFI (cfiCond103) R24 Frame(CFA_Y, -10)
          CFI (cfiCond103) R25 Frame(CFA_Y, -9)
          CFI (cfiCond103) R26 Frame(CFA_Y, -8)
          CFI (cfiCond103) R27 Frame(CFA_Y, -7)
          CFI (cfiCond103) R4 Frame(CFA_Y, -6)
          CFI (cfiCond103) R5 Frame(CFA_Y, -5)
          CFI (cfiCond103) R6 Frame(CFA_Y, -4)
          CFI (cfiCond103) R7 Frame(CFA_Y, -3)
          CFI (cfiCond103) R8 Frame(CFA_Y, -2)
          CFI (cfiCond103) R9 Frame(CFA_Y, -1)
          CFI (cfiCond103) CFA_SP SP+4
          CFI (cfiCond103) CFA_Y Y+10
          CFI Block cfiCond104 Using cfiCommon0
          CFI (cfiCond104) Function coding
          CFI (cfiCond104) Conditional ??CrossCallReturnLabel_72
          CFI (cfiCond104) R24 Frame(CFA_Y, -10)
          CFI (cfiCond104) R25 Frame(CFA_Y, -9)
          CFI (cfiCond104) R26 Frame(CFA_Y, -8)
          CFI (cfiCond104) R27 Frame(CFA_Y, -7)
          CFI (cfiCond104) R4 Frame(CFA_Y, -6)
          CFI (cfiCond104) R5 Frame(CFA_Y, -5)
          CFI (cfiCond104) R6 Frame(CFA_Y, -4)
          CFI (cfiCond104) R7 Frame(CFA_Y, -3)
          CFI (cfiCond104) R8 Frame(CFA_Y, -2)
          CFI (cfiCond104) R9 Frame(CFA_Y, -1)
          CFI (cfiCond104) CFA_SP SP+4
          CFI (cfiCond104) CFA_Y Y+10
          CFI Block cfiPicker105 Using cfiCommon2
          CFI (cfiPicker105) NoFunction
          CFI (cfiPicker105) Picker
        LDI     R22, 0
        LDI     R23, 64
        MOVW    R17:R16, R1:R0
        RJMP    ?F_CMP_GE_L04
          CFI EndBlock cfiCond102
          CFI EndBlock cfiCond103
          CFI EndBlock cfiCond104
          CFI EndBlock cfiPicker105

        RSEG CODE:CODE:NOROOT(1)
?Subroutine54:
          CFI Block cfiCond106 Using cfiCommon0
          CFI Function coding
          CFI Conditional ??CrossCallReturnLabel_65
          CFI R24 Frame(CFA_Y, -10)
          CFI R25 Frame(CFA_Y, -9)
          CFI R26 Frame(CFA_Y, -8)
          CFI R27 Frame(CFA_Y, -7)
          CFI R4 Frame(CFA_Y, -6)
          CFI R5 Frame(CFA_Y, -5)
          CFI R6 Frame(CFA_Y, -4)
          CFI R7 Frame(CFA_Y, -3)
          CFI R8 Frame(CFA_Y, -2)
          CFI R9 Frame(CFA_Y, -1)
          CFI CFA_SP SP+4
          CFI CFA_Y Y+10
          CFI Block cfiCond107 Using cfiCommon0
          CFI (cfiCond107) Function coding
          CFI (cfiCond107) Conditional ??CrossCallReturnLabel_66
          CFI (cfiCond107) R24 Frame(CFA_Y, -10)
          CFI (cfiCond107) R25 Frame(CFA_Y, -9)
          CFI (cfiCond107) R26 Frame(CFA_Y, -8)
          CFI (cfiCond107) R27 Frame(CFA_Y, -7)
          CFI (cfiCond107) R4 Frame(CFA_Y, -6)
          CFI (cfiCond107) R5 Frame(CFA_Y, -5)
          CFI (cfiCond107) R6 Frame(CFA_Y, -4)
          CFI (cfiCond107) R7 Frame(CFA_Y, -3)
          CFI (cfiCond107) R8 Frame(CFA_Y, -2)
          CFI (cfiCond107) R9 Frame(CFA_Y, -1)
          CFI (cfiCond107) CFA_SP SP+4
          CFI (cfiCond107) CFA_Y Y+10
          CFI Block cfiCond108 Using cfiCommon0
          CFI (cfiCond108) Function coding
          CFI (cfiCond108) Conditional ??CrossCallReturnLabel_67
          CFI (cfiCond108) R24 Frame(CFA_Y, -10)
          CFI (cfiCond108) R25 Frame(CFA_Y, -9)
          CFI (cfiCond108) R26 Frame(CFA_Y, -8)
          CFI (cfiCond108) R27 Frame(CFA_Y, -7)
          CFI (cfiCond108) R4 Frame(CFA_Y, -6)
          CFI (cfiCond108) R5 Frame(CFA_Y, -5)
          CFI (cfiCond108) R6 Frame(CFA_Y, -4)
          CFI (cfiCond108) R7 Frame(CFA_Y, -3)
          CFI (cfiCond108) R8 Frame(CFA_Y, -2)
          CFI (cfiCond108) R9 Frame(CFA_Y, -1)
          CFI (cfiCond108) CFA_SP SP+4
          CFI (cfiCond108) CFA_Y Y+10
          CFI Block cfiPicker109 Using cfiCommon2
          CFI (cfiPicker109) NoFunction
          CFI (cfiPicker109) Picker
        LDI     R20, 1
        LDI     R22, 160
        RJMP    ?F_CMP_GE_L04
          CFI EndBlock cfiCond106
          CFI EndBlock cfiCond107
          CFI EndBlock cfiCond108
          CFI EndBlock cfiPicker109

        RSEG CODE:CODE:NOROOT(1)
?Subroutine42:
          CFI Block cfiCond110 Using cfiCommon0
          CFI Function coding
          CFI Conditional ??CrossCallReturnLabel_299
          CFI R24 Frame(CFA_Y, -10)
          CFI R25 Frame(CFA_Y, -9)
          CFI R26 Frame(CFA_Y, -8)
          CFI R27 Frame(CFA_Y, -7)
          CFI R4 Frame(CFA_Y, -6)
          CFI R5 Frame(CFA_Y, -5)
          CFI R6 Frame(CFA_Y, -4)
          CFI R7 Frame(CFA_Y, -3)
          CFI R8 Frame(CFA_Y, -2)
          CFI R9 Frame(CFA_Y, -1)
          CFI CFA_SP SP+4
          CFI CFA_Y Y+10
          CFI Block cfiCond111 Using cfiCommon0
          CFI (cfiCond111) Function coding
          CFI (cfiCond111) Conditional ??CrossCallReturnLabel_300
          CFI (cfiCond111) R24 Frame(CFA_Y, -10)
          CFI (cfiCond111) R25 Frame(CFA_Y, -9)
          CFI (cfiCond111) R26 Frame(CFA_Y, -8)
          CFI (cfiCond111) R27 Frame(CFA_Y, -7)
          CFI (cfiCond111) R4 Frame(CFA_Y, -6)
          CFI (cfiCond111) R5 Frame(CFA_Y, -5)
          CFI (cfiCond111) R6 Frame(CFA_Y, -4)
          CFI (cfiCond111) R7 Frame(CFA_Y, -3)
          CFI (cfiCond111) R8 Frame(CFA_Y, -2)
          CFI (cfiCond111) R9 Frame(CFA_Y, -1)
          CFI (cfiCond111) CFA_SP SP+4
          CFI (cfiCond111) CFA_Y Y+10
          CFI Block cfiPicker112 Using cfiCommon2
          CFI (cfiPicker112) NoFunction
          CFI (cfiPicker112) Picker
        LDI     R30, LOW(c3)
        LDI     R31, (c3) >> 8
          CFI EndBlock cfiCond110
          CFI EndBlock cfiCond111
          CFI EndBlock cfiPicker112
        REQUIRE ??Subroutine139_0
        ;               // Fall through to label ??Subroutine139_0

        RSEG CODE:CODE:NOROOT(1)
??Subroutine139_0:
          CFI Block cfiCond113 Using cfiCommon0
          CFI Function coding
          CFI Conditional ??CrossCallReturnLabel_297
          CFI R24 Frame(CFA_Y, -10)
          CFI R25 Frame(CFA_Y, -9)
          CFI R26 Frame(CFA_Y, -8)
          CFI R27 Frame(CFA_Y, -7)
          CFI R4 Frame(CFA_Y, -6)
          CFI R5 Frame(CFA_Y, -5)
          CFI R6 Frame(CFA_Y, -4)
          CFI R7 Frame(CFA_Y, -3)
          CFI R8 Frame(CFA_Y, -2)
          CFI R9 Frame(CFA_Y, -1)
          CFI CFA_SP SP+4
          CFI CFA_Y Y+10
          CFI Block cfiCond114 Using cfiCommon0
          CFI (cfiCond114) Function coding
          CFI (cfiCond114) Conditional ??CrossCallReturnLabel_298
          CFI (cfiCond114) R24 Frame(CFA_Y, -10)
          CFI (cfiCond114) R25 Frame(CFA_Y, -9)
          CFI (cfiCond114) R26 Frame(CFA_Y, -8)
          CFI (cfiCond114) R27 Frame(CFA_Y, -7)
          CFI (cfiCond114) R4 Frame(CFA_Y, -6)
          CFI (cfiCond114) R5 Frame(CFA_Y, -5)
          CFI (cfiCond114) R6 Frame(CFA_Y, -4)
          CFI (cfiCond114) R7 Frame(CFA_Y, -3)
          CFI (cfiCond114) R8 Frame(CFA_Y, -2)
          CFI (cfiCond114) R9 Frame(CFA_Y, -1)
          CFI (cfiCond114) CFA_SP SP+4
          CFI (cfiCond114) CFA_Y Y+10
          CFI Block cfiCond115 Using cfiCommon0
          CFI (cfiCond115) Function coding
          CFI (cfiCond115) Conditional ??CrossCallReturnLabel_299
          CFI (cfiCond115) R24 Frame(CFA_Y, -10)
          CFI (cfiCond115) R25 Frame(CFA_Y, -9)
          CFI (cfiCond115) R26 Frame(CFA_Y, -8)
          CFI (cfiCond115) R27 Frame(CFA_Y, -7)
          CFI (cfiCond115) R4 Frame(CFA_Y, -6)
          CFI (cfiCond115) R5 Frame(CFA_Y, -5)
          CFI (cfiCond115) R6 Frame(CFA_Y, -4)
          CFI (cfiCond115) R7 Frame(CFA_Y, -3)
          CFI (cfiCond115) R8 Frame(CFA_Y, -2)
          CFI (cfiCond115) R9 Frame(CFA_Y, -1)
          CFI (cfiCond115) CFA_SP SP+4
          CFI (cfiCond115) CFA_Y Y+10
          CFI Block cfiCond116 Using cfiCommon0
          CFI (cfiCond116) Function coding
          CFI (cfiCond116) Conditional ??CrossCallReturnLabel_300
          CFI (cfiCond116) R24 Frame(CFA_Y, -10)
          CFI (cfiCond116) R25 Frame(CFA_Y, -9)
          CFI (cfiCond116) R26 Frame(CFA_Y, -8)
          CFI (cfiCond116) R27 Frame(CFA_Y, -7)
          CFI (cfiCond116) R4 Frame(CFA_Y, -6)
          CFI (cfiCond116) R5 Frame(CFA_Y, -5)
          CFI (cfiCond116) R6 Frame(CFA_Y, -4)
          CFI (cfiCond116) R7 Frame(CFA_Y, -3)
          CFI (cfiCond116) R8 Frame(CFA_Y, -2)
          CFI (cfiCond116) R9 Frame(CFA_Y, -1)
          CFI (cfiCond116) CFA_SP SP+4
          CFI (cfiCond116) CFA_Y Y+10
          CFI Block cfiPicker117 Using cfiCommon2
          CFI (cfiPicker117) NoFunction
          CFI (cfiPicker117) Picker
        LD      R16, Z
        SUBI    R16, 254
        RET
          CFI EndBlock cfiCond113
          CFI EndBlock cfiCond114
          CFI EndBlock cfiCond115
          CFI EndBlock cfiCond116
          CFI EndBlock cfiPicker117

        RSEG CODE:CODE:NOROOT(1)
?Subroutine37:
          CFI Block cfiCond118 Using cfiCommon0
          CFI Function coding
          CFI Conditional ??CrossCallReturnLabel_189
          CFI R24 Frame(CFA_Y, -10)
          CFI R25 Frame(CFA_Y, -9)
          CFI R26 Frame(CFA_Y, -8)
          CFI R27 Frame(CFA_Y, -7)
          CFI R4 Frame(CFA_Y, -6)
          CFI R5 Frame(CFA_Y, -5)
          CFI R6 Frame(CFA_Y, -4)
          CFI R7 Frame(CFA_Y, -3)
          CFI R8 Frame(CFA_Y, -2)
          CFI R9 Frame(CFA_Y, -1)
          CFI CFA_SP SP+4
          CFI CFA_Y Y+10
          CFI Block cfiCond119 Using cfiCommon0
          CFI (cfiCond119) Function coding
          CFI (cfiCond119) Conditional ??CrossCallReturnLabel_190
          CFI (cfiCond119) R24 Frame(CFA_Y, -10)
          CFI (cfiCond119) R25 Frame(CFA_Y, -9)
          CFI (cfiCond119) R26 Frame(CFA_Y, -8)
          CFI (cfiCond119) R27 Frame(CFA_Y, -7)
          CFI (cfiCond119) R4 Frame(CFA_Y, -6)
          CFI (cfiCond119) R5 Frame(CFA_Y, -5)
          CFI (cfiCond119) R6 Frame(CFA_Y, -4)
          CFI (cfiCond119) R7 Frame(CFA_Y, -3)
          CFI (cfiCond119) R8 Frame(CFA_Y, -2)
          CFI (cfiCond119) R9 Frame(CFA_Y, -1)
          CFI (cfiCond119) CFA_SP SP+4
          CFI (cfiCond119) CFA_Y Y+10
          CFI Block cfiPicker120 Using cfiCommon2
          CFI (cfiPicker120) NoFunction
          CFI (cfiPicker120) Picker
        RCALL   ?Subroutine101
          CFI EndBlock cfiCond118
          CFI EndBlock cfiCond119
          CFI EndBlock cfiPicker120
??CrossCallReturnLabel_182:
        REQUIRE ?Subroutine103
        ;               // Fall through to label ?Subroutine103

        RSEG CODE:CODE:NOROOT(1)
?Subroutine103:
          CFI Block cfiCond121 Using cfiCommon0
          CFI Function coding
          CFI Conditional ??CrossCallReturnLabel_188
          CFI R24 Frame(CFA_Y, -10)
          CFI R25 Frame(CFA_Y, -9)
          CFI R26 Frame(CFA_Y, -8)
          CFI R27 Frame(CFA_Y, -7)
          CFI R4 Frame(CFA_Y, -6)
          CFI R5 Frame(CFA_Y, -5)
          CFI R6 Frame(CFA_Y, -4)
          CFI R7 Frame(CFA_Y, -3)
          CFI R8 Frame(CFA_Y, -2)
          CFI R9 Frame(CFA_Y, -1)
          CFI CFA_SP SP+4
          CFI CFA_Y Y+10
          CFI Block cfiCond122 Using cfiCommon0
          CFI (cfiCond122) Function coding
          CFI (cfiCond122) Conditional ??CrossCallReturnLabel_189
          CFI (cfiCond122) R24 Frame(CFA_Y, -10)
          CFI (cfiCond122) R25 Frame(CFA_Y, -9)
          CFI (cfiCond122) R26 Frame(CFA_Y, -8)
          CFI (cfiCond122) R27 Frame(CFA_Y, -7)
          CFI (cfiCond122) R4 Frame(CFA_Y, -6)
          CFI (cfiCond122) R5 Frame(CFA_Y, -5)
          CFI (cfiCond122) R6 Frame(CFA_Y, -4)
          CFI (cfiCond122) R7 Frame(CFA_Y, -3)
          CFI (cfiCond122) R8 Frame(CFA_Y, -2)
          CFI (cfiCond122) R9 Frame(CFA_Y, -1)
          CFI (cfiCond122) CFA_SP SP+4
          CFI (cfiCond122) CFA_Y Y+10
          CFI Block cfiCond123 Using cfiCommon0
          CFI (cfiCond123) Function coding
          CFI (cfiCond123) Conditional ??CrossCallReturnLabel_190
          CFI (cfiCond123) R24 Frame(CFA_Y, -10)
          CFI (cfiCond123) R25 Frame(CFA_Y, -9)
          CFI (cfiCond123) R26 Frame(CFA_Y, -8)
          CFI (cfiCond123) R27 Frame(CFA_Y, -7)
          CFI (cfiCond123) R4 Frame(CFA_Y, -6)
          CFI (cfiCond123) R5 Frame(CFA_Y, -5)
          CFI (cfiCond123) R6 Frame(CFA_Y, -4)
          CFI (cfiCond123) R7 Frame(CFA_Y, -3)
          CFI (cfiCond123) R8 Frame(CFA_Y, -2)
          CFI (cfiCond123) R9 Frame(CFA_Y, -1)
          CFI (cfiCond123) CFA_SP SP+4
          CFI (cfiCond123) CFA_Y Y+10
          CFI Block cfiPicker124 Using cfiCommon2
          CFI (cfiPicker124) NoFunction
          CFI (cfiPicker124) Picker
        LSL     R16
        ROL     R17
        LSL     R16
        ROL     R17
        RET
          CFI EndBlock cfiCond121
          CFI EndBlock cfiCond122
          CFI EndBlock cfiCond123
          CFI EndBlock cfiPicker124

        RSEG CODE:CODE:NOROOT(1)
?Subroutine100:
          CFI Block cfiCond125 Using cfiCommon0
          CFI Function coding
          CFI Conditional ??CrossCallReturnLabel_169
          CFI R24 Frame(CFA_Y, -10)
          CFI R25 Frame(CFA_Y, -9)
          CFI R26 Frame(CFA_Y, -8)
          CFI R27 Frame(CFA_Y, -7)
          CFI R4 Frame(CFA_Y, -6)
          CFI R5 Frame(CFA_Y, -5)
          CFI R6 Frame(CFA_Y, -4)
          CFI R7 Frame(CFA_Y, -3)
          CFI R8 Frame(CFA_Y, -2)
          CFI R9 Frame(CFA_Y, -1)
          CFI CFA_SP SP+4
          CFI CFA_Y Y+10
          CFI Block cfiCond126 Using cfiCommon0
          CFI (cfiCond126) Function coding
          CFI (cfiCond126) Conditional ??CrossCallReturnLabel_170
          CFI (cfiCond126) R24 Frame(CFA_Y, -10)
          CFI (cfiCond126) R25 Frame(CFA_Y, -9)
          CFI (cfiCond126) R26 Frame(CFA_Y, -8)
          CFI (cfiCond126) R27 Frame(CFA_Y, -7)
          CFI (cfiCond126) R4 Frame(CFA_Y, -6)
          CFI (cfiCond126) R5 Frame(CFA_Y, -5)
          CFI (cfiCond126) R6 Frame(CFA_Y, -4)
          CFI (cfiCond126) R7 Frame(CFA_Y, -3)
          CFI (cfiCond126) R8 Frame(CFA_Y, -2)
          CFI (cfiCond126) R9 Frame(CFA_Y, -1)
          CFI (cfiCond126) CFA_SP SP+4
          CFI (cfiCond126) CFA_Y Y+10
          CFI Block cfiCond127 Using cfiCommon0
          CFI (cfiCond127) Function coding
          CFI (cfiCond127) Conditional ??CrossCallReturnLabel_171
          CFI (cfiCond127) R24 Frame(CFA_Y, -10)
          CFI (cfiCond127) R25 Frame(CFA_Y, -9)
          CFI (cfiCond127) R26 Frame(CFA_Y, -8)
          CFI (cfiCond127) R27 Frame(CFA_Y, -7)
          CFI (cfiCond127) R4 Frame(CFA_Y, -6)
          CFI (cfiCond127) R5 Frame(CFA_Y, -5)
          CFI (cfiCond127) R6 Frame(CFA_Y, -4)
          CFI (cfiCond127) R7 Frame(CFA_Y, -3)
          CFI (cfiCond127) R8 Frame(CFA_Y, -2)
          CFI (cfiCond127) R9 Frame(CFA_Y, -1)
          CFI (cfiCond127) CFA_SP SP+4
          CFI (cfiCond127) CFA_Y Y+10
          CFI Block cfiCond128 Using cfiCommon0
          CFI (cfiCond128) Function coding
          CFI (cfiCond128) Conditional ??CrossCallReturnLabel_172, ??CrossCallReturnLabel_46
          CFI (cfiCond128) R24 Frame(CFA_Y, -10)
          CFI (cfiCond128) R25 Frame(CFA_Y, -9)
          CFI (cfiCond128) R26 Frame(CFA_Y, -8)
          CFI (cfiCond128) R27 Frame(CFA_Y, -7)
          CFI (cfiCond128) R4 Frame(CFA_Y, -6)
          CFI (cfiCond128) R5 Frame(CFA_Y, -5)
          CFI (cfiCond128) R6 Frame(CFA_Y, -4)
          CFI (cfiCond128) R7 Frame(CFA_Y, -3)
          CFI (cfiCond128) R8 Frame(CFA_Y, -2)
          CFI (cfiCond128) R9 Frame(CFA_Y, -1)
          CFI (cfiCond128) CFA_SP SP+6
          CFI (cfiCond128) CFA_Y Y+10
          CFI Block cfiCond129 Using cfiCommon0
          CFI (cfiCond129) Function coding
          CFI (cfiCond129) Conditional ??CrossCallReturnLabel_172, ??CrossCallReturnLabel_47
          CFI (cfiCond129) R24 Frame(CFA_Y, -10)
          CFI (cfiCond129) R25 Frame(CFA_Y, -9)
          CFI (cfiCond129) R26 Frame(CFA_Y, -8)
          CFI (cfiCond129) R27 Frame(CFA_Y, -7)
          CFI (cfiCond129) R4 Frame(CFA_Y, -6)
          CFI (cfiCond129) R5 Frame(CFA_Y, -5)
          CFI (cfiCond129) R6 Frame(CFA_Y, -4)
          CFI (cfiCond129) R7 Frame(CFA_Y, -3)
          CFI (cfiCond129) R8 Frame(CFA_Y, -2)
          CFI (cfiCond129) R9 Frame(CFA_Y, -1)
          CFI (cfiCond129) CFA_SP SP+6
          CFI (cfiCond129) CFA_Y Y+10
          CFI Block cfiCond130 Using cfiCommon0
          CFI (cfiCond130) Function coding
          CFI (cfiCond130) Conditional ??CrossCallReturnLabel_172, ??CrossCallReturnLabel_48
          CFI (cfiCond130) R24 Frame(CFA_Y, -10)
          CFI (cfiCond130) R25 Frame(CFA_Y, -9)
          CFI (cfiCond130) R26 Frame(CFA_Y, -8)
          CFI (cfiCond130) R27 Frame(CFA_Y, -7)
          CFI (cfiCond130) R4 Frame(CFA_Y, -6)
          CFI (cfiCond130) R5 Frame(CFA_Y, -5)
          CFI (cfiCond130) R6 Frame(CFA_Y, -4)
          CFI (cfiCond130) R7 Frame(CFA_Y, -3)
          CFI (cfiCond130) R8 Frame(CFA_Y, -2)
          CFI (cfiCond130) R9 Frame(CFA_Y, -1)
          CFI (cfiCond130) CFA_SP SP+6
          CFI (cfiCond130) CFA_Y Y+10
          CFI Block cfiPicker131 Using cfiCommon2
          CFI (cfiPicker131) NoFunction
          CFI (cfiPicker131) Picker
        LD      R16, Z
        LDD     R17, Z+1
        OR      R16, R8
        OR      R17, R9
        RET
          CFI EndBlock cfiCond125
          CFI EndBlock cfiCond126
          CFI EndBlock cfiCond127
          CFI EndBlock cfiCond128
          CFI EndBlock cfiCond129
          CFI EndBlock cfiCond130
          CFI EndBlock cfiPicker131

        RSEG CODE:CODE:NOROOT(1)
?Subroutine35:
          CFI Block cfiCond132 Using cfiCommon0
          CFI Function coding
          CFI Conditional ??CrossCallReturnLabel_49
          CFI R24 Frame(CFA_Y, -10)
          CFI R25 Frame(CFA_Y, -9)
          CFI R26 Frame(CFA_Y, -8)
          CFI R27 Frame(CFA_Y, -7)
          CFI R4 Frame(CFA_Y, -6)
          CFI R5 Frame(CFA_Y, -5)
          CFI R6 Frame(CFA_Y, -4)
          CFI R7 Frame(CFA_Y, -3)
          CFI R8 Frame(CFA_Y, -2)
          CFI R9 Frame(CFA_Y, -1)
          CFI CFA_SP SP+4
          CFI CFA_Y Y+10
          CFI Block cfiCond133 Using cfiCommon0
          CFI (cfiCond133) Function coding
          CFI (cfiCond133) Conditional ??CrossCallReturnLabel_50
          CFI (cfiCond133) R24 Frame(CFA_Y, -10)
          CFI (cfiCond133) R25 Frame(CFA_Y, -9)
          CFI (cfiCond133) R26 Frame(CFA_Y, -8)
          CFI (cfiCond133) R27 Frame(CFA_Y, -7)
          CFI (cfiCond133) R4 Frame(CFA_Y, -6)
          CFI (cfiCond133) R5 Frame(CFA_Y, -5)
          CFI (cfiCond133) R6 Frame(CFA_Y, -4)
          CFI (cfiCond133) R7 Frame(CFA_Y, -3)
          CFI (cfiCond133) R8 Frame(CFA_Y, -2)
          CFI (cfiCond133) R9 Frame(CFA_Y, -1)
          CFI (cfiCond133) CFA_SP SP+4
          CFI (cfiCond133) CFA_Y Y+10
          CFI Block cfiCond134 Using cfiCommon0
          CFI (cfiCond134) Function coding
          CFI (cfiCond134) Conditional ??CrossCallReturnLabel_51
          CFI (cfiCond134) R24 Frame(CFA_Y, -10)
          CFI (cfiCond134) R25 Frame(CFA_Y, -9)
          CFI (cfiCond134) R26 Frame(CFA_Y, -8)
          CFI (cfiCond134) R27 Frame(CFA_Y, -7)
          CFI (cfiCond134) R4 Frame(CFA_Y, -6)
          CFI (cfiCond134) R5 Frame(CFA_Y, -5)
          CFI (cfiCond134) R6 Frame(CFA_Y, -4)
          CFI (cfiCond134) R7 Frame(CFA_Y, -3)
          CFI (cfiCond134) R8 Frame(CFA_Y, -2)
          CFI (cfiCond134) R9 Frame(CFA_Y, -1)
          CFI (cfiCond134) CFA_SP SP+4
          CFI (cfiCond134) CFA_Y Y+10
          CFI Block cfiPicker135 Using cfiCommon2
          CFI (cfiPicker135) NoFunction
          CFI (cfiPicker135) Picker
        RCALL   ?Subroutine98
??CrossCallReturnLabel_331:
        CPI     R16, 16
        RET
          CFI EndBlock cfiCond132
          CFI EndBlock cfiCond133
          CFI EndBlock cfiCond134
          CFI EndBlock cfiPicker135

        RSEG CODE:CODE:NOROOT(1)
?Subroutine33:
          CFI Block cfiCond136 Using cfiCommon0
          CFI Function coding
          CFI Conditional ??CrossCallReturnLabel_46
          CFI R24 Frame(CFA_Y, -10)
          CFI R25 Frame(CFA_Y, -9)
          CFI R26 Frame(CFA_Y, -8)
          CFI R27 Frame(CFA_Y, -7)
          CFI R4 Frame(CFA_Y, -6)
          CFI R5 Frame(CFA_Y, -5)
          CFI R6 Frame(CFA_Y, -4)
          CFI R7 Frame(CFA_Y, -3)
          CFI R8 Frame(CFA_Y, -2)
          CFI R9 Frame(CFA_Y, -1)
          CFI CFA_SP SP+4
          CFI CFA_Y Y+10
          CFI Block cfiCond137 Using cfiCommon0
          CFI (cfiCond137) Function coding
          CFI (cfiCond137) Conditional ??CrossCallReturnLabel_47
          CFI (cfiCond137) R24 Frame(CFA_Y, -10)
          CFI (cfiCond137) R25 Frame(CFA_Y, -9)
          CFI (cfiCond137) R26 Frame(CFA_Y, -8)
          CFI (cfiCond137) R27 Frame(CFA_Y, -7)
          CFI (cfiCond137) R4 Frame(CFA_Y, -6)
          CFI (cfiCond137) R5 Frame(CFA_Y, -5)
          CFI (cfiCond137) R6 Frame(CFA_Y, -4)
          CFI (cfiCond137) R7 Frame(CFA_Y, -3)
          CFI (cfiCond137) R8 Frame(CFA_Y, -2)
          CFI (cfiCond137) R9 Frame(CFA_Y, -1)
          CFI (cfiCond137) CFA_SP SP+4
          CFI (cfiCond137) CFA_Y Y+10
          CFI Block cfiCond138 Using cfiCommon0
          CFI (cfiCond138) Function coding
          CFI (cfiCond138) Conditional ??CrossCallReturnLabel_48
          CFI (cfiCond138) R24 Frame(CFA_Y, -10)
          CFI (cfiCond138) R25 Frame(CFA_Y, -9)
          CFI (cfiCond138) R26 Frame(CFA_Y, -8)
          CFI (cfiCond138) R27 Frame(CFA_Y, -7)
          CFI (cfiCond138) R4 Frame(CFA_Y, -6)
          CFI (cfiCond138) R5 Frame(CFA_Y, -5)
          CFI (cfiCond138) R6 Frame(CFA_Y, -4)
          CFI (cfiCond138) R7 Frame(CFA_Y, -3)
          CFI (cfiCond138) R8 Frame(CFA_Y, -2)
          CFI (cfiCond138) R9 Frame(CFA_Y, -1)
          CFI (cfiCond138) CFA_SP SP+4
          CFI (cfiCond138) CFA_Y Y+10
          CFI Block cfiPicker139 Using cfiCommon2
          CFI (cfiPicker139) NoFunction
          CFI (cfiPicker139) Picker
        RCALL   ?Subroutine100
??CrossCallReturnLabel_172:
        ADD     R16, R4
        ADC     R17, R5
        RET
          CFI EndBlock cfiCond136
          CFI EndBlock cfiCond137
          CFI EndBlock cfiCond138
          CFI EndBlock cfiPicker139

        RSEG CODE:CODE:NOROOT(1)
?Subroutine32:
          CFI Block cfiCond140 Using cfiCommon0
          CFI Function PEREP
          CFI Conditional ??CrossCallReturnLabel_308
          CFI R24 Frame(CFA_Y, -8)
          CFI R25 Frame(CFA_Y, -7)
          CFI R26 Frame(CFA_Y, -6)
          CFI R27 Frame(CFA_Y, -5)
          CFI R4 Frame(CFA_Y, -4)
          CFI R5 Frame(CFA_Y, -3)
          CFI R6 Frame(CFA_Y, -2)
          CFI R7 Frame(CFA_Y, -1)
          CFI CFA_SP SP+4
          CFI CFA_Y Y+8
          CFI Block cfiCond141 Using cfiCommon0
          CFI (cfiCond141) Function coding
          CFI (cfiCond141) Conditional ??CrossCallReturnLabel_307
          CFI (cfiCond141) R24 Frame(CFA_Y, -10)
          CFI (cfiCond141) R25 Frame(CFA_Y, -9)
          CFI (cfiCond141) R26 Frame(CFA_Y, -8)
          CFI (cfiCond141) R27 Frame(CFA_Y, -7)
          CFI (cfiCond141) R4 Frame(CFA_Y, -6)
          CFI (cfiCond141) R5 Frame(CFA_Y, -5)
          CFI (cfiCond141) R6 Frame(CFA_Y, -4)
          CFI (cfiCond141) R7 Frame(CFA_Y, -3)
          CFI (cfiCond141) R8 Frame(CFA_Y, -2)
          CFI (cfiCond141) R9 Frame(CFA_Y, -1)
          CFI (cfiCond141) CFA_SP SP+4
          CFI (cfiCond141) CFA_Y Y+10
          CFI Block cfiPicker142 Using cfiCommon2
          CFI (cfiPicker142) NoFunction
          CFI (cfiPicker142) Picker
        RCALL   rprintfStr
        RCALL   ?Subroutine105
          CFI EndBlock cfiCond140
          CFI EndBlock cfiCond141
          CFI EndBlock cfiPicker142
??CrossCallReturnLabel_201:
        REQUIRE ?Subroutine134
        REQUIRE ??Subroutine140_0
        ;               // Fall through to label ??Subroutine140_0

        RSEG CODE:CODE:NOROOT(1)
??Subroutine140_0:
          CFI Block cfiCond143 Using cfiCommon0
          CFI Function PEREP
          CFI Conditional ??CrossCallReturnLabel_306
          CFI R24 Frame(CFA_Y, -8)
          CFI R25 Frame(CFA_Y, -7)
          CFI R26 Frame(CFA_Y, -6)
          CFI R27 Frame(CFA_Y, -5)
          CFI R4 Frame(CFA_Y, -4)
          CFI R5 Frame(CFA_Y, -3)
          CFI R6 Frame(CFA_Y, -2)
          CFI R7 Frame(CFA_Y, -1)
          CFI CFA_SP SP+4
          CFI CFA_Y Y+8
          CFI Block cfiCond144 Using cfiCommon0
          CFI (cfiCond144) Function PEREP
          CFI (cfiCond144) Conditional ??CrossCallReturnLabel_305
          CFI (cfiCond144) R24 Frame(CFA_Y, -8)
          CFI (cfiCond144) R25 Frame(CFA_Y, -7)
          CFI (cfiCond144) R26 Frame(CFA_Y, -6)
          CFI (cfiCond144) R27 Frame(CFA_Y, -5)
          CFI (cfiCond144) R4 Frame(CFA_Y, -4)
          CFI (cfiCond144) R5 Frame(CFA_Y, -3)
          CFI (cfiCond144) R6 Frame(CFA_Y, -2)
          CFI (cfiCond144) R7 Frame(CFA_Y, -1)
          CFI (cfiCond144) CFA_SP SP+4
          CFI (cfiCond144) CFA_Y Y+8
          CFI Block cfiCond145 Using cfiCommon0
          CFI (cfiCond145) Function coding
          CFI (cfiCond145) Conditional ??CrossCallReturnLabel_304
          CFI (cfiCond145) R24 Frame(CFA_Y, -10)
          CFI (cfiCond145) R25 Frame(CFA_Y, -9)
          CFI (cfiCond145) R26 Frame(CFA_Y, -8)
          CFI (cfiCond145) R27 Frame(CFA_Y, -7)
          CFI (cfiCond145) R4 Frame(CFA_Y, -6)
          CFI (cfiCond145) R5 Frame(CFA_Y, -5)
          CFI (cfiCond145) R6 Frame(CFA_Y, -4)
          CFI (cfiCond145) R7 Frame(CFA_Y, -3)
          CFI (cfiCond145) R8 Frame(CFA_Y, -2)
          CFI (cfiCond145) R9 Frame(CFA_Y, -1)
          CFI (cfiCond145) CFA_SP SP+4
          CFI (cfiCond145) CFA_Y Y+10
          CFI Block cfiCond146 Using cfiCommon0
          CFI (cfiCond146) Function coding
          CFI (cfiCond146) Conditional ??CrossCallReturnLabel_303
          CFI (cfiCond146) R24 Frame(CFA_Y, -10)
          CFI (cfiCond146) R25 Frame(CFA_Y, -9)
          CFI (cfiCond146) R26 Frame(CFA_Y, -8)
          CFI (cfiCond146) R27 Frame(CFA_Y, -7)
          CFI (cfiCond146) R4 Frame(CFA_Y, -6)
          CFI (cfiCond146) R5 Frame(CFA_Y, -5)
          CFI (cfiCond146) R6 Frame(CFA_Y, -4)
          CFI (cfiCond146) R7 Frame(CFA_Y, -3)
          CFI (cfiCond146) R8 Frame(CFA_Y, -2)
          CFI (cfiCond146) R9 Frame(CFA_Y, -1)
          CFI (cfiCond146) CFA_SP SP+4
          CFI (cfiCond146) CFA_Y Y+10
          CFI Block cfiCond147 Using cfiCommon0
          CFI (cfiCond147) Function PEREP
          CFI (cfiCond147) Conditional ??CrossCallReturnLabel_308
          CFI (cfiCond147) R24 Frame(CFA_Y, -8)
          CFI (cfiCond147) R25 Frame(CFA_Y, -7)
          CFI (cfiCond147) R26 Frame(CFA_Y, -6)
          CFI (cfiCond147) R27 Frame(CFA_Y, -5)
          CFI (cfiCond147) R4 Frame(CFA_Y, -4)
          CFI (cfiCond147) R5 Frame(CFA_Y, -3)
          CFI (cfiCond147) R6 Frame(CFA_Y, -2)
          CFI (cfiCond147) R7 Frame(CFA_Y, -1)
          CFI (cfiCond147) CFA_SP SP+4
          CFI (cfiCond147) CFA_Y Y+8
          CFI Block cfiCond148 Using cfiCommon0
          CFI (cfiCond148) Function coding
          CFI (cfiCond148) Conditional ??CrossCallReturnLabel_307
          CFI (cfiCond148) R24 Frame(CFA_Y, -10)
          CFI (cfiCond148) R25 Frame(CFA_Y, -9)
          CFI (cfiCond148) R26 Frame(CFA_Y, -8)
          CFI (cfiCond148) R27 Frame(CFA_Y, -7)
          CFI (cfiCond148) R4 Frame(CFA_Y, -6)
          CFI (cfiCond148) R5 Frame(CFA_Y, -5)
          CFI (cfiCond148) R6 Frame(CFA_Y, -4)
          CFI (cfiCond148) R7 Frame(CFA_Y, -3)
          CFI (cfiCond148) R8 Frame(CFA_Y, -2)
          CFI (cfiCond148) R9 Frame(CFA_Y, -1)
          CFI (cfiCond148) CFA_SP SP+4
          CFI (cfiCond148) CFA_Y Y+10
          CFI Block cfiPicker149 Using cfiCommon2
          CFI (cfiPicker149) NoFunction
          CFI (cfiPicker149) Picker
        RCALL   ?Subroutine97
          CFI EndBlock cfiCond143
          CFI EndBlock cfiCond144
          CFI EndBlock cfiCond145
          CFI EndBlock cfiCond146
          CFI EndBlock cfiCond147
          CFI EndBlock cfiCond148
          CFI EndBlock cfiPicker149
??CrossCallReturnLabel_313:
        REQUIRE ?Subroutine134
        ;               // Fall through to label ?Subroutine134

        RSEG CODE:CODE:NOROOT(1)
?Subroutine134:
          CFI Block cfiCond150 Using cfiCommon0
          CFI Function PEREP
          CFI Conditional ??CrossCallReturnLabel_308
          CFI R24 Frame(CFA_Y, -8)
          CFI R25 Frame(CFA_Y, -7)
          CFI R26 Frame(CFA_Y, -6)
          CFI R27 Frame(CFA_Y, -5)
          CFI R4 Frame(CFA_Y, -4)
          CFI R5 Frame(CFA_Y, -3)
          CFI R6 Frame(CFA_Y, -2)
          CFI R7 Frame(CFA_Y, -1)
          CFI CFA_SP SP+4
          CFI CFA_Y Y+8
          CFI Block cfiCond151 Using cfiCommon0
          CFI (cfiCond151) Function coding
          CFI (cfiCond151) Conditional ??CrossCallReturnLabel_307
          CFI (cfiCond151) R24 Frame(CFA_Y, -10)
          CFI (cfiCond151) R25 Frame(CFA_Y, -9)
          CFI (cfiCond151) R26 Frame(CFA_Y, -8)
          CFI (cfiCond151) R27 Frame(CFA_Y, -7)
          CFI (cfiCond151) R4 Frame(CFA_Y, -6)
          CFI (cfiCond151) R5 Frame(CFA_Y, -5)
          CFI (cfiCond151) R6 Frame(CFA_Y, -4)
          CFI (cfiCond151) R7 Frame(CFA_Y, -3)
          CFI (cfiCond151) R8 Frame(CFA_Y, -2)
          CFI (cfiCond151) R9 Frame(CFA_Y, -1)
          CFI (cfiCond151) CFA_SP SP+4
          CFI (cfiCond151) CFA_Y Y+10
          CFI Block cfiCond152 Using cfiCommon0
          CFI (cfiCond152) Function PEREP
          CFI (cfiCond152) Conditional ??CrossCallReturnLabel_306
          CFI (cfiCond152) R24 Frame(CFA_Y, -8)
          CFI (cfiCond152) R25 Frame(CFA_Y, -7)
          CFI (cfiCond152) R26 Frame(CFA_Y, -6)
          CFI (cfiCond152) R27 Frame(CFA_Y, -5)
          CFI (cfiCond152) R4 Frame(CFA_Y, -4)
          CFI (cfiCond152) R5 Frame(CFA_Y, -3)
          CFI (cfiCond152) R6 Frame(CFA_Y, -2)
          CFI (cfiCond152) R7 Frame(CFA_Y, -1)
          CFI (cfiCond152) CFA_SP SP+4
          CFI (cfiCond152) CFA_Y Y+8
          CFI Block cfiCond153 Using cfiCommon0
          CFI (cfiCond153) Function PEREP
          CFI (cfiCond153) Conditional ??CrossCallReturnLabel_305
          CFI (cfiCond153) R24 Frame(CFA_Y, -8)
          CFI (cfiCond153) R25 Frame(CFA_Y, -7)
          CFI (cfiCond153) R26 Frame(CFA_Y, -6)
          CFI (cfiCond153) R27 Frame(CFA_Y, -5)
          CFI (cfiCond153) R4 Frame(CFA_Y, -4)
          CFI (cfiCond153) R5 Frame(CFA_Y, -3)
          CFI (cfiCond153) R6 Frame(CFA_Y, -2)
          CFI (cfiCond153) R7 Frame(CFA_Y, -1)
          CFI (cfiCond153) CFA_SP SP+4
          CFI (cfiCond153) CFA_Y Y+8
          CFI Block cfiCond154 Using cfiCommon0
          CFI (cfiCond154) Function coding
          CFI (cfiCond154) Conditional ??CrossCallReturnLabel_304
          CFI (cfiCond154) R24 Frame(CFA_Y, -10)
          CFI (cfiCond154) R25 Frame(CFA_Y, -9)
          CFI (cfiCond154) R26 Frame(CFA_Y, -8)
          CFI (cfiCond154) R27 Frame(CFA_Y, -7)
          CFI (cfiCond154) R4 Frame(CFA_Y, -6)
          CFI (cfiCond154) R5 Frame(CFA_Y, -5)
          CFI (cfiCond154) R6 Frame(CFA_Y, -4)
          CFI (cfiCond154) R7 Frame(CFA_Y, -3)
          CFI (cfiCond154) R8 Frame(CFA_Y, -2)
          CFI (cfiCond154) R9 Frame(CFA_Y, -1)
          CFI (cfiCond154) CFA_SP SP+4
          CFI (cfiCond154) CFA_Y Y+10
          CFI Block cfiCond155 Using cfiCommon0
          CFI (cfiCond155) Function coding
          CFI (cfiCond155) Conditional ??CrossCallReturnLabel_303
          CFI (cfiCond155) R24 Frame(CFA_Y, -10)
          CFI (cfiCond155) R25 Frame(CFA_Y, -9)
          CFI (cfiCond155) R26 Frame(CFA_Y, -8)
          CFI (cfiCond155) R27 Frame(CFA_Y, -7)
          CFI (cfiCond155) R4 Frame(CFA_Y, -6)
          CFI (cfiCond155) R5 Frame(CFA_Y, -5)
          CFI (cfiCond155) R6 Frame(CFA_Y, -4)
          CFI (cfiCond155) R7 Frame(CFA_Y, -3)
          CFI (cfiCond155) R8 Frame(CFA_Y, -2)
          CFI (cfiCond155) R9 Frame(CFA_Y, -1)
          CFI (cfiCond155) CFA_SP SP+4
          CFI (cfiCond155) CFA_Y Y+10
          CFI Block cfiCond156 Using cfiCommon0
          CFI (cfiCond156) Function PEREP
          CFI (cfiCond156) Conditional ??CrossCallReturnLabel_302
          CFI (cfiCond156) R24 Frame(CFA_Y, -8)
          CFI (cfiCond156) R25 Frame(CFA_Y, -7)
          CFI (cfiCond156) R26 Frame(CFA_Y, -6)
          CFI (cfiCond156) R27 Frame(CFA_Y, -5)
          CFI (cfiCond156) R4 Frame(CFA_Y, -4)
          CFI (cfiCond156) R5 Frame(CFA_Y, -3)
          CFI (cfiCond156) R6 Frame(CFA_Y, -2)
          CFI (cfiCond156) R7 Frame(CFA_Y, -1)
          CFI (cfiCond156) CFA_SP SP+4
          CFI (cfiCond156) CFA_Y Y+8
          CFI Block cfiCond157 Using cfiCommon0
          CFI (cfiCond157) Function main_logic
          CFI (cfiCond157) Conditional ??CrossCallReturnLabel_301
          CFI (cfiCond157) CFA_SP SP+4
          CFI Block cfiPicker158 Using cfiCommon2
          CFI (cfiPicker158) NoFunction
          CFI (cfiPicker158) Picker
        LDI     R16, 6
        RJMP    rprintfFloat
          CFI EndBlock cfiCond150
          CFI EndBlock cfiCond151
          CFI EndBlock cfiCond152
          CFI EndBlock cfiCond153
          CFI EndBlock cfiCond154
          CFI EndBlock cfiCond155
          CFI EndBlock cfiCond156
          CFI EndBlock cfiCond157
          CFI EndBlock cfiPicker158

        RSEG CODE:CODE:NOROOT(1)
?Subroutine28:
          CFI Block cfiCond159 Using cfiCommon0
          CFI Function coding
          CFI Conditional ??CrossCallReturnLabel_325
          CFI R24 Frame(CFA_Y, -10)
          CFI R25 Frame(CFA_Y, -9)
          CFI R26 Frame(CFA_Y, -8)
          CFI R27 Frame(CFA_Y, -7)
          CFI R4 Frame(CFA_Y, -6)
          CFI R5 Frame(CFA_Y, -5)
          CFI R6 Frame(CFA_Y, -4)
          CFI R7 Frame(CFA_Y, -3)
          CFI R8 Frame(CFA_Y, -2)
          CFI R9 Frame(CFA_Y, -1)
          CFI CFA_SP SP+4
          CFI CFA_Y Y+10
          CFI Block cfiCond160 Using cfiCommon0
          CFI (cfiCond160) Function coding
          CFI (cfiCond160) Conditional ??CrossCallReturnLabel_326
          CFI (cfiCond160) R24 Frame(CFA_Y, -10)
          CFI (cfiCond160) R25 Frame(CFA_Y, -9)
          CFI (cfiCond160) R26 Frame(CFA_Y, -8)
          CFI (cfiCond160) R27 Frame(CFA_Y, -7)
          CFI (cfiCond160) R4 Frame(CFA_Y, -6)
          CFI (cfiCond160) R5 Frame(CFA_Y, -5)
          CFI (cfiCond160) R6 Frame(CFA_Y, -4)
          CFI (cfiCond160) R7 Frame(CFA_Y, -3)
          CFI (cfiCond160) R8 Frame(CFA_Y, -2)
          CFI (cfiCond160) R9 Frame(CFA_Y, -1)
          CFI (cfiCond160) CFA_SP SP+4
          CFI (cfiCond160) CFA_Y Y+10
          CFI Block cfiPicker161 Using cfiCommon2
          CFI (cfiPicker161) NoFunction
          CFI (cfiPicker161) Picker
        ST      Z, R16
        STD     Z+1, R17
        LDI     R30, LOW(c1)
        LDI     R31, (c1) >> 8
          CFI EndBlock cfiCond159
          CFI EndBlock cfiCond160
          CFI EndBlock cfiPicker161
        REQUIRE ?Subroutine125
        ;               // Fall through to label ?Subroutine125

        RSEG CODE:CODE:NOROOT(1)
?Subroutine125:
          CFI Block cfiCond162 Using cfiCommon0
          CFI Function coding
          CFI Conditional ??CrossCallReturnLabel_325
          CFI R24 Frame(CFA_Y, -10)
          CFI R25 Frame(CFA_Y, -9)
          CFI R26 Frame(CFA_Y, -8)
          CFI R27 Frame(CFA_Y, -7)
          CFI R4 Frame(CFA_Y, -6)
          CFI R5 Frame(CFA_Y, -5)
          CFI R6 Frame(CFA_Y, -4)
          CFI R7 Frame(CFA_Y, -3)
          CFI R8 Frame(CFA_Y, -2)
          CFI R9 Frame(CFA_Y, -1)
          CFI CFA_SP SP+4
          CFI CFA_Y Y+10
          CFI Block cfiCond163 Using cfiCommon0
          CFI (cfiCond163) Function coding
          CFI (cfiCond163) Conditional ??CrossCallReturnLabel_326
          CFI (cfiCond163) R24 Frame(CFA_Y, -10)
          CFI (cfiCond163) R25 Frame(CFA_Y, -9)
          CFI (cfiCond163) R26 Frame(CFA_Y, -8)
          CFI (cfiCond163) R27 Frame(CFA_Y, -7)
          CFI (cfiCond163) R4 Frame(CFA_Y, -6)
          CFI (cfiCond163) R5 Frame(CFA_Y, -5)
          CFI (cfiCond163) R6 Frame(CFA_Y, -4)
          CFI (cfiCond163) R7 Frame(CFA_Y, -3)
          CFI (cfiCond163) R8 Frame(CFA_Y, -2)
          CFI (cfiCond163) R9 Frame(CFA_Y, -1)
          CFI (cfiCond163) CFA_SP SP+4
          CFI (cfiCond163) CFA_Y Y+10
          CFI Block cfiCond164 Using cfiCommon0
          CFI (cfiCond164) Function coding
          CFI (cfiCond164) Conditional ??CrossCallReturnLabel_323
          CFI (cfiCond164) R24 Frame(CFA_Y, -10)
          CFI (cfiCond164) R25 Frame(CFA_Y, -9)
          CFI (cfiCond164) R26 Frame(CFA_Y, -8)
          CFI (cfiCond164) R27 Frame(CFA_Y, -7)
          CFI (cfiCond164) R4 Frame(CFA_Y, -6)
          CFI (cfiCond164) R5 Frame(CFA_Y, -5)
          CFI (cfiCond164) R6 Frame(CFA_Y, -4)
          CFI (cfiCond164) R7 Frame(CFA_Y, -3)
          CFI (cfiCond164) R8 Frame(CFA_Y, -2)
          CFI (cfiCond164) R9 Frame(CFA_Y, -1)
          CFI (cfiCond164) CFA_SP SP+4
          CFI (cfiCond164) CFA_Y Y+10
          CFI Block cfiCond165 Using cfiCommon0
          CFI (cfiCond165) Function coding
          CFI (cfiCond165) Conditional ??CrossCallReturnLabel_324
          CFI (cfiCond165) R24 Frame(CFA_Y, -10)
          CFI (cfiCond165) R25 Frame(CFA_Y, -9)
          CFI (cfiCond165) R26 Frame(CFA_Y, -8)
          CFI (cfiCond165) R27 Frame(CFA_Y, -7)
          CFI (cfiCond165) R4 Frame(CFA_Y, -6)
          CFI (cfiCond165) R5 Frame(CFA_Y, -5)
          CFI (cfiCond165) R6 Frame(CFA_Y, -4)
          CFI (cfiCond165) R7 Frame(CFA_Y, -3)
          CFI (cfiCond165) R8 Frame(CFA_Y, -2)
          CFI (cfiCond165) R9 Frame(CFA_Y, -1)
          CFI (cfiCond165) CFA_SP SP+4
          CFI (cfiCond165) CFA_Y Y+10
          CFI Block cfiPicker166 Using cfiCommon2
          CFI (cfiPicker166) NoFunction
          CFI (cfiPicker166) Picker
        LD      R16, Z
        SUBI    R16, 254
          CFI EndBlock cfiCond162
          CFI EndBlock cfiCond163
          CFI EndBlock cfiCond164
          CFI EndBlock cfiCond165
          CFI EndBlock cfiPicker166
        REQUIRE ??Subroutine141_0
        ;               // Fall through to label ??Subroutine141_0

        RSEG CODE:CODE:NOROOT(1)
??Subroutine141_0:
          CFI Block cfiCond167 Using cfiCommon0
          CFI Function coding
          CFI Conditional ??CrossCallReturnLabel_331, ??CrossCallReturnLabel_49
          CFI R24 Frame(CFA_Y, -10)
          CFI R25 Frame(CFA_Y, -9)
          CFI R26 Frame(CFA_Y, -8)
          CFI R27 Frame(CFA_Y, -7)
          CFI R4 Frame(CFA_Y, -6)
          CFI R5 Frame(CFA_Y, -5)
          CFI R6 Frame(CFA_Y, -4)
          CFI R7 Frame(CFA_Y, -3)
          CFI R8 Frame(CFA_Y, -2)
          CFI R9 Frame(CFA_Y, -1)
          CFI CFA_SP SP+6
          CFI CFA_Y Y+10
          CFI Block cfiCond168 Using cfiCommon0
          CFI (cfiCond168) Function coding
          CFI (cfiCond168) Conditional ??CrossCallReturnLabel_331, ??CrossCallReturnLabel_50
          CFI (cfiCond168) R24 Frame(CFA_Y, -10)
          CFI (cfiCond168) R25 Frame(CFA_Y, -9)
          CFI (cfiCond168) R26 Frame(CFA_Y, -8)
          CFI (cfiCond168) R27 Frame(CFA_Y, -7)
          CFI (cfiCond168) R4 Frame(CFA_Y, -6)
          CFI (cfiCond168) R5 Frame(CFA_Y, -5)
          CFI (cfiCond168) R6 Frame(CFA_Y, -4)
          CFI (cfiCond168) R7 Frame(CFA_Y, -3)
          CFI (cfiCond168) R8 Frame(CFA_Y, -2)
          CFI (cfiCond168) R9 Frame(CFA_Y, -1)
          CFI (cfiCond168) CFA_SP SP+6
          CFI (cfiCond168) CFA_Y Y+10
          CFI Block cfiCond169 Using cfiCommon0
          CFI (cfiCond169) Function coding
          CFI (cfiCond169) Conditional ??CrossCallReturnLabel_331, ??CrossCallReturnLabel_51
          CFI (cfiCond169) R24 Frame(CFA_Y, -10)
          CFI (cfiCond169) R25 Frame(CFA_Y, -9)
          CFI (cfiCond169) R26 Frame(CFA_Y, -8)
          CFI (cfiCond169) R27 Frame(CFA_Y, -7)
          CFI (cfiCond169) R4 Frame(CFA_Y, -6)
          CFI (cfiCond169) R5 Frame(CFA_Y, -5)
          CFI (cfiCond169) R6 Frame(CFA_Y, -4)
          CFI (cfiCond169) R7 Frame(CFA_Y, -3)
          CFI (cfiCond169) R8 Frame(CFA_Y, -2)
          CFI (cfiCond169) R9 Frame(CFA_Y, -1)
          CFI (cfiCond169) CFA_SP SP+6
          CFI (cfiCond169) CFA_Y Y+10
          CFI Block cfiCond170 Using cfiCommon0
          CFI (cfiCond170) Function analiz_INT
          CFI (cfiCond170) Conditional ??CrossCallReturnLabel_327
          CFI (cfiCond170) CFA_SP SP+4
          CFI Block cfiCond171 Using cfiCommon0
          CFI (cfiCond171) Function main
          CFI (cfiCond171) Conditional ??CrossCallReturnLabel_328
          CFI (cfiCond171) R24 Frame(CFA_Y, -1)
          CFI (cfiCond171) CFA_SP SP+4
          CFI (cfiCond171) CFA_Y Y+1
          CFI Block cfiCond172 Using cfiCommon0
          CFI (cfiCond172) Function migWORK
          CFI (cfiCond172) Conditional ??CrossCallReturnLabel_329
          CFI (cfiCond172) CFA_SP SP+4
          CFI Block cfiCond173 Using cfiCommon0
          CFI (cfiCond173) Function programming
          CFI (cfiCond173) Conditional ??CrossCallReturnLabel_330, ??CrossCallReturnLabel_24
          CFI (cfiCond173) R24 Frame(CFA_Y, -1)
          CFI (cfiCond173) CFA_SP SP+6
          CFI (cfiCond173) CFA_Y Y+1
          CFI Block cfiCond174 Using cfiCommon0
          CFI (cfiCond174) Function programming
          CFI (cfiCond174) Conditional ??CrossCallReturnLabel_330, ??CrossCallReturnLabel_25
          CFI (cfiCond174) R24 Frame(CFA_Y, -1)
          CFI (cfiCond174) CFA_SP SP+6
          CFI (cfiCond174) CFA_Y Y+1
          CFI Block cfiCond175 Using cfiCommon0
          CFI (cfiCond175) Function coding
          CFI (cfiCond175) Conditional ??CrossCallReturnLabel_325
          CFI (cfiCond175) R24 Frame(CFA_Y, -10)
          CFI (cfiCond175) R25 Frame(CFA_Y, -9)
          CFI (cfiCond175) R26 Frame(CFA_Y, -8)
          CFI (cfiCond175) R27 Frame(CFA_Y, -7)
          CFI (cfiCond175) R4 Frame(CFA_Y, -6)
          CFI (cfiCond175) R5 Frame(CFA_Y, -5)
          CFI (cfiCond175) R6 Frame(CFA_Y, -4)
          CFI (cfiCond175) R7 Frame(CFA_Y, -3)
          CFI (cfiCond175) R8 Frame(CFA_Y, -2)
          CFI (cfiCond175) R9 Frame(CFA_Y, -1)
          CFI (cfiCond175) CFA_SP SP+4
          CFI (cfiCond175) CFA_Y Y+10
          CFI Block cfiCond176 Using cfiCommon0
          CFI (cfiCond176) Function coding
          CFI (cfiCond176) Conditional ??CrossCallReturnLabel_326
          CFI (cfiCond176) R24 Frame(CFA_Y, -10)
          CFI (cfiCond176) R25 Frame(CFA_Y, -9)
          CFI (cfiCond176) R26 Frame(CFA_Y, -8)
          CFI (cfiCond176) R27 Frame(CFA_Y, -7)
          CFI (cfiCond176) R4 Frame(CFA_Y, -6)
          CFI (cfiCond176) R5 Frame(CFA_Y, -5)
          CFI (cfiCond176) R6 Frame(CFA_Y, -4)
          CFI (cfiCond176) R7 Frame(CFA_Y, -3)
          CFI (cfiCond176) R8 Frame(CFA_Y, -2)
          CFI (cfiCond176) R9 Frame(CFA_Y, -1)
          CFI (cfiCond176) CFA_SP SP+4
          CFI (cfiCond176) CFA_Y Y+10
          CFI Block cfiCond177 Using cfiCommon0
          CFI (cfiCond177) Function coding
          CFI (cfiCond177) Conditional ??CrossCallReturnLabel_323
          CFI (cfiCond177) R24 Frame(CFA_Y, -10)
          CFI (cfiCond177) R25 Frame(CFA_Y, -9)
          CFI (cfiCond177) R26 Frame(CFA_Y, -8)
          CFI (cfiCond177) R27 Frame(CFA_Y, -7)
          CFI (cfiCond177) R4 Frame(CFA_Y, -6)
          CFI (cfiCond177) R5 Frame(CFA_Y, -5)
          CFI (cfiCond177) R6 Frame(CFA_Y, -4)
          CFI (cfiCond177) R7 Frame(CFA_Y, -3)
          CFI (cfiCond177) R8 Frame(CFA_Y, -2)
          CFI (cfiCond177) R9 Frame(CFA_Y, -1)
          CFI (cfiCond177) CFA_SP SP+4
          CFI (cfiCond177) CFA_Y Y+10
          CFI Block cfiCond178 Using cfiCommon0
          CFI (cfiCond178) Function coding
          CFI (cfiCond178) Conditional ??CrossCallReturnLabel_324
          CFI (cfiCond178) R24 Frame(CFA_Y, -10)
          CFI (cfiCond178) R25 Frame(CFA_Y, -9)
          CFI (cfiCond178) R26 Frame(CFA_Y, -8)
          CFI (cfiCond178) R27 Frame(CFA_Y, -7)
          CFI (cfiCond178) R4 Frame(CFA_Y, -6)
          CFI (cfiCond178) R5 Frame(CFA_Y, -5)
          CFI (cfiCond178) R6 Frame(CFA_Y, -4)
          CFI (cfiCond178) R7 Frame(CFA_Y, -3)
          CFI (cfiCond178) R8 Frame(CFA_Y, -2)
          CFI (cfiCond178) R9 Frame(CFA_Y, -1)
          CFI (cfiCond178) CFA_SP SP+4
          CFI (cfiCond178) CFA_Y Y+10
          CFI Block cfiPicker179 Using cfiCommon2
          CFI (cfiPicker179) NoFunction
          CFI (cfiPicker179) Picker
        ST      Z, R16
        RET
          CFI EndBlock cfiCond167
          CFI EndBlock cfiCond168
          CFI EndBlock cfiCond169
          CFI EndBlock cfiCond170
          CFI EndBlock cfiCond171
          CFI EndBlock cfiCond172
          CFI EndBlock cfiCond173
          CFI EndBlock cfiCond174
          CFI EndBlock cfiCond175
          CFI EndBlock cfiCond176
          CFI EndBlock cfiCond177
          CFI EndBlock cfiCond178
          CFI EndBlock cfiPicker179

        RSEG CODE:CODE:NOROOT(1)
?Subroutine27:
          CFI Block cfiCond180 Using cfiCommon0
          CFI Function coding
          CFI Conditional ??CrossCallReturnLabel_323
          CFI R24 Frame(CFA_Y, -10)
          CFI R25 Frame(CFA_Y, -9)
          CFI R26 Frame(CFA_Y, -8)
          CFI R27 Frame(CFA_Y, -7)
          CFI R4 Frame(CFA_Y, -6)
          CFI R5 Frame(CFA_Y, -5)
          CFI R6 Frame(CFA_Y, -4)
          CFI R7 Frame(CFA_Y, -3)
          CFI R8 Frame(CFA_Y, -2)
          CFI R9 Frame(CFA_Y, -1)
          CFI CFA_SP SP+4
          CFI CFA_Y Y+10
          CFI Block cfiCond181 Using cfiCommon0
          CFI (cfiCond181) Function coding
          CFI (cfiCond181) Conditional ??CrossCallReturnLabel_324
          CFI (cfiCond181) R24 Frame(CFA_Y, -10)
          CFI (cfiCond181) R25 Frame(CFA_Y, -9)
          CFI (cfiCond181) R26 Frame(CFA_Y, -8)
          CFI (cfiCond181) R27 Frame(CFA_Y, -7)
          CFI (cfiCond181) R4 Frame(CFA_Y, -6)
          CFI (cfiCond181) R5 Frame(CFA_Y, -5)
          CFI (cfiCond181) R6 Frame(CFA_Y, -4)
          CFI (cfiCond181) R7 Frame(CFA_Y, -3)
          CFI (cfiCond181) R8 Frame(CFA_Y, -2)
          CFI (cfiCond181) R9 Frame(CFA_Y, -1)
          CFI (cfiCond181) CFA_SP SP+4
          CFI (cfiCond181) CFA_Y Y+10
          CFI Block cfiPicker182 Using cfiCommon2
          CFI (cfiPicker182) NoFunction
          CFI (cfiPicker182) Picker
        ST      Z, R16
        STD     Z+1, R17
        LDI     R30, LOW(c2)
        LDI     R31, (c2) >> 8
        RJMP    ?Subroutine125
          CFI EndBlock cfiCond180
          CFI EndBlock cfiCond181
          CFI EndBlock cfiPicker182

        RSEG CODE:CODE:NOROOT(1)
?Subroutine2:
          CFI Block cfiCond183 Using cfiCommon0
          CFI Function coding
          CFI Conditional ??CrossCallReturnLabel_5
          CFI R24 Frame(CFA_Y, -10)
          CFI R25 Frame(CFA_Y, -9)
          CFI R26 Frame(CFA_Y, -8)
          CFI R27 Frame(CFA_Y, -7)
          CFI R4 Frame(CFA_Y, -6)
          CFI R5 Frame(CFA_Y, -5)
          CFI R6 Frame(CFA_Y, -4)
          CFI R7 Frame(CFA_Y, -3)
          CFI R8 Frame(CFA_Y, -2)
          CFI R9 Frame(CFA_Y, -1)
          CFI CFA_SP SP+4
          CFI CFA_Y Y+10
          CFI Block cfiCond184 Using cfiCommon0
          CFI (cfiCond184) Function coding
          CFI (cfiCond184) Conditional ??CrossCallReturnLabel_6
          CFI (cfiCond184) R24 Frame(CFA_Y, -10)
          CFI (cfiCond184) R25 Frame(CFA_Y, -9)
          CFI (cfiCond184) R26 Frame(CFA_Y, -8)
          CFI (cfiCond184) R27 Frame(CFA_Y, -7)
          CFI (cfiCond184) R4 Frame(CFA_Y, -6)
          CFI (cfiCond184) R5 Frame(CFA_Y, -5)
          CFI (cfiCond184) R6 Frame(CFA_Y, -4)
          CFI (cfiCond184) R7 Frame(CFA_Y, -3)
          CFI (cfiCond184) R8 Frame(CFA_Y, -2)
          CFI (cfiCond184) R9 Frame(CFA_Y, -1)
          CFI (cfiCond184) CFA_SP SP+4
          CFI (cfiCond184) CFA_Y Y+10
          CFI Block cfiCond185 Using cfiCommon0
          CFI (cfiCond185) Function coding
          CFI (cfiCond185) Conditional ??CrossCallReturnLabel_7
          CFI (cfiCond185) R24 Frame(CFA_Y, -10)
          CFI (cfiCond185) R25 Frame(CFA_Y, -9)
          CFI (cfiCond185) R26 Frame(CFA_Y, -8)
          CFI (cfiCond185) R27 Frame(CFA_Y, -7)
          CFI (cfiCond185) R4 Frame(CFA_Y, -6)
          CFI (cfiCond185) R5 Frame(CFA_Y, -5)
          CFI (cfiCond185) R6 Frame(CFA_Y, -4)
          CFI (cfiCond185) R7 Frame(CFA_Y, -3)
          CFI (cfiCond185) R8 Frame(CFA_Y, -2)
          CFI (cfiCond185) R9 Frame(CFA_Y, -1)
          CFI (cfiCond185) CFA_SP SP+4
          CFI (cfiCond185) CFA_Y Y+10
          CFI Block cfiPicker186 Using cfiCommon2
          CFI (cfiPicker186) NoFunction
          CFI (cfiPicker186) Picker
        RCALL   ?Subroutine118
??CrossCallReturnLabel_233:
        OR      R18, R16
        OR      R19, R17
        ADD     R18, R24
        ADC     R19, R25
        ST      Z, R18
        STD     Z+1, R19
        RET
          CFI EndBlock cfiCond183
          CFI EndBlock cfiCond184
          CFI EndBlock cfiCond185
          CFI EndBlock cfiPicker186

        RSEG CODE:CODE:NOROOT(1)
?Subroutine1:
          CFI Block cfiCond187 Using cfiCommon0
          CFI Function coding
          CFI Conditional ??CrossCallReturnLabel_2
          CFI R24 Frame(CFA_Y, -10)
          CFI R25 Frame(CFA_Y, -9)
          CFI R26 Frame(CFA_Y, -8)
          CFI R27 Frame(CFA_Y, -7)
          CFI R4 Frame(CFA_Y, -6)
          CFI R5 Frame(CFA_Y, -5)
          CFI R6 Frame(CFA_Y, -4)
          CFI R7 Frame(CFA_Y, -3)
          CFI R8 Frame(CFA_Y, -2)
          CFI R9 Frame(CFA_Y, -1)
          CFI CFA_SP SP+4
          CFI CFA_Y Y+10
          CFI Block cfiCond188 Using cfiCommon0
          CFI (cfiCond188) Function coding
          CFI (cfiCond188) Conditional ??CrossCallReturnLabel_3
          CFI (cfiCond188) R24 Frame(CFA_Y, -10)
          CFI (cfiCond188) R25 Frame(CFA_Y, -9)
          CFI (cfiCond188) R26 Frame(CFA_Y, -8)
          CFI (cfiCond188) R27 Frame(CFA_Y, -7)
          CFI (cfiCond188) R4 Frame(CFA_Y, -6)
          CFI (cfiCond188) R5 Frame(CFA_Y, -5)
          CFI (cfiCond188) R6 Frame(CFA_Y, -4)
          CFI (cfiCond188) R7 Frame(CFA_Y, -3)
          CFI (cfiCond188) R8 Frame(CFA_Y, -2)
          CFI (cfiCond188) R9 Frame(CFA_Y, -1)
          CFI (cfiCond188) CFA_SP SP+4
          CFI (cfiCond188) CFA_Y Y+10
          CFI Block cfiCond189 Using cfiCommon0
          CFI (cfiCond189) Function coding
          CFI (cfiCond189) Conditional ??CrossCallReturnLabel_4
          CFI (cfiCond189) R24 Frame(CFA_Y, -10)
          CFI (cfiCond189) R25 Frame(CFA_Y, -9)
          CFI (cfiCond189) R26 Frame(CFA_Y, -8)
          CFI (cfiCond189) R27 Frame(CFA_Y, -7)
          CFI (cfiCond189) R4 Frame(CFA_Y, -6)
          CFI (cfiCond189) R5 Frame(CFA_Y, -5)
          CFI (cfiCond189) R6 Frame(CFA_Y, -4)
          CFI (cfiCond189) R7 Frame(CFA_Y, -3)
          CFI (cfiCond189) R8 Frame(CFA_Y, -2)
          CFI (cfiCond189) R9 Frame(CFA_Y, -1)
          CFI (cfiCond189) CFA_SP SP+4
          CFI (cfiCond189) CFA_Y Y+10
          CFI Block cfiPicker190 Using cfiCommon2
          CFI (cfiPicker190) NoFunction
          CFI (cfiPicker190) Picker
        RCALL   ?Subroutine118
??CrossCallReturnLabel_232:
        MOVW    R9:R8, R17:R16
        LDI     R20, 0
        LDI     R21, 0
        LDI     R22, 192
        LDI     R23, 63
        MOVW    R17:R16, R1:R0
        MOVW    R19:R18, R3:R2
        RJMP    ?F_CMP_LT_L04
          CFI EndBlock cfiCond187
          CFI EndBlock cfiCond188
          CFI EndBlock cfiCond189
          CFI EndBlock cfiPicker190
//  279   
//  280 
//  281  //переполнился импульс более 130мс  (1/(4000000/8)*65535)
//  282 #pragma vector = TIMER1_OVF_vect

        RSEG CODE:CODE:NOROOT(1)
//  283 __interrupt void funTIMER1_OVF_vect(void)
funTIMER1_OVF_vect:
          CFI Block cfiBlock191 Using cfiCommon1
          CFI Function funTIMER1_OVF_vect
//  284 {
        ST      -Y, R16
          CFI R16 Frame(CFA_Y, -1)
          CFI CFA_Y Y+1
//  285    //TIFR = 0xFF; - в прерывании сбрасывется сам
//  286   
//  287   perepoln=1;   
        LDI     R16, 1
        STS     ??perepoln, R16
          CFI EndBlock cfiBlock191
//  288  
//  289 }
        REQUIRE ?Subroutine133
        ;               // Fall through to label ?Subroutine133

        RSEG CODE:CODE:NOROOT(1)
?Subroutine133:
          CFI Block cfiBlock192 Using cfiCommon1
          CFI NoFunction
          CFI CFA_Y Y+1
          CFI R16 Frame(CFA_Y, -1)
        LD      R16, Y+
          CFI CFA_Y Y+0
          CFI R16 SameValue
        RETI
          CFI EndBlock cfiBlock192
//  290 
//  291 
// F:\Dulov\RemoteAMP\main.c
//    1 //***************************************************************************
//    2 //  
//    3 //  Author(s)...: dav COBRA 
//    4 //  Target(s)...: ATMega8
//    5 //  Compiler....: 6 40
//    6 //  ТЕСТ1
//    7 //  Description.: Система  управления  для  Усилителя  Мощности   V-ниже
//    8 //  v1.1 - добавлена поддержка включения усилителя тыловых колонок вместо Source5
//    9 //       - изменена установка auto off
//   10 //  v1.2 - теперь во время мигания(только Source) светодиодов  команды пульта обрабатываются
//   11 //       - новая команда пульта - возврат в предыдущий source
//   12 //       - команды пульта можно продублировать на втором пульте, т.е. на каждую функцию 2 кнопки пульта
//   13 //       - вместо импульсов громкости можно формировать постоянный сигнал
//   14 //       - подправлены задержки
//   15 //       - обновлен алгоритм кодирования
//   16 // v1.22 - исправлена ошибка задержки вкл AC
//   17 // v1.23 - исправлен при включении включается SOURCE1 
//   18 // v1.24 - исправлен баг AUTOOFF на 30 минут 
//   19 // v1.25 - исправлен баг AUTOOFF при выключениии питания 
//   20 // v1.26 - refactoring, проверка на повторное программирование кнопки
//   21 //  Data........: 02 2017
//   22 //
//   23 //   - ВЫКЛЮЧИТЬ ОПЦИЮ clustering of variables В optimization compilator !!!!
//   24 //***************************************************************************
//   25 #include <iom8.h>//<ioavr.h>
//   26 //#include <inavr.h>  
//   27 #include <intrinsics.h>
//   28 #include "init.h"
//   29 #include "main.h"
//   30 #include "du.h"  
//   31 #include "SoftTimers.h" 
//   32 #include "keys.h"
//   33 //#include <stdlib.h>
//   34 //#include <math.h> 
//   35 #include "usart.h"
//   36 #include "eeprom.h"
//   37 //#include <stdarg.h>
//   38 //************************************************************************* 
//   39 #define AC_ON    SET(PORTD,6)
//   40 #define AC_OFF   RES(PORTD,6)
//   41 void diag(void);
//   42 void led_all(bool a);
//   43 void resled(void);
//   44 void source(void);
//   45 void resOUT(void);  
//   46 void gro(uchar a);
//   47 void main_logic(void);
//   48 void main_power(void);
//   49 void writeCOD(void);
//   50 uchar analizCOD(void);
//   51 void programming(uchar rez);
//   52 uchar getadr(void);
//   53 
//   54 

        RSEG NEAR_I:DATA:NOROOT(0)
        REQUIRE `?<Segment init: NEAR_I>`
//   55 uint tON=acon; 
tON:
        DS8 2
        REQUIRE `?<Initializer for tON>`

        RSEG NEAR_Z:DATA:NOROOT(0)
        REQUIRE `?<Segment init: NEAR_Z>`
//   56 uchar pr=0;
pr:
        DS8 1

        RSEG NEAR_Z:DATA:NOROOT(0)
        REQUIRE `?<Segment init: NEAR_Z>`
//   57 static bool get=0;
??get:
        DS8 1

        RSEG NEAR_Z:DATA:NOROOT(0)
        REQUIRE `?<Segment init: NEAR_Z>`
//   58 bool onok=0;  
onok:
        DS8 1

        RSEG NEAR_Z:DATA:NOROOT(0)
        REQUIRE `?<Segment init: NEAR_Z>`
//   59 bool on=0;
on:
        DS8 1

        RSEG NEAR_Z:DATA:NOROOT(0)
        REQUIRE `?<Segment init: NEAR_Z>`
//   60 volatile bool zader=0,aoff=0;
zader:
        DS8 1

        RSEG NEAR_Z:DATA:NOROOT(0)
        REQUIRE `?<Segment init: NEAR_Z>`
aoff:
        DS8 1

        RSEG NEAR_Z:DATA:NOROOT(0)
        REQUIRE `?<Segment init: NEAR_Z>`
//   61 uint timerzad; 
timerzad:
        DS8 2

        RSEG NEAR_Z:DATA:NOROOT(0)
        REQUIRE `?<Segment init: NEAR_Z>`
//   62 uchar pultadr;
pultadr:
        DS8 1

        RSEG NEAR_Z:DATA:NOROOT(0)
        REQUIRE `?<Segment init: NEAR_Z>`
//   63 static bool u=0,til=0,mode_programming=0; 
??u:
        DS8 1

        RSEG NEAR_Z:DATA:NOROOT(0)
        REQUIRE `?<Segment init: NEAR_Z>`
??til:
        DS8 1

        RSEG NEAR_Z:DATA:NOROOT(0)
        REQUIRE `?<Segment init: NEAR_Z>`
??mode_programming:
        DS8 1

        RSEG NEAR_Z:DATA:NOROOT(0)
        REQUIRE `?<Segment init: NEAR_Z>`
//   64 static  uchar mode=0,tekfunc=0; 
??mode:
        DS8 1

        RSEG NEAR_Z:DATA:NOROOT(0)
        REQUIRE `?<Segment init: NEAR_Z>`
??tekfunc:
        DS8 1

        RSEG NEAR_I:DATA:NOROOT(0)
        REQUIRE `?<Segment init: NEAR_I>`
//   65 static uchar lastsel=1,sel=1,gro1=0,gro2=0,regaoff=0;
??lastsel:
        DS8 1
        REQUIRE `?<Initializer for lastsel>`

        RSEG NEAR_I:DATA:NOROOT(0)
        REQUIRE `?<Segment init: NEAR_I>`
??sel:
        DS8 1
        REQUIRE `?<Initializer for sel>`

        RSEG NEAR_Z:DATA:NOROOT(0)
        REQUIRE `?<Segment init: NEAR_Z>`
??gro1:
        DS8 1

        RSEG NEAR_Z:DATA:NOROOT(0)
        REQUIRE `?<Segment init: NEAR_Z>`
??gro2:
        DS8 1

        RSEG NEAR_Z:DATA:NOROOT(0)
        REQUIRE `?<Segment init: NEAR_Z>`
??regaoff:
        DS8 1
//   66 

        RSEG CODE:CODE:NOROOT(1)
//   67 void led_test()
led_test:
          CFI Block cfiBlock193 Using cfiCommon0
          CFI Function led_test
//   68 {
        FUNCALL led_test, led_all
        LOCFRAME CSTACK, 1, STACK
        LOCFRAME RSTACK, 2, STACK
        ARGFRAME RSTACK, 0, STACK
        FUNCALL led_test, led_all
        LOCFRAME CSTACK, 1, STACK
        LOCFRAME RSTACK, 2, STACK
        ARGFRAME RSTACK, 0, STACK
        ST      -Y, R24
          CFI R24 Frame(CFA_Y, -1)
          CFI CFA_Y Y+1
//   69   for (uchar i=0; i<=6; i++){ led_all(1);  p9; led_all(0);}
        LDI     R24, 7
??led_test_0:
        RCALL   ??Subroutine146_0
??CrossCallReturnLabel_362:
        LDI     R16, 127
        LDI     R17, 252
        LDI     R18, 10
        SUBI    R16, 1
        SBCI    R17, 0
        SBCI    R18, 0
        BRNE    $-6
        RJMP    $+2
        NOP
        RCALL   ?Subroutine15
??CrossCallReturnLabel_29:
        DEC     R24
        BRNE    ??led_test_0
//   70 }
        RJMP    ?Subroutine128
          CFI EndBlock cfiBlock193
//   71 //***************************************************************************
//   72 //                  M  A  I  N
//   73 //***************************************************************************

        RSEG CODE:CODE:NOROOT(1)
//   74 int main( void )
main:
          CFI Block cfiBlock194 Using cfiCommon0
          CFI Function main
//   75 {//main
        FUNCALL main, TimerSet
        LOCFRAME CSTACK, 1, STACK
        LOCFRAME RSTACK, 2, STACK
        ARGFRAME RSTACK, 0, STACK
        FUNCALL main, iniPORTS
        LOCFRAME CSTACK, 1, STACK
        LOCFRAME RSTACK, 2, STACK
        ARGFRAME RSTACK, 0, STACK
        FUNCALL main, led_test
        LOCFRAME CSTACK, 1, STACK
        LOCFRAME RSTACK, 2, STACK
        ARGFRAME RSTACK, 0, STACK
        FUNCALL main, USART_Init
        LOCFRAME CSTACK, 1, STACK
        LOCFRAME RSTACK, 2, STACK
        ARGFRAME RSTACK, 0, STACK
        FUNCALL main, led_test
        LOCFRAME CSTACK, 1, STACK
        LOCFRAME RSTACK, 2, STACK
        ARGFRAME RSTACK, 0, STACK
        FUNCALL main, led_all
        LOCFRAME CSTACK, 1, STACK
        LOCFRAME RSTACK, 2, STACK
        ARGFRAME RSTACK, 0, STACK
        FUNCALL main, writeCOD
        LOCFRAME CSTACK, 1, STACK
        LOCFRAME RSTACK, 2, STACK
        ARGFRAME RSTACK, 0, STACK
        FUNCALL main, led_all
        LOCFRAME CSTACK, 1, STACK
        LOCFRAME RSTACK, 2, STACK
        ARGFRAME RSTACK, 0, STACK
        FUNCALL main, led_test
        LOCFRAME CSTACK, 1, STACK
        LOCFRAME RSTACK, 2, STACK
        ARGFRAME RSTACK, 0, STACK
        FUNCALL main, getadr
        LOCFRAME CSTACK, 1, STACK
        LOCFRAME RSTACK, 2, STACK
        ARGFRAME RSTACK, 0, STACK
        FUNCALL main, led_all
        LOCFRAME CSTACK, 1, STACK
        LOCFRAME RSTACK, 2, STACK
        ARGFRAME RSTACK, 0, STACK
        FUNCALL main, getadr
        LOCFRAME CSTACK, 1, STACK
        LOCFRAME RSTACK, 2, STACK
        ARGFRAME RSTACK, 0, STACK
        FUNCALL main, programming
        LOCFRAME CSTACK, 1, STACK
        LOCFRAME RSTACK, 2, STACK
        ARGFRAME RSTACK, 0, STACK
        FUNCALL main, diag
        LOCFRAME CSTACK, 1, STACK
        LOCFRAME RSTACK, 2, STACK
        ARGFRAME RSTACK, 0, STACK
        FUNCALL main, remote_main
        LOCFRAME CSTACK, 1, STACK
        LOCFRAME RSTACK, 2, STACK
        ARGFRAME RSTACK, 0, STACK
        FUNCALL main, analizCOD
        LOCFRAME CSTACK, 1, STACK
        LOCFRAME RSTACK, 2, STACK
        ARGFRAME RSTACK, 0, STACK
        FUNCALL main, main_power
        LOCFRAME CSTACK, 1, STACK
        LOCFRAME RSTACK, 2, STACK
        ARGFRAME RSTACK, 0, STACK
        FUNCALL main, main_logic
        LOCFRAME CSTACK, 1, STACK
        LOCFRAME RSTACK, 2, STACK
        ARGFRAME RSTACK, 0, STACK
        ST      -Y, R24
          CFI R24 Frame(CFA_Y, -1)
          CFI CFA_Y Y+1
//   76   TimerSet(&tm3,100);
        LDI     R20, 100
        RCALL   ??Subroutine149_0
??CrossCallReturnLabel_381:
        LDI     R16, LOW(tm3)
        LDI     R17, (tm3) >> 8
        RCALL   TimerSet
//   77   
//   78     iniPORTS();  
        RCALL   iniPORTS
//   79     
//   80   p3;//задержка при включении
        RCALL   ?Subroutine65
//   81  
//   82  //----------------------------------
//   83    if (keyONsm) {u=1; led_test(); USART_Init();}//включаем UART
??CrossCallReturnLabel_94:
        SBIC    0x10, 0x05
        RJMP    ??main_0
        LDI     R16, 1
        STS     ??u, R16
        RCALL   led_test
        RCALL   USART_Init
//   84 //----------------------------------
//   85   mode=fmode; //смена режима работы
??main_0:
        LDI     R20, LOW(fmode)
        LDI     R21, (fmode) >> 8
        RCALL   __eeget8_16
        STS     ??mode, R16
//   86   if (mode!=1 && mode!=0) {  fmode=0; mode=0;   }//ini eeprom  read
        CPI     R16, 1
        BREQ    ??main_1
        TST     R16
        BREQ    ??main_1
        RCALL   ?Subroutine16
??CrossCallReturnLabel_204:
        STS     ??mode, R16
//   87   if (modegro!=1 && modegro!=0) { modegro=0;  }//ini eeprom read 
??main_1:
        RCALL   ?Subroutine67
??CrossCallReturnLabel_281:
        BREQ    ??CrossCallReturnLabel_207
        RCALL   ?Subroutine70
??CrossCallReturnLabel_268:
        BREQ    ??CrossCallReturnLabel_207
        RCALL   ?Subroutine17
//   88   
//   89   if (keyMUTE && !keyAOFFsm) {  led_test();
??CrossCallReturnLabel_207:
        SBIC    0x10, 0x01
        RJMP    ??main_2
        SBIC    0x10, 0x05
        RJMP    ??main_2
        SBIS    0x10, 0x00
        RJMP    ??main_2
        RCALL   led_test
//   90   if (mode==0 && modegro==0)   {  fmode=1; p5;   SET(PORTB,4);  while(1) {}   }
        RCALL   ?Subroutine71
??CrossCallReturnLabel_271:
        BRNE    ??main_3
        RCALL   ?Subroutine70
??CrossCallReturnLabel_269:
        BRNE    ??main_4
        LDI     R16, 1
        RCALL   ?Subroutine108
??CrossCallReturnLabel_203:
        RCALL   ?Subroutine122
??CrossCallReturnLabel_240:
        SBI     0x18, 0x04
??main_5:
        RJMP    ??main_5
//   91   if (mode==1 && modegro==0)   {  modegro=1; p5; SET(PORTB,2);  SET(PORTB,3);  SET(PORTB,4);  while(1) {}  }
??main_3:
        CPI     R16, 1
        BRNE    ??main_2
        RCALL   ?Subroutine70
??CrossCallReturnLabel_270:
        BRNE    ??main_6
        LDI     R16, 1
        RCALL   ?Subroutine109
??CrossCallReturnLabel_206:
        RCALL   ?Subroutine66
??CrossCallReturnLabel_97:
        SBI     0x18, 0x04
??main_7:
        RJMP    ??main_7
??main_6:
        RCALL   ?Subroutine67
??CrossCallReturnLabel_282:
        BRNE    ??main_2
//   92   if (mode==1 && modegro==1)   {  fmode=0; p5; SET(PORTB,2);  SET(PORTB,3);    while(1) {}  } 
        RCALL   ?Subroutine16
??CrossCallReturnLabel_205:
        RCALL   ?Subroutine66
??CrossCallReturnLabel_98:
        RJMP    ??CrossCallReturnLabel_98
??main_4:
        RCALL   ?Subroutine67
??CrossCallReturnLabel_283:
        BRNE    ??main_2
//   93   if (mode==0 && modegro==1)   {  modegro=0; p5;  led_all(1);    while(1) {}   }
        RCALL   ?Subroutine17
??CrossCallReturnLabel_208:
        RCALL   ?Subroutine122
??CrossCallReturnLabel_241:
        RCALL   ??Subroutine146_0
??CrossCallReturnLabel_361:
        RJMP    ??CrossCallReturnLabel_361
//   94   
//   95                               }
//   96   
//   97  // modegro=1; mode=1;
//   98 //-----------------------------------
//   99   
//  100    
//  101    if (keySELsm==1 && keyAOFFsm==1)//очистка
??main_2:
        SBIC    0x10, 0x01
        RJMP    ??main_8
        SBIC    0x10, 0x00
        RJMP    ??main_8
//  102       {
//  103         tekfunc=0;
        LDI     R16, 0
        STS     ??tekfunc, R16
//  104         mode_programming=1; cod1=0;cod2=0;cod3=0;
        LDI     R16, 1
        STS     ??mode_programming, R16
        RCALL   ?Subroutine12
//  105         for (uchar i=0; i<=MAXFUNC; i++) {writeCOD();tekfunc++;}
??CrossCallReturnLabel_22:
        LDI     R24, 24
??main_9:
        RCALL   writeCOD
        LDI     R30, LOW(??tekfunc)
        LDI     R31, (??tekfunc) >> 8
        RCALL   ?Subroutine98
??CrossCallReturnLabel_328:
        DEC     R24
        BRNE    ??main_9
//  106         led_all(1); while(1) {} //зависаем
        RCALL   ??Subroutine146_0
??CrossCallReturnLabel_360:
        RJMP    ??CrossCallReturnLabel_360
//  107       }
//  108   if (keySELsm) {mode_programming=1; led_test();}//включаем программирование пульта
??main_8:
        SBIC    0x10, 0x01
        RJMP    ??main_10
        LDI     R16, 1
        STS     ??mode_programming, R16
        RCALL   led_test
//  109   
//  110   
//  111    if (mode_programming) //мигание первого программируемого
??main_10:
        LDS     R16, ??mode_programming
        TST     R16
        BREQ    ??main_11
//  112    {
//  113      for (uchar i=0; i<7; i++) {getadr(); p3;led_all(0); p3;}
        LDI     R24, 7
??main_12:
        RCALL   getadr
        RCALL   ?Subroutine65
??CrossCallReturnLabel_95:
        RCALL   ?Subroutine15
??CrossCallReturnLabel_28:
        RCALL   ?Subroutine65
??CrossCallReturnLabel_96:
        DEC     R24
        BRNE    ??main_12
//  114     
//  115      getadr();
        RCALL   getadr
//  116    }
//  117            
//  118 
//  119     __enable_interrupt();   
??main_11:
        SEI
        RJMP    ??main_13
//  120   while(1)
//  121   {
//  122      bool rez=remote_main();//вызов обработчика пульта 
//  123      if (!mode_programming)  
//  124      {    
//  125        pultadr=0; 
//  126        if (rez) pultadr=analizCOD();  
//  127       main_power();
//  128       if (on==1)
//  129          main_logic();
//  130      }
//  131      else programming(rez);
??main_14:
        RCALL   programming
//  132      
//  133      if(u) diag();  
??main_15:
        LDS     R16, ??u
        TST     R16
        BREQ    ??main_13
        RCALL   diag
??main_13:
        RCALL   remote_main
        LDS     R17, ??mode_programming
        TST     R17
        BRNE    ??main_14
        LDI     R17, 0
        STS     pultadr, R17
        TST     R16
        BREQ    ??CrossCallReturnLabel_351
        RCALL   analizCOD
        RCALL   ?Subroutine126
??CrossCallReturnLabel_351:
        RCALL   main_power
        RCALL   ?Subroutine73
??CrossCallReturnLabel_275:
        BREQ    ??main_15
        RCALL   main_logic
        RJMP    ??main_15
          CFI EndBlock cfiBlock194
        REQUIRE _A_PIND
        REQUIRE _A_PORTB
//  134   }
//  135 }//main

        RSEG CODE:CODE:NOROOT(1)
?Subroutine70:
          CFI Block cfiCond195 Using cfiCommon0
          CFI Function main
          CFI Conditional ??CrossCallReturnLabel_268
          CFI R24 Frame(CFA_Y, -1)
          CFI CFA_SP SP+4
          CFI CFA_Y Y+1
          CFI Block cfiCond196 Using cfiCommon0
          CFI (cfiCond196) Function main
          CFI (cfiCond196) Conditional ??CrossCallReturnLabel_269
          CFI (cfiCond196) R24 Frame(CFA_Y, -1)
          CFI (cfiCond196) CFA_SP SP+4
          CFI (cfiCond196) CFA_Y Y+1
          CFI Block cfiCond197 Using cfiCommon0
          CFI (cfiCond197) Function main
          CFI (cfiCond197) Conditional ??CrossCallReturnLabel_270
          CFI (cfiCond197) R24 Frame(CFA_Y, -1)
          CFI (cfiCond197) CFA_SP SP+4
          CFI (cfiCond197) CFA_Y Y+1
          CFI Block cfiPicker198 Using cfiCommon2
          CFI (cfiPicker198) NoFunction
          CFI (cfiPicker198) Picker
        RCALL   ?Subroutine110
          CFI EndBlock cfiCond195
          CFI EndBlock cfiCond196
          CFI EndBlock cfiCond197
          CFI EndBlock cfiPicker198
??CrossCallReturnLabel_210:
        REQUIRE ?Subroutine129
        ;               // Fall through to label ?Subroutine129

        RSEG CODE:CODE:NOROOT(1)
?Subroutine129:
          CFI Block cfiCond199 Using cfiCommon0
          CFI Function main
          CFI Conditional ??CrossCallReturnLabel_268
          CFI R24 Frame(CFA_Y, -1)
          CFI CFA_SP SP+4
          CFI CFA_Y Y+1
          CFI Block cfiCond200 Using cfiCommon0
          CFI (cfiCond200) Function main
          CFI (cfiCond200) Conditional ??CrossCallReturnLabel_269
          CFI (cfiCond200) R24 Frame(CFA_Y, -1)
          CFI (cfiCond200) CFA_SP SP+4
          CFI (cfiCond200) CFA_Y Y+1
          CFI Block cfiCond201 Using cfiCommon0
          CFI (cfiCond201) Function main
          CFI (cfiCond201) Conditional ??CrossCallReturnLabel_270
          CFI (cfiCond201) R24 Frame(CFA_Y, -1)
          CFI (cfiCond201) CFA_SP SP+4
          CFI (cfiCond201) CFA_Y Y+1
          CFI Block cfiCond202 Using cfiCommon0
          CFI (cfiCond202) Function main
          CFI (cfiCond202) Conditional ??CrossCallReturnLabel_275
          CFI (cfiCond202) R24 Frame(CFA_Y, -1)
          CFI (cfiCond202) CFA_SP SP+4
          CFI (cfiCond202) CFA_Y Y+1
          CFI Block cfiCond203 Using cfiCommon0
          CFI (cfiCond203) Function main_power
          CFI (cfiCond203) Conditional ??CrossCallReturnLabel_276
          CFI (cfiCond203) CFA_SP SP+4
          CFI Block cfiCond204 Using cfiCommon0
          CFI (cfiCond204) Function main_power
          CFI (cfiCond204) Conditional ??CrossCallReturnLabel_277
          CFI (cfiCond204) CFA_SP SP+4
          CFI Block cfiCond205 Using cfiCommon0
          CFI (cfiCond205) Function main
          CFI (cfiCond205) Conditional ??CrossCallReturnLabel_271
          CFI (cfiCond205) R24 Frame(CFA_Y, -1)
          CFI (cfiCond205) CFA_SP SP+4
          CFI (cfiCond205) CFA_Y Y+1
          CFI Block cfiCond206 Using cfiCommon0
          CFI (cfiCond206) Function source
          CFI (cfiCond206) Conditional ??CrossCallReturnLabel_272
          CFI (cfiCond206) CFA_SP SP+4
          CFI Block cfiCond207 Using cfiCommon0
          CFI (cfiCond207) Function resled
          CFI (cfiCond207) Conditional ??CrossCallReturnLabel_273
          CFI (cfiCond207) CFA_SP SP+4
          CFI Block cfiCond208 Using cfiCommon0
          CFI (cfiCond208) Function resOUT
          CFI (cfiCond208) Conditional ??CrossCallReturnLabel_274
          CFI (cfiCond208) CFA_SP SP+4
          CFI Block cfiPicker209 Using cfiCommon2
          CFI (cfiPicker209) NoFunction
          CFI (cfiPicker209) Picker
        TST     R16
        RET
          CFI EndBlock cfiCond199
          CFI EndBlock cfiCond200
          CFI EndBlock cfiCond201
          CFI EndBlock cfiCond202
          CFI EndBlock cfiCond203
          CFI EndBlock cfiCond204
          CFI EndBlock cfiCond205
          CFI EndBlock cfiCond206
          CFI EndBlock cfiCond207
          CFI EndBlock cfiCond208
          CFI EndBlock cfiPicker209

        RSEG CODE:CODE:NOROOT(1)
?Subroutine66:
          CFI Block cfiCond210 Using cfiCommon0
          CFI Function main
          CFI Conditional ??CrossCallReturnLabel_97
          CFI R24 Frame(CFA_Y, -1)
          CFI CFA_SP SP+4
          CFI CFA_Y Y+1
          CFI Block cfiCond211 Using cfiCommon0
          CFI (cfiCond211) Function main
          CFI (cfiCond211) Conditional ??CrossCallReturnLabel_98
          CFI (cfiCond211) R24 Frame(CFA_Y, -1)
          CFI (cfiCond211) CFA_SP SP+4
          CFI (cfiCond211) CFA_Y Y+1
          CFI Block cfiPicker212 Using cfiCommon2
          CFI (cfiPicker212) NoFunction
          CFI (cfiPicker212) Picker
        RCALL   ?Subroutine122
??CrossCallReturnLabel_245:
        SBI     0x18, 0x02
        SBI     0x18, 0x03
        RET
          CFI EndBlock cfiCond210
          CFI EndBlock cfiCond211
          CFI EndBlock cfiPicker212

        RSEG CODE:CODE:NOROOT(1)
?Subroutine65:
          CFI Block cfiCond213 Using cfiCommon0
          CFI Function main
          CFI Conditional ??CrossCallReturnLabel_94
          CFI R24 Frame(CFA_Y, -1)
          CFI CFA_SP SP+4
          CFI CFA_Y Y+1
          CFI Block cfiCond214 Using cfiCommon0
          CFI (cfiCond214) Function main
          CFI (cfiCond214) Conditional ??CrossCallReturnLabel_95
          CFI (cfiCond214) R24 Frame(CFA_Y, -1)
          CFI (cfiCond214) CFA_SP SP+4
          CFI (cfiCond214) CFA_Y Y+1
          CFI Block cfiCond215 Using cfiCommon0
          CFI (cfiCond215) Function main
          CFI (cfiCond215) Conditional ??CrossCallReturnLabel_96
          CFI (cfiCond215) R24 Frame(CFA_Y, -1)
          CFI (cfiCond215) CFA_SP SP+4
          CFI (cfiCond215) CFA_Y Y+1
          CFI Block cfiPicker216 Using cfiCommon2
          CFI (cfiPicker216) NoFunction
          CFI (cfiPicker216) Picker
        LDI     R16, 127
        LDI     R17, 169
        LDI     R18, 3
        SUBI    R16, 1
        SBCI    R17, 0
        SBCI    R18, 0
        BRNE    $-6
        RJMP    $+2
        NOP
        RET
          CFI EndBlock cfiCond213
          CFI EndBlock cfiCond214
          CFI EndBlock cfiCond215
          CFI EndBlock cfiPicker216

        RSEG CODE:CODE:NOROOT(1)
?Subroutine98:
          CFI Block cfiCond217 Using cfiCommon0
          CFI Function coding
          CFI Conditional ??CrossCallReturnLabel_331, ??CrossCallReturnLabel_49
          CFI R24 Frame(CFA_Y, -10)
          CFI R25 Frame(CFA_Y, -9)
          CFI R26 Frame(CFA_Y, -8)
          CFI R27 Frame(CFA_Y, -7)
          CFI R4 Frame(CFA_Y, -6)
          CFI R5 Frame(CFA_Y, -5)
          CFI R6 Frame(CFA_Y, -4)
          CFI R7 Frame(CFA_Y, -3)
          CFI R8 Frame(CFA_Y, -2)
          CFI R9 Frame(CFA_Y, -1)
          CFI CFA_SP SP+6
          CFI CFA_Y Y+10
          CFI Block cfiCond218 Using cfiCommon0
          CFI (cfiCond218) Function coding
          CFI (cfiCond218) Conditional ??CrossCallReturnLabel_331, ??CrossCallReturnLabel_50
          CFI (cfiCond218) R24 Frame(CFA_Y, -10)
          CFI (cfiCond218) R25 Frame(CFA_Y, -9)
          CFI (cfiCond218) R26 Frame(CFA_Y, -8)
          CFI (cfiCond218) R27 Frame(CFA_Y, -7)
          CFI (cfiCond218) R4 Frame(CFA_Y, -6)
          CFI (cfiCond218) R5 Frame(CFA_Y, -5)
          CFI (cfiCond218) R6 Frame(CFA_Y, -4)
          CFI (cfiCond218) R7 Frame(CFA_Y, -3)
          CFI (cfiCond218) R8 Frame(CFA_Y, -2)
          CFI (cfiCond218) R9 Frame(CFA_Y, -1)
          CFI (cfiCond218) CFA_SP SP+6
          CFI (cfiCond218) CFA_Y Y+10
          CFI Block cfiCond219 Using cfiCommon0
          CFI (cfiCond219) Function coding
          CFI (cfiCond219) Conditional ??CrossCallReturnLabel_331, ??CrossCallReturnLabel_51
          CFI (cfiCond219) R24 Frame(CFA_Y, -10)
          CFI (cfiCond219) R25 Frame(CFA_Y, -9)
          CFI (cfiCond219) R26 Frame(CFA_Y, -8)
          CFI (cfiCond219) R27 Frame(CFA_Y, -7)
          CFI (cfiCond219) R4 Frame(CFA_Y, -6)
          CFI (cfiCond219) R5 Frame(CFA_Y, -5)
          CFI (cfiCond219) R6 Frame(CFA_Y, -4)
          CFI (cfiCond219) R7 Frame(CFA_Y, -3)
          CFI (cfiCond219) R8 Frame(CFA_Y, -2)
          CFI (cfiCond219) R9 Frame(CFA_Y, -1)
          CFI (cfiCond219) CFA_SP SP+6
          CFI (cfiCond219) CFA_Y Y+10
          CFI Block cfiCond220 Using cfiCommon0
          CFI (cfiCond220) Function analiz_INT
          CFI (cfiCond220) Conditional ??CrossCallReturnLabel_327
          CFI (cfiCond220) CFA_SP SP+4
          CFI Block cfiCond221 Using cfiCommon0
          CFI (cfiCond221) Function main
          CFI (cfiCond221) Conditional ??CrossCallReturnLabel_328
          CFI (cfiCond221) R24 Frame(CFA_Y, -1)
          CFI (cfiCond221) CFA_SP SP+4
          CFI (cfiCond221) CFA_Y Y+1
          CFI Block cfiCond222 Using cfiCommon0
          CFI (cfiCond222) Function migWORK
          CFI (cfiCond222) Conditional ??CrossCallReturnLabel_329
          CFI (cfiCond222) CFA_SP SP+4
          CFI Block cfiCond223 Using cfiCommon0
          CFI (cfiCond223) Function programming
          CFI (cfiCond223) Conditional ??CrossCallReturnLabel_330, ??CrossCallReturnLabel_24
          CFI (cfiCond223) R24 Frame(CFA_Y, -1)
          CFI (cfiCond223) CFA_SP SP+6
          CFI (cfiCond223) CFA_Y Y+1
          CFI Block cfiCond224 Using cfiCommon0
          CFI (cfiCond224) Function programming
          CFI (cfiCond224) Conditional ??CrossCallReturnLabel_330, ??CrossCallReturnLabel_25
          CFI (cfiCond224) R24 Frame(CFA_Y, -1)
          CFI (cfiCond224) CFA_SP SP+6
          CFI (cfiCond224) CFA_Y Y+1
          CFI Block cfiPicker225 Using cfiCommon2
          CFI (cfiPicker225) NoFunction
          CFI (cfiPicker225) Picker
        LD      R16, Z
        INC     R16
        RJMP    ??Subroutine141_0
          CFI EndBlock cfiCond217
          CFI EndBlock cfiCond218
          CFI EndBlock cfiCond219
          CFI EndBlock cfiCond220
          CFI EndBlock cfiCond221
          CFI EndBlock cfiCond222
          CFI EndBlock cfiCond223
          CFI EndBlock cfiCond224
          CFI EndBlock cfiPicker225

        RSEG CODE:CODE:NOROOT(1)
?Subroutine17:
          CFI Block cfiCond226 Using cfiCommon0
          CFI Function main
          CFI Conditional ??CrossCallReturnLabel_207
          CFI R24 Frame(CFA_Y, -1)
          CFI CFA_SP SP+4
          CFI CFA_Y Y+1
          CFI Block cfiCond227 Using cfiCommon0
          CFI (cfiCond227) Function main
          CFI (cfiCond227) Conditional ??CrossCallReturnLabel_208
          CFI (cfiCond227) R24 Frame(CFA_Y, -1)
          CFI (cfiCond227) CFA_SP SP+4
          CFI (cfiCond227) CFA_Y Y+1
          CFI Block cfiPicker228 Using cfiCommon2
          CFI (cfiPicker228) NoFunction
          CFI (cfiPicker228) Picker
        LDI     R16, 0
          CFI EndBlock cfiCond226
          CFI EndBlock cfiCond227
          CFI EndBlock cfiPicker228
        REQUIRE ?Subroutine109
        ;               // Fall through to label ?Subroutine109

        RSEG CODE:CODE:NOROOT(1)
?Subroutine109:
          CFI Block cfiCond229 Using cfiCommon0
          CFI Function main
          CFI Conditional ??CrossCallReturnLabel_206
          CFI R24 Frame(CFA_Y, -1)
          CFI CFA_SP SP+4
          CFI CFA_Y Y+1
          CFI Block cfiCond230 Using cfiCommon0
          CFI (cfiCond230) Function main
          CFI (cfiCond230) Conditional ??CrossCallReturnLabel_207
          CFI (cfiCond230) R24 Frame(CFA_Y, -1)
          CFI (cfiCond230) CFA_SP SP+4
          CFI (cfiCond230) CFA_Y Y+1
          CFI Block cfiCond231 Using cfiCommon0
          CFI (cfiCond231) Function main
          CFI (cfiCond231) Conditional ??CrossCallReturnLabel_208
          CFI (cfiCond231) R24 Frame(CFA_Y, -1)
          CFI (cfiCond231) CFA_SP SP+4
          CFI (cfiCond231) CFA_Y Y+1
          CFI Block cfiPicker232 Using cfiCommon2
          CFI (cfiPicker232) NoFunction
          CFI (cfiPicker232) Picker
        LDI     R20, LOW(modegro)
        LDI     R21, (modegro) >> 8
        RJMP    __eeput8_16
          CFI EndBlock cfiCond229
          CFI EndBlock cfiCond230
          CFI EndBlock cfiCond231
          CFI EndBlock cfiPicker232

        RSEG CODE:CODE:NOROOT(1)
?Subroutine16:
          CFI Block cfiCond233 Using cfiCommon0
          CFI Function main
          CFI Conditional ??CrossCallReturnLabel_204
          CFI R24 Frame(CFA_Y, -1)
          CFI CFA_SP SP+4
          CFI CFA_Y Y+1
          CFI Block cfiCond234 Using cfiCommon0
          CFI (cfiCond234) Function main
          CFI (cfiCond234) Conditional ??CrossCallReturnLabel_205
          CFI (cfiCond234) R24 Frame(CFA_Y, -1)
          CFI (cfiCond234) CFA_SP SP+4
          CFI (cfiCond234) CFA_Y Y+1
          CFI Block cfiPicker235 Using cfiCommon2
          CFI (cfiPicker235) NoFunction
          CFI (cfiPicker235) Picker
        LDI     R16, 0
          CFI EndBlock cfiCond233
          CFI EndBlock cfiCond234
          CFI EndBlock cfiPicker235
        REQUIRE ?Subroutine108
        ;               // Fall through to label ?Subroutine108

        RSEG CODE:CODE:NOROOT(1)
?Subroutine108:
          CFI Block cfiCond236 Using cfiCommon0
          CFI Function main
          CFI Conditional ??CrossCallReturnLabel_203
          CFI R24 Frame(CFA_Y, -1)
          CFI CFA_SP SP+4
          CFI CFA_Y Y+1
          CFI Block cfiCond237 Using cfiCommon0
          CFI (cfiCond237) Function main
          CFI (cfiCond237) Conditional ??CrossCallReturnLabel_204
          CFI (cfiCond237) R24 Frame(CFA_Y, -1)
          CFI (cfiCond237) CFA_SP SP+4
          CFI (cfiCond237) CFA_Y Y+1
          CFI Block cfiCond238 Using cfiCommon0
          CFI (cfiCond238) Function main
          CFI (cfiCond238) Conditional ??CrossCallReturnLabel_205
          CFI (cfiCond238) R24 Frame(CFA_Y, -1)
          CFI (cfiCond238) CFA_SP SP+4
          CFI (cfiCond238) CFA_Y Y+1
          CFI Block cfiPicker239 Using cfiCommon2
          CFI (cfiPicker239) NoFunction
          CFI (cfiPicker239) Picker
        LDI     R20, LOW(fmode)
        LDI     R21, (fmode) >> 8
        RJMP    __eeput8_16
          CFI EndBlock cfiCond236
          CFI EndBlock cfiCond237
          CFI EndBlock cfiCond238
          CFI EndBlock cfiPicker239

        RSEG CODE:CODE:NOROOT(1)
?Subroutine12:
          CFI Block cfiCond240 Using cfiCommon0
          CFI Function PEREP
          CFI Conditional ??CrossCallReturnLabel_23
          CFI R24 Frame(CFA_Y, -8)
          CFI R25 Frame(CFA_Y, -7)
          CFI R26 Frame(CFA_Y, -6)
          CFI R27 Frame(CFA_Y, -5)
          CFI R4 Frame(CFA_Y, -4)
          CFI R5 Frame(CFA_Y, -3)
          CFI R6 Frame(CFA_Y, -2)
          CFI R7 Frame(CFA_Y, -1)
          CFI CFA_SP SP+4
          CFI CFA_Y Y+8
          CFI Block cfiCond241 Using cfiCommon0
          CFI (cfiCond241) Function main
          CFI (cfiCond241) Conditional ??CrossCallReturnLabel_22
          CFI (cfiCond241) R24 Frame(CFA_Y, -1)
          CFI (cfiCond241) CFA_SP SP+4
          CFI (cfiCond241) CFA_Y Y+1
          CFI Block cfiPicker242 Using cfiCommon2
          CFI (cfiPicker242) NoFunction
          CFI (cfiPicker242) Picker
        LDI     R16, 0
        RCALL   ?Subroutine105
??CrossCallReturnLabel_200:
        RCALL   ?Subroutine95
??CrossCallReturnLabel_159:
        LDI     R30, LOW(cod2)
        LDI     R31, (cod2) >> 8
        RCALL   ?Subroutine95
??CrossCallReturnLabel_160:
        LDI     R30, LOW(cod3)
        LDI     R31, (cod3) >> 8
          CFI EndBlock cfiCond240
          CFI EndBlock cfiCond241
          CFI EndBlock cfiPicker242
        REQUIRE ?Subroutine95
        ;               // Fall through to label ?Subroutine95

        RSEG CODE:CODE:NOROOT(1)
?Subroutine95:
          CFI Block cfiCond243 Using cfiCommon0
          CFI Function PEREP
          CFI Conditional ??CrossCallReturnLabel_154
          CFI R24 Frame(CFA_Y, -8)
          CFI R25 Frame(CFA_Y, -7)
          CFI R26 Frame(CFA_Y, -6)
          CFI R27 Frame(CFA_Y, -5)
          CFI R4 Frame(CFA_Y, -4)
          CFI R5 Frame(CFA_Y, -3)
          CFI R6 Frame(CFA_Y, -2)
          CFI R7 Frame(CFA_Y, -1)
          CFI CFA_SP SP+4
          CFI CFA_Y Y+8
          CFI Block cfiCond244 Using cfiCommon0
          CFI (cfiCond244) Function PEREP
          CFI (cfiCond244) Conditional ??CrossCallReturnLabel_155
          CFI (cfiCond244) R24 Frame(CFA_Y, -8)
          CFI (cfiCond244) R25 Frame(CFA_Y, -7)
          CFI (cfiCond244) R26 Frame(CFA_Y, -6)
          CFI (cfiCond244) R27 Frame(CFA_Y, -5)
          CFI (cfiCond244) R4 Frame(CFA_Y, -4)
          CFI (cfiCond244) R5 Frame(CFA_Y, -3)
          CFI (cfiCond244) R6 Frame(CFA_Y, -2)
          CFI (cfiCond244) R7 Frame(CFA_Y, -1)
          CFI (cfiCond244) CFA_SP SP+4
          CFI (cfiCond244) CFA_Y Y+8
          CFI Block cfiCond245 Using cfiCommon0
          CFI (cfiCond245) Function PEREP
          CFI (cfiCond245) Conditional ??CrossCallReturnLabel_156
          CFI (cfiCond245) R24 Frame(CFA_Y, -8)
          CFI (cfiCond245) R25 Frame(CFA_Y, -7)
          CFI (cfiCond245) R26 Frame(CFA_Y, -6)
          CFI (cfiCond245) R27 Frame(CFA_Y, -5)
          CFI (cfiCond245) R4 Frame(CFA_Y, -4)
          CFI (cfiCond245) R5 Frame(CFA_Y, -3)
          CFI (cfiCond245) R6 Frame(CFA_Y, -2)
          CFI (cfiCond245) R7 Frame(CFA_Y, -1)
          CFI (cfiCond245) CFA_SP SP+4
          CFI (cfiCond245) CFA_Y Y+8
          CFI Block cfiCond246 Using cfiCommon0
          CFI (cfiCond246) Function PEREP
          CFI (cfiCond246) Conditional ??CrossCallReturnLabel_157
          CFI (cfiCond246) R24 Frame(CFA_Y, -8)
          CFI (cfiCond246) R25 Frame(CFA_Y, -7)
          CFI (cfiCond246) R26 Frame(CFA_Y, -6)
          CFI (cfiCond246) R27 Frame(CFA_Y, -5)
          CFI (cfiCond246) R4 Frame(CFA_Y, -4)
          CFI (cfiCond246) R5 Frame(CFA_Y, -3)
          CFI (cfiCond246) R6 Frame(CFA_Y, -2)
          CFI (cfiCond246) R7 Frame(CFA_Y, -1)
          CFI (cfiCond246) CFA_SP SP+4
          CFI (cfiCond246) CFA_Y Y+8
          CFI Block cfiCond247 Using cfiCommon0
          CFI (cfiCond247) Function PEREP
          CFI (cfiCond247) Conditional ??CrossCallReturnLabel_159, ??CrossCallReturnLabel_23
          CFI (cfiCond247) R24 Frame(CFA_Y, -8)
          CFI (cfiCond247) R25 Frame(CFA_Y, -7)
          CFI (cfiCond247) R26 Frame(CFA_Y, -6)
          CFI (cfiCond247) R27 Frame(CFA_Y, -5)
          CFI (cfiCond247) R4 Frame(CFA_Y, -4)
          CFI (cfiCond247) R5 Frame(CFA_Y, -3)
          CFI (cfiCond247) R6 Frame(CFA_Y, -2)
          CFI (cfiCond247) R7 Frame(CFA_Y, -1)
          CFI (cfiCond247) CFA_SP SP+6
          CFI (cfiCond247) CFA_Y Y+8
          CFI Block cfiCond248 Using cfiCommon0
          CFI (cfiCond248) Function main
          CFI (cfiCond248) Conditional ??CrossCallReturnLabel_159, ??CrossCallReturnLabel_22
          CFI (cfiCond248) R24 Frame(CFA_Y, -1)
          CFI (cfiCond248) CFA_SP SP+6
          CFI (cfiCond248) CFA_Y Y+1
          CFI Block cfiCond249 Using cfiCommon0
          CFI (cfiCond249) Function PEREP
          CFI (cfiCond249) Conditional ??CrossCallReturnLabel_160, ??CrossCallReturnLabel_23
          CFI (cfiCond249) R24 Frame(CFA_Y, -8)
          CFI (cfiCond249) R25 Frame(CFA_Y, -7)
          CFI (cfiCond249) R26 Frame(CFA_Y, -6)
          CFI (cfiCond249) R27 Frame(CFA_Y, -5)
          CFI (cfiCond249) R4 Frame(CFA_Y, -4)
          CFI (cfiCond249) R5 Frame(CFA_Y, -3)
          CFI (cfiCond249) R6 Frame(CFA_Y, -2)
          CFI (cfiCond249) R7 Frame(CFA_Y, -1)
          CFI (cfiCond249) CFA_SP SP+6
          CFI (cfiCond249) CFA_Y Y+8
          CFI Block cfiCond250 Using cfiCommon0
          CFI (cfiCond250) Function main
          CFI (cfiCond250) Conditional ??CrossCallReturnLabel_160, ??CrossCallReturnLabel_22
          CFI (cfiCond250) R24 Frame(CFA_Y, -1)
          CFI (cfiCond250) CFA_SP SP+6
          CFI (cfiCond250) CFA_Y Y+1
          CFI Block cfiCond251 Using cfiCommon0
          CFI (cfiCond251) Function PEREP
          CFI (cfiCond251) Conditional ??CrossCallReturnLabel_23
          CFI (cfiCond251) R24 Frame(CFA_Y, -8)
          CFI (cfiCond251) R25 Frame(CFA_Y, -7)
          CFI (cfiCond251) R26 Frame(CFA_Y, -6)
          CFI (cfiCond251) R27 Frame(CFA_Y, -5)
          CFI (cfiCond251) R4 Frame(CFA_Y, -4)
          CFI (cfiCond251) R5 Frame(CFA_Y, -3)
          CFI (cfiCond251) R6 Frame(CFA_Y, -2)
          CFI (cfiCond251) R7 Frame(CFA_Y, -1)
          CFI (cfiCond251) CFA_SP SP+4
          CFI (cfiCond251) CFA_Y Y+8
          CFI Block cfiCond252 Using cfiCommon0
          CFI (cfiCond252) Function main
          CFI (cfiCond252) Conditional ??CrossCallReturnLabel_22
          CFI (cfiCond252) R24 Frame(CFA_Y, -1)
          CFI (cfiCond252) CFA_SP SP+4
          CFI (cfiCond252) CFA_Y Y+1
          CFI Block cfiCond253 Using cfiCommon0
          CFI (cfiCond253) Function pult
          CFI (cfiCond253) Conditional ??CrossCallReturnLabel_158, ??CrossCallReturnLabel_9
          CFI (cfiCond253) CFA_SP SP+6
          CFI Block cfiCond254 Using cfiCommon0
          CFI (cfiCond254) Function main_power
          CFI (cfiCond254) Conditional ??CrossCallReturnLabel_158, ??CrossCallReturnLabel_8
          CFI (cfiCond254) CFA_SP SP+6
          CFI Block cfiPicker255 Using cfiCommon2
          CFI (cfiPicker255) NoFunction
          CFI (cfiPicker255) Picker
        ST      Z, R16
        STD     Z+1, R16
        RET
          CFI EndBlock cfiCond243
          CFI EndBlock cfiCond244
          CFI EndBlock cfiCond245
          CFI EndBlock cfiCond246
          CFI EndBlock cfiCond247
          CFI EndBlock cfiCond248
          CFI EndBlock cfiCond249
          CFI EndBlock cfiCond250
          CFI EndBlock cfiCond251
          CFI EndBlock cfiCond252
          CFI EndBlock cfiCond253
          CFI EndBlock cfiCond254
          CFI EndBlock cfiPicker255
//  136 //***************************************************************************
//  137 
//  138 
//  139 
//  140 
//  141 
//  142 
//  143 
//  144 
//  145 
//  146 
//  147 

        RSEG CODE:CODE:NOROOT(1)
//  148 bool mute(int a)
mute:
          CFI Block cfiBlock256 Using cfiCommon0
          CFI Function mute
//  149 {
//  150     static bool state=0;
//  151     if (a==-1) 
        CPI     R16, 255
        LDI     R18, 255
        CPC     R17, R18
        BRNE    ??mute_0
//  152     {
//  153     if (state) { state=0; AC_OFF; }
        LDS     R16, ??state
        TST     R16
        BREQ    ??mute_1
        RCALL   ?Subroutine20
??CrossCallReturnLabel_34:
        RJMP    ??CrossCallReturnLabel_13
//  154     else {state=1; AC_ON;}
??mute_1:
        RCALL   ?Subroutine9
//  155     p5;
??CrossCallReturnLabel_13:
        RCALL   ?Subroutine122
//  156     }
??CrossCallReturnLabel_242:
        RJMP    ??CrossCallReturnLabel_14
//  157     else
//  158       if (a==0) { state=0; AC_OFF; }
??mute_0:
        MOV     R18, R16
        OR      R18, R17
        BRNE    ??mute_2
        RCALL   ?Subroutine20
??CrossCallReturnLabel_35:
        RJMP    ??CrossCallReturnLabel_14
//  159       else
//  160       if (a==1) {state=1; AC_ON;}
??mute_2:
        CPI     R16, 1
        SBCI    R17, 0
        BRNE    ??CrossCallReturnLabel_14
        RCALL   ?Subroutine9
//  161     return state; 
??CrossCallReturnLabel_14:
        LDS     R16, ??state
        RET
          CFI EndBlock cfiBlock256
        REQUIRE _A_PORTD
//  162 }

        RSEG CODE:CODE:NOROOT(1)
?Subroutine20:
          CFI Block cfiCond257 Using cfiCommon0
          CFI Function mute
          CFI Conditional ??CrossCallReturnLabel_34
          CFI CFA_SP SP+4
          CFI Block cfiCond258 Using cfiCommon0
          CFI (cfiCond258) Function mute
          CFI (cfiCond258) Conditional ??CrossCallReturnLabel_35
          CFI (cfiCond258) CFA_SP SP+4
          CFI Block cfiPicker259 Using cfiCommon2
          CFI (cfiPicker259) NoFunction
          CFI (cfiPicker259) Picker
        LDI     R16, 0
        STS     ??state, R16
        CBI     0x12, 0x06
        RET
          CFI EndBlock cfiCond257
          CFI EndBlock cfiCond258
          CFI EndBlock cfiPicker259

        RSEG CODE:CODE:NOROOT(1)
?Subroutine9:
          CFI Block cfiCond260 Using cfiCommon0
          CFI Function mute
          CFI Conditional ??CrossCallReturnLabel_13
          CFI CFA_SP SP+4
          CFI Block cfiCond261 Using cfiCommon0
          CFI (cfiCond261) Function mute
          CFI (cfiCond261) Conditional ??CrossCallReturnLabel_14
          CFI (cfiCond261) CFA_SP SP+4
          CFI Block cfiPicker262 Using cfiCommon2
          CFI (cfiPicker262) NoFunction
          CFI (cfiPicker262) Picker
        LDI     R16, 1
        STS     ??state, R16
        SBI     0x12, 0x06
        RET
          CFI EndBlock cfiCond260
          CFI EndBlock cfiCond261
          CFI EndBlock cfiPicker262

        RSEG NEAR_Z:DATA:NOROOT(0)
        REQUIRE `?<Segment init: NEAR_Z>`
??state:
        DS8 1
//  163 
//  164 
//  165 

        RSEG CODE:CODE:NOROOT(1)
//  166 uchar getadr()//адреса  команд
getadr:
          CFI Block cfiBlock263 Using cfiCommon0
          CFI Function getadr
//  167 {
        FUNCALL getadr, mute
        LOCFRAME CSTACK, 1, STACK
        LOCFRAME RSTACK, 2, STACK
        ARGFRAME RSTACK, 0, STACK
        FUNCALL getadr, mute
        LOCFRAME CSTACK, 1, STACK
        LOCFRAME RSTACK, 2, STACK
        ARGFRAME RSTACK, 0, STACK
        ST      -Y, R24
          CFI R24 Frame(CFA_Y, -1)
          CFI CFA_Y Y+1
//  168   uchar adr=0;
        LDI     R24, 0
//  169   if (tekfunc==0) {adr=1; SET(PORTB,0);}//s1
        RCALL   ?Subroutine74
??CrossCallReturnLabel_99:
        TST     R16
        BRNE    ??getadr_0
        LDI     R24, 1
        RJMP    ??getadr_1
//  170   if (tekfunc==1) {adr=5; SET(PORTB,1);}
??getadr_0:
        CPI     R16, 1
        BRNE    ??getadr_2
        LDI     R24, 5
        RJMP    ??getadr_3
//  171   if (tekfunc==2) {adr=10;SET(PORTB,2);}
??getadr_2:
        CPI     R16, 2
        BRNE    ??getadr_4
        LDI     R24, 10
        RJMP    ??getadr_5
//  172   if (tekfunc==3) {adr=15;SET(PORTB,3);}
??getadr_4:
        CPI     R16, 3
        BRNE    ??getadr_6
        LDI     R24, 15
        RJMP    ??getadr_7
//  173   if (tekfunc==4) {adr=20;SET(PORTB,4);}//s5 или ONтыл
??getadr_6:
        CPI     R16, 4
        BRNE    ??getadr_8
        LDI     R24, 20
        RJMP    ??getadr_9
//  174   if (tekfunc==5) {adr=55;SET(PORTB,0);SET(PORTB,2);SET(PORTB,4);}//command return
??getadr_8:
        CPI     R16, 5
        BRNE    ??getadr_10
        LDI     R24, 55
        RJMP    ??getadr_11
//  175   if (tekfunc==6) {adr=25;SET(PORTD,7);}//on standby
??getadr_10:
        CPI     R16, 6
        BRNE    ??getadr_12
        LDI     R24, 25
        RJMP    ??getadr_13
//  176   if (tekfunc==7) {adr=30;SET(PORTB,5);}//aoff
??getadr_12:
        CPI     R16, 7
        BRNE    ??getadr_14
        LDI     R24, 30
        RJMP    ??getadr_15
//  177   if (tekfunc==8) {adr=35;mute(1);}//mute
??getadr_14:
        CPI     R16, 8
        BRNE    ??CrossCallReturnLabel_15
        LDI     R24, 35
        RCALL   ?Subroutine10
//  178   if (tekfunc==9) {adr=40; }//select
??CrossCallReturnLabel_15:
        RCALL   ?Subroutine74
??CrossCallReturnLabel_100:
        CPI     R16, 9
        BRNE    ??getadr_16
        LDI     R24, 40
        RJMP    ??getadr_17
//  179   if (tekfunc==10) {adr=45; }//громкость увеличить
??getadr_16:
        CPI     R16, 10
        BRNE    ??getadr_18
        LDI     R24, 45
        RJMP    ??getadr_17
//  180   if (tekfunc==11) {adr=50; }//громкость уменьшить
??getadr_18:
        CPI     R16, 11
        BRNE    ??getadr_19
        LDI     R24, 50
        RJMP    ??getadr_17
//  181   
//  182   //дублирование команд
//  183    if (tekfunc==12) {adr=60; SET(PORTB,0);}//s1
??getadr_19:
        CPI     R16, 12
        BRNE    ??getadr_20
        LDI     R24, 60
??getadr_1:
        SBI     0x18, 0x00
        RJMP    ??getadr_17
//  184   if (tekfunc==13) {adr=65; SET(PORTB,1);}
??getadr_20:
        CPI     R16, 13
        BRNE    ??getadr_21
        LDI     R24, 65
??getadr_3:
        SBI     0x18, 0x01
        RJMP    ??getadr_17
//  185   if (tekfunc==14) {adr=70;SET(PORTB,2);}
??getadr_21:
        CPI     R16, 14
        BRNE    ??getadr_22
        LDI     R24, 70
??getadr_5:
        SBI     0x18, 0x02
        RJMP    ??getadr_17
//  186   if (tekfunc==15) {adr=75;SET(PORTB,3);}
??getadr_22:
        CPI     R16, 15
        BRNE    ??getadr_23
        LDI     R24, 75
??getadr_7:
        SBI     0x18, 0x03
        RJMP    ??getadr_17
//  187   if (tekfunc==16) {adr=80;SET(PORTB,4);}//s5 или ONтыл
??getadr_23:
        CPI     R16, 16
        BRNE    ??getadr_24
        LDI     R24, 80
        RJMP    ??getadr_9
//  188   if (tekfunc==17) {adr=85;SET(PORTB,0);SET(PORTB,2);SET(PORTB,4);}//command return
??getadr_24:
        CPI     R16, 17
        BRNE    ??getadr_25
        LDI     R24, 85
??getadr_11:
        SBI     0x18, 0x00
        SBI     0x18, 0x02
??getadr_9:
        SBI     0x18, 0x04
        RJMP    ??getadr_17
//  189   if (tekfunc==18) {adr=90;SET(PORTD,7);}//on standby
??getadr_25:
        CPI     R16, 18
        BRNE    ??getadr_26
        LDI     R24, 90
??getadr_13:
        SBI     0x12, 0x07
        RJMP    ??getadr_17
//  190   if (tekfunc==19) {adr=95;SET(PORTB,5);}//aoff
??getadr_26:
        CPI     R16, 19
        BRNE    ??getadr_27
        LDI     R24, 95
??getadr_15:
        SBI     0x18, 0x05
        RJMP    ??getadr_17
//  191   if (tekfunc==20) {adr=100;mute(1);}//mute
??getadr_27:
        CPI     R16, 20
        BRNE    ??CrossCallReturnLabel_16
        LDI     R24, 100
        RCALL   ?Subroutine10
//  192   if (tekfunc==21) {adr=105; }//select
??CrossCallReturnLabel_16:
        RCALL   ?Subroutine74
??CrossCallReturnLabel_101:
        CPI     R16, 21
        BRNE    ??getadr_28
        LDI     R24, 105
        RJMP    ??getadr_17
//  193   if (tekfunc==22) {adr=110; }//громкость увеличить
??getadr_28:
        CPI     R16, 22
        BRNE    ??getadr_29
        LDI     R24, 110
        RJMP    ??getadr_17
//  194   if (tekfunc==23) {adr=115; }//громкость уменьшить
??getadr_29:
        CPI     R16, 23
        BRNE    ??getadr_17
        LDI     R24, 115
//  195   return(adr);
??getadr_17:
        MOV     R16, R24
        RJMP    ?Subroutine128
          CFI EndBlock cfiBlock263
        REQUIRE _A_PORTB
        REQUIRE _A_PORTD
//  196 }

        RSEG CODE:CODE:NOROOT(1)
?Subroutine10:
          CFI Block cfiCond264 Using cfiCommon0
          CFI Function getadr
          CFI Conditional ??CrossCallReturnLabel_15
          CFI R24 Frame(CFA_Y, -1)
          CFI CFA_SP SP+4
          CFI CFA_Y Y+1
          CFI Block cfiCond265 Using cfiCommon0
          CFI (cfiCond265) Function getadr
          CFI (cfiCond265) Conditional ??CrossCallReturnLabel_16
          CFI (cfiCond265) R24 Frame(CFA_Y, -1)
          CFI (cfiCond265) CFA_SP SP+4
          CFI (cfiCond265) CFA_Y Y+1
          CFI Block cfiPicker266 Using cfiCommon2
          CFI (cfiPicker266) NoFunction
          CFI (cfiPicker266) Picker
        LDI     R16, 1
        RJMP    ?Subroutine120
          CFI EndBlock cfiCond264
          CFI EndBlock cfiCond265
          CFI EndBlock cfiPicker266
//  197 
//  198 

        RSEG CODE:CODE:NOROOT(1)
//  199 void pult() 
pult:
          CFI Block cfiBlock267 Using cfiCommon0
          CFI Function pult
//  200 {
//  201    tON=1500; zader=1;timerzad=0; source(); p2;   //время включения АС при переключениях
        FUNCALL pult, source
        LOCFRAME CSTACK, 0, STACK
        LOCFRAME RSTACK, 2, STACK
        ARGFRAME RSTACK, 0, STACK
        LDI     R16, 220
        LDI     R17, 5
        LDI     R30, LOW(tON)
        LDI     R31, (tON) >> 8
        RCALL   ??Subroutine143_0
??CrossCallReturnLabel_340:
        RCALL   ?Subroutine3
??CrossCallReturnLabel_9:
        RJMP    ?Subroutine76
          CFI EndBlock cfiBlock267
//  202 }

        RSEG CODE:CODE:NOROOT(1)
?Subroutine29:
          CFI Block cfiCond268 Using cfiCommon0
          CFI Function coding
          CFI Conditional ??CrossCallReturnLabel_345
          CFI R24 Frame(CFA_Y, -10)
          CFI R25 Frame(CFA_Y, -9)
          CFI R26 Frame(CFA_Y, -8)
          CFI R27 Frame(CFA_Y, -7)
          CFI R4 Frame(CFA_Y, -6)
          CFI R5 Frame(CFA_Y, -5)
          CFI R6 Frame(CFA_Y, -4)
          CFI R7 Frame(CFA_Y, -3)
          CFI R8 Frame(CFA_Y, -2)
          CFI R9 Frame(CFA_Y, -1)
          CFI CFA_SP SP+4
          CFI CFA_Y Y+10
          CFI Block cfiCond269 Using cfiCommon0
          CFI (cfiCond269) Function coding
          CFI (cfiCond269) Conditional ??CrossCallReturnLabel_346
          CFI (cfiCond269) R24 Frame(CFA_Y, -10)
          CFI (cfiCond269) R25 Frame(CFA_Y, -9)
          CFI (cfiCond269) R26 Frame(CFA_Y, -8)
          CFI (cfiCond269) R27 Frame(CFA_Y, -7)
          CFI (cfiCond269) R4 Frame(CFA_Y, -6)
          CFI (cfiCond269) R5 Frame(CFA_Y, -5)
          CFI (cfiCond269) R6 Frame(CFA_Y, -4)
          CFI (cfiCond269) R7 Frame(CFA_Y, -3)
          CFI (cfiCond269) R8 Frame(CFA_Y, -2)
          CFI (cfiCond269) R9 Frame(CFA_Y, -1)
          CFI (cfiCond269) CFA_SP SP+4
          CFI (cfiCond269) CFA_Y Y+10
          CFI Block cfiCond270 Using cfiCommon0
          CFI (cfiCond270) Function coding
          CFI (cfiCond270) Conditional ??CrossCallReturnLabel_347
          CFI (cfiCond270) R24 Frame(CFA_Y, -10)
          CFI (cfiCond270) R25 Frame(CFA_Y, -9)
          CFI (cfiCond270) R26 Frame(CFA_Y, -8)
          CFI (cfiCond270) R27 Frame(CFA_Y, -7)
          CFI (cfiCond270) R4 Frame(CFA_Y, -6)
          CFI (cfiCond270) R5 Frame(CFA_Y, -5)
          CFI (cfiCond270) R6 Frame(CFA_Y, -4)
          CFI (cfiCond270) R7 Frame(CFA_Y, -3)
          CFI (cfiCond270) R8 Frame(CFA_Y, -2)
          CFI (cfiCond270) R9 Frame(CFA_Y, -1)
          CFI (cfiCond270) CFA_SP SP+4
          CFI (cfiCond270) CFA_Y Y+10
          CFI Block cfiPicker271 Using cfiCommon2
          CFI (cfiPicker271) NoFunction
          CFI (cfiPicker271) Picker
        RCALL   ?Subroutine101
          CFI EndBlock cfiCond268
          CFI EndBlock cfiCond269
          CFI EndBlock cfiCond270
          CFI EndBlock cfiPicker271
??CrossCallReturnLabel_181:
        REQUIRE ??Subroutine142_0
        ;               // Fall through to label ??Subroutine142_0

        RSEG CODE:CODE:NOROOT(1)
??Subroutine142_0:
          CFI Block cfiCond272 Using cfiCommon0
          CFI Function coding
          CFI Conditional ??CrossCallReturnLabel_343
          CFI R24 Frame(CFA_Y, -10)
          CFI R25 Frame(CFA_Y, -9)
          CFI R26 Frame(CFA_Y, -8)
          CFI R27 Frame(CFA_Y, -7)
          CFI R4 Frame(CFA_Y, -6)
          CFI R5 Frame(CFA_Y, -5)
          CFI R6 Frame(CFA_Y, -4)
          CFI R7 Frame(CFA_Y, -3)
          CFI R8 Frame(CFA_Y, -2)
          CFI R9 Frame(CFA_Y, -1)
          CFI CFA_SP SP+4
          CFI CFA_Y Y+10
          CFI Block cfiCond273 Using cfiCommon0
          CFI (cfiCond273) Function coding
          CFI (cfiCond273) Conditional ??CrossCallReturnLabel_344
          CFI (cfiCond273) R24 Frame(CFA_Y, -10)
          CFI (cfiCond273) R25 Frame(CFA_Y, -9)
          CFI (cfiCond273) R26 Frame(CFA_Y, -8)
          CFI (cfiCond273) R27 Frame(CFA_Y, -7)
          CFI (cfiCond273) R4 Frame(CFA_Y, -6)
          CFI (cfiCond273) R5 Frame(CFA_Y, -5)
          CFI (cfiCond273) R6 Frame(CFA_Y, -4)
          CFI (cfiCond273) R7 Frame(CFA_Y, -3)
          CFI (cfiCond273) R8 Frame(CFA_Y, -2)
          CFI (cfiCond273) R9 Frame(CFA_Y, -1)
          CFI (cfiCond273) CFA_SP SP+4
          CFI (cfiCond273) CFA_Y Y+10
          CFI Block cfiCond274 Using cfiCommon0
          CFI (cfiCond274) Function coding
          CFI (cfiCond274) Conditional ??CrossCallReturnLabel_345
          CFI (cfiCond274) R24 Frame(CFA_Y, -10)
          CFI (cfiCond274) R25 Frame(CFA_Y, -9)
          CFI (cfiCond274) R26 Frame(CFA_Y, -8)
          CFI (cfiCond274) R27 Frame(CFA_Y, -7)
          CFI (cfiCond274) R4 Frame(CFA_Y, -6)
          CFI (cfiCond274) R5 Frame(CFA_Y, -5)
          CFI (cfiCond274) R6 Frame(CFA_Y, -4)
          CFI (cfiCond274) R7 Frame(CFA_Y, -3)
          CFI (cfiCond274) R8 Frame(CFA_Y, -2)
          CFI (cfiCond274) R9 Frame(CFA_Y, -1)
          CFI (cfiCond274) CFA_SP SP+4
          CFI (cfiCond274) CFA_Y Y+10
          CFI Block cfiCond275 Using cfiCommon0
          CFI (cfiCond275) Function coding
          CFI (cfiCond275) Conditional ??CrossCallReturnLabel_346
          CFI (cfiCond275) R24 Frame(CFA_Y, -10)
          CFI (cfiCond275) R25 Frame(CFA_Y, -9)
          CFI (cfiCond275) R26 Frame(CFA_Y, -8)
          CFI (cfiCond275) R27 Frame(CFA_Y, -7)
          CFI (cfiCond275) R4 Frame(CFA_Y, -6)
          CFI (cfiCond275) R5 Frame(CFA_Y, -5)
          CFI (cfiCond275) R6 Frame(CFA_Y, -4)
          CFI (cfiCond275) R7 Frame(CFA_Y, -3)
          CFI (cfiCond275) R8 Frame(CFA_Y, -2)
          CFI (cfiCond275) R9 Frame(CFA_Y, -1)
          CFI (cfiCond275) CFA_SP SP+4
          CFI (cfiCond275) CFA_Y Y+10
          CFI Block cfiCond276 Using cfiCommon0
          CFI (cfiCond276) Function coding
          CFI (cfiCond276) Conditional ??CrossCallReturnLabel_347
          CFI (cfiCond276) R24 Frame(CFA_Y, -10)
          CFI (cfiCond276) R25 Frame(CFA_Y, -9)
          CFI (cfiCond276) R26 Frame(CFA_Y, -8)
          CFI (cfiCond276) R27 Frame(CFA_Y, -7)
          CFI (cfiCond276) R4 Frame(CFA_Y, -6)
          CFI (cfiCond276) R5 Frame(CFA_Y, -5)
          CFI (cfiCond276) R6 Frame(CFA_Y, -4)
          CFI (cfiCond276) R7 Frame(CFA_Y, -3)
          CFI (cfiCond276) R8 Frame(CFA_Y, -2)
          CFI (cfiCond276) R9 Frame(CFA_Y, -1)
          CFI (cfiCond276) CFA_SP SP+4
          CFI (cfiCond276) CFA_Y Y+10
          CFI Block cfiPicker277 Using cfiCommon2
          CFI (cfiPicker277) NoFunction
          CFI (cfiPicker277) Picker
        ADD     R16, R24
        ADC     R17, R25
          CFI EndBlock cfiCond272
          CFI EndBlock cfiCond273
          CFI EndBlock cfiCond274
          CFI EndBlock cfiCond275
          CFI EndBlock cfiCond276
          CFI EndBlock cfiPicker277
        REQUIRE ??Subroutine143_0
        ;               // Fall through to label ??Subroutine143_0

        RSEG CODE:CODE:NOROOT(1)
??Subroutine143_0:
          CFI Block cfiCond278 Using cfiCommon0
          CFI Function analiz_INT
          CFI Conditional ??CrossCallReturnLabel_332
          CFI CFA_SP SP+4
          CFI Block cfiCond279 Using cfiCommon0
          CFI (cfiCond279) Function analiz_INT
          CFI (cfiCond279) Conditional ??CrossCallReturnLabel_333
          CFI (cfiCond279) CFA_SP SP+4
          CFI Block cfiCond280 Using cfiCommon0
          CFI (cfiCond280) Function PEREP
          CFI (cfiCond280) Conditional ??CrossCallReturnLabel_334
          CFI (cfiCond280) R24 Frame(CFA_Y, -8)
          CFI (cfiCond280) R25 Frame(CFA_Y, -7)
          CFI (cfiCond280) R26 Frame(CFA_Y, -6)
          CFI (cfiCond280) R27 Frame(CFA_Y, -5)
          CFI (cfiCond280) R4 Frame(CFA_Y, -4)
          CFI (cfiCond280) R5 Frame(CFA_Y, -3)
          CFI (cfiCond280) R6 Frame(CFA_Y, -2)
          CFI (cfiCond280) R7 Frame(CFA_Y, -1)
          CFI (cfiCond280) CFA_SP SP+4
          CFI (cfiCond280) CFA_Y Y+8
          CFI Block cfiCond281 Using cfiCommon0
          CFI (cfiCond281) Function PEREP
          CFI (cfiCond281) Conditional ??CrossCallReturnLabel_335
          CFI (cfiCond281) R24 Frame(CFA_Y, -8)
          CFI (cfiCond281) R25 Frame(CFA_Y, -7)
          CFI (cfiCond281) R26 Frame(CFA_Y, -6)
          CFI (cfiCond281) R27 Frame(CFA_Y, -5)
          CFI (cfiCond281) R4 Frame(CFA_Y, -4)
          CFI (cfiCond281) R5 Frame(CFA_Y, -3)
          CFI (cfiCond281) R6 Frame(CFA_Y, -2)
          CFI (cfiCond281) R7 Frame(CFA_Y, -1)
          CFI (cfiCond281) CFA_SP SP+4
          CFI (cfiCond281) CFA_Y Y+8
          CFI Block cfiCond282 Using cfiCommon0
          CFI (cfiCond282) Function coding
          CFI (cfiCond282) Conditional ??CrossCallReturnLabel_336
          CFI (cfiCond282) R24 Frame(CFA_Y, -10)
          CFI (cfiCond282) R25 Frame(CFA_Y, -9)
          CFI (cfiCond282) R26 Frame(CFA_Y, -8)
          CFI (cfiCond282) R27 Frame(CFA_Y, -7)
          CFI (cfiCond282) R4 Frame(CFA_Y, -6)
          CFI (cfiCond282) R5 Frame(CFA_Y, -5)
          CFI (cfiCond282) R6 Frame(CFA_Y, -4)
          CFI (cfiCond282) R7 Frame(CFA_Y, -3)
          CFI (cfiCond282) R8 Frame(CFA_Y, -2)
          CFI (cfiCond282) R9 Frame(CFA_Y, -1)
          CFI (cfiCond282) CFA_SP SP+4
          CFI (cfiCond282) CFA_Y Y+10
          CFI Block cfiCond283 Using cfiCommon0
          CFI (cfiCond283) Function coding
          CFI (cfiCond283) Conditional ??CrossCallReturnLabel_337
          CFI (cfiCond283) R24 Frame(CFA_Y, -10)
          CFI (cfiCond283) R25 Frame(CFA_Y, -9)
          CFI (cfiCond283) R26 Frame(CFA_Y, -8)
          CFI (cfiCond283) R27 Frame(CFA_Y, -7)
          CFI (cfiCond283) R4 Frame(CFA_Y, -6)
          CFI (cfiCond283) R5 Frame(CFA_Y, -5)
          CFI (cfiCond283) R6 Frame(CFA_Y, -4)
          CFI (cfiCond283) R7 Frame(CFA_Y, -3)
          CFI (cfiCond283) R8 Frame(CFA_Y, -2)
          CFI (cfiCond283) R9 Frame(CFA_Y, -1)
          CFI (cfiCond283) CFA_SP SP+4
          CFI (cfiCond283) CFA_Y Y+10
          CFI Block cfiCond284 Using cfiCommon0
          CFI (cfiCond284) Function coding
          CFI (cfiCond284) Conditional ??CrossCallReturnLabel_338
          CFI (cfiCond284) R24 Frame(CFA_Y, -10)
          CFI (cfiCond284) R25 Frame(CFA_Y, -9)
          CFI (cfiCond284) R26 Frame(CFA_Y, -8)
          CFI (cfiCond284) R27 Frame(CFA_Y, -7)
          CFI (cfiCond284) R4 Frame(CFA_Y, -6)
          CFI (cfiCond284) R5 Frame(CFA_Y, -5)
          CFI (cfiCond284) R6 Frame(CFA_Y, -4)
          CFI (cfiCond284) R7 Frame(CFA_Y, -3)
          CFI (cfiCond284) R8 Frame(CFA_Y, -2)
          CFI (cfiCond284) R9 Frame(CFA_Y, -1)
          CFI (cfiCond284) CFA_SP SP+4
          CFI (cfiCond284) CFA_Y Y+10
          CFI Block cfiCond285 Using cfiCommon0
          CFI (cfiCond285) Function coding
          CFI (cfiCond285) Conditional ??CrossCallReturnLabel_339
          CFI (cfiCond285) R24 Frame(CFA_Y, -10)
          CFI (cfiCond285) R25 Frame(CFA_Y, -9)
          CFI (cfiCond285) R26 Frame(CFA_Y, -8)
          CFI (cfiCond285) R27 Frame(CFA_Y, -7)
          CFI (cfiCond285) R4 Frame(CFA_Y, -6)
          CFI (cfiCond285) R5 Frame(CFA_Y, -5)
          CFI (cfiCond285) R6 Frame(CFA_Y, -4)
          CFI (cfiCond285) R7 Frame(CFA_Y, -3)
          CFI (cfiCond285) R8 Frame(CFA_Y, -2)
          CFI (cfiCond285) R9 Frame(CFA_Y, -1)
          CFI (cfiCond285) CFA_SP SP+4
          CFI (cfiCond285) CFA_Y Y+10
          CFI Block cfiCond286 Using cfiCommon0
          CFI (cfiCond286) Function pult
          CFI (cfiCond286) Conditional ??CrossCallReturnLabel_340
          CFI (cfiCond286) CFA_SP SP+4
          CFI Block cfiCond287 Using cfiCommon0
          CFI (cfiCond287) Function main_power
          CFI (cfiCond287) Conditional ??CrossCallReturnLabel_341
          CFI (cfiCond287) CFA_SP SP+4
          CFI Block cfiCond288 Using cfiCommon0
          CFI (cfiCond288) Function main_logic
          CFI (cfiCond288) Conditional ??CrossCallReturnLabel_342
          CFI (cfiCond288) CFA_SP SP+4
          CFI Block cfiCond289 Using cfiCommon0
          CFI (cfiCond289) Function coding
          CFI (cfiCond289) Conditional ??CrossCallReturnLabel_343
          CFI (cfiCond289) R24 Frame(CFA_Y, -10)
          CFI (cfiCond289) R25 Frame(CFA_Y, -9)
          CFI (cfiCond289) R26 Frame(CFA_Y, -8)
          CFI (cfiCond289) R27 Frame(CFA_Y, -7)
          CFI (cfiCond289) R4 Frame(CFA_Y, -6)
          CFI (cfiCond289) R5 Frame(CFA_Y, -5)
          CFI (cfiCond289) R6 Frame(CFA_Y, -4)
          CFI (cfiCond289) R7 Frame(CFA_Y, -3)
          CFI (cfiCond289) R8 Frame(CFA_Y, -2)
          CFI (cfiCond289) R9 Frame(CFA_Y, -1)
          CFI (cfiCond289) CFA_SP SP+4
          CFI (cfiCond289) CFA_Y Y+10
          CFI Block cfiCond290 Using cfiCommon0
          CFI (cfiCond290) Function coding
          CFI (cfiCond290) Conditional ??CrossCallReturnLabel_344
          CFI (cfiCond290) R24 Frame(CFA_Y, -10)
          CFI (cfiCond290) R25 Frame(CFA_Y, -9)
          CFI (cfiCond290) R26 Frame(CFA_Y, -8)
          CFI (cfiCond290) R27 Frame(CFA_Y, -7)
          CFI (cfiCond290) R4 Frame(CFA_Y, -6)
          CFI (cfiCond290) R5 Frame(CFA_Y, -5)
          CFI (cfiCond290) R6 Frame(CFA_Y, -4)
          CFI (cfiCond290) R7 Frame(CFA_Y, -3)
          CFI (cfiCond290) R8 Frame(CFA_Y, -2)
          CFI (cfiCond290) R9 Frame(CFA_Y, -1)
          CFI (cfiCond290) CFA_SP SP+4
          CFI (cfiCond290) CFA_Y Y+10
          CFI Block cfiCond291 Using cfiCommon0
          CFI (cfiCond291) Function coding
          CFI (cfiCond291) Conditional ??CrossCallReturnLabel_345
          CFI (cfiCond291) R24 Frame(CFA_Y, -10)
          CFI (cfiCond291) R25 Frame(CFA_Y, -9)
          CFI (cfiCond291) R26 Frame(CFA_Y, -8)
          CFI (cfiCond291) R27 Frame(CFA_Y, -7)
          CFI (cfiCond291) R4 Frame(CFA_Y, -6)
          CFI (cfiCond291) R5 Frame(CFA_Y, -5)
          CFI (cfiCond291) R6 Frame(CFA_Y, -4)
          CFI (cfiCond291) R7 Frame(CFA_Y, -3)
          CFI (cfiCond291) R8 Frame(CFA_Y, -2)
          CFI (cfiCond291) R9 Frame(CFA_Y, -1)
          CFI (cfiCond291) CFA_SP SP+4
          CFI (cfiCond291) CFA_Y Y+10
          CFI Block cfiCond292 Using cfiCommon0
          CFI (cfiCond292) Function coding
          CFI (cfiCond292) Conditional ??CrossCallReturnLabel_346
          CFI (cfiCond292) R24 Frame(CFA_Y, -10)
          CFI (cfiCond292) R25 Frame(CFA_Y, -9)
          CFI (cfiCond292) R26 Frame(CFA_Y, -8)
          CFI (cfiCond292) R27 Frame(CFA_Y, -7)
          CFI (cfiCond292) R4 Frame(CFA_Y, -6)
          CFI (cfiCond292) R5 Frame(CFA_Y, -5)
          CFI (cfiCond292) R6 Frame(CFA_Y, -4)
          CFI (cfiCond292) R7 Frame(CFA_Y, -3)
          CFI (cfiCond292) R8 Frame(CFA_Y, -2)
          CFI (cfiCond292) R9 Frame(CFA_Y, -1)
          CFI (cfiCond292) CFA_SP SP+4
          CFI (cfiCond292) CFA_Y Y+10
          CFI Block cfiCond293 Using cfiCommon0
          CFI (cfiCond293) Function coding
          CFI (cfiCond293) Conditional ??CrossCallReturnLabel_347
          CFI (cfiCond293) R24 Frame(CFA_Y, -10)
          CFI (cfiCond293) R25 Frame(CFA_Y, -9)
          CFI (cfiCond293) R26 Frame(CFA_Y, -8)
          CFI (cfiCond293) R27 Frame(CFA_Y, -7)
          CFI (cfiCond293) R4 Frame(CFA_Y, -6)
          CFI (cfiCond293) R5 Frame(CFA_Y, -5)
          CFI (cfiCond293) R6 Frame(CFA_Y, -4)
          CFI (cfiCond293) R7 Frame(CFA_Y, -3)
          CFI (cfiCond293) R8 Frame(CFA_Y, -2)
          CFI (cfiCond293) R9 Frame(CFA_Y, -1)
          CFI (cfiCond293) CFA_SP SP+4
          CFI (cfiCond293) CFA_Y Y+10
          CFI Block cfiPicker294 Using cfiCommon2
          CFI (cfiPicker294) NoFunction
          CFI (cfiPicker294) Picker
        ST      Z, R16
        STD     Z+1, R17
        RET
          CFI EndBlock cfiCond278
          CFI EndBlock cfiCond279
          CFI EndBlock cfiCond280
          CFI EndBlock cfiCond281
          CFI EndBlock cfiCond282
          CFI EndBlock cfiCond283
          CFI EndBlock cfiCond284
          CFI EndBlock cfiCond285
          CFI EndBlock cfiCond286
          CFI EndBlock cfiCond287
          CFI EndBlock cfiCond288
          CFI EndBlock cfiCond289
          CFI EndBlock cfiCond290
          CFI EndBlock cfiCond291
          CFI EndBlock cfiCond292
          CFI EndBlock cfiCond293
          CFI EndBlock cfiPicker294
//  203 
//  204 
//  205 

        RSEG CODE:CODE:NOROOT(1)
//  206  void main_power()
main_power:
          CFI Block cfiBlock295 Using cfiCommon0
          CFI Function main_power
//  207 {
//  208 
//  209  if ((keyON||pultadr==25 || pultadr==90) && on==1 && zader!=1) { rprintfStr("OFF>adr="); rprintfFloat(9, pultadr ); ent;
        FUNCALL main_power, rprintfStr
        LOCFRAME CSTACK, 0, STACK
        LOCFRAME RSTACK, 2, STACK
        ARGFRAME RSTACK, 0, STACK
        FUNCALL main_power, rprintfFloat
        LOCFRAME CSTACK, 0, STACK
        LOCFRAME RSTACK, 2, STACK
        ARGFRAME RSTACK, 0, STACK
        FUNCALL main_power, USART_SendChar
        LOCFRAME CSTACK, 0, STACK
        LOCFRAME RSTACK, 2, STACK
        ARGFRAME RSTACK, 0, STACK
        FUNCALL main_power, rprintfStr
        LOCFRAME CSTACK, 0, STACK
        LOCFRAME RSTACK, 2, STACK
        ARGFRAME RSTACK, 0, STACK
        FUNCALL main_power, rprintfFloat
        LOCFRAME CSTACK, 0, STACK
        LOCFRAME RSTACK, 2, STACK
        ARGFRAME RSTACK, 0, STACK
        FUNCALL main_power, USART_SendChar
        LOCFRAME CSTACK, 0, STACK
        LOCFRAME RSTACK, 2, STACK
        ARGFRAME RSTACK, 0, STACK
        FUNCALL main_power, mute
        LOCFRAME CSTACK, 0, STACK
        LOCFRAME RSTACK, 2, STACK
        ARGFRAME RSTACK, 0, STACK
        FUNCALL main_power, source
        LOCFRAME CSTACK, 0, STACK
        LOCFRAME RSTACK, 2, STACK
        ARGFRAME RSTACK, 0, STACK
        FUNCALL main_power, mute
        LOCFRAME CSTACK, 0, STACK
        LOCFRAME RSTACK, 2, STACK
        ARGFRAME RSTACK, 0, STACK
        FUNCALL main_power, resOUT
        LOCFRAME CSTACK, 0, STACK
        LOCFRAME RSTACK, 2, STACK
        ARGFRAME RSTACK, 0, STACK
        SBIC    0x10, 0x05
        RJMP    ??main_power_0
        SBIS    0x10, 0x00
        RJMP    ??main_power_0
        SBIC    0x10, 0x01
        RJMP    ??main_power_1
??main_power_0:
        RCALL   ?Subroutine78
??CrossCallReturnLabel_109:
        CPI     R16, 25
        BREQ    ??main_power_1
        CPI     R16, 90
        BRNE    ??CrossCallReturnLabel_352
??main_power_1:
        RCALL   ?Subroutine73
??CrossCallReturnLabel_276:
        BREQ    ??CrossCallReturnLabel_352
        LDS     R16, zader
        TST     R16
        BRNE    ??CrossCallReturnLabel_352
        LDI     R16, LOW(`?<Constant "OFF>adr=">`)
        LDI     R17, (`?<Constant "OFF>adr=">`) >> 8
        RCALL   ?Subroutine22
//  210                     on=0;onok=0; p5; zader=0;  til=0; gro1=0; gro2=0; pultadr=0;  }//OFF
??CrossCallReturnLabel_36:
        RCALL   ?Subroutine18
??CrossCallReturnLabel_30:
        RCALL   ?Subroutine106
??CrossCallReturnLabel_278:
        RCALL   ?Subroutine111
??CrossCallReturnLabel_211:
        STS     ??til, R16
        STS     ??gro1, R16
        STS     ??gro2, R16
        RCALL   ?Subroutine126
//  211      if ((keyON||pultadr==25 || pultadr==90) && on==0) {rprintfStr("ON>adr="); rprintfFloat(9, pultadr ); ent;
??CrossCallReturnLabel_352:
        SBIC    0x10, 0x05
        RJMP    ??main_power_2
        SBIS    0x10, 0x00
        RJMP    ??main_power_2
        SBIC    0x10, 0x01
        RJMP    ??main_power_3
??main_power_2:
        RCALL   ?Subroutine78
??CrossCallReturnLabel_110:
        CPI     R16, 25
        BREQ    ??main_power_3
        CPI     R16, 90
        BRNE    ??CrossCallReturnLabel_355
??main_power_3:
        RCALL   ?Subroutine73
??CrossCallReturnLabel_277:
        BRNE    ??CrossCallReturnLabel_355
        LDI     R16, LOW(`?<Constant "ON>adr=">`)
        LDI     R17, (`?<Constant "ON>adr=">`) >> 8
        RCALL   ?Subroutine22
//  212                     SET(PORTD,4); SET(PORTD,7);p5; on=1; mute(0); zader=1;timerzad=0;source();pultadr=0;  }//ON
??CrossCallReturnLabel_37:
        SBI     0x12, 0x04
        SBI     0x12, 0x07
        RCALL   ?Subroutine122
??CrossCallReturnLabel_243:
        LDI     R16, 1
        STS     on, R16
        RCALL   ?Subroutine91
??CrossCallReturnLabel_236:
        RCALL   ?Subroutine3
??CrossCallReturnLabel_8:
        RCALL   ??Subroutine145_0
//  213      
//  214     //выключение
//  215     if (on==0 && onok==0) { on=0; aoff=0; p5; zader=0; regaoff=0; mute(0); delay_s(1); tON=acon; 
??CrossCallReturnLabel_355:
        LDS     R16, on
        LDS     R17, onok
        OR      R16, R17
        BRNE    ??main_power_4
        LDI     R16, 0
        STS     on, R16
        RCALL   ?Subroutine19
??CrossCallReturnLabel_33:
        RCALL   ?Subroutine120
??CrossCallReturnLabel_239:
        RCALL   ?Subroutine79
??CrossCallReturnLabel_125:
        LDI     R16, 32
        LDI     R17, 78
        LDI     R30, LOW(tON)
        LDI     R31, (tON) >> 8
        RCALL   ??Subroutine143_0
//  216     			    PORTB=0; RES(PORTD,7);RES(PORTD,4); resOUT(); RES(PORTC,5); RES(PORTC,0);RES(PORTD,3); onok=1;
??CrossCallReturnLabel_341:
        LDI     R16, 0
        OUT     0x18, R16
        CBI     0x12, 0x07
        CBI     0x12, 0x04
        RCALL   resOUT
        CBI     0x15, 0x05
        CBI     0x15, 0x00
        CBI     0x12, 0x03
        LDI     R16, 1
        STS     onok, R16
//  217                           }
//  218                             
//  219 }
??main_power_4:
        RET
          CFI EndBlock cfiBlock295
        REQUIRE _A_PIND
        REQUIRE _A_PORTD
        REQUIRE _A_PORTB
        REQUIRE _A_PORTC

        RSEG CODE:CODE:NOROOT(1)
?Subroutine126:
          CFI Block cfiCond296 Using cfiCommon0
          CFI Function main
          CFI Conditional ??CrossCallReturnLabel_351
          CFI R24 Frame(CFA_Y, -1)
          CFI CFA_SP SP+4
          CFI CFA_Y Y+1
          CFI Block cfiCond297 Using cfiCommon0
          CFI (cfiCond297) Function main_power
          CFI (cfiCond297) Conditional ??CrossCallReturnLabel_352
          CFI (cfiCond297) CFA_SP SP+4
          CFI Block cfiCond298 Using cfiCommon0
          CFI (cfiCond298) Function main_logic
          CFI (cfiCond298) Conditional ??CrossCallReturnLabel_353
          CFI (cfiCond298) CFA_SP SP+4
          CFI Block cfiCond299 Using cfiCommon0
          CFI (cfiCond299) Function main_logic
          CFI (cfiCond299) Conditional ??CrossCallReturnLabel_354
          CFI (cfiCond299) CFA_SP SP+4
          CFI Block cfiCond300 Using cfiCommon0
          CFI (cfiCond300) Function main_logic
          CFI (cfiCond300) Conditional ??CrossCallReturnLabel_348
          CFI (cfiCond300) CFA_SP SP+4
          CFI Block cfiCond301 Using cfiCommon0
          CFI (cfiCond301) Function main_logic
          CFI (cfiCond301) Conditional ??CrossCallReturnLabel_349
          CFI (cfiCond301) CFA_SP SP+4
          CFI Block cfiCond302 Using cfiCommon0
          CFI (cfiCond302) Function main_logic
          CFI (cfiCond302) Conditional ??CrossCallReturnLabel_350
          CFI (cfiCond302) CFA_SP SP+4
          CFI Block cfiCond303 Using cfiCommon0
          CFI (cfiCond303) Function main_power
          CFI (cfiCond303) Conditional ??CrossCallReturnLabel_355
          CFI (cfiCond303) CFA_SP SP+4
          CFI Block cfiCond304 Using cfiCommon0
          CFI (cfiCond304) Function main_logic
          CFI (cfiCond304) Conditional ??CrossCallReturnLabel_356
          CFI (cfiCond304) CFA_SP SP+4
          CFI Block cfiCond305 Using cfiCommon0
          CFI (cfiCond305) Function main_logic
          CFI (cfiCond305) Conditional ??CrossCallReturnLabel_357
          CFI (cfiCond305) CFA_SP SP+4
          CFI Block cfiPicker306 Using cfiCommon2
          CFI (cfiPicker306) NoFunction
          CFI (cfiPicker306) Picker
        STS     pultadr, R16
        RET
          CFI EndBlock cfiCond296
          CFI EndBlock cfiCond297
          CFI EndBlock cfiCond298
          CFI EndBlock cfiCond299
          CFI EndBlock cfiCond300
          CFI EndBlock cfiCond301
          CFI EndBlock cfiCond302
          CFI EndBlock cfiCond303
          CFI EndBlock cfiCond304
          CFI EndBlock cfiCond305
          CFI EndBlock cfiPicker306

        RSEG CODE:CODE:NOROOT(1)
?Subroutine73:
          CFI Block cfiCond307 Using cfiCommon0
          CFI Function main
          CFI Conditional ??CrossCallReturnLabel_275
          CFI R24 Frame(CFA_Y, -1)
          CFI CFA_SP SP+4
          CFI CFA_Y Y+1
          CFI Block cfiCond308 Using cfiCommon0
          CFI (cfiCond308) Function main_power
          CFI (cfiCond308) Conditional ??CrossCallReturnLabel_276
          CFI (cfiCond308) CFA_SP SP+4
          CFI Block cfiCond309 Using cfiCommon0
          CFI (cfiCond309) Function main_power
          CFI (cfiCond309) Conditional ??CrossCallReturnLabel_277
          CFI (cfiCond309) CFA_SP SP+4
          CFI Block cfiPicker310 Using cfiCommon2
          CFI (cfiPicker310) NoFunction
          CFI (cfiPicker310) Picker
        LDS     R16, on
        RJMP    ?Subroutine129
          CFI EndBlock cfiCond307
          CFI EndBlock cfiCond308
          CFI EndBlock cfiCond309
          CFI EndBlock cfiPicker310

        RSEG CODE:CODE:NOROOT(1)
?Subroutine122:
          CFI Block cfiCond311 Using cfiCommon0
          CFI Function main
          CFI Conditional ??CrossCallReturnLabel_245, ??CrossCallReturnLabel_97
          CFI R24 Frame(CFA_Y, -1)
          CFI CFA_SP SP+6
          CFI CFA_Y Y+1
          CFI Block cfiCond312 Using cfiCommon0
          CFI (cfiCond312) Function main
          CFI (cfiCond312) Conditional ??CrossCallReturnLabel_245, ??CrossCallReturnLabel_98
          CFI (cfiCond312) R24 Frame(CFA_Y, -1)
          CFI (cfiCond312) CFA_SP SP+6
          CFI (cfiCond312) CFA_Y Y+1
          CFI Block cfiCond313 Using cfiCommon0
          CFI (cfiCond313) Function main
          CFI (cfiCond313) Conditional ??CrossCallReturnLabel_240
          CFI (cfiCond313) R24 Frame(CFA_Y, -1)
          CFI (cfiCond313) CFA_SP SP+4
          CFI (cfiCond313) CFA_Y Y+1
          CFI Block cfiCond314 Using cfiCommon0
          CFI (cfiCond314) Function main
          CFI (cfiCond314) Conditional ??CrossCallReturnLabel_241
          CFI (cfiCond314) R24 Frame(CFA_Y, -1)
          CFI (cfiCond314) CFA_SP SP+4
          CFI (cfiCond314) CFA_Y Y+1
          CFI Block cfiCond315 Using cfiCommon0
          CFI (cfiCond315) Function mute
          CFI (cfiCond315) Conditional ??CrossCallReturnLabel_242
          CFI (cfiCond315) CFA_SP SP+4
          CFI Block cfiCond316 Using cfiCommon0
          CFI (cfiCond316) Function main_power
          CFI (cfiCond316) Conditional ??CrossCallReturnLabel_243
          CFI (cfiCond316) CFA_SP SP+4
          CFI Block cfiCond317 Using cfiCommon0
          CFI (cfiCond317) Function main_logic
          CFI (cfiCond317) Conditional ??CrossCallReturnLabel_244
          CFI (cfiCond317) CFA_SP SP+4
          CFI Block cfiCond318 Using cfiCommon0
          CFI (cfiCond318) Function main_power
          CFI (cfiCond318) Conditional ??CrossCallReturnLabel_246, ??CrossCallReturnLabel_278
          CFI (cfiCond318) CFA_SP SP+6
          CFI Block cfiCond319 Using cfiCommon0
          CFI (cfiCond319) Function main_logic
          CFI (cfiCond319) Conditional ??CrossCallReturnLabel_246, ??CrossCallReturnLabel_279
          CFI (cfiCond319) CFA_SP SP+6
          CFI Block cfiCond320 Using cfiCommon0
          CFI (cfiCond320) Function main_power
          CFI (cfiCond320) Conditional ??CrossCallReturnLabel_246, ??CrossCallReturnLabel_280, ??CrossCallReturnLabel_33
          CFI (cfiCond320) CFA_SP SP+8
          CFI Block cfiCond321 Using cfiCommon0
          CFI (cfiCond321) Function main_logic
          CFI (cfiCond321) Conditional ??CrossCallReturnLabel_246, ??CrossCallReturnLabel_280, ??CrossCallReturnLabel_32
          CFI (cfiCond321) CFA_SP SP+8
          CFI Block cfiPicker322 Using cfiCommon2
          CFI (cfiPicker322) NoFunction
          CFI (cfiPicker322) Picker
        LDI     R16, 127
        LDI     R17, 26
        LDI     R18, 6
        SUBI    R16, 1
        SBCI    R17, 0
        SBCI    R18, 0
        BRNE    $-6
        RJMP    $+2
        NOP
        RET
          CFI EndBlock cfiCond311
          CFI EndBlock cfiCond312
          CFI EndBlock cfiCond313
          CFI EndBlock cfiCond314
          CFI EndBlock cfiCond315
          CFI EndBlock cfiCond316
          CFI EndBlock cfiCond317
          CFI EndBlock cfiCond318
          CFI EndBlock cfiCond319
          CFI EndBlock cfiCond320
          CFI EndBlock cfiCond321
          CFI EndBlock cfiPicker322

        RSEG CODE:CODE:NOROOT(1)
?Subroutine22:
          CFI Block cfiCond323 Using cfiCommon0
          CFI Function main_power
          CFI Conditional ??CrossCallReturnLabel_36
          CFI CFA_SP SP+4
          CFI Block cfiCond324 Using cfiCommon0
          CFI (cfiCond324) Function main_power
          CFI (cfiCond324) Conditional ??CrossCallReturnLabel_37
          CFI (cfiCond324) CFA_SP SP+4
          CFI Block cfiPicker325 Using cfiCommon2
          CFI (cfiPicker325) NoFunction
          CFI (cfiPicker325) Picker
        RCALL   rprintfStr
        LDS     R16, pultadr
        RCALL   ?Subroutine92
??CrossCallReturnLabel_316:
        RJMP    ?Subroutine104
          CFI EndBlock cfiCond323
          CFI EndBlock cfiCond324
          CFI EndBlock cfiPicker325

        RSEG CODE:CODE:NOROOT(1)
?Subroutine3:
          CFI Block cfiCond326 Using cfiCommon0
          CFI Function pult
          CFI Conditional ??CrossCallReturnLabel_9
          CFI CFA_SP SP+4
          CFI Block cfiCond327 Using cfiCommon0
          CFI (cfiCond327) Function main_power
          CFI (cfiCond327) Conditional ??CrossCallReturnLabel_8
          CFI (cfiCond327) CFA_SP SP+4
          CFI Block cfiPicker328 Using cfiCommon2
          CFI (cfiPicker328) NoFunction
          CFI (cfiPicker328) Picker
        LDI     R16, 1
        RCALL   ?Subroutine111
??CrossCallReturnLabel_213:
        LDI     R16, 0
        LDI     R30, LOW(timerzad)
        LDI     R31, (timerzad) >> 8
        RCALL   ?Subroutine95
??CrossCallReturnLabel_158:
        RJMP    source
          CFI EndBlock cfiCond326
          CFI EndBlock cfiCond327
          CFI EndBlock cfiPicker328
//  220 

        RSEG CODE:CODE:NOROOT(1)
//  221 void main_logic()//-----------------------главная логика --------------------
main_logic:
          CFI Block cfiBlock329 Using cfiCommon0
          CFI Function main_logic
//  222 {   
//  223    static uchar last_pultadr;
//  224    migWORK();
        FUNCALL main_logic, migWORK
        LOCFRAME CSTACK, 0, STACK
        LOCFRAME RSTACK, 2, STACK
        ARGFRAME RSTACK, 0, STACK
        FUNCALL main_logic, rprintfStr
        LOCFRAME CSTACK, 0, STACK
        LOCFRAME RSTACK, 2, STACK
        ARGFRAME RSTACK, 0, STACK
        FUNCALL main_logic, rprintfFloat
        LOCFRAME CSTACK, 0, STACK
        LOCFRAME RSTACK, 2, STACK
        ARGFRAME RSTACK, 0, STACK
        FUNCALL main_logic, USART_SendChar
        LOCFRAME CSTACK, 0, STACK
        LOCFRAME RSTACK, 2, STACK
        ARGFRAME RSTACK, 0, STACK
        FUNCALL main_logic, mute
        LOCFRAME CSTACK, 0, STACK
        LOCFRAME RSTACK, 2, STACK
        ARGFRAME RSTACK, 0, STACK
        FUNCALL main_logic, pult
        LOCFRAME CSTACK, 0, STACK
        LOCFRAME RSTACK, 2, STACK
        ARGFRAME RSTACK, 0, STACK
        FUNCALL main_logic, migINI
        LOCFRAME CSTACK, 0, STACK
        LOCFRAME RSTACK, 2, STACK
        ARGFRAME RSTACK, 0, STACK
        FUNCALL main_logic, mute
        LOCFRAME CSTACK, 0, STACK
        LOCFRAME RSTACK, 2, STACK
        ARGFRAME RSTACK, 0, STACK
        FUNCALL main_logic, pult
        LOCFRAME CSTACK, 0, STACK
        LOCFRAME RSTACK, 2, STACK
        ARGFRAME RSTACK, 0, STACK
        FUNCALL main_logic, migINI
        LOCFRAME CSTACK, 0, STACK
        LOCFRAME RSTACK, 2, STACK
        ARGFRAME RSTACK, 0, STACK
        FUNCALL main_logic, mute
        LOCFRAME CSTACK, 0, STACK
        LOCFRAME RSTACK, 2, STACK
        ARGFRAME RSTACK, 0, STACK
        FUNCALL main_logic, pult
        LOCFRAME CSTACK, 0, STACK
        LOCFRAME RSTACK, 2, STACK
        ARGFRAME RSTACK, 0, STACK
        FUNCALL main_logic, migINI
        LOCFRAME CSTACK, 0, STACK
        LOCFRAME RSTACK, 2, STACK
        ARGFRAME RSTACK, 0, STACK
        FUNCALL main_logic, mute
        LOCFRAME CSTACK, 0, STACK
        LOCFRAME RSTACK, 2, STACK
        ARGFRAME RSTACK, 0, STACK
        FUNCALL main_logic, pult
        LOCFRAME CSTACK, 0, STACK
        LOCFRAME RSTACK, 2, STACK
        ARGFRAME RSTACK, 0, STACK
        FUNCALL main_logic, migINI
        LOCFRAME CSTACK, 0, STACK
        LOCFRAME RSTACK, 2, STACK
        ARGFRAME RSTACK, 0, STACK
        FUNCALL main_logic, mute
        LOCFRAME CSTACK, 0, STACK
        LOCFRAME RSTACK, 2, STACK
        ARGFRAME RSTACK, 0, STACK
        FUNCALL main_logic, pult
        LOCFRAME CSTACK, 0, STACK
        LOCFRAME RSTACK, 2, STACK
        ARGFRAME RSTACK, 0, STACK
        FUNCALL main_logic, migINI
        LOCFRAME CSTACK, 0, STACK
        LOCFRAME RSTACK, 2, STACK
        ARGFRAME RSTACK, 0, STACK
        FUNCALL main_logic, mute
        LOCFRAME CSTACK, 0, STACK
        LOCFRAME RSTACK, 2, STACK
        ARGFRAME RSTACK, 0, STACK
        FUNCALL main_logic, mute
        LOCFRAME CSTACK, 0, STACK
        LOCFRAME RSTACK, 2, STACK
        ARGFRAME RSTACK, 0, STACK
        FUNCALL main_logic, TimerSet
        LOCFRAME CSTACK, 0, STACK
        LOCFRAME RSTACK, 2, STACK
        ARGFRAME RSTACK, 0, STACK
        FUNCALL main_logic, TimerSet
        LOCFRAME CSTACK, 0, STACK
        LOCFRAME RSTACK, 2, STACK
        ARGFRAME RSTACK, 0, STACK
        FUNCALL main_logic, TimerSet
        LOCFRAME CSTACK, 0, STACK
        LOCFRAME RSTACK, 2, STACK
        ARGFRAME RSTACK, 0, STACK
        FUNCALL main_logic, TimerTick
        LOCFRAME CSTACK, 0, STACK
        LOCFRAME RSTACK, 2, STACK
        ARGFRAME RSTACK, 0, STACK
        FUNCALL main_logic, mute
        LOCFRAME CSTACK, 0, STACK
        LOCFRAME RSTACK, 2, STACK
        ARGFRAME RSTACK, 0, STACK
        FUNCALL main_logic, pult
        LOCFRAME CSTACK, 0, STACK
        LOCFRAME RSTACK, 2, STACK
        ARGFRAME RSTACK, 0, STACK
        FUNCALL main_logic, mute
        LOCFRAME CSTACK, 0, STACK
        LOCFRAME RSTACK, 2, STACK
        ARGFRAME RSTACK, 0, STACK
        FUNCALL main_logic, pult
        LOCFRAME CSTACK, 0, STACK
        LOCFRAME RSTACK, 2, STACK
        ARGFRAME RSTACK, 0, STACK
        FUNCALL main_logic, mute
        LOCFRAME CSTACK, 0, STACK
        LOCFRAME RSTACK, 2, STACK
        ARGFRAME RSTACK, 0, STACK
        FUNCALL main_logic, pult
        LOCFRAME CSTACK, 0, STACK
        LOCFRAME RSTACK, 2, STACK
        ARGFRAME RSTACK, 0, STACK
        FUNCALL main_logic, gro
        LOCFRAME CSTACK, 0, STACK
        LOCFRAME RSTACK, 2, STACK
        ARGFRAME RSTACK, 0, STACK
        FUNCALL main_logic, gro
        LOCFRAME CSTACK, 0, STACK
        LOCFRAME RSTACK, 2, STACK
        ARGFRAME RSTACK, 0, STACK
        RCALL   migWORK
//  225    
//  226    if (pultadr==last_pultadr) {}
//  227   
//  228    if (pultadr!=0)
        RCALL   ?Subroutine78
??CrossCallReturnLabel_111:
        TST     R16
        BRNE    $+2+2
        RJMP    ??main_logic_0
//  229    {//если есть команда с пульта
//  230      
//  231       rprintfStr("normal>command find  adr=");
        LDI     R16, LOW(`?<Constant "normal>command find  ...">`)
        LDI     R17, (`?<Constant "normal>command find  ...">`) >> 8
        RCALL   rprintfStr
//  232       rprintfFloat(6, pultadr ); ent;
        RCALL   ?Subroutine78
??CrossCallReturnLabel_112:
        RCALL   ?Subroutine23
??CrossCallReturnLabel_301:
        RCALL   ?Subroutine123
//  233      
//  234      if (pultadr==1 || pultadr==60) {if (sel!=1)  { mute(0); lastsel=sel; sel=1; pult(); } else   migINI(sel-1, 3 ,0); 
??CrossCallReturnLabel_252:
        RCALL   ?Subroutine78
??CrossCallReturnLabel_113:
        CPI     R16, 1
        BREQ    ??main_logic_1
        CPI     R16, 60
        BRNE    ??main_logic_2
??main_logic_1:
        RCALL   ?Subroutine127
??CrossCallReturnLabel_256:
        CPI     R16, 1
        BREQ    ??main_logic_3
        RCALL   ?Subroutine11
??CrossCallReturnLabel_17:
        LDI     R16, 1
        RCALL   ?Subroutine81
??CrossCallReturnLabel_132:
        RJMP    ??main_logic_2
??main_logic_3:
        RCALL   ?Subroutine49
//  235  }
??CrossCallReturnLabel_56:
        LDI     R16, 0
        RCALL   migINI
//  236      if (pultadr==5 || pultadr==65) {if (sel!=2)  {  mute(0);lastsel=sel;sel=2; pult(); }  else  migINI(sel-1, 3 ,0); 
??main_logic_2:
        RCALL   ?Subroutine78
??CrossCallReturnLabel_114:
        CPI     R16, 5
        BREQ    ??main_logic_4
        CPI     R16, 65
        BRNE    ??main_logic_5
??main_logic_4:
        RCALL   ?Subroutine127
??CrossCallReturnLabel_257:
        CPI     R16, 2
        BREQ    ??main_logic_6
        RCALL   ?Subroutine11
??CrossCallReturnLabel_18:
        LDI     R16, 2
        RCALL   ?Subroutine81
??CrossCallReturnLabel_131:
        RJMP    ??main_logic_5
??main_logic_6:
        RCALL   ?Subroutine49
//  237 }
??CrossCallReturnLabel_57:
        LDI     R16, 1
        RCALL   migINI
//  238      if (pultadr==10 || pultadr==70) {if (sel!=3) { mute(0); lastsel=sel;sel=3; pult(); } else    migINI(sel-1, 3 ,0); 
??main_logic_5:
        RCALL   ?Subroutine78
??CrossCallReturnLabel_115:
        CPI     R16, 10
        BREQ    ??main_logic_7
        CPI     R16, 70
        BRNE    ??main_logic_8
??main_logic_7:
        RCALL   ?Subroutine127
??CrossCallReturnLabel_258:
        CPI     R16, 3
        BREQ    ??main_logic_9
        RCALL   ?Subroutine11
??CrossCallReturnLabel_19:
        LDI     R16, 3
        RCALL   ?Subroutine81
??CrossCallReturnLabel_130:
        RJMP    ??main_logic_8
??main_logic_9:
        RCALL   ?Subroutine49
//  239 }
??CrossCallReturnLabel_58:
        LDI     R16, 2
        RCALL   migINI
//  240      if (pultadr==15 || pultadr==75) {if (sel!=4) { mute(0); lastsel=sel;sel=4; pult(); } else   migINI(sel-1, 3 ,0); 
??main_logic_8:
        RCALL   ?Subroutine78
??CrossCallReturnLabel_116:
        CPI     R16, 15
        BREQ    ??main_logic_10
        CPI     R16, 75
        BRNE    ??main_logic_11
??main_logic_10:
        RCALL   ?Subroutine127
??CrossCallReturnLabel_259:
        CPI     R16, 4
        BREQ    ??main_logic_12
        RCALL   ?Subroutine11
??CrossCallReturnLabel_20:
        LDI     R16, 4
        RCALL   ?Subroutine81
??CrossCallReturnLabel_129:
        RJMP    ??main_logic_11
??main_logic_12:
        RCALL   ?Subroutine49
//  241  }
??CrossCallReturnLabel_59:
        LDI     R16, 3
        RCALL   migINI
//  242      if ((pultadr==20  || pultadr==80) && mode!=1) { if (sel!=5) { mute(0); lastsel=sel;sel=5; pult();}  else  migINI(sel-1, 3 ,0); 
??main_logic_11:
        RCALL   ?Subroutine78
??CrossCallReturnLabel_117:
        CPI     R16, 20
        BREQ    ??main_logic_13
        CPI     R16, 80
        BRNE    ??main_logic_14
??main_logic_13:
        RCALL   ?Subroutine72
??CrossCallReturnLabel_285:
        BREQ    ??main_logic_15
        RCALL   ?Subroutine127
??CrossCallReturnLabel_260:
        CPI     R16, 5
        BREQ    ??main_logic_16
        RCALL   ?Subroutine11
??CrossCallReturnLabel_21:
        LDI     R16, 5
        RCALL   ?Subroutine81
??CrossCallReturnLabel_128:
        RJMP    ??main_logic_15
??main_logic_16:
        RCALL   ?Subroutine49
//  243 }
??CrossCallReturnLabel_60:
        LDI     R16, 4
        RCALL   migINI
//  244      
//  245      
//  246      //тыловые  ------------------------------------------------------
//  247      if ((  pultadr==20  || pultadr==80) && mode==1) {  
??main_logic_15:
        RCALL   ?Subroutine78
??CrossCallReturnLabel_118:
        CPI     R16, 20
        BREQ    ??main_logic_17
??main_logic_14:
        RCALL   ?Subroutine78
??CrossCallReturnLabel_119:
        CPI     R16, 80
        BRNE    ??main_logic_0
??main_logic_17:
        RCALL   ?Subroutine72
??CrossCallReturnLabel_286:
        BRNE    ??main_logic_0
//  248          
//  249        if (til==0) { SET(PORTC,5);til=1;  
        LDS     R16, ??til
        TST     R16
        BRNE    ??main_logic_18
        SBI     0x15, 0x05
        LDI     R16, 1
        STS     ??til, R16
//  250                for (uchar i=0; i<2; i++) {SET(PORTB,4);p2;RES(PORTB,4);p2;}  SET(PORTB,4);  pultadr=0;  p1;}
        LDI     R16, 2
??main_logic_19:
        SBI     0x18, 0x04
        RCALL   ?Subroutine112
??CrossCallReturnLabel_215:
        CBI     0x18, 0x04
        RCALL   ?Subroutine112
??CrossCallReturnLabel_216:
        DEC     R16
        BRNE    ??main_logic_19
        SBI     0x18, 0x04
        LDI     R16, 0
        RJMP    ??main_logic_20
//  251        else 
//  252        if (til==1) {   RES(PORTC,5); RES(PORTB,4); til=0; pultadr=0; p1; }
??main_logic_18:
        CBI     0x15, 0x05
        CBI     0x18, 0x04
        LDI     R16, 0
        STS     ??til, R16
??main_logic_20:
        RCALL   ?Subroutine126
??CrossCallReturnLabel_353:
        LDI     R16, 127
        LDI     R17, 56
        LDI     R18, 1
        SUBI    R16, 1
        SBCI    R17, 0
        SBCI    R18, 0
        BRNE    $-6
        RJMP    $+2
        NOP
//  253      
//  254                                                      }
//  255    }//если есть команда с пульта
//  256    
//  257   //--------------- mute -------------------
//  258   //if (mute==1) AC_OFF; else { if (zader==0) AC_ON; }
//  259   if (zader==1) {timerzad++;  if (timerzad> tON)  {zader=0;timerzad=0; mute(1);} }//задержка включения
??main_logic_0:
        LDS     R16, zader
        TST     R16
        BREQ    ??main_logic_21
        LDI     R30, LOW(timerzad)
        LDI     R31, (timerzad) >> 8
        RCALL   ?Subroutine101
??CrossCallReturnLabel_175:
        SUBI    R16, 255
        SBCI    R17, 255
        RCALL   ??Subroutine143_0
??CrossCallReturnLabel_342:
        LDI     R30, LOW(tON)
        LDI     R31, (tON) >> 8
        RCALL   ?Subroutine101
??CrossCallReturnLabel_176:
        LDI     R30, LOW(timerzad)
        LDI     R31, (timerzad) >> 8
        RCALL   ?Subroutine64
??CrossCallReturnLabel_93:
        CP      R16, R18
        CPC     R17, R19
        BRCC    ??main_logic_21
        LDI     R16, 0
        RCALL   ?Subroutine111
??CrossCallReturnLabel_212:
        LDI     R17, 0
        ST      Z, R17
        STD     Z+1, R17
        LDI     R16, 1
        RCALL   mute
//  260   
//  261   if (keyMUTE ||pultadr==35 || pultadr==100)  
??main_logic_21:
        SBIC    0x10, 0x01
        RJMP    ??main_logic_22
        SBIS    0x10, 0x05
        RJMP    ??main_logic_23
??main_logic_22:
        RCALL   ?Subroutine78
??CrossCallReturnLabel_120:
        CPI     R16, 35
        BREQ    ??main_logic_23
        CPI     R16, 100
        BRNE    ??main_logic_24
//  262   {
//  263     mute(-1); 
??main_logic_23:
        LDI     R16, 255
        LDI     R17, 255
        RCALL   mute
//  264   }
//  265    
//  266    
//  267    
//  268   //--------------- aoff --------------------
//  269  
//  270    if (keyAOFF || pultadr==30 || pultadr==95) 
??main_logic_24:
        SBIC    0x10, 0x00
        RJMP    ??main_logic_25
        SBIS    0x10, 0x05
        RJMP    ??main_logic_26
??main_logic_25:
        RCALL   ?Subroutine78
??CrossCallReturnLabel_121:
        CPI     R16, 30
        BREQ    ??main_logic_26
        CPI     R16, 95
        BRNE    ??main_logic_27
//  271    {
//  272      
//  273   if ( aoff==1 && regaoff>=3)  {  RES(PORTB,5);  p5; aoff=0; regaoff=0; pultadr=0;}//отмена aoff 
??main_logic_26:
        LDS     R16, aoff
        TST     R16
        BREQ    ??main_logic_28
        RCALL   ?Subroutine84
??CrossCallReturnLabel_138:
        CPI     R16, 3
        BRCS    ??main_logic_28
        CBI     0x18, 0x05
        RCALL   ?Subroutine106
??CrossCallReturnLabel_279:
        STS     aoff, R16
        RCALL   ?Subroutine126
??CrossCallReturnLabel_354:
        RJMP    ??main_logic_29
//  274   if ( regaoff==0) { aoff=1; regaoff++;  TimerSet(&tm1, 120000)/*2 часа*/; pultadr=0;  for (uchar i=0; i<3; i++)  {SET(PORTB,5);p2;RES(PORTB,5);p2;}  SET(PORTB,5); }
??main_logic_28:
        RCALL   ?Subroutine84
??CrossCallReturnLabel_139:
        TST     R16
        BRNE    ??main_logic_30
??main_logic_29:
        RCALL   ?Subroutine8
??CrossCallReturnLabel_10:
        RCALL   ?Subroutine113
??CrossCallReturnLabel_219:
        LDI     R20, 192
        LDI     R21, 212
        LDI     R22, 1
        RCALL   ??Subroutine144_0
??CrossCallReturnLabel_350:
        LDI     R16, 3
??main_logic_31:
        RCALL   ?Subroutine77
??CrossCallReturnLabel_107:
        BRNE    ??main_logic_31
        SBI     0x18, 0x05
//  275   if (regaoff==1) { aoff=1; regaoff++; TimerSet(&tm1, 60000)/*1 часа*/; pultadr=0; for (uchar i=0; i<2; i++)  {SET(PORTB,5);p2;RES(PORTB,5);p2;}  SET(PORTB,5); }
??main_logic_30:
        RCALL   ?Subroutine84
??CrossCallReturnLabel_140:
        CPI     R16, 1
        BRNE    ??main_logic_32
        RCALL   ?Subroutine8
??CrossCallReturnLabel_11:
        LDI     R16, 2
        RCALL   ?Subroutine113
??CrossCallReturnLabel_220:
        LDI     R20, 96
        LDI     R21, 234
        RCALL   ?Subroutine13
??CrossCallReturnLabel_348:
        LDI     R16, 2
??main_logic_33:
        RCALL   ?Subroutine77
??CrossCallReturnLabel_108:
        BRNE    ??main_logic_33
        SBI     0x18, 0x05
//  276   if (regaoff==2) { aoff=1; regaoff++; TimerSet(&tm1, 30000)/*0.5 часа*/; pultadr=0; for (uchar i=0; i<1; i++)  {SET(PORTB,5);p2;RES(PORTB,5);p2;}  SET(PORTB,5); }
??main_logic_32:
        RCALL   ?Subroutine84
??CrossCallReturnLabel_141:
        CPI     R16, 2
        BRNE    ??main_logic_27
        RCALL   ?Subroutine8
??CrossCallReturnLabel_12:
        LDI     R16, 3
        RCALL   ?Subroutine113
??CrossCallReturnLabel_221:
        LDI     R20, 48
        LDI     R21, 117
        RCALL   ?Subroutine13
??CrossCallReturnLabel_349:
        SBI     0x18, 0x05
        RCALL   ?Subroutine76
??CrossCallReturnLabel_104:
        CBI     0x18, 0x05
        RCALL   ?Subroutine76
??CrossCallReturnLabel_105:
        SBI     0x18, 0x05
//  277   
//  278    }
//  279 
//  280    
//  281  //  if ((keyAOFF || pultadr==30 || pultadr==95) && aoff==0) 
//  282  //     {   aoff=1;  iniT1(60*60*2)/*2 часа*/; pultadr=0;
//  283  //         for (uchar i=0; i<2; i++)  {SET(PORTB,5);p2;RES(PORTB,5);p2;}  SET(PORTB,5);
//  284   //   
//  285   //        
//  286  //         for (uint i=0; i<1000; i++)
//  287  //         {   char rez=du_main(0);  if (rez==1) { pultadr=analizCOD();break; }}
//  288  //         
//  289   //    //если user продолжает удерживать
//  290   //    if ((keyAOFF || pultadr==30 || pultadr==95) ) { iniT1(60*30);/*30 мин*/
//  291  //      for (uchar i=0; i<4; i++)  {SET(PORTB,5);p2;p2;p2;p2;p2;RES(PORTB,5);p2;}  SET(PORTB,5);
//  292   //                                    }
//  293   //    
//  294    //   }
//  295                                                         
//  296    
//  297   
//  298  
//  299   if (aoff==1)  {   TimerTick(&tm1); if (tm1.out) { on=0; onok=0;  aoff=0; p5; zader=0; regaoff=0;}
??main_logic_27:
        LDS     R16, aoff
        TST     R16
        BREQ    ??CrossCallReturnLabel_32
        LDI     R16, LOW(tm1)
        LDI     R17, (tm1) >> 8
        RCALL   TimerTick
        LDS     R16, (tm1 + 8)
        TST     R16
        BREQ    ??CrossCallReturnLabel_32
        RCALL   ?Subroutine18
??CrossCallReturnLabel_31:
        RCALL   ?Subroutine19
//  300                 } 
//  301                 
//  302  //--------------- select -------------------
//  303                 if ( u!=1) {//что бы во время работы UART не срабатывал
??CrossCallReturnLabel_32:
        LDS     R16, ??u
        TST     R16
        BRNE    ??main_logic_34
//  304    uchar kol;  if  (mode==1) kol=4; else kol=5;
        RCALL   ?Subroutine72
??CrossCallReturnLabel_287:
        BRNE    ??main_logic_35
        LDI     R16, 4
        RJMP    ??main_logic_36
??main_logic_35:
        LDI     R16, 5
//  305    if (keySEL ||pultadr==40 || pultadr==105) 
??main_logic_36:
        SBIC    0x10, 0x01
        RJMP    ??main_logic_37
        SBIC    0x10, 0x05
        RJMP    ??main_logic_38
??main_logic_37:
        LDS     R17, pultadr
        CPI     R17, 40
        BREQ    ??main_logic_38
        CPI     R17, 105
        BRNE    ??CrossCallReturnLabel_127
//  306                 { 
//  307                         if (sel<=(kol-1)) { mute(0); p2; RES(PORTB,(sel-1));lastsel=sel; sel++; pult(); } 
??main_logic_38:
        DEC     R16
        LDS     R17, ??sel
        CP      R16, R17
        LDI     R16, 0
        LDI     R17, 0
        BRCS    ??main_logic_39
        RCALL   mute
        RCALL   ?Subroutine76
??CrossCallReturnLabel_106:
        RCALL   ?Subroutine4
??CrossCallReturnLabel_254:
        STS     ??lastsel, R16
        INC     R16
        RJMP    ??main_logic_40
//  308                        else {  mute(0);  RES(PORTB,(sel-1)); sel=1; pult(); }
??main_logic_39:
        RCALL   mute
        LDS     R20, ??sel
        DEC     R20
        RCALL   ?Subroutine89
??CrossCallReturnLabel_291:
        LDI     R16, 1
//  309               
//  310                 }
??main_logic_40:
        RCALL   ?Subroutine81
//  311                          
//  312   //--------------- return sel -------------------  возврат в предыдущий source                 
//  313    if ( pultadr==55 || pultadr==85) {
??CrossCallReturnLabel_127:
        RCALL   ?Subroutine78
??CrossCallReturnLabel_122:
        CPI     R16, 55
        BREQ    ??main_logic_41
        CPI     R16, 85
        BRNE    ??main_logic_34
//  314      
//  315      if (sel!=lastsel) {
??main_logic_41:
        RCALL   ?Subroutine127
??CrossCallReturnLabel_261:
        LDS     R17, ??lastsel
        CP      R16, R17
        BREQ    ??main_logic_34
//  316        mute(0);  RES(PORTB,(sel-1)); uchar tmp1=sel; sel=lastsel;  lastsel=tmp1; pultadr=0;  pult();
        RCALL   ?Subroutine91
??CrossCallReturnLabel_237:
        RCALL   ?Subroutine4
??CrossCallReturnLabel_255:
        LDS     R17, ??lastsel
        STS     ??sel, R17
        STS     ??lastsel, R16
        RCALL   ??Subroutine145_0
??CrossCallReturnLabel_356:
        RCALL   pult
//  317      }
//  318                                       }
//  319               
//  320                           }//что бы во время работы UART не срабатывал
//  321                            
//  322                           
//  323                  
//  324  //--------------- ГРОМКОСТЬ -------------------
//  325    if (pultadr==45 || pultadr==110) { gro(1); p5;  pultadr=0; }  
??main_logic_34:
        RCALL   ?Subroutine78
??CrossCallReturnLabel_123:
        CPI     R16, 45
        BREQ    ??main_logic_42
        CPI     R16, 110
        BRNE    ??main_logic_43
??main_logic_42:
        LDI     R16, 1
        RJMP    ??main_logic_44
//  326    if (pultadr==50 || pultadr==115) { gro(2); p5;  pultadr=0; }  
??main_logic_43:
        CPI     R16, 50
        BREQ    ??main_logic_45
        CPI     R16, 115
        BRNE    ??CrossCallReturnLabel_357
??main_logic_45:
        LDI     R16, 2
??main_logic_44:
        RCALL   gro
        RCALL   ?Subroutine122
??CrossCallReturnLabel_244:
        RCALL   ??Subroutine145_0
//  327    
//  328    
//  329                 
//  330  
//  331                           
//  332                           
//  333    last_pultadr=pultadr;
??CrossCallReturnLabel_357:
        RCALL   ?Subroutine78
??CrossCallReturnLabel_124:
        STS     ??last_pultadr, R16
//  334    
//  335 }
        RET
          CFI EndBlock cfiBlock329
        REQUIRE _A_PORTC
        REQUIRE _A_PORTB
        REQUIRE _A_PIND

        RSEG CODE:CODE:NOROOT(1)
?Subroutine111:
          CFI Block cfiCond330 Using cfiCommon0
          CFI Function main_power
          CFI Conditional ??CrossCallReturnLabel_211
          CFI CFA_SP SP+4
          CFI Block cfiCond331 Using cfiCommon0
          CFI (cfiCond331) Function pult
          CFI (cfiCond331) Conditional ??CrossCallReturnLabel_213, ??CrossCallReturnLabel_9
          CFI (cfiCond331) CFA_SP SP+6
          CFI Block cfiCond332 Using cfiCommon0
          CFI (cfiCond332) Function main_power
          CFI (cfiCond332) Conditional ??CrossCallReturnLabel_213, ??CrossCallReturnLabel_8
          CFI (cfiCond332) CFA_SP SP+6
          CFI Block cfiCond333 Using cfiCommon0
          CFI (cfiCond333) Function main_logic
          CFI (cfiCond333) Conditional ??CrossCallReturnLabel_212
          CFI (cfiCond333) CFA_SP SP+4
          CFI Block cfiCond334 Using cfiCommon0
          CFI (cfiCond334) Function main_power
          CFI (cfiCond334) Conditional ??CrossCallReturnLabel_214, ??CrossCallReturnLabel_33
          CFI (cfiCond334) CFA_SP SP+6
          CFI Block cfiCond335 Using cfiCommon0
          CFI (cfiCond335) Function main_logic
          CFI (cfiCond335) Conditional ??CrossCallReturnLabel_214, ??CrossCallReturnLabel_32
          CFI (cfiCond335) CFA_SP SP+6
          CFI Block cfiPicker336 Using cfiCommon2
          CFI (cfiPicker336) NoFunction
          CFI (cfiPicker336) Picker
        STS     zader, R16
        RET
          CFI EndBlock cfiCond330
          CFI EndBlock cfiCond331
          CFI EndBlock cfiCond332
          CFI EndBlock cfiCond333
          CFI EndBlock cfiCond334
          CFI EndBlock cfiCond335
          CFI EndBlock cfiPicker336

        RSEG CODE:CODE:NOROOT(1)
?Subroutine84:
          CFI Block cfiCond337 Using cfiCommon0
          CFI Function main_logic
          CFI Conditional ??CrossCallReturnLabel_138
          CFI CFA_SP SP+4
          CFI Block cfiCond338 Using cfiCommon0
          CFI (cfiCond338) Function main_logic
          CFI (cfiCond338) Conditional ??CrossCallReturnLabel_139
          CFI (cfiCond338) CFA_SP SP+4
          CFI Block cfiCond339 Using cfiCommon0
          CFI (cfiCond339) Function main_logic
          CFI (cfiCond339) Conditional ??CrossCallReturnLabel_140
          CFI (cfiCond339) CFA_SP SP+4
          CFI Block cfiCond340 Using cfiCommon0
          CFI (cfiCond340) Function main_logic
          CFI (cfiCond340) Conditional ??CrossCallReturnLabel_141
          CFI (cfiCond340) CFA_SP SP+4
          CFI Block cfiPicker341 Using cfiCommon2
          CFI (cfiPicker341) NoFunction
          CFI (cfiPicker341) Picker
        LDS     R16, ??regaoff
        RET
          CFI EndBlock cfiCond337
          CFI EndBlock cfiCond338
          CFI EndBlock cfiCond339
          CFI EndBlock cfiCond340
          CFI EndBlock cfiPicker341

        RSEG CODE:CODE:NOROOT(1)
?Subroutine112:
          CFI Block cfiCond342 Using cfiCommon0
          CFI Function main_logic
          CFI Conditional ??CrossCallReturnLabel_215
          CFI CFA_SP SP+4
          CFI Block cfiCond343 Using cfiCommon0
          CFI (cfiCond343) Function main_logic
          CFI (cfiCond343) Conditional ??CrossCallReturnLabel_216
          CFI (cfiCond343) CFA_SP SP+4
          CFI Block cfiCond344 Using cfiCommon0
          CFI (cfiCond344) Function main_logic
          CFI (cfiCond344) Conditional ??CrossCallReturnLabel_217, ??CrossCallReturnLabel_107
          CFI (cfiCond344) CFA_SP SP+6
          CFI Block cfiCond345 Using cfiCommon0
          CFI (cfiCond345) Function main_logic
          CFI (cfiCond345) Conditional ??CrossCallReturnLabel_217, ??CrossCallReturnLabel_108
          CFI (cfiCond345) CFA_SP SP+6
          CFI Block cfiCond346 Using cfiCommon0
          CFI (cfiCond346) Function main_logic
          CFI (cfiCond346) Conditional ??CrossCallReturnLabel_218, ??CrossCallReturnLabel_107
          CFI (cfiCond346) CFA_SP SP+6
          CFI Block cfiCond347 Using cfiCommon0
          CFI (cfiCond347) Function main_logic
          CFI (cfiCond347) Conditional ??CrossCallReturnLabel_218, ??CrossCallReturnLabel_108
          CFI (cfiCond347) CFA_SP SP+6
          CFI Block cfiPicker348 Using cfiCommon2
          CFI (cfiPicker348) NoFunction
          CFI (cfiPicker348) Picker
        LDI     R20, 255
        LDI     R21, 112
        LDI     R22, 2
        SUBI    R20, 1
        SBCI    R21, 0
        SBCI    R22, 0
        BRNE    $-6
        RJMP    $+2
        NOP
        RET
          CFI EndBlock cfiCond342
          CFI EndBlock cfiCond343
          CFI EndBlock cfiCond344
          CFI EndBlock cfiCond345
          CFI EndBlock cfiCond346
          CFI EndBlock cfiCond347
          CFI EndBlock cfiPicker348

        RSEG CODE:CODE:NOROOT(1)
?Subroutine81:
          CFI Block cfiCond349 Using cfiCommon0
          CFI Function main_logic
          CFI Conditional ??CrossCallReturnLabel_132
          CFI CFA_SP SP+4
          CFI Block cfiCond350 Using cfiCommon0
          CFI (cfiCond350) Function main_logic
          CFI (cfiCond350) Conditional ??CrossCallReturnLabel_131
          CFI (cfiCond350) CFA_SP SP+4
          CFI Block cfiCond351 Using cfiCommon0
          CFI (cfiCond351) Function main_logic
          CFI (cfiCond351) Conditional ??CrossCallReturnLabel_130
          CFI (cfiCond351) CFA_SP SP+4
          CFI Block cfiCond352 Using cfiCommon0
          CFI (cfiCond352) Function main_logic
          CFI (cfiCond352) Conditional ??CrossCallReturnLabel_129
          CFI (cfiCond352) CFA_SP SP+4
          CFI Block cfiCond353 Using cfiCommon0
          CFI (cfiCond353) Function main_logic
          CFI (cfiCond353) Conditional ??CrossCallReturnLabel_128
          CFI (cfiCond353) CFA_SP SP+4
          CFI Block cfiCond354 Using cfiCommon0
          CFI (cfiCond354) Function main_logic
          CFI (cfiCond354) Conditional ??CrossCallReturnLabel_127
          CFI (cfiCond354) CFA_SP SP+4
          CFI Block cfiPicker355 Using cfiCommon2
          CFI (cfiPicker355) NoFunction
          CFI (cfiPicker355) Picker
        STS     ??sel, R16
        RJMP    pult
          CFI EndBlock cfiCond349
          CFI EndBlock cfiCond350
          CFI EndBlock cfiCond351
          CFI EndBlock cfiCond352
          CFI EndBlock cfiCond353
          CFI EndBlock cfiCond354
          CFI EndBlock cfiPicker355

        RSEG CODE:CODE:NOROOT(1)
?Subroutine78:
          CFI Block cfiCond356 Using cfiCommon0
          CFI Function main_power
          CFI Conditional ??CrossCallReturnLabel_109
          CFI CFA_SP SP+4
          CFI Block cfiCond357 Using cfiCommon0
          CFI (cfiCond357) Function main_power
          CFI (cfiCond357) Conditional ??CrossCallReturnLabel_110
          CFI (cfiCond357) CFA_SP SP+4
          CFI Block cfiCond358 Using cfiCommon0
          CFI (cfiCond358) Function main_logic
          CFI (cfiCond358) Conditional ??CrossCallReturnLabel_111
          CFI (cfiCond358) CFA_SP SP+4
          CFI Block cfiCond359 Using cfiCommon0
          CFI (cfiCond359) Function main_logic
          CFI (cfiCond359) Conditional ??CrossCallReturnLabel_112
          CFI (cfiCond359) CFA_SP SP+4
          CFI Block cfiCond360 Using cfiCommon0
          CFI (cfiCond360) Function main_logic
          CFI (cfiCond360) Conditional ??CrossCallReturnLabel_113
          CFI (cfiCond360) CFA_SP SP+4
          CFI Block cfiCond361 Using cfiCommon0
          CFI (cfiCond361) Function main_logic
          CFI (cfiCond361) Conditional ??CrossCallReturnLabel_114
          CFI (cfiCond361) CFA_SP SP+4
          CFI Block cfiCond362 Using cfiCommon0
          CFI (cfiCond362) Function main_logic
          CFI (cfiCond362) Conditional ??CrossCallReturnLabel_115
          CFI (cfiCond362) CFA_SP SP+4
          CFI Block cfiCond363 Using cfiCommon0
          CFI (cfiCond363) Function main_logic
          CFI (cfiCond363) Conditional ??CrossCallReturnLabel_116
          CFI (cfiCond363) CFA_SP SP+4
          CFI Block cfiCond364 Using cfiCommon0
          CFI (cfiCond364) Function main_logic
          CFI (cfiCond364) Conditional ??CrossCallReturnLabel_117
          CFI (cfiCond364) CFA_SP SP+4
          CFI Block cfiCond365 Using cfiCommon0
          CFI (cfiCond365) Function main_logic
          CFI (cfiCond365) Conditional ??CrossCallReturnLabel_118
          CFI (cfiCond365) CFA_SP SP+4
          CFI Block cfiCond366 Using cfiCommon0
          CFI (cfiCond366) Function main_logic
          CFI (cfiCond366) Conditional ??CrossCallReturnLabel_119
          CFI (cfiCond366) CFA_SP SP+4
          CFI Block cfiCond367 Using cfiCommon0
          CFI (cfiCond367) Function main_logic
          CFI (cfiCond367) Conditional ??CrossCallReturnLabel_120
          CFI (cfiCond367) CFA_SP SP+4
          CFI Block cfiCond368 Using cfiCommon0
          CFI (cfiCond368) Function main_logic
          CFI (cfiCond368) Conditional ??CrossCallReturnLabel_121
          CFI (cfiCond368) CFA_SP SP+4
          CFI Block cfiCond369 Using cfiCommon0
          CFI (cfiCond369) Function main_logic
          CFI (cfiCond369) Conditional ??CrossCallReturnLabel_122
          CFI (cfiCond369) CFA_SP SP+4
          CFI Block cfiCond370 Using cfiCommon0
          CFI (cfiCond370) Function main_logic
          CFI (cfiCond370) Conditional ??CrossCallReturnLabel_123
          CFI (cfiCond370) CFA_SP SP+4
          CFI Block cfiCond371 Using cfiCommon0
          CFI (cfiCond371) Function main_logic
          CFI (cfiCond371) Conditional ??CrossCallReturnLabel_124
          CFI (cfiCond371) CFA_SP SP+4
          CFI Block cfiPicker372 Using cfiCommon2
          CFI (cfiPicker372) NoFunction
          CFI (cfiPicker372) Picker
        LDS     R16, pultadr
        RET
          CFI EndBlock cfiCond356
          CFI EndBlock cfiCond357
          CFI EndBlock cfiCond358
          CFI EndBlock cfiCond359
          CFI EndBlock cfiCond360
          CFI EndBlock cfiCond361
          CFI EndBlock cfiCond362
          CFI EndBlock cfiCond363
          CFI EndBlock cfiCond364
          CFI EndBlock cfiCond365
          CFI EndBlock cfiCond366
          CFI EndBlock cfiCond367
          CFI EndBlock cfiCond368
          CFI EndBlock cfiCond369
          CFI EndBlock cfiCond370
          CFI EndBlock cfiCond371
          CFI EndBlock cfiPicker372

        RSEG CODE:CODE:NOROOT(1)
?Subroutine77:
          CFI Block cfiCond373 Using cfiCommon0
          CFI Function main_logic
          CFI Conditional ??CrossCallReturnLabel_107
          CFI CFA_SP SP+4
          CFI Block cfiCond374 Using cfiCommon0
          CFI (cfiCond374) Function main_logic
          CFI (cfiCond374) Conditional ??CrossCallReturnLabel_108
          CFI (cfiCond374) CFA_SP SP+4
          CFI Block cfiPicker375 Using cfiCommon2
          CFI (cfiPicker375) NoFunction
          CFI (cfiPicker375) Picker
        SBI     0x18, 0x05
        RCALL   ?Subroutine112
??CrossCallReturnLabel_217:
        CBI     0x18, 0x05
        RCALL   ?Subroutine112
??CrossCallReturnLabel_218:
        DEC     R16
        RET
          CFI EndBlock cfiCond373
          CFI EndBlock cfiCond374
          CFI EndBlock cfiPicker375

        RSEG CODE:CODE:NOROOT(1)
?Subroutine106:
          CFI Block cfiCond376 Using cfiCommon0
          CFI Function main_power
          CFI Conditional ??CrossCallReturnLabel_278
          CFI CFA_SP SP+4
          CFI Block cfiCond377 Using cfiCommon0
          CFI (cfiCond377) Function main_logic
          CFI (cfiCond377) Conditional ??CrossCallReturnLabel_279
          CFI (cfiCond377) CFA_SP SP+4
          CFI Block cfiCond378 Using cfiCommon0
          CFI (cfiCond378) Function main_power
          CFI (cfiCond378) Conditional ??CrossCallReturnLabel_280, ??CrossCallReturnLabel_33
          CFI (cfiCond378) CFA_SP SP+6
          CFI Block cfiCond379 Using cfiCommon0
          CFI (cfiCond379) Function main_logic
          CFI (cfiCond379) Conditional ??CrossCallReturnLabel_280, ??CrossCallReturnLabel_32
          CFI (cfiCond379) CFA_SP SP+6
          CFI Block cfiPicker380 Using cfiCommon2
          CFI (cfiPicker380) NoFunction
          CFI (cfiPicker380) Picker
        RCALL   ?Subroutine122
          CFI EndBlock cfiCond376
          CFI EndBlock cfiCond377
          CFI EndBlock cfiCond378
          CFI EndBlock cfiCond379
          CFI EndBlock cfiPicker380
??CrossCallReturnLabel_246:
        REQUIRE ?Subroutine130
        ;               // Fall through to label ?Subroutine130

        RSEG CODE:CODE:NOROOT(1)
?Subroutine130:
          CFI Block cfiCond381 Using cfiCommon0
          CFI Function main_power
          CFI Conditional ??CrossCallReturnLabel_278
          CFI CFA_SP SP+4
          CFI Block cfiCond382 Using cfiCommon0
          CFI (cfiCond382) Function main_logic
          CFI (cfiCond382) Conditional ??CrossCallReturnLabel_279
          CFI (cfiCond382) CFA_SP SP+4
          CFI Block cfiCond383 Using cfiCommon0
          CFI (cfiCond383) Function main_power
          CFI (cfiCond383) Conditional ??CrossCallReturnLabel_280, ??CrossCallReturnLabel_33
          CFI (cfiCond383) CFA_SP SP+6
          CFI Block cfiCond384 Using cfiCommon0
          CFI (cfiCond384) Function main_logic
          CFI (cfiCond384) Conditional ??CrossCallReturnLabel_280, ??CrossCallReturnLabel_32
          CFI (cfiCond384) CFA_SP SP+6
          CFI Block cfiBlock385 Using cfiCommon0
          CFI (cfiBlock385) NoFunction
          CFI Block cfiPicker386 Using cfiCommon2
          CFI (cfiPicker386) NoFunction
          CFI (cfiPicker386) Picker
        LDI     R16, 0
        RET
          CFI EndBlock cfiCond381
          CFI EndBlock cfiCond382
          CFI EndBlock cfiCond383
          CFI EndBlock cfiCond384
          CFI EndBlock cfiBlock385
          CFI EndBlock cfiPicker386

        RSEG CODE:CODE:NOROOT(1)
?Subroutine64:
          CFI Block cfiCond387 Using cfiCommon0
          CFI Function coding
          CFI Conditional ??CrossCallReturnLabel_90
          CFI R24 Frame(CFA_Y, -10)
          CFI R25 Frame(CFA_Y, -9)
          CFI R26 Frame(CFA_Y, -8)
          CFI R27 Frame(CFA_Y, -7)
          CFI R4 Frame(CFA_Y, -6)
          CFI R5 Frame(CFA_Y, -5)
          CFI R6 Frame(CFA_Y, -4)
          CFI R7 Frame(CFA_Y, -3)
          CFI R8 Frame(CFA_Y, -2)
          CFI R9 Frame(CFA_Y, -1)
          CFI CFA_SP SP+4
          CFI CFA_Y Y+10
          CFI Block cfiCond388 Using cfiCommon0
          CFI (cfiCond388) Function coding
          CFI (cfiCond388) Conditional ??CrossCallReturnLabel_91
          CFI (cfiCond388) R24 Frame(CFA_Y, -10)
          CFI (cfiCond388) R25 Frame(CFA_Y, -9)
          CFI (cfiCond388) R26 Frame(CFA_Y, -8)
          CFI (cfiCond388) R27 Frame(CFA_Y, -7)
          CFI (cfiCond388) R4 Frame(CFA_Y, -6)
          CFI (cfiCond388) R5 Frame(CFA_Y, -5)
          CFI (cfiCond388) R6 Frame(CFA_Y, -4)
          CFI (cfiCond388) R7 Frame(CFA_Y, -3)
          CFI (cfiCond388) R8 Frame(CFA_Y, -2)
          CFI (cfiCond388) R9 Frame(CFA_Y, -1)
          CFI (cfiCond388) CFA_SP SP+4
          CFI (cfiCond388) CFA_Y Y+10
          CFI Block cfiCond389 Using cfiCommon0
          CFI (cfiCond389) Function coding
          CFI (cfiCond389) Conditional ??CrossCallReturnLabel_92
          CFI (cfiCond389) R24 Frame(CFA_Y, -10)
          CFI (cfiCond389) R25 Frame(CFA_Y, -9)
          CFI (cfiCond389) R26 Frame(CFA_Y, -8)
          CFI (cfiCond389) R27 Frame(CFA_Y, -7)
          CFI (cfiCond389) R4 Frame(CFA_Y, -6)
          CFI (cfiCond389) R5 Frame(CFA_Y, -5)
          CFI (cfiCond389) R6 Frame(CFA_Y, -4)
          CFI (cfiCond389) R7 Frame(CFA_Y, -3)
          CFI (cfiCond389) R8 Frame(CFA_Y, -2)
          CFI (cfiCond389) R9 Frame(CFA_Y, -1)
          CFI (cfiCond389) CFA_SP SP+4
          CFI (cfiCond389) CFA_Y Y+10
          CFI Block cfiCond390 Using cfiCommon0
          CFI (cfiCond390) Function main_logic
          CFI (cfiCond390) Conditional ??CrossCallReturnLabel_93
          CFI (cfiCond390) CFA_SP SP+4
          CFI Block cfiPicker391 Using cfiCommon2
          CFI (cfiPicker391) NoFunction
          CFI (cfiPicker391) Picker
        LD      R18, Z
        LDD     R19, Z+1
        RET
          CFI EndBlock cfiCond387
          CFI EndBlock cfiCond388
          CFI EndBlock cfiCond389
          CFI EndBlock cfiCond390
          CFI EndBlock cfiPicker391

        RSEG CODE:CODE:NOROOT(1)
?Subroutine49:
          CFI Block cfiCond392 Using cfiCommon0
          CFI Function main_logic
          CFI Conditional ??CrossCallReturnLabel_56
          CFI CFA_SP SP+4
          CFI Block cfiCond393 Using cfiCommon0
          CFI (cfiCond393) Function main_logic
          CFI (cfiCond393) Conditional ??CrossCallReturnLabel_57
          CFI (cfiCond393) CFA_SP SP+4
          CFI Block cfiCond394 Using cfiCommon0
          CFI (cfiCond394) Function main_logic
          CFI (cfiCond394) Conditional ??CrossCallReturnLabel_58
          CFI (cfiCond394) CFA_SP SP+4
          CFI Block cfiCond395 Using cfiCommon0
          CFI (cfiCond395) Function main_logic
          CFI (cfiCond395) Conditional ??CrossCallReturnLabel_59
          CFI (cfiCond395) CFA_SP SP+4
          CFI Block cfiCond396 Using cfiCommon0
          CFI (cfiCond396) Function main_logic
          CFI (cfiCond396) Conditional ??CrossCallReturnLabel_60
          CFI (cfiCond396) CFA_SP SP+4
          CFI Block cfiPicker397 Using cfiCommon2
          CFI (cfiPicker397) NoFunction
          CFI (cfiPicker397) Picker
        LDI     R18, 0
        LDI     R17, 3
        RET
          CFI EndBlock cfiCond392
          CFI EndBlock cfiCond393
          CFI EndBlock cfiCond394
          CFI EndBlock cfiCond395
          CFI EndBlock cfiCond396
          CFI EndBlock cfiPicker397

        RSEG CODE:CODE:NOROOT(1)
?Subroutine101:
          CFI Block cfiCond398 Using cfiCommon0
          CFI Function PEREP
          CFI Conditional ??CrossCallReturnLabel_180, ??CrossCallReturnLabel_44
          CFI R24 Frame(CFA_Y, -8)
          CFI R25 Frame(CFA_Y, -7)
          CFI R26 Frame(CFA_Y, -6)
          CFI R27 Frame(CFA_Y, -5)
          CFI R4 Frame(CFA_Y, -4)
          CFI R5 Frame(CFA_Y, -3)
          CFI R6 Frame(CFA_Y, -2)
          CFI R7 Frame(CFA_Y, -1)
          CFI CFA_SP SP+6
          CFI CFA_Y Y+8
          CFI Block cfiCond399 Using cfiCommon0
          CFI (cfiCond399) Function PEREP
          CFI (cfiCond399) Conditional ??CrossCallReturnLabel_180, ??CrossCallReturnLabel_45
          CFI (cfiCond399) R24 Frame(CFA_Y, -8)
          CFI (cfiCond399) R25 Frame(CFA_Y, -7)
          CFI (cfiCond399) R26 Frame(CFA_Y, -6)
          CFI (cfiCond399) R27 Frame(CFA_Y, -5)
          CFI (cfiCond399) R4 Frame(CFA_Y, -4)
          CFI (cfiCond399) R5 Frame(CFA_Y, -3)
          CFI (cfiCond399) R6 Frame(CFA_Y, -2)
          CFI (cfiCond399) R7 Frame(CFA_Y, -1)
          CFI (cfiCond399) CFA_SP SP+6
          CFI (cfiCond399) CFA_Y Y+8
          CFI Block cfiCond400 Using cfiCommon0
          CFI (cfiCond400) Function coding
          CFI (cfiCond400) Conditional ??CrossCallReturnLabel_182, ??CrossCallReturnLabel_189
          CFI (cfiCond400) R24 Frame(CFA_Y, -10)
          CFI (cfiCond400) R25 Frame(CFA_Y, -9)
          CFI (cfiCond400) R26 Frame(CFA_Y, -8)
          CFI (cfiCond400) R27 Frame(CFA_Y, -7)
          CFI (cfiCond400) R4 Frame(CFA_Y, -6)
          CFI (cfiCond400) R5 Frame(CFA_Y, -5)
          CFI (cfiCond400) R6 Frame(CFA_Y, -4)
          CFI (cfiCond400) R7 Frame(CFA_Y, -3)
          CFI (cfiCond400) R8 Frame(CFA_Y, -2)
          CFI (cfiCond400) R9 Frame(CFA_Y, -1)
          CFI (cfiCond400) CFA_SP SP+6
          CFI (cfiCond400) CFA_Y Y+10
          CFI Block cfiCond401 Using cfiCommon0
          CFI (cfiCond401) Function coding
          CFI (cfiCond401) Conditional ??CrossCallReturnLabel_182, ??CrossCallReturnLabel_190
          CFI (cfiCond401) R24 Frame(CFA_Y, -10)
          CFI (cfiCond401) R25 Frame(CFA_Y, -9)
          CFI (cfiCond401) R26 Frame(CFA_Y, -8)
          CFI (cfiCond401) R27 Frame(CFA_Y, -7)
          CFI (cfiCond401) R4 Frame(CFA_Y, -6)
          CFI (cfiCond401) R5 Frame(CFA_Y, -5)
          CFI (cfiCond401) R6 Frame(CFA_Y, -4)
          CFI (cfiCond401) R7 Frame(CFA_Y, -3)
          CFI (cfiCond401) R8 Frame(CFA_Y, -2)
          CFI (cfiCond401) R9 Frame(CFA_Y, -1)
          CFI (cfiCond401) CFA_SP SP+6
          CFI (cfiCond401) CFA_Y Y+10
          CFI Block cfiCond402 Using cfiCommon0
          CFI (cfiCond402) Function coding
          CFI (cfiCond402) Conditional ??CrossCallReturnLabel_181, ??CrossCallReturnLabel_345
          CFI (cfiCond402) R24 Frame(CFA_Y, -10)
          CFI (cfiCond402) R25 Frame(CFA_Y, -9)
          CFI (cfiCond402) R26 Frame(CFA_Y, -8)
          CFI (cfiCond402) R27 Frame(CFA_Y, -7)
          CFI (cfiCond402) R4 Frame(CFA_Y, -6)
          CFI (cfiCond402) R5 Frame(CFA_Y, -5)
          CFI (cfiCond402) R6 Frame(CFA_Y, -4)
          CFI (cfiCond402) R7 Frame(CFA_Y, -3)
          CFI (cfiCond402) R8 Frame(CFA_Y, -2)
          CFI (cfiCond402) R9 Frame(CFA_Y, -1)
          CFI (cfiCond402) CFA_SP SP+6
          CFI (cfiCond402) CFA_Y Y+10
          CFI Block cfiCond403 Using cfiCommon0
          CFI (cfiCond403) Function coding
          CFI (cfiCond403) Conditional ??CrossCallReturnLabel_181, ??CrossCallReturnLabel_346
          CFI (cfiCond403) R24 Frame(CFA_Y, -10)
          CFI (cfiCond403) R25 Frame(CFA_Y, -9)
          CFI (cfiCond403) R26 Frame(CFA_Y, -8)
          CFI (cfiCond403) R27 Frame(CFA_Y, -7)
          CFI (cfiCond403) R4 Frame(CFA_Y, -6)
          CFI (cfiCond403) R5 Frame(CFA_Y, -5)
          CFI (cfiCond403) R6 Frame(CFA_Y, -4)
          CFI (cfiCond403) R7 Frame(CFA_Y, -3)
          CFI (cfiCond403) R8 Frame(CFA_Y, -2)
          CFI (cfiCond403) R9 Frame(CFA_Y, -1)
          CFI (cfiCond403) CFA_SP SP+6
          CFI (cfiCond403) CFA_Y Y+10
          CFI Block cfiCond404 Using cfiCommon0
          CFI (cfiCond404) Function coding
          CFI (cfiCond404) Conditional ??CrossCallReturnLabel_181, ??CrossCallReturnLabel_347
          CFI (cfiCond404) R24 Frame(CFA_Y, -10)
          CFI (cfiCond404) R25 Frame(CFA_Y, -9)
          CFI (cfiCond404) R26 Frame(CFA_Y, -8)
          CFI (cfiCond404) R27 Frame(CFA_Y, -7)
          CFI (cfiCond404) R4 Frame(CFA_Y, -6)
          CFI (cfiCond404) R5 Frame(CFA_Y, -5)
          CFI (cfiCond404) R6 Frame(CFA_Y, -4)
          CFI (cfiCond404) R7 Frame(CFA_Y, -3)
          CFI (cfiCond404) R8 Frame(CFA_Y, -2)
          CFI (cfiCond404) R9 Frame(CFA_Y, -1)
          CFI (cfiCond404) CFA_SP SP+6
          CFI (cfiCond404) CFA_Y Y+10
          CFI Block cfiCond405 Using cfiCommon0
          CFI (cfiCond405) Function coding
          CFI (cfiCond405) Conditional ??CrossCallReturnLabel_173
          CFI (cfiCond405) R24 Frame(CFA_Y, -10)
          CFI (cfiCond405) R25 Frame(CFA_Y, -9)
          CFI (cfiCond405) R26 Frame(CFA_Y, -8)
          CFI (cfiCond405) R27 Frame(CFA_Y, -7)
          CFI (cfiCond405) R4 Frame(CFA_Y, -6)
          CFI (cfiCond405) R5 Frame(CFA_Y, -5)
          CFI (cfiCond405) R6 Frame(CFA_Y, -4)
          CFI (cfiCond405) R7 Frame(CFA_Y, -3)
          CFI (cfiCond405) R8 Frame(CFA_Y, -2)
          CFI (cfiCond405) R9 Frame(CFA_Y, -1)
          CFI (cfiCond405) CFA_SP SP+4
          CFI (cfiCond405) CFA_Y Y+10
          CFI Block cfiCond406 Using cfiCommon0
          CFI (cfiCond406) Function coding
          CFI (cfiCond406) Conditional ??CrossCallReturnLabel_174
          CFI (cfiCond406) R24 Frame(CFA_Y, -10)
          CFI (cfiCond406) R25 Frame(CFA_Y, -9)
          CFI (cfiCond406) R26 Frame(CFA_Y, -8)
          CFI (cfiCond406) R27 Frame(CFA_Y, -7)
          CFI (cfiCond406) R4 Frame(CFA_Y, -6)
          CFI (cfiCond406) R5 Frame(CFA_Y, -5)
          CFI (cfiCond406) R6 Frame(CFA_Y, -4)
          CFI (cfiCond406) R7 Frame(CFA_Y, -3)
          CFI (cfiCond406) R8 Frame(CFA_Y, -2)
          CFI (cfiCond406) R9 Frame(CFA_Y, -1)
          CFI (cfiCond406) CFA_SP SP+4
          CFI (cfiCond406) CFA_Y Y+10
          CFI Block cfiCond407 Using cfiCommon0
          CFI (cfiCond407) Function main_logic
          CFI (cfiCond407) Conditional ??CrossCallReturnLabel_175
          CFI (cfiCond407) CFA_SP SP+4
          CFI Block cfiCond408 Using cfiCommon0
          CFI (cfiCond408) Function main_logic
          CFI (cfiCond408) Conditional ??CrossCallReturnLabel_176
          CFI (cfiCond408) CFA_SP SP+4
          CFI Block cfiCond409 Using cfiCommon0
          CFI (cfiCond409) Function writeCOD
          CFI (cfiCond409) Conditional ??CrossCallReturnLabel_177
          CFI (cfiCond409) R24 Frame(CFA_Y, -1)
          CFI (cfiCond409) CFA_SP SP+4
          CFI (cfiCond409) CFA_Y Y+1
          CFI Block cfiCond410 Using cfiCommon0
          CFI (cfiCond410) Function writeCOD
          CFI (cfiCond410) Conditional ??CrossCallReturnLabel_178
          CFI (cfiCond410) R24 Frame(CFA_Y, -1)
          CFI (cfiCond410) CFA_SP SP+4
          CFI (cfiCond410) CFA_Y Y+1
          CFI Block cfiCond411 Using cfiCommon0
          CFI (cfiCond411) Function writeCOD
          CFI (cfiCond411) Conditional ??CrossCallReturnLabel_179
          CFI (cfiCond411) R24 Frame(CFA_Y, -1)
          CFI (cfiCond411) CFA_SP SP+4
          CFI (cfiCond411) CFA_Y Y+1
          CFI Block cfiPicker412 Using cfiCommon2
          CFI (cfiPicker412) NoFunction
          CFI (cfiPicker412) Picker
        LD      R16, Z
        LDD     R17, Z+1
        RET
          CFI EndBlock cfiCond398
          CFI EndBlock cfiCond399
          CFI EndBlock cfiCond400
          CFI EndBlock cfiCond401
          CFI EndBlock cfiCond402
          CFI EndBlock cfiCond403
          CFI EndBlock cfiCond404
          CFI EndBlock cfiCond405
          CFI EndBlock cfiCond406
          CFI EndBlock cfiCond407
          CFI EndBlock cfiCond408
          CFI EndBlock cfiCond409
          CFI EndBlock cfiCond410
          CFI EndBlock cfiCond411
          CFI EndBlock cfiPicker412

        RSEG CODE:CODE:NOROOT(1)
?Subroutine23:
          CFI Block cfiCond413 Using cfiCommon0
          CFI Function PEREP
          CFI Conditional ??CrossCallReturnLabel_302
          CFI R24 Frame(CFA_Y, -8)
          CFI R25 Frame(CFA_Y, -7)
          CFI R26 Frame(CFA_Y, -6)
          CFI R27 Frame(CFA_Y, -5)
          CFI R4 Frame(CFA_Y, -4)
          CFI R5 Frame(CFA_Y, -3)
          CFI R6 Frame(CFA_Y, -2)
          CFI R7 Frame(CFA_Y, -1)
          CFI CFA_SP SP+4
          CFI CFA_Y Y+8
          CFI Block cfiCond414 Using cfiCommon0
          CFI (cfiCond414) Function main_logic
          CFI (cfiCond414) Conditional ??CrossCallReturnLabel_301
          CFI (cfiCond414) CFA_SP SP+4
          CFI Block cfiPicker415 Using cfiCommon2
          CFI (cfiPicker415) NoFunction
          CFI (cfiPicker415) Picker
        RCALL   ?Subroutine92
??CrossCallReturnLabel_317:
        RJMP    ?Subroutine134
          CFI EndBlock cfiCond413
          CFI EndBlock cfiCond414
          CFI EndBlock cfiPicker415

        RSEG CODE:CODE:NOROOT(1)
?Subroutine92:
          CFI Block cfiCond416 Using cfiCommon0
          CFI Function main_power
          CFI Conditional ??CrossCallReturnLabel_316, ??CrossCallReturnLabel_36
          CFI CFA_SP SP+6
          CFI Block cfiCond417 Using cfiCommon0
          CFI (cfiCond417) Function main_power
          CFI (cfiCond417) Conditional ??CrossCallReturnLabel_316, ??CrossCallReturnLabel_37
          CFI (cfiCond417) CFA_SP SP+6
          CFI Block cfiCond418 Using cfiCommon0
          CFI (cfiCond418) Function PEREP
          CFI (cfiCond418) Conditional ??CrossCallReturnLabel_317, ??CrossCallReturnLabel_302
          CFI (cfiCond418) R24 Frame(CFA_Y, -8)
          CFI (cfiCond418) R25 Frame(CFA_Y, -7)
          CFI (cfiCond418) R26 Frame(CFA_Y, -6)
          CFI (cfiCond418) R27 Frame(CFA_Y, -5)
          CFI (cfiCond418) R4 Frame(CFA_Y, -4)
          CFI (cfiCond418) R5 Frame(CFA_Y, -3)
          CFI (cfiCond418) R6 Frame(CFA_Y, -2)
          CFI (cfiCond418) R7 Frame(CFA_Y, -1)
          CFI (cfiCond418) CFA_SP SP+6
          CFI (cfiCond418) CFA_Y Y+8
          CFI Block cfiCond419 Using cfiCommon0
          CFI (cfiCond419) Function main_logic
          CFI (cfiCond419) Conditional ??CrossCallReturnLabel_317, ??CrossCallReturnLabel_301
          CFI (cfiCond419) CFA_SP SP+6
          CFI Block cfiPicker420 Using cfiCommon2
          CFI (cfiPicker420) NoFunction
          CFI (cfiPicker420) Picker
        RCALL   ?Subroutine119
          CFI EndBlock cfiCond416
          CFI EndBlock cfiCond417
          CFI EndBlock cfiCond418
          CFI EndBlock cfiCond419
          CFI EndBlock cfiPicker420
??CrossCallReturnLabel_321:
        REQUIRE ?Subroutine121
        ;               // Fall through to label ?Subroutine121

        RSEG CODE:CODE:NOROOT(1)
?Subroutine121:
          CFI Block cfiCond421 Using cfiCommon0
          CFI Function PEREP
          CFI Conditional ??CrossCallReturnLabel_312, ??CrossCallReturnLabel_185
          CFI R24 Frame(CFA_Y, -8)
          CFI R25 Frame(CFA_Y, -7)
          CFI R26 Frame(CFA_Y, -6)
          CFI R27 Frame(CFA_Y, -5)
          CFI R4 Frame(CFA_Y, -4)
          CFI R5 Frame(CFA_Y, -3)
          CFI R6 Frame(CFA_Y, -2)
          CFI R7 Frame(CFA_Y, -1)
          CFI CFA_SP SP+6
          CFI CFA_Y Y+8
          CFI Block cfiCond422 Using cfiCommon0
          CFI (cfiCond422) Function PEREP
          CFI (cfiCond422) Conditional ??CrossCallReturnLabel_312, ??CrossCallReturnLabel_186
          CFI (cfiCond422) R24 Frame(CFA_Y, -8)
          CFI (cfiCond422) R25 Frame(CFA_Y, -7)
          CFI (cfiCond422) R26 Frame(CFA_Y, -6)
          CFI (cfiCond422) R27 Frame(CFA_Y, -5)
          CFI (cfiCond422) R4 Frame(CFA_Y, -4)
          CFI (cfiCond422) R5 Frame(CFA_Y, -3)
          CFI (cfiCond422) R6 Frame(CFA_Y, -2)
          CFI (cfiCond422) R7 Frame(CFA_Y, -1)
          CFI (cfiCond422) CFA_SP SP+6
          CFI (cfiCond422) CFA_Y Y+8
          CFI Block cfiCond423 Using cfiCommon0
          CFI (cfiCond423) Function PEREP
          CFI (cfiCond423) Conditional ??CrossCallReturnLabel_313, ??CrossCallReturnLabel_308
          CFI (cfiCond423) R24 Frame(CFA_Y, -8)
          CFI (cfiCond423) R25 Frame(CFA_Y, -7)
          CFI (cfiCond423) R26 Frame(CFA_Y, -6)
          CFI (cfiCond423) R27 Frame(CFA_Y, -5)
          CFI (cfiCond423) R4 Frame(CFA_Y, -4)
          CFI (cfiCond423) R5 Frame(CFA_Y, -3)
          CFI (cfiCond423) R6 Frame(CFA_Y, -2)
          CFI (cfiCond423) R7 Frame(CFA_Y, -1)
          CFI (cfiCond423) CFA_SP SP+6
          CFI (cfiCond423) CFA_Y Y+8
          CFI Block cfiCond424 Using cfiCommon0
          CFI (cfiCond424) Function coding
          CFI (cfiCond424) Conditional ??CrossCallReturnLabel_313, ??CrossCallReturnLabel_307
          CFI (cfiCond424) R24 Frame(CFA_Y, -10)
          CFI (cfiCond424) R25 Frame(CFA_Y, -9)
          CFI (cfiCond424) R26 Frame(CFA_Y, -8)
          CFI (cfiCond424) R27 Frame(CFA_Y, -7)
          CFI (cfiCond424) R4 Frame(CFA_Y, -6)
          CFI (cfiCond424) R5 Frame(CFA_Y, -5)
          CFI (cfiCond424) R6 Frame(CFA_Y, -4)
          CFI (cfiCond424) R7 Frame(CFA_Y, -3)
          CFI (cfiCond424) R8 Frame(CFA_Y, -2)
          CFI (cfiCond424) R9 Frame(CFA_Y, -1)
          CFI (cfiCond424) CFA_SP SP+6
          CFI (cfiCond424) CFA_Y Y+10
          CFI Block cfiCond425 Using cfiCommon0
          CFI (cfiCond425) Function PEREP
          CFI (cfiCond425) Conditional ??CrossCallReturnLabel_313, ??CrossCallReturnLabel_306
          CFI (cfiCond425) R24 Frame(CFA_Y, -8)
          CFI (cfiCond425) R25 Frame(CFA_Y, -7)
          CFI (cfiCond425) R26 Frame(CFA_Y, -6)
          CFI (cfiCond425) R27 Frame(CFA_Y, -5)
          CFI (cfiCond425) R4 Frame(CFA_Y, -4)
          CFI (cfiCond425) R5 Frame(CFA_Y, -3)
          CFI (cfiCond425) R6 Frame(CFA_Y, -2)
          CFI (cfiCond425) R7 Frame(CFA_Y, -1)
          CFI (cfiCond425) CFA_SP SP+6
          CFI (cfiCond425) CFA_Y Y+8
          CFI Block cfiCond426 Using cfiCommon0
          CFI (cfiCond426) Function PEREP
          CFI (cfiCond426) Conditional ??CrossCallReturnLabel_313, ??CrossCallReturnLabel_305
          CFI (cfiCond426) R24 Frame(CFA_Y, -8)
          CFI (cfiCond426) R25 Frame(CFA_Y, -7)
          CFI (cfiCond426) R26 Frame(CFA_Y, -6)
          CFI (cfiCond426) R27 Frame(CFA_Y, -5)
          CFI (cfiCond426) R4 Frame(CFA_Y, -4)
          CFI (cfiCond426) R5 Frame(CFA_Y, -3)
          CFI (cfiCond426) R6 Frame(CFA_Y, -2)
          CFI (cfiCond426) R7 Frame(CFA_Y, -1)
          CFI (cfiCond426) CFA_SP SP+6
          CFI (cfiCond426) CFA_Y Y+8
          CFI Block cfiCond427 Using cfiCommon0
          CFI (cfiCond427) Function coding
          CFI (cfiCond427) Conditional ??CrossCallReturnLabel_313, ??CrossCallReturnLabel_304
          CFI (cfiCond427) R24 Frame(CFA_Y, -10)
          CFI (cfiCond427) R25 Frame(CFA_Y, -9)
          CFI (cfiCond427) R26 Frame(CFA_Y, -8)
          CFI (cfiCond427) R27 Frame(CFA_Y, -7)
          CFI (cfiCond427) R4 Frame(CFA_Y, -6)
          CFI (cfiCond427) R5 Frame(CFA_Y, -5)
          CFI (cfiCond427) R6 Frame(CFA_Y, -4)
          CFI (cfiCond427) R7 Frame(CFA_Y, -3)
          CFI (cfiCond427) R8 Frame(CFA_Y, -2)
          CFI (cfiCond427) R9 Frame(CFA_Y, -1)
          CFI (cfiCond427) CFA_SP SP+6
          CFI (cfiCond427) CFA_Y Y+10
          CFI Block cfiCond428 Using cfiCommon0
          CFI (cfiCond428) Function coding
          CFI (cfiCond428) Conditional ??CrossCallReturnLabel_313, ??CrossCallReturnLabel_303
          CFI (cfiCond428) R24 Frame(CFA_Y, -10)
          CFI (cfiCond428) R25 Frame(CFA_Y, -9)
          CFI (cfiCond428) R26 Frame(CFA_Y, -8)
          CFI (cfiCond428) R27 Frame(CFA_Y, -7)
          CFI (cfiCond428) R4 Frame(CFA_Y, -6)
          CFI (cfiCond428) R5 Frame(CFA_Y, -5)
          CFI (cfiCond428) R6 Frame(CFA_Y, -4)
          CFI (cfiCond428) R7 Frame(CFA_Y, -3)
          CFI (cfiCond428) R8 Frame(CFA_Y, -2)
          CFI (cfiCond428) R9 Frame(CFA_Y, -1)
          CFI (cfiCond428) CFA_SP SP+6
          CFI (cfiCond428) CFA_Y Y+10
          CFI Block cfiCond429 Using cfiCommon0
          CFI (cfiCond429) Function coding
          CFI (cfiCond429) Conditional ??CrossCallReturnLabel_311, ??CrossCallReturnLabel_192
          CFI (cfiCond429) R24 Frame(CFA_Y, -10)
          CFI (cfiCond429) R25 Frame(CFA_Y, -9)
          CFI (cfiCond429) R26 Frame(CFA_Y, -8)
          CFI (cfiCond429) R27 Frame(CFA_Y, -7)
          CFI (cfiCond429) R4 Frame(CFA_Y, -6)
          CFI (cfiCond429) R5 Frame(CFA_Y, -5)
          CFI (cfiCond429) R6 Frame(CFA_Y, -4)
          CFI (cfiCond429) R7 Frame(CFA_Y, -3)
          CFI (cfiCond429) R8 Frame(CFA_Y, -2)
          CFI (cfiCond429) R9 Frame(CFA_Y, -1)
          CFI (cfiCond429) CFA_SP SP+6
          CFI (cfiCond429) CFA_Y Y+10
          CFI Block cfiCond430 Using cfiCommon0
          CFI (cfiCond430) Function diag
          CFI (cfiCond430) Conditional ??CrossCallReturnLabel_311, ??CrossCallReturnLabel_191
          CFI (cfiCond430) R24 Frame(CFA_Y, -2)
          CFI (cfiCond430) R25 Frame(CFA_Y, -1)
          CFI (cfiCond430) CFA_SP SP+6
          CFI (cfiCond430) CFA_Y Y+2
          CFI Block cfiCond431 Using cfiCommon0
          CFI (cfiCond431) Function coding
          CFI (cfiCond431) Conditional ??CrossCallReturnLabel_309
          CFI (cfiCond431) R24 Frame(CFA_Y, -10)
          CFI (cfiCond431) R25 Frame(CFA_Y, -9)
          CFI (cfiCond431) R26 Frame(CFA_Y, -8)
          CFI (cfiCond431) R27 Frame(CFA_Y, -7)
          CFI (cfiCond431) R4 Frame(CFA_Y, -6)
          CFI (cfiCond431) R5 Frame(CFA_Y, -5)
          CFI (cfiCond431) R6 Frame(CFA_Y, -4)
          CFI (cfiCond431) R7 Frame(CFA_Y, -3)
          CFI (cfiCond431) R8 Frame(CFA_Y, -2)
          CFI (cfiCond431) R9 Frame(CFA_Y, -1)
          CFI (cfiCond431) CFA_SP SP+4
          CFI (cfiCond431) CFA_Y Y+10
          CFI Block cfiCond432 Using cfiCommon0
          CFI (cfiCond432) Function coding
          CFI (cfiCond432) Conditional ??CrossCallReturnLabel_310
          CFI (cfiCond432) R24 Frame(CFA_Y, -10)
          CFI (cfiCond432) R25 Frame(CFA_Y, -9)
          CFI (cfiCond432) R26 Frame(CFA_Y, -8)
          CFI (cfiCond432) R27 Frame(CFA_Y, -7)
          CFI (cfiCond432) R4 Frame(CFA_Y, -6)
          CFI (cfiCond432) R5 Frame(CFA_Y, -5)
          CFI (cfiCond432) R6 Frame(CFA_Y, -4)
          CFI (cfiCond432) R7 Frame(CFA_Y, -3)
          CFI (cfiCond432) R8 Frame(CFA_Y, -2)
          CFI (cfiCond432) R9 Frame(CFA_Y, -1)
          CFI (cfiCond432) CFA_SP SP+4
          CFI (cfiCond432) CFA_Y Y+10
          CFI Block cfiCond433 Using cfiCommon0
          CFI (cfiCond433) Function main_power
          CFI (cfiCond433) Conditional ??CrossCallReturnLabel_316, ??CrossCallReturnLabel_36
          CFI (cfiCond433) CFA_SP SP+6
          CFI Block cfiCond434 Using cfiCommon0
          CFI (cfiCond434) Function main_power
          CFI (cfiCond434) Conditional ??CrossCallReturnLabel_316, ??CrossCallReturnLabel_37
          CFI (cfiCond434) CFA_SP SP+6
          CFI Block cfiCond435 Using cfiCommon0
          CFI (cfiCond435) Function PEREP
          CFI (cfiCond435) Conditional ??CrossCallReturnLabel_317, ??CrossCallReturnLabel_302
          CFI (cfiCond435) R24 Frame(CFA_Y, -8)
          CFI (cfiCond435) R25 Frame(CFA_Y, -7)
          CFI (cfiCond435) R26 Frame(CFA_Y, -6)
          CFI (cfiCond435) R27 Frame(CFA_Y, -5)
          CFI (cfiCond435) R4 Frame(CFA_Y, -4)
          CFI (cfiCond435) R5 Frame(CFA_Y, -3)
          CFI (cfiCond435) R6 Frame(CFA_Y, -2)
          CFI (cfiCond435) R7 Frame(CFA_Y, -1)
          CFI (cfiCond435) CFA_SP SP+6
          CFI (cfiCond435) CFA_Y Y+8
          CFI Block cfiCond436 Using cfiCommon0
          CFI (cfiCond436) Function main_logic
          CFI (cfiCond436) Conditional ??CrossCallReturnLabel_317, ??CrossCallReturnLabel_301
          CFI (cfiCond436) CFA_SP SP+6
          CFI Block cfiCond437 Using cfiCommon0
          CFI (cfiCond437) Function diag
          CFI (cfiCond437) Conditional ??CrossCallReturnLabel_314
          CFI (cfiCond437) R24 Frame(CFA_Y, -2)
          CFI (cfiCond437) R25 Frame(CFA_Y, -1)
          CFI (cfiCond437) CFA_SP SP+4
          CFI (cfiCond437) CFA_Y Y+2
          CFI Block cfiCond438 Using cfiCommon0
          CFI (cfiCond438) Function rprintfFloat
          CFI (cfiCond438) Conditional ??CrossCallReturnLabel_315
          CFI (cfiCond438) R24 Frame(CFA_Y, -12)
          CFI (cfiCond438) R25 Frame(CFA_Y, -11)
          CFI (cfiCond438) R26 Frame(CFA_Y, -10)
          CFI (cfiCond438) R27 Frame(CFA_Y, -9)
          CFI (cfiCond438) R4 Frame(CFA_Y, -8)
          CFI (cfiCond438) R5 Frame(CFA_Y, -7)
          CFI (cfiCond438) R6 Frame(CFA_Y, -6)
          CFI (cfiCond438) R7 Frame(CFA_Y, -5)
          CFI (cfiCond438) R8 Frame(CFA_Y, -4)
          CFI (cfiCond438) R9 Frame(CFA_Y, -3)
          CFI (cfiCond438) R10 Frame(CFA_Y, -2)
          CFI (cfiCond438) R11 Frame(CFA_Y, -1)
          CFI (cfiCond438) CFA_SP SP+4
          CFI (cfiCond438) CFA_Y Y+12
          CFI Block cfiPicker439 Using cfiCommon2
          CFI (cfiPicker439) NoFunction
          CFI (cfiPicker439) Picker
        MOVW    R21:R20, R17:R16
        MOVW    R23:R22, R19:R18
        RET
          CFI EndBlock cfiCond421
          CFI EndBlock cfiCond422
          CFI EndBlock cfiCond423
          CFI EndBlock cfiCond424
          CFI EndBlock cfiCond425
          CFI EndBlock cfiCond426
          CFI EndBlock cfiCond427
          CFI EndBlock cfiCond428
          CFI EndBlock cfiCond429
          CFI EndBlock cfiCond430
          CFI EndBlock cfiCond431
          CFI EndBlock cfiCond432
          CFI EndBlock cfiCond433
          CFI EndBlock cfiCond434
          CFI EndBlock cfiCond435
          CFI EndBlock cfiCond436
          CFI EndBlock cfiCond437
          CFI EndBlock cfiCond438
          CFI EndBlock cfiPicker439

        RSEG CODE:CODE:NOROOT(1)
?Subroutine91:
          CFI Block cfiCond440 Using cfiCommon0
          CFI Function main_power
          CFI Conditional ??CrossCallReturnLabel_236
          CFI CFA_SP SP+4
          CFI Block cfiCond441 Using cfiCommon0
          CFI (cfiCond441) Function main_logic
          CFI (cfiCond441) Conditional ??CrossCallReturnLabel_237
          CFI (cfiCond441) CFA_SP SP+4
          CFI Block cfiCond442 Using cfiCommon0
          CFI (cfiCond442) Function main_logic
          CFI (cfiCond442) Conditional ??CrossCallReturnLabel_238, ??CrossCallReturnLabel_17
          CFI (cfiCond442) CFA_SP SP+6
          CFI Block cfiCond443 Using cfiCommon0
          CFI (cfiCond443) Function main_logic
          CFI (cfiCond443) Conditional ??CrossCallReturnLabel_238, ??CrossCallReturnLabel_18
          CFI (cfiCond443) CFA_SP SP+6
          CFI Block cfiCond444 Using cfiCommon0
          CFI (cfiCond444) Function main_logic
          CFI (cfiCond444) Conditional ??CrossCallReturnLabel_238, ??CrossCallReturnLabel_19
          CFI (cfiCond444) CFA_SP SP+6
          CFI Block cfiCond445 Using cfiCommon0
          CFI (cfiCond445) Function main_logic
          CFI (cfiCond445) Conditional ??CrossCallReturnLabel_238, ??CrossCallReturnLabel_20
          CFI (cfiCond445) CFA_SP SP+6
          CFI Block cfiCond446 Using cfiCommon0
          CFI (cfiCond446) Function main_logic
          CFI (cfiCond446) Conditional ??CrossCallReturnLabel_238, ??CrossCallReturnLabel_21
          CFI (cfiCond446) CFA_SP SP+6
          CFI Block cfiPicker447 Using cfiCommon2
          CFI (cfiPicker447) NoFunction
          CFI (cfiPicker447) Picker
        LDI     R16, 0
          CFI EndBlock cfiCond440
          CFI EndBlock cfiCond441
          CFI EndBlock cfiCond442
          CFI EndBlock cfiCond443
          CFI EndBlock cfiCond444
          CFI EndBlock cfiCond445
          CFI EndBlock cfiCond446
          CFI EndBlock cfiPicker447
        REQUIRE ?Subroutine120
        ;               // Fall through to label ?Subroutine120

        RSEG CODE:CODE:NOROOT(1)
?Subroutine120:
          CFI Block cfiCond448 Using cfiCommon0
          CFI Function getadr
          CFI Conditional ??CrossCallReturnLabel_15
          CFI R24 Frame(CFA_Y, -1)
          CFI CFA_SP SP+4
          CFI CFA_Y Y+1
          CFI Block cfiCond449 Using cfiCommon0
          CFI (cfiCond449) Function getadr
          CFI (cfiCond449) Conditional ??CrossCallReturnLabel_16
          CFI (cfiCond449) R24 Frame(CFA_Y, -1)
          CFI (cfiCond449) CFA_SP SP+4
          CFI (cfiCond449) CFA_Y Y+1
          CFI Block cfiCond450 Using cfiCommon0
          CFI (cfiCond450) Function main_power
          CFI (cfiCond450) Conditional ??CrossCallReturnLabel_239
          CFI (cfiCond450) CFA_SP SP+4
          CFI Block cfiCond451 Using cfiCommon0
          CFI (cfiCond451) Function main_power
          CFI (cfiCond451) Conditional ??CrossCallReturnLabel_236
          CFI (cfiCond451) CFA_SP SP+4
          CFI Block cfiCond452 Using cfiCommon0
          CFI (cfiCond452) Function main_logic
          CFI (cfiCond452) Conditional ??CrossCallReturnLabel_237
          CFI (cfiCond452) CFA_SP SP+4
          CFI Block cfiCond453 Using cfiCommon0
          CFI (cfiCond453) Function main_logic
          CFI (cfiCond453) Conditional ??CrossCallReturnLabel_238, ??CrossCallReturnLabel_17
          CFI (cfiCond453) CFA_SP SP+6
          CFI Block cfiCond454 Using cfiCommon0
          CFI (cfiCond454) Function main_logic
          CFI (cfiCond454) Conditional ??CrossCallReturnLabel_238, ??CrossCallReturnLabel_18
          CFI (cfiCond454) CFA_SP SP+6
          CFI Block cfiCond455 Using cfiCommon0
          CFI (cfiCond455) Function main_logic
          CFI (cfiCond455) Conditional ??CrossCallReturnLabel_238, ??CrossCallReturnLabel_19
          CFI (cfiCond455) CFA_SP SP+6
          CFI Block cfiCond456 Using cfiCommon0
          CFI (cfiCond456) Function main_logic
          CFI (cfiCond456) Conditional ??CrossCallReturnLabel_238, ??CrossCallReturnLabel_20
          CFI (cfiCond456) CFA_SP SP+6
          CFI Block cfiCond457 Using cfiCommon0
          CFI (cfiCond457) Function main_logic
          CFI (cfiCond457) Conditional ??CrossCallReturnLabel_238, ??CrossCallReturnLabel_21
          CFI (cfiCond457) CFA_SP SP+6
          CFI Block cfiPicker458 Using cfiCommon2
          CFI (cfiPicker458) NoFunction
          CFI (cfiPicker458) Picker
        LDI     R17, 0
        RJMP    mute
          CFI EndBlock cfiCond448
          CFI EndBlock cfiCond449
          CFI EndBlock cfiCond450
          CFI EndBlock cfiCond451
          CFI EndBlock cfiCond452
          CFI EndBlock cfiCond453
          CFI EndBlock cfiCond454
          CFI EndBlock cfiCond455
          CFI EndBlock cfiCond456
          CFI EndBlock cfiCond457
          CFI EndBlock cfiPicker458

        RSEG CODE:CODE:NOROOT(1)
?Subroutine19:
          CFI Block cfiCond459 Using cfiCommon0
          CFI Function main_power
          CFI Conditional ??CrossCallReturnLabel_33
          CFI CFA_SP SP+4
          CFI Block cfiCond460 Using cfiCommon0
          CFI (cfiCond460) Function main_logic
          CFI (cfiCond460) Conditional ??CrossCallReturnLabel_32
          CFI (cfiCond460) CFA_SP SP+4
          CFI Block cfiPicker461 Using cfiCommon2
          CFI (cfiPicker461) NoFunction
          CFI (cfiPicker461) Picker
        STS     aoff, R16
        RCALL   ?Subroutine106
??CrossCallReturnLabel_280:
        RCALL   ?Subroutine111
          CFI EndBlock cfiCond459
          CFI EndBlock cfiCond460
          CFI EndBlock cfiPicker461
??CrossCallReturnLabel_214:
        REQUIRE ?Subroutine113
        ;               // Fall through to label ?Subroutine113

        RSEG CODE:CODE:NOROOT(1)
?Subroutine113:
          CFI Block cfiCond462 Using cfiCommon0
          CFI Function main_logic
          CFI Conditional ??CrossCallReturnLabel_219
          CFI CFA_SP SP+4
          CFI Block cfiCond463 Using cfiCommon0
          CFI (cfiCond463) Function main_logic
          CFI (cfiCond463) Conditional ??CrossCallReturnLabel_220
          CFI (cfiCond463) CFA_SP SP+4
          CFI Block cfiCond464 Using cfiCommon0
          CFI (cfiCond464) Function main_logic
          CFI (cfiCond464) Conditional ??CrossCallReturnLabel_221
          CFI (cfiCond464) CFA_SP SP+4
          CFI Block cfiCond465 Using cfiCommon0
          CFI (cfiCond465) Function main_power
          CFI (cfiCond465) Conditional ??CrossCallReturnLabel_33
          CFI (cfiCond465) CFA_SP SP+4
          CFI Block cfiCond466 Using cfiCommon0
          CFI (cfiCond466) Function main_logic
          CFI (cfiCond466) Conditional ??CrossCallReturnLabel_32
          CFI (cfiCond466) CFA_SP SP+4
          CFI Block cfiPicker467 Using cfiCommon2
          CFI (cfiPicker467) NoFunction
          CFI (cfiPicker467) Picker
        STS     ??regaoff, R16
        RET
          CFI EndBlock cfiCond462
          CFI EndBlock cfiCond463
          CFI EndBlock cfiCond464
          CFI EndBlock cfiCond465
          CFI EndBlock cfiCond466
          CFI EndBlock cfiPicker467

        RSEG CODE:CODE:NOROOT(1)
?Subroutine18:
          CFI Block cfiCond468 Using cfiCommon0
          CFI Function main_power
          CFI Conditional ??CrossCallReturnLabel_30
          CFI CFA_SP SP+4
          CFI Block cfiCond469 Using cfiCommon0
          CFI (cfiCond469) Function main_logic
          CFI (cfiCond469) Conditional ??CrossCallReturnLabel_31
          CFI (cfiCond469) CFA_SP SP+4
          CFI Block cfiPicker470 Using cfiCommon2
          CFI (cfiPicker470) NoFunction
          CFI (cfiPicker470) Picker
        LDI     R16, 0
        STS     on, R16
        STS     onok, R16
        RET
          CFI EndBlock cfiCond468
          CFI EndBlock cfiCond469
          CFI EndBlock cfiPicker470

        RSEG CODE:CODE:NOROOT(1)
?Subroutine13:
          CFI Block cfiCond471 Using cfiCommon0
          CFI Function main_logic
          CFI Conditional ??CrossCallReturnLabel_348
          CFI CFA_SP SP+4
          CFI Block cfiCond472 Using cfiCommon0
          CFI (cfiCond472) Function main_logic
          CFI (cfiCond472) Conditional ??CrossCallReturnLabel_349
          CFI (cfiCond472) CFA_SP SP+4
          CFI Block cfiPicker473 Using cfiCommon2
          CFI (cfiPicker473) NoFunction
          CFI (cfiPicker473) Picker
        LDI     R22, 0
          CFI EndBlock cfiCond471
          CFI EndBlock cfiCond472
          CFI EndBlock cfiPicker473
        REQUIRE ??Subroutine144_0
        ;               // Fall through to label ??Subroutine144_0

        RSEG CODE:CODE:NOROOT(1)
??Subroutine144_0:
          CFI Block cfiCond474 Using cfiCommon0
          CFI Function main_logic
          CFI Conditional ??CrossCallReturnLabel_350
          CFI CFA_SP SP+4
          CFI Block cfiCond475 Using cfiCommon0
          CFI (cfiCond475) Function main_logic
          CFI (cfiCond475) Conditional ??CrossCallReturnLabel_348
          CFI (cfiCond475) CFA_SP SP+4
          CFI Block cfiCond476 Using cfiCommon0
          CFI (cfiCond476) Function main_logic
          CFI (cfiCond476) Conditional ??CrossCallReturnLabel_349
          CFI (cfiCond476) CFA_SP SP+4
          CFI Block cfiPicker477 Using cfiCommon2
          CFI (cfiPicker477) NoFunction
          CFI (cfiPicker477) Picker
        LDI     R23, 0
        LDI     R16, LOW(tm1)
        LDI     R17, (tm1) >> 8
        RCALL   TimerSet
          CFI EndBlock cfiCond474
          CFI EndBlock cfiCond475
          CFI EndBlock cfiCond476
          CFI EndBlock cfiPicker477
        REQUIRE ??Subroutine145_0
        ;               // Fall through to label ??Subroutine145_0

        RSEG CODE:CODE:NOROOT(1)
??Subroutine145_0:
          CFI Block cfiCond478 Using cfiCommon0
          CFI Function main_power
          CFI Conditional ??CrossCallReturnLabel_355
          CFI CFA_SP SP+4
          CFI Block cfiCond479 Using cfiCommon0
          CFI (cfiCond479) Function main_logic
          CFI (cfiCond479) Conditional ??CrossCallReturnLabel_356
          CFI (cfiCond479) CFA_SP SP+4
          CFI Block cfiCond480 Using cfiCommon0
          CFI (cfiCond480) Function main_logic
          CFI (cfiCond480) Conditional ??CrossCallReturnLabel_357
          CFI (cfiCond480) CFA_SP SP+4
          CFI Block cfiCond481 Using cfiCommon0
          CFI (cfiCond481) Function main_logic
          CFI (cfiCond481) Conditional ??CrossCallReturnLabel_350
          CFI (cfiCond481) CFA_SP SP+4
          CFI Block cfiCond482 Using cfiCommon0
          CFI (cfiCond482) Function main_logic
          CFI (cfiCond482) Conditional ??CrossCallReturnLabel_348
          CFI (cfiCond482) CFA_SP SP+4
          CFI Block cfiCond483 Using cfiCommon0
          CFI (cfiCond483) Function main_logic
          CFI (cfiCond483) Conditional ??CrossCallReturnLabel_349
          CFI (cfiCond483) CFA_SP SP+4
          CFI Block cfiPicker484 Using cfiCommon2
          CFI (cfiPicker484) NoFunction
          CFI (cfiPicker484) Picker
        LDI     R16, 0
        RJMP    ?Subroutine126
          CFI EndBlock cfiCond478
          CFI EndBlock cfiCond479
          CFI EndBlock cfiCond480
          CFI EndBlock cfiCond481
          CFI EndBlock cfiCond482
          CFI EndBlock cfiCond483
          CFI EndBlock cfiPicker484

        RSEG CODE:CODE:NOROOT(1)
?Subroutine11:
          CFI Block cfiCond485 Using cfiCommon0
          CFI Function main_logic
          CFI Conditional ??CrossCallReturnLabel_17
          CFI CFA_SP SP+4
          CFI Block cfiCond486 Using cfiCommon0
          CFI (cfiCond486) Function main_logic
          CFI (cfiCond486) Conditional ??CrossCallReturnLabel_18
          CFI (cfiCond486) CFA_SP SP+4
          CFI Block cfiCond487 Using cfiCommon0
          CFI (cfiCond487) Function main_logic
          CFI (cfiCond487) Conditional ??CrossCallReturnLabel_19
          CFI (cfiCond487) CFA_SP SP+4
          CFI Block cfiCond488 Using cfiCommon0
          CFI (cfiCond488) Function main_logic
          CFI (cfiCond488) Conditional ??CrossCallReturnLabel_20
          CFI (cfiCond488) CFA_SP SP+4
          CFI Block cfiCond489 Using cfiCommon0
          CFI (cfiCond489) Function main_logic
          CFI (cfiCond489) Conditional ??CrossCallReturnLabel_21
          CFI (cfiCond489) CFA_SP SP+4
          CFI Block cfiPicker490 Using cfiCommon2
          CFI (cfiPicker490) NoFunction
          CFI (cfiPicker490) Picker
        RCALL   ?Subroutine91
??CrossCallReturnLabel_238:
        LDS     R16, ??sel
        STS     ??lastsel, R16
        RET
          CFI EndBlock cfiCond485
          CFI EndBlock cfiCond486
          CFI EndBlock cfiCond487
          CFI EndBlock cfiCond488
          CFI EndBlock cfiCond489
          CFI EndBlock cfiPicker490

        RSEG CODE:CODE:NOROOT(1)
?Subroutine8:
          CFI Block cfiCond491 Using cfiCommon0
          CFI Function main_logic
          CFI Conditional ??CrossCallReturnLabel_10
          CFI CFA_SP SP+4
          CFI Block cfiCond492 Using cfiCommon0
          CFI (cfiCond492) Function main_logic
          CFI (cfiCond492) Conditional ??CrossCallReturnLabel_11
          CFI (cfiCond492) CFA_SP SP+4
          CFI Block cfiCond493 Using cfiCommon0
          CFI (cfiCond493) Function main_logic
          CFI (cfiCond493) Conditional ??CrossCallReturnLabel_12
          CFI (cfiCond493) CFA_SP SP+4
          CFI Block cfiPicker494 Using cfiCommon2
          CFI (cfiPicker494) NoFunction
          CFI (cfiPicker494) Picker
        LDI     R16, 1
        STS     aoff, R16
        RET
          CFI EndBlock cfiCond491
          CFI EndBlock cfiCond492
          CFI EndBlock cfiCond493
          CFI EndBlock cfiPicker494

        RSEG CODE:CODE:NOROOT(1)
?Subroutine4:
          CFI Block cfiCond495 Using cfiCommon0
          CFI Function main_logic
          CFI Conditional ??CrossCallReturnLabel_254
          CFI CFA_SP SP+4
          CFI Block cfiCond496 Using cfiCommon0
          CFI (cfiCond496) Function main_logic
          CFI (cfiCond496) Conditional ??CrossCallReturnLabel_255
          CFI (cfiCond496) CFA_SP SP+4
          CFI Block cfiPicker497 Using cfiCommon2
          CFI (cfiPicker497) NoFunction
          CFI (cfiPicker497) Picker
        LDS     R20, ??sel
        DEC     R20
        RCALL   ?Subroutine89
          CFI EndBlock cfiCond495
          CFI EndBlock cfiCond496
          CFI EndBlock cfiPicker497
??CrossCallReturnLabel_293:
        REQUIRE ?Subroutine127
        ;               // Fall through to label ?Subroutine127

        RSEG CODE:CODE:NOROOT(1)
?Subroutine127:
          CFI Block cfiCond498 Using cfiCommon0
          CFI Function main_logic
          CFI Conditional ??CrossCallReturnLabel_254
          CFI CFA_SP SP+4
          CFI Block cfiCond499 Using cfiCommon0
          CFI (cfiCond499) Function main_logic
          CFI (cfiCond499) Conditional ??CrossCallReturnLabel_255
          CFI (cfiCond499) CFA_SP SP+4
          CFI Block cfiCond500 Using cfiCommon0
          CFI (cfiCond500) Function main_logic
          CFI (cfiCond500) Conditional ??CrossCallReturnLabel_256
          CFI (cfiCond500) CFA_SP SP+4
          CFI Block cfiCond501 Using cfiCommon0
          CFI (cfiCond501) Function main_logic
          CFI (cfiCond501) Conditional ??CrossCallReturnLabel_257
          CFI (cfiCond501) CFA_SP SP+4
          CFI Block cfiCond502 Using cfiCommon0
          CFI (cfiCond502) Function main_logic
          CFI (cfiCond502) Conditional ??CrossCallReturnLabel_258
          CFI (cfiCond502) CFA_SP SP+4
          CFI Block cfiCond503 Using cfiCommon0
          CFI (cfiCond503) Function main_logic
          CFI (cfiCond503) Conditional ??CrossCallReturnLabel_259
          CFI (cfiCond503) CFA_SP SP+4
          CFI Block cfiCond504 Using cfiCommon0
          CFI (cfiCond504) Function main_logic
          CFI (cfiCond504) Conditional ??CrossCallReturnLabel_260
          CFI (cfiCond504) CFA_SP SP+4
          CFI Block cfiCond505 Using cfiCommon0
          CFI (cfiCond505) Function main_logic
          CFI (cfiCond505) Conditional ??CrossCallReturnLabel_261
          CFI (cfiCond505) CFA_SP SP+4
          CFI Block cfiCond506 Using cfiCommon0
          CFI (cfiCond506) Function source
          CFI (cfiCond506) Conditional ??CrossCallReturnLabel_262
          CFI (cfiCond506) CFA_SP SP+4
          CFI Block cfiCond507 Using cfiCommon0
          CFI (cfiCond507) Function source
          CFI (cfiCond507) Conditional ??CrossCallReturnLabel_263
          CFI (cfiCond507) CFA_SP SP+4
          CFI Block cfiCond508 Using cfiCommon0
          CFI (cfiCond508) Function source
          CFI (cfiCond508) Conditional ??CrossCallReturnLabel_264
          CFI (cfiCond508) CFA_SP SP+4
          CFI Block cfiCond509 Using cfiCommon0
          CFI (cfiCond509) Function source
          CFI (cfiCond509) Conditional ??CrossCallReturnLabel_265
          CFI (cfiCond509) CFA_SP SP+4
          CFI Block cfiCond510 Using cfiCommon0
          CFI (cfiCond510) Function source
          CFI (cfiCond510) Conditional ??CrossCallReturnLabel_266
          CFI (cfiCond510) CFA_SP SP+4
          CFI Block cfiCond511 Using cfiCommon0
          CFI (cfiCond511) Function source
          CFI (cfiCond511) Conditional ??CrossCallReturnLabel_267
          CFI (cfiCond511) CFA_SP SP+4
          CFI Block cfiPicker512 Using cfiCommon2
          CFI (cfiPicker512) NoFunction
          CFI (cfiPicker512) Picker
        LDS     R16, ??sel
        RET
          CFI EndBlock cfiCond498
          CFI EndBlock cfiCond499
          CFI EndBlock cfiCond500
          CFI EndBlock cfiCond501
          CFI EndBlock cfiCond502
          CFI EndBlock cfiCond503
          CFI EndBlock cfiCond504
          CFI EndBlock cfiCond505
          CFI EndBlock cfiCond506
          CFI EndBlock cfiCond507
          CFI EndBlock cfiCond508
          CFI EndBlock cfiCond509
          CFI EndBlock cfiCond510
          CFI EndBlock cfiCond511
          CFI EndBlock cfiPicker512

        RSEG NEAR_Z:DATA:NOROOT(0)
        REQUIRE `?<Segment init: NEAR_Z>`
??last_pultadr:
        DS8 1
//  336  //------------------------------------------

        RSEG CODE:CODE:NOROOT(1)
//  337 void source()
source:
          CFI Block cfiBlock513 Using cfiCommon0
          CFI Function source
//  338 {  
//  339   if (sel==1){ resOUT(); resled(); SET(PORTC,1);}
        FUNCALL source, resOUT
        LOCFRAME CSTACK, 0, STACK
        LOCFRAME RSTACK, 2, STACK
        ARGFRAME RSTACK, 0, STACK
        FUNCALL source, resled
        LOCFRAME CSTACK, 0, STACK
        LOCFRAME RSTACK, 2, STACK
        ARGFRAME RSTACK, 0, STACK
        FUNCALL source, resOUT
        LOCFRAME CSTACK, 0, STACK
        LOCFRAME RSTACK, 2, STACK
        ARGFRAME RSTACK, 0, STACK
        FUNCALL source, resled
        LOCFRAME CSTACK, 0, STACK
        LOCFRAME RSTACK, 2, STACK
        ARGFRAME RSTACK, 0, STACK
        FUNCALL source, resOUT
        LOCFRAME CSTACK, 0, STACK
        LOCFRAME RSTACK, 2, STACK
        ARGFRAME RSTACK, 0, STACK
        FUNCALL source, resled
        LOCFRAME CSTACK, 0, STACK
        LOCFRAME RSTACK, 2, STACK
        ARGFRAME RSTACK, 0, STACK
        FUNCALL source, resOUT
        LOCFRAME CSTACK, 0, STACK
        LOCFRAME RSTACK, 2, STACK
        ARGFRAME RSTACK, 0, STACK
        FUNCALL source, resled
        LOCFRAME CSTACK, 0, STACK
        LOCFRAME RSTACK, 2, STACK
        ARGFRAME RSTACK, 0, STACK
        FUNCALL source, resOUT
        LOCFRAME CSTACK, 0, STACK
        LOCFRAME RSTACK, 2, STACK
        ARGFRAME RSTACK, 0, STACK
        FUNCALL source, resled
        LOCFRAME CSTACK, 0, STACK
        LOCFRAME RSTACK, 2, STACK
        ARGFRAME RSTACK, 0, STACK
        FUNCALL source, migINI
        LOCFRAME CSTACK, 0, STACK
        LOCFRAME RSTACK, 2, STACK
        ARGFRAME RSTACK, 0, STACK
        RCALL   ?Subroutine127
??CrossCallReturnLabel_262:
        CPI     R16, 1
        BRNE    ??source_0
        RCALL   ?Subroutine83
??CrossCallReturnLabel_137:
        SBI     0x15, 0x01
//  340   if (sel==2){ resOUT(); resled(); SET(PORTC,2);}
??source_0:
        RCALL   ?Subroutine127
??CrossCallReturnLabel_263:
        CPI     R16, 2
        BRNE    ??source_1
        RCALL   ?Subroutine83
??CrossCallReturnLabel_136:
        SBI     0x15, 0x02
//  341   if (sel==3){ resOUT(); resled(); SET(PORTC,3);}
??source_1:
        RCALL   ?Subroutine127
??CrossCallReturnLabel_264:
        CPI     R16, 3
        BRNE    ??source_2
        RCALL   ?Subroutine83
??CrossCallReturnLabel_135:
        SBI     0x15, 0x03
//  342   if (sel==4){ resOUT(); resled();SET(PORTC,4);}
??source_2:
        RCALL   ?Subroutine127
??CrossCallReturnLabel_265:
        CPI     R16, 4
        BRNE    ??source_3
        RCALL   ?Subroutine83
??CrossCallReturnLabel_134:
        SBI     0x15, 0x04
//  343   if (sel==5 && mode==0 ){  resOUT(); resled();SET(PORTC,5);}
??source_3:
        RCALL   ?Subroutine127
??CrossCallReturnLabel_266:
        CPI     R16, 5
        BRNE    ??source_4
        RCALL   ?Subroutine71
??CrossCallReturnLabel_272:
        BRNE    ??source_4
        RCALL   ?Subroutine83
??CrossCallReturnLabel_133:
        SBI     0x15, 0x05
//  344   
//  345   //if (mute(100)!=1 )
//  346    //if (mute(100)!=1 ) mute(1);// /*if (zader==0)  */AC_ON;//вкл АС
//  347 
//  348    migINI(sel-1, 5 ,0); 
??source_4:
        LDI     R18, 0
        LDI     R17, 5
        RCALL   ?Subroutine127
??CrossCallReturnLabel_267:
        DEC     R16
        RCALL   migINI
//  349    zader==1;
        LDS     R16, zader
//  350  
//  351 }
        RET
          CFI EndBlock cfiBlock513
        REQUIRE _A_PORTC

        RSEG CODE:CODE:NOROOT(1)
?Subroutine83:
          CFI Block cfiCond514 Using cfiCommon0
          CFI Function source
          CFI Conditional ??CrossCallReturnLabel_137
          CFI CFA_SP SP+4
          CFI Block cfiCond515 Using cfiCommon0
          CFI (cfiCond515) Function source
          CFI (cfiCond515) Conditional ??CrossCallReturnLabel_136
          CFI (cfiCond515) CFA_SP SP+4
          CFI Block cfiCond516 Using cfiCommon0
          CFI (cfiCond516) Function source
          CFI (cfiCond516) Conditional ??CrossCallReturnLabel_135
          CFI (cfiCond516) CFA_SP SP+4
          CFI Block cfiCond517 Using cfiCommon0
          CFI (cfiCond517) Function source
          CFI (cfiCond517) Conditional ??CrossCallReturnLabel_134
          CFI (cfiCond517) CFA_SP SP+4
          CFI Block cfiCond518 Using cfiCommon0
          CFI (cfiCond518) Function source
          CFI (cfiCond518) Conditional ??CrossCallReturnLabel_133
          CFI (cfiCond518) CFA_SP SP+4
          CFI Block cfiPicker519 Using cfiCommon2
          CFI (cfiPicker519) NoFunction
          CFI (cfiPicker519) Picker
        RCALL   resOUT
        RJMP    resled
          CFI EndBlock cfiCond514
          CFI EndBlock cfiCond515
          CFI EndBlock cfiCond516
          CFI EndBlock cfiCond517
          CFI EndBlock cfiCond518
          CFI EndBlock cfiPicker519
//  352 
//  353 
//  354 
//  355 
//  356 
//  357 
//  358 
//  359 
//  360 
//  361 
//  362 
//  363 
//  364 

        RSEG CODE:CODE:NOROOT(1)
//  365 bool proverka(uchar adr)//защита от дублирования функции на кнопке
proverka:
          CFI Block cfiBlock520 Using cfiCommon0
          CFI Function proverka
//  366 {
        MOV     R23, R16
//  367    for (uchar i=0; i<adr; i++)
        LDI     R22, 0
        RJMP    ??proverka_0
??proverka_1:
        INC     R22
??proverka_0:
        CP      R22, R23
        BRCC    ??proverka_2
//  368    {
//  369      if (k[i]==cod1)
        LDI     R16, 2
        MUL     R22, R16
        RCALL   ?Subroutine86
??CrossCallReturnLabel_142:
        RCALL   ?Subroutine39
??CrossCallReturnLabel_227:
        BRNE    ??proverka_1
//  370        if (k[i+1]==cod2)
        RCALL   ?Subroutine43
??CrossCallReturnLabel_52:
        BRNE    ??proverka_1
//  371          if (k[i+2]==cod3) return 0;
        RCALL   ?Subroutine45
??CrossCallReturnLabel_54:
        BRNE    ??proverka_1
        RJMP    ?Subroutine130
//  372    }
//  373 
//  374    return 1;
??proverka_2:
        LDI     R16, 1
        RET
          CFI EndBlock cfiBlock520
//  375 }
//  376 
//  377 

        RSEG CODE:CODE:NOROOT(1)
//  378 void programming (uchar rez)
programming:
          CFI Block cfiBlock521 Using cfiCommon0
          CFI Function programming
//  379 {  
        FUNCALL programming, getadr
        LOCFRAME CSTACK, 1, STACK
        LOCFRAME RSTACK, 2, STACK
        ARGFRAME RSTACK, 0, STACK
        FUNCALL programming, proverka
        LOCFRAME CSTACK, 1, STACK
        LOCFRAME RSTACK, 2, STACK
        ARGFRAME RSTACK, 0, STACK
        FUNCALL programming, writeCOD
        LOCFRAME CSTACK, 1, STACK
        LOCFRAME RSTACK, 2, STACK
        ARGFRAME RSTACK, 0, STACK
        FUNCALL programming, led_all
        LOCFRAME CSTACK, 1, STACK
        LOCFRAME RSTACK, 2, STACK
        ARGFRAME RSTACK, 0, STACK
        FUNCALL programming, led_all
        LOCFRAME CSTACK, 1, STACK
        LOCFRAME RSTACK, 2, STACK
        ARGFRAME RSTACK, 0, STACK
        FUNCALL programming, led_all
        LOCFRAME CSTACK, 1, STACK
        LOCFRAME RSTACK, 2, STACK
        ARGFRAME RSTACK, 0, STACK
        FUNCALL programming, led_all
        LOCFRAME CSTACK, 1, STACK
        LOCFRAME RSTACK, 2, STACK
        ARGFRAME RSTACK, 0, STACK
        FUNCALL programming, led_all
        LOCFRAME CSTACK, 1, STACK
        LOCFRAME RSTACK, 2, STACK
        ARGFRAME RSTACK, 0, STACK
        FUNCALL programming, led_all
        LOCFRAME CSTACK, 1, STACK
        LOCFRAME RSTACK, 2, STACK
        ARGFRAME RSTACK, 0, STACK
        FUNCALL programming, led_all
        LOCFRAME CSTACK, 1, STACK
        LOCFRAME RSTACK, 2, STACK
        ARGFRAME RSTACK, 0, STACK
        FUNCALL programming, led_all
        LOCFRAME CSTACK, 1, STACK
        LOCFRAME RSTACK, 2, STACK
        ARGFRAME RSTACK, 0, STACK
        ST      -Y, R24
          CFI R24 Frame(CFA_Y, -1)
          CFI CFA_Y Y+1
        MOV     R24, R16
//  380   uchar adr;
//  381    if (tekfunc==255) return;
        LDS     R17, ??tekfunc
        CPI     R17, 255
        BREQ    ??CrossCallReturnLabel_363
//  382    if (!get)  { adr=getadr(); get=1; }//получаем адрес и зажигаем программируемую функцию
        LDS     R17, ??get
        TST     R17
        BRNE    ??programming_0
        RCALL   getadr
        LDI     R17, 1
        STS     ??get, R17
//  383    if (rez==1)
??programming_0:
        CPI     R24, 1
        BRNE    ??CrossCallReturnLabel_364
//  384    {
//  385      if (proverka(adr)) 
        RCALL   proverka
        TST     R16
        BREQ    ??CrossCallReturnLabel_364
//  386      {
//  387          writeCOD();
        RCALL   writeCOD
//  388          tekfunc++;  get=0;
        RCALL   ?Subroutine14
//  389          if (tekfunc==12) {  for (uchar i=0; i<10;i++) 
??CrossCallReturnLabel_24:
        BRNE    ??programming_1
        LDI     R24, 10
//  390                                {led_all(1); p4; led_all(0);p4; }
??programming_2:
        RCALL   ?Subroutine0
??CrossCallReturnLabel_0:
        BRNE    ??programming_2
//  391                           }
//  392          if (tekfunc>MAXFUNC) {tekfunc=255;led_all(1);}
??programming_1:
        RCALL   ?Subroutine74
??CrossCallReturnLabel_102:
        CPI     R16, 24
        BRCS    ??CrossCallReturnLabel_364
        RCALL   ?Subroutine5
//  393      
//  394      }
//  395    }
//  396    
//  397    
//  398    if (keyONsm) { 
??CrossCallReturnLabel_364:
        SBIC    0x10, 0x05
        RJMP    ??CrossCallReturnLabel_363
//  399                 led_all(1); delay_s(1); 
        RCALL   ??Subroutine146_0
??CrossCallReturnLabel_359:
        RCALL   ?Subroutine79
//  400                 led_all(0); 
??CrossCallReturnLabel_126:
        RCALL   ?Subroutine15
//  401                 tekfunc++;  get=0;
??CrossCallReturnLabel_27:
        RCALL   ?Subroutine14
//  402                    if (tekfunc==12) {  for (uchar i=0; i<10;i++) 
??CrossCallReturnLabel_25:
        BRNE    ??programming_3
        LDI     R24, 10
//  403                            {led_all(1); p4; led_all(0);p4; }
??programming_4:
        RCALL   ?Subroutine0
??CrossCallReturnLabel_1:
        BRNE    ??programming_4
//  404                       }
//  405                 if (tekfunc>MAXFUNC) {tekfunc=255;led_all(1);}
??programming_3:
        RCALL   ?Subroutine74
??CrossCallReturnLabel_103:
        CPI     R16, 24
        BRCS    ??CrossCallReturnLabel_363
        RCALL   ?Subroutine5
          CFI EndBlock cfiBlock521
//  406                
//  407                  }
//  408      
//  409 }
??CrossCallReturnLabel_363:
        REQUIRE ?Subroutine128
        REQUIRE _A_PIND
        ;               // Fall through to label ?Subroutine128

        RSEG CODE:CODE:NOROOT(1)
?Subroutine128:
          CFI Block cfiBlock522 Using cfiCommon0
          CFI NoFunction
          CFI CFA_Y Y+1
          CFI R24 Frame(CFA_Y, -1)
        LD      R24, Y+
          CFI CFA_Y Y+0
          CFI R24 SameValue
        RET
          CFI EndBlock cfiBlock522

        RSEG CODE:CODE:NOROOT(1)
?Subroutine79:
          CFI Block cfiCond523 Using cfiCommon0
          CFI Function main_power
          CFI Conditional ??CrossCallReturnLabel_125
          CFI CFA_SP SP+4
          CFI Block cfiCond524 Using cfiCommon0
          CFI (cfiCond524) Function programming
          CFI (cfiCond524) Conditional ??CrossCallReturnLabel_126
          CFI (cfiCond524) R24 Frame(CFA_Y, -1)
          CFI (cfiCond524) CFA_SP SP+4
          CFI (cfiCond524) CFA_Y Y+1
          CFI Block cfiPicker525 Using cfiCommon2
          CFI (cfiPicker525) NoFunction
          CFI (cfiPicker525) Picker
        LDI     R16, 255
        LDI     R17, 52
        LDI     R18, 12
        SUBI    R16, 1
        SBCI    R17, 0
        SBCI    R18, 0
        BRNE    $-6
        RJMP    $+2
        NOP
        RET
          CFI EndBlock cfiCond523
          CFI EndBlock cfiCond524
          CFI EndBlock cfiPicker525

        RSEG CODE:CODE:NOROOT(1)
?Subroutine74:
          CFI Block cfiCond526 Using cfiCommon0
          CFI Function getadr
          CFI Conditional ??CrossCallReturnLabel_99
          CFI R24 Frame(CFA_Y, -1)
          CFI CFA_SP SP+4
          CFI CFA_Y Y+1
          CFI Block cfiCond527 Using cfiCommon0
          CFI (cfiCond527) Function getadr
          CFI (cfiCond527) Conditional ??CrossCallReturnLabel_100
          CFI (cfiCond527) R24 Frame(CFA_Y, -1)
          CFI (cfiCond527) CFA_SP SP+4
          CFI (cfiCond527) CFA_Y Y+1
          CFI Block cfiCond528 Using cfiCommon0
          CFI (cfiCond528) Function getadr
          CFI (cfiCond528) Conditional ??CrossCallReturnLabel_101
          CFI (cfiCond528) R24 Frame(CFA_Y, -1)
          CFI (cfiCond528) CFA_SP SP+4
          CFI (cfiCond528) CFA_Y Y+1
          CFI Block cfiCond529 Using cfiCommon0
          CFI (cfiCond529) Function programming
          CFI (cfiCond529) Conditional ??CrossCallReturnLabel_102
          CFI (cfiCond529) R24 Frame(CFA_Y, -1)
          CFI (cfiCond529) CFA_SP SP+4
          CFI (cfiCond529) CFA_Y Y+1
          CFI Block cfiCond530 Using cfiCommon0
          CFI (cfiCond530) Function programming
          CFI (cfiCond530) Conditional ??CrossCallReturnLabel_103
          CFI (cfiCond530) R24 Frame(CFA_Y, -1)
          CFI (cfiCond530) CFA_SP SP+4
          CFI (cfiCond530) CFA_Y Y+1
          CFI Block cfiPicker531 Using cfiCommon2
          CFI (cfiPicker531) NoFunction
          CFI (cfiPicker531) Picker
        LDS     R16, ??tekfunc
        RET
          CFI EndBlock cfiCond526
          CFI EndBlock cfiCond527
          CFI EndBlock cfiCond528
          CFI EndBlock cfiCond529
          CFI EndBlock cfiCond530
          CFI EndBlock cfiPicker531

        RSEG CODE:CODE:NOROOT(1)
?Subroutine15:
          CFI Block cfiCond532 Using cfiCommon0
          CFI Function led_test
          CFI Conditional ??CrossCallReturnLabel_29
          CFI R24 Frame(CFA_Y, -1)
          CFI CFA_SP SP+4
          CFI CFA_Y Y+1
          CFI Block cfiCond533 Using cfiCommon0
          CFI (cfiCond533) Function main
          CFI (cfiCond533) Conditional ??CrossCallReturnLabel_28
          CFI (cfiCond533) R24 Frame(CFA_Y, -1)
          CFI (cfiCond533) CFA_SP SP+4
          CFI (cfiCond533) CFA_Y Y+1
          CFI Block cfiCond534 Using cfiCommon0
          CFI (cfiCond534) Function programming
          CFI (cfiCond534) Conditional ??CrossCallReturnLabel_27
          CFI (cfiCond534) R24 Frame(CFA_Y, -1)
          CFI (cfiCond534) CFA_SP SP+4
          CFI (cfiCond534) CFA_Y Y+1
          CFI Block cfiCond535 Using cfiCommon0
          CFI (cfiCond535) Function writeCOD
          CFI (cfiCond535) Conditional ??CrossCallReturnLabel_26
          CFI (cfiCond535) R24 Frame(CFA_Y, -1)
          CFI (cfiCond535) CFA_SP SP+4
          CFI (cfiCond535) CFA_Y Y+1
          CFI Block cfiPicker536 Using cfiCommon2
          CFI (cfiPicker536) NoFunction
          CFI (cfiPicker536) Picker
        LDI     R16, 0
        RJMP    led_all
          CFI EndBlock cfiCond532
          CFI EndBlock cfiCond533
          CFI EndBlock cfiCond534
          CFI EndBlock cfiCond535
          CFI EndBlock cfiPicker536

        RSEG CODE:CODE:NOROOT(1)
?Subroutine14:
          CFI Block cfiCond537 Using cfiCommon0
          CFI Function programming
          CFI Conditional ??CrossCallReturnLabel_24
          CFI R24 Frame(CFA_Y, -1)
          CFI CFA_SP SP+4
          CFI CFA_Y Y+1
          CFI Block cfiCond538 Using cfiCommon0
          CFI (cfiCond538) Function programming
          CFI (cfiCond538) Conditional ??CrossCallReturnLabel_25
          CFI (cfiCond538) R24 Frame(CFA_Y, -1)
          CFI (cfiCond538) CFA_SP SP+4
          CFI (cfiCond538) CFA_Y Y+1
          CFI Block cfiPicker539 Using cfiCommon2
          CFI (cfiPicker539) NoFunction
          CFI (cfiPicker539) Picker
        LDI     R30, LOW(??tekfunc)
        LDI     R31, (??tekfunc) >> 8
        RCALL   ?Subroutine98
??CrossCallReturnLabel_330:
        LDI     R16, 0
        STS     ??get, R16
        LDS     R16, ??tekfunc
        CPI     R16, 12
        RET
          CFI EndBlock cfiCond537
          CFI EndBlock cfiCond538
          CFI EndBlock cfiPicker539

        RSEG CODE:CODE:NOROOT(1)
?Subroutine5:
          CFI Block cfiCond540 Using cfiCommon0
          CFI Function programming
          CFI Conditional ??CrossCallReturnLabel_364
          CFI R24 Frame(CFA_Y, -1)
          CFI CFA_SP SP+4
          CFI CFA_Y Y+1
          CFI Block cfiCond541 Using cfiCommon0
          CFI (cfiCond541) Function programming
          CFI (cfiCond541) Conditional ??CrossCallReturnLabel_363
          CFI (cfiCond541) R24 Frame(CFA_Y, -1)
          CFI (cfiCond541) CFA_SP SP+4
          CFI (cfiCond541) CFA_Y Y+1
          CFI Block cfiPicker542 Using cfiCommon2
          CFI (cfiPicker542) NoFunction
          CFI (cfiPicker542) Picker
        LDI     R16, 255
        STS     ??tekfunc, R16
          CFI EndBlock cfiCond540
          CFI EndBlock cfiCond541
          CFI EndBlock cfiPicker542
        REQUIRE ??Subroutine146_0
        ;               // Fall through to label ??Subroutine146_0

        RSEG CODE:CODE:NOROOT(1)
??Subroutine146_0:
          CFI Block cfiCond543 Using cfiCommon0
          CFI Function led_test
          CFI Conditional ??CrossCallReturnLabel_362
          CFI R24 Frame(CFA_Y, -1)
          CFI CFA_SP SP+4
          CFI CFA_Y Y+1
          CFI Block cfiCond544 Using cfiCommon0
          CFI (cfiCond544) Function main
          CFI (cfiCond544) Conditional ??CrossCallReturnLabel_361
          CFI (cfiCond544) R24 Frame(CFA_Y, -1)
          CFI (cfiCond544) CFA_SP SP+4
          CFI (cfiCond544) CFA_Y Y+1
          CFI Block cfiCond545 Using cfiCommon0
          CFI (cfiCond545) Function main
          CFI (cfiCond545) Conditional ??CrossCallReturnLabel_360
          CFI (cfiCond545) R24 Frame(CFA_Y, -1)
          CFI (cfiCond545) CFA_SP SP+4
          CFI (cfiCond545) CFA_Y Y+1
          CFI Block cfiCond546 Using cfiCommon0
          CFI (cfiCond546) Function programming
          CFI (cfiCond546) Conditional ??CrossCallReturnLabel_359
          CFI (cfiCond546) R24 Frame(CFA_Y, -1)
          CFI (cfiCond546) CFA_SP SP+4
          CFI (cfiCond546) CFA_Y Y+1
          CFI Block cfiCond547 Using cfiCommon0
          CFI (cfiCond547) Function writeCOD
          CFI (cfiCond547) Conditional ??CrossCallReturnLabel_358
          CFI (cfiCond547) R24 Frame(CFA_Y, -1)
          CFI (cfiCond547) CFA_SP SP+4
          CFI (cfiCond547) CFA_Y Y+1
          CFI Block cfiCond548 Using cfiCommon0
          CFI (cfiCond548) Function programming
          CFI (cfiCond548) Conditional ??CrossCallReturnLabel_364
          CFI (cfiCond548) R24 Frame(CFA_Y, -1)
          CFI (cfiCond548) CFA_SP SP+4
          CFI (cfiCond548) CFA_Y Y+1
          CFI Block cfiCond549 Using cfiCommon0
          CFI (cfiCond549) Function programming
          CFI (cfiCond549) Conditional ??CrossCallReturnLabel_363
          CFI (cfiCond549) R24 Frame(CFA_Y, -1)
          CFI (cfiCond549) CFA_SP SP+4
          CFI (cfiCond549) CFA_Y Y+1
          CFI Block cfiPicker550 Using cfiCommon2
          CFI (cfiPicker550) NoFunction
          CFI (cfiPicker550) Picker
        LDI     R16, 1
        RJMP    led_all
          CFI EndBlock cfiCond543
          CFI EndBlock cfiCond544
          CFI EndBlock cfiCond545
          CFI EndBlock cfiCond546
          CFI EndBlock cfiCond547
          CFI EndBlock cfiCond548
          CFI EndBlock cfiCond549
          CFI EndBlock cfiPicker550

        RSEG CODE:CODE:NOROOT(1)
?Subroutine0:
          CFI Block cfiCond551 Using cfiCommon0
          CFI Function programming
          CFI Conditional ??CrossCallReturnLabel_0
          CFI R24 Frame(CFA_Y, -1)
          CFI CFA_SP SP+4
          CFI CFA_Y Y+1
          CFI Block cfiCond552 Using cfiCommon0
          CFI (cfiCond552) Function programming
          CFI (cfiCond552) Conditional ??CrossCallReturnLabel_1
          CFI (cfiCond552) R24 Frame(CFA_Y, -1)
          CFI (cfiCond552) CFA_SP SP+4
          CFI (cfiCond552) CFA_Y Y+1
          CFI Block cfiPicker553 Using cfiCommon2
          CFI (cfiPicker553) NoFunction
          CFI (cfiPicker553) Picker
        LDI     R16, 1
        RCALL   ?Subroutine114
??CrossCallReturnLabel_222:
        LDI     R16, 0
        RCALL   ?Subroutine114
??CrossCallReturnLabel_223:
        DEC     R24
        RET
          CFI EndBlock cfiCond551
          CFI EndBlock cfiCond552
          CFI EndBlock cfiPicker553

        RSEG CODE:CODE:NOROOT(1)
?Subroutine114:
          CFI Block cfiCond554 Using cfiCommon0
          CFI Function programming
          CFI Conditional ??CrossCallReturnLabel_222, ??CrossCallReturnLabel_0
          CFI R24 Frame(CFA_Y, -1)
          CFI CFA_SP SP+6
          CFI CFA_Y Y+1
          CFI Block cfiCond555 Using cfiCommon0
          CFI (cfiCond555) Function programming
          CFI (cfiCond555) Conditional ??CrossCallReturnLabel_222, ??CrossCallReturnLabel_1
          CFI (cfiCond555) R24 Frame(CFA_Y, -1)
          CFI (cfiCond555) CFA_SP SP+6
          CFI (cfiCond555) CFA_Y Y+1
          CFI Block cfiCond556 Using cfiCommon0
          CFI (cfiCond556) Function programming
          CFI (cfiCond556) Conditional ??CrossCallReturnLabel_223, ??CrossCallReturnLabel_0
          CFI (cfiCond556) R24 Frame(CFA_Y, -1)
          CFI (cfiCond556) CFA_SP SP+6
          CFI (cfiCond556) CFA_Y Y+1
          CFI Block cfiCond557 Using cfiCommon0
          CFI (cfiCond557) Function programming
          CFI (cfiCond557) Conditional ??CrossCallReturnLabel_223, ??CrossCallReturnLabel_1
          CFI (cfiCond557) R24 Frame(CFA_Y, -1)
          CFI (cfiCond557) CFA_SP SP+6
          CFI (cfiCond557) CFA_Y Y+1
          CFI Block cfiPicker558 Using cfiCommon2
          CFI (cfiPicker558) NoFunction
          CFI (cfiPicker558) Picker
        RCALL   led_all
        LDI     R16, 255
        LDI     R17, 225
        LDI     R18, 4
        SUBI    R16, 1
        SBCI    R17, 0
        SBCI    R18, 0
        BRNE    $-6
        RJMP    $+2
        NOP
        RET
          CFI EndBlock cfiCond554
          CFI EndBlock cfiCond555
          CFI EndBlock cfiCond556
          CFI EndBlock cfiCond557
          CFI EndBlock cfiPicker558
//  410 //--------------------------------------------------------------------
//  411 

        RSEG CODE:CODE:NOROOT(1)
//  412 void writeCOD()
writeCOD:
          CFI Block cfiBlock559 Using cfiCommon0
          CFI Function writeCOD
//  413 {
        FUNCALL writeCOD, rprintfStr
        LOCFRAME CSTACK, 1, STACK
        LOCFRAME RSTACK, 2, STACK
        ARGFRAME RSTACK, 0, STACK
        FUNCALL writeCOD, led_all
        LOCFRAME CSTACK, 1, STACK
        LOCFRAME RSTACK, 2, STACK
        ARGFRAME RSTACK, 0, STACK
        FUNCALL writeCOD, getadr
        LOCFRAME CSTACK, 1, STACK
        LOCFRAME RSTACK, 2, STACK
        ARGFRAME RSTACK, 0, STACK
        FUNCALL writeCOD, led_all
        LOCFRAME CSTACK, 1, STACK
        LOCFRAME RSTACK, 2, STACK
        ARGFRAME RSTACK, 0, STACK
        FUNCALL writeCOD, rprintfStr
        LOCFRAME CSTACK, 1, STACK
        LOCFRAME RSTACK, 2, STACK
        ARGFRAME RSTACK, 0, STACK
        FUNCALL writeCOD, USART_SendChar
        LOCFRAME CSTACK, 1, STACK
        LOCFRAME RSTACK, 2, STACK
        ARGFRAME RSTACK, 0, STACK
        ST      -Y, R24
          CFI R24 Frame(CFA_Y, -1)
          CFI CFA_Y Y+1
//  414   rprintfStr("write ..");
        LDI     R16, LOW(`?<Constant "write ..">`)
        LDI     R17, (`?<Constant "write ..">`) >> 8
        RCALL   rprintfStr
//  415   led_all(1);delay_s(3);
        RCALL   ??Subroutine146_0
??CrossCallReturnLabel_358:
        LDI     R16, 255
        LDI     R17, 158
        LDI     R18, 36
        SUBI    R16, 1
        SBCI    R17, 0
        SBCI    R18, 0
        BRNE    $-6
        RJMP    $+2
        NOP
//  416   uchar adr=getadr();
        RCALL   getadr
        MOV     R24, R16
//  417   led_all(0);
        RCALL   ?Subroutine15
//  418   
//  419        
//  420        k[adr]=cod1; delay_ms(30);
??CrossCallReturnLabel_26:
        RCALL   ?Subroutine99
??CrossCallReturnLabel_166:
        RCALL   ?Subroutine86
??CrossCallReturnLabel_143:
        RCALL   ?Subroutine105
??CrossCallReturnLabel_199:
        RCALL   ?Subroutine101
??CrossCallReturnLabel_177:
        RCALL   ?Subroutine85
//  421        k[adr+1]=cod2; delay_ms(30);
??CrossCallReturnLabel_225:
        RCALL   ??Subroutine148_0
??CrossCallReturnLabel_380:
        RCALL   ?Subroutine101
??CrossCallReturnLabel_178:
        MOVW    R21:R20, R19:R18
        SUBI    R20, 254
        SBCI    R21, 255
        RCALL   ?Subroutine115
//  422        k[adr+2]=cod3; delay_ms(30);
??CrossCallReturnLabel_224:
        RCALL   ??Subroutine147_0
??CrossCallReturnLabel_371:
        RCALL   ?Subroutine101
??CrossCallReturnLabel_179:
        SUBI    R18, 252
        SBCI    R19, 255
        RCALL   ?Subroutine85
//  423        
//  424        rprintfStr("OK !   "); ent;
??CrossCallReturnLabel_226:
        LDI     R16, LOW(`?<Constant "OK !   ">`)
        LDI     R17, (`?<Constant "OK !   ">`) >> 8
        RCALL   ?Subroutine48
//  425    
//  426 }
??CrossCallReturnLabel_247:
        RJMP    ?Subroutine128
          CFI EndBlock cfiBlock559

        RSEG CODE:CODE:NOROOT(1)
?Subroutine99:
          CFI Block cfiCond560 Using cfiCommon0
          CFI Function PEREP
          CFI Conditional ??CrossCallReturnLabel_165
          CFI R24 Frame(CFA_Y, -8)
          CFI R25 Frame(CFA_Y, -7)
          CFI R26 Frame(CFA_Y, -6)
          CFI R27 Frame(CFA_Y, -5)
          CFI R4 Frame(CFA_Y, -4)
          CFI R5 Frame(CFA_Y, -3)
          CFI R6 Frame(CFA_Y, -2)
          CFI R7 Frame(CFA_Y, -1)
          CFI CFA_SP SP+4
          CFI CFA_Y Y+8
          CFI Block cfiCond561 Using cfiCommon0
          CFI (cfiCond561) Function PEREP
          CFI (cfiCond561) Conditional ??CrossCallReturnLabel_168, ??CrossCallReturnLabel_44
          CFI (cfiCond561) R24 Frame(CFA_Y, -8)
          CFI (cfiCond561) R25 Frame(CFA_Y, -7)
          CFI (cfiCond561) R26 Frame(CFA_Y, -6)
          CFI (cfiCond561) R27 Frame(CFA_Y, -5)
          CFI (cfiCond561) R4 Frame(CFA_Y, -4)
          CFI (cfiCond561) R5 Frame(CFA_Y, -3)
          CFI (cfiCond561) R6 Frame(CFA_Y, -2)
          CFI (cfiCond561) R7 Frame(CFA_Y, -1)
          CFI (cfiCond561) CFA_SP SP+6
          CFI (cfiCond561) CFA_Y Y+8
          CFI Block cfiCond562 Using cfiCommon0
          CFI (cfiCond562) Function PEREP
          CFI (cfiCond562) Conditional ??CrossCallReturnLabel_168, ??CrossCallReturnLabel_45
          CFI (cfiCond562) R24 Frame(CFA_Y, -8)
          CFI (cfiCond562) R25 Frame(CFA_Y, -7)
          CFI (cfiCond562) R26 Frame(CFA_Y, -6)
          CFI (cfiCond562) R27 Frame(CFA_Y, -5)
          CFI (cfiCond562) R4 Frame(CFA_Y, -4)
          CFI (cfiCond562) R5 Frame(CFA_Y, -3)
          CFI (cfiCond562) R6 Frame(CFA_Y, -2)
          CFI (cfiCond562) R7 Frame(CFA_Y, -1)
          CFI (cfiCond562) CFA_SP SP+6
          CFI (cfiCond562) CFA_Y Y+8
          CFI Block cfiCond563 Using cfiCommon0
          CFI (cfiCond563) Function writeCOD
          CFI (cfiCond563) Conditional ??CrossCallReturnLabel_166
          CFI (cfiCond563) R24 Frame(CFA_Y, -1)
          CFI (cfiCond563) CFA_SP SP+4
          CFI (cfiCond563) CFA_Y Y+1
          CFI Block cfiCond564 Using cfiCommon0
          CFI (cfiCond564) Function diag
          CFI (cfiCond564) Conditional ??CrossCallReturnLabel_167
          CFI (cfiCond564) R24 Frame(CFA_Y, -2)
          CFI (cfiCond564) R25 Frame(CFA_Y, -1)
          CFI (cfiCond564) CFA_SP SP+4
          CFI (cfiCond564) CFA_Y Y+2
          CFI Block cfiPicker565 Using cfiCommon2
          CFI (cfiPicker565) NoFunction
          CFI (cfiPicker565) Picker
        LDI     R16, 2
        MUL     R24, R16
        RET
          CFI EndBlock cfiCond560
          CFI EndBlock cfiCond561
          CFI EndBlock cfiCond562
          CFI EndBlock cfiCond563
          CFI EndBlock cfiCond564
          CFI EndBlock cfiPicker565

        RSEG CODE:CODE:NOROOT(1)
?Subroutine86:
          CFI Block cfiCond566 Using cfiCommon0
          CFI Function proverka
          CFI Conditional ??CrossCallReturnLabel_142
          CFI CFA_SP SP+4
          CFI Block cfiCond567 Using cfiCommon0
          CFI (cfiCond567) Function writeCOD
          CFI (cfiCond567) Conditional ??CrossCallReturnLabel_143
          CFI (cfiCond567) R24 Frame(CFA_Y, -1)
          CFI (cfiCond567) CFA_SP SP+4
          CFI (cfiCond567) CFA_Y Y+1
          CFI Block cfiPicker568 Using cfiCommon2
          CFI (cfiPicker568) NoFunction
          CFI (cfiPicker568) Picker
        LDI     R18, LOW(k)
        LDI     R19, (k) >> 8
        ADD     R18, R0
        ADC     R19, R1
        RET
          CFI EndBlock cfiCond566
          CFI EndBlock cfiCond567
          CFI EndBlock cfiPicker568

        RSEG CODE:CODE:NOROOT(1)
?Subroutine85:
          CFI Block cfiCond569 Using cfiCommon0
          CFI Function writeCOD
          CFI Conditional ??CrossCallReturnLabel_225
          CFI R24 Frame(CFA_Y, -1)
          CFI CFA_SP SP+4
          CFI CFA_Y Y+1
          CFI Block cfiCond570 Using cfiCommon0
          CFI (cfiCond570) Function writeCOD
          CFI (cfiCond570) Conditional ??CrossCallReturnLabel_226
          CFI (cfiCond570) R24 Frame(CFA_Y, -1)
          CFI (cfiCond570) CFA_SP SP+4
          CFI (cfiCond570) CFA_Y Y+1
          CFI Block cfiPicker571 Using cfiCommon2
          CFI (cfiPicker571) NoFunction
          CFI (cfiPicker571) Picker
        MOVW    R21:R20, R19:R18
          CFI EndBlock cfiCond569
          CFI EndBlock cfiCond570
          CFI EndBlock cfiPicker571
        REQUIRE ?Subroutine115
        ;               // Fall through to label ?Subroutine115

        RSEG CODE:CODE:NOROOT(1)
?Subroutine115:
          CFI Block cfiCond572 Using cfiCommon0
          CFI Function writeCOD
          CFI Conditional ??CrossCallReturnLabel_224
          CFI R24 Frame(CFA_Y, -1)
          CFI CFA_SP SP+4
          CFI CFA_Y Y+1
          CFI Block cfiCond573 Using cfiCommon0
          CFI (cfiCond573) Function writeCOD
          CFI (cfiCond573) Conditional ??CrossCallReturnLabel_225
          CFI (cfiCond573) R24 Frame(CFA_Y, -1)
          CFI (cfiCond573) CFA_SP SP+4
          CFI (cfiCond573) CFA_Y Y+1
          CFI Block cfiCond574 Using cfiCommon0
          CFI (cfiCond574) Function writeCOD
          CFI (cfiCond574) Conditional ??CrossCallReturnLabel_226
          CFI (cfiCond574) R24 Frame(CFA_Y, -1)
          CFI (cfiCond574) CFA_SP SP+4
          CFI (cfiCond574) CFA_Y Y+1
          CFI Block cfiPicker575 Using cfiCommon2
          CFI (cfiPicker575) NoFunction
          CFI (cfiPicker575) Picker
        RCALL   __eeput16_16
        LDI     R16, 47
        LDI     R17, 117
        SUBI    R16, 1
        SBCI    R17, 0
        BRNE    $-4
        RJMP    $+2
        NOP
        RET
          CFI EndBlock cfiCond572
          CFI EndBlock cfiCond573
          CFI EndBlock cfiCond574
          CFI EndBlock cfiPicker575

        RSEG CODE:CODE:NOROOT(1)
?Subroutine46:
          CFI Block cfiCond576 Using cfiCommon0
          CFI Function PEREP
          CFI Conditional ??CrossCallReturnLabel_365
          CFI R24 Frame(CFA_Y, -8)
          CFI R25 Frame(CFA_Y, -7)
          CFI R26 Frame(CFA_Y, -6)
          CFI R27 Frame(CFA_Y, -5)
          CFI R4 Frame(CFA_Y, -4)
          CFI R5 Frame(CFA_Y, -3)
          CFI R6 Frame(CFA_Y, -2)
          CFI R7 Frame(CFA_Y, -1)
          CFI CFA_SP SP+4
          CFI CFA_Y Y+8
          CFI Block cfiCond577 Using cfiCommon0
          CFI (cfiCond577) Function coding
          CFI (cfiCond577) Conditional ??CrossCallReturnLabel_366
          CFI (cfiCond577) R24 Frame(CFA_Y, -10)
          CFI (cfiCond577) R25 Frame(CFA_Y, -9)
          CFI (cfiCond577) R26 Frame(CFA_Y, -8)
          CFI (cfiCond577) R27 Frame(CFA_Y, -7)
          CFI (cfiCond577) R4 Frame(CFA_Y, -6)
          CFI (cfiCond577) R5 Frame(CFA_Y, -5)
          CFI (cfiCond577) R6 Frame(CFA_Y, -4)
          CFI (cfiCond577) R7 Frame(CFA_Y, -3)
          CFI (cfiCond577) R8 Frame(CFA_Y, -2)
          CFI (cfiCond577) R9 Frame(CFA_Y, -1)
          CFI (cfiCond577) CFA_SP SP+4
          CFI (cfiCond577) CFA_Y Y+10
          CFI Block cfiPicker578 Using cfiCommon2
          CFI (cfiPicker578) NoFunction
          CFI (cfiPicker578) Picker
        RCALL   rprintfStr
          CFI EndBlock cfiCond576
          CFI EndBlock cfiCond577
          CFI EndBlock cfiPicker578
        REQUIRE ??Subroutine147_0
        ;               // Fall through to label ??Subroutine147_0

        RSEG CODE:CODE:NOROOT(1)
??Subroutine147_0:
          CFI Block cfiCond579 Using cfiCommon0
          CFI Function coding
          CFI Conditional ??CrossCallReturnLabel_367
          CFI R24 Frame(CFA_Y, -10)
          CFI R25 Frame(CFA_Y, -9)
          CFI R26 Frame(CFA_Y, -8)
          CFI R27 Frame(CFA_Y, -7)
          CFI R4 Frame(CFA_Y, -6)
          CFI R5 Frame(CFA_Y, -5)
          CFI R6 Frame(CFA_Y, -4)
          CFI R7 Frame(CFA_Y, -3)
          CFI R8 Frame(CFA_Y, -2)
          CFI R9 Frame(CFA_Y, -1)
          CFI CFA_SP SP+4
          CFI CFA_Y Y+10
          CFI Block cfiCond580 Using cfiCommon0
          CFI (cfiCond580) Function coding
          CFI (cfiCond580) Conditional ??CrossCallReturnLabel_368
          CFI (cfiCond580) R24 Frame(CFA_Y, -10)
          CFI (cfiCond580) R25 Frame(CFA_Y, -9)
          CFI (cfiCond580) R26 Frame(CFA_Y, -8)
          CFI (cfiCond580) R27 Frame(CFA_Y, -7)
          CFI (cfiCond580) R4 Frame(CFA_Y, -6)
          CFI (cfiCond580) R5 Frame(CFA_Y, -5)
          CFI (cfiCond580) R6 Frame(CFA_Y, -4)
          CFI (cfiCond580) R7 Frame(CFA_Y, -3)
          CFI (cfiCond580) R8 Frame(CFA_Y, -2)
          CFI (cfiCond580) R9 Frame(CFA_Y, -1)
          CFI (cfiCond580) CFA_SP SP+4
          CFI (cfiCond580) CFA_Y Y+10
          CFI Block cfiCond581 Using cfiCommon0
          CFI (cfiCond581) Function coding
          CFI (cfiCond581) Conditional ??CrossCallReturnLabel_369
          CFI (cfiCond581) R24 Frame(CFA_Y, -10)
          CFI (cfiCond581) R25 Frame(CFA_Y, -9)
          CFI (cfiCond581) R26 Frame(CFA_Y, -8)
          CFI (cfiCond581) R27 Frame(CFA_Y, -7)
          CFI (cfiCond581) R4 Frame(CFA_Y, -6)
          CFI (cfiCond581) R5 Frame(CFA_Y, -5)
          CFI (cfiCond581) R6 Frame(CFA_Y, -4)
          CFI (cfiCond581) R7 Frame(CFA_Y, -3)
          CFI (cfiCond581) R8 Frame(CFA_Y, -2)
          CFI (cfiCond581) R9 Frame(CFA_Y, -1)
          CFI (cfiCond581) CFA_SP SP+4
          CFI (cfiCond581) CFA_Y Y+10
          CFI Block cfiCond582 Using cfiCommon0
          CFI (cfiCond582) Function coding
          CFI (cfiCond582) Conditional ??CrossCallReturnLabel_370
          CFI (cfiCond582) R24 Frame(CFA_Y, -10)
          CFI (cfiCond582) R25 Frame(CFA_Y, -9)
          CFI (cfiCond582) R26 Frame(CFA_Y, -8)
          CFI (cfiCond582) R27 Frame(CFA_Y, -7)
          CFI (cfiCond582) R4 Frame(CFA_Y, -6)
          CFI (cfiCond582) R5 Frame(CFA_Y, -5)
          CFI (cfiCond582) R6 Frame(CFA_Y, -4)
          CFI (cfiCond582) R7 Frame(CFA_Y, -3)
          CFI (cfiCond582) R8 Frame(CFA_Y, -2)
          CFI (cfiCond582) R9 Frame(CFA_Y, -1)
          CFI (cfiCond582) CFA_SP SP+4
          CFI (cfiCond582) CFA_Y Y+10
          CFI Block cfiCond583 Using cfiCommon0
          CFI (cfiCond583) Function writeCOD
          CFI (cfiCond583) Conditional ??CrossCallReturnLabel_371
          CFI (cfiCond583) R24 Frame(CFA_Y, -1)
          CFI (cfiCond583) CFA_SP SP+4
          CFI (cfiCond583) CFA_Y Y+1
          CFI Block cfiCond584 Using cfiCommon0
          CFI (cfiCond584) Function PEREP
          CFI (cfiCond584) Conditional ??CrossCallReturnLabel_365
          CFI (cfiCond584) R24 Frame(CFA_Y, -8)
          CFI (cfiCond584) R25 Frame(CFA_Y, -7)
          CFI (cfiCond584) R26 Frame(CFA_Y, -6)
          CFI (cfiCond584) R27 Frame(CFA_Y, -5)
          CFI (cfiCond584) R4 Frame(CFA_Y, -4)
          CFI (cfiCond584) R5 Frame(CFA_Y, -3)
          CFI (cfiCond584) R6 Frame(CFA_Y, -2)
          CFI (cfiCond584) R7 Frame(CFA_Y, -1)
          CFI (cfiCond584) CFA_SP SP+4
          CFI (cfiCond584) CFA_Y Y+8
          CFI Block cfiCond585 Using cfiCommon0
          CFI (cfiCond585) Function coding
          CFI (cfiCond585) Conditional ??CrossCallReturnLabel_366
          CFI (cfiCond585) R24 Frame(CFA_Y, -10)
          CFI (cfiCond585) R25 Frame(CFA_Y, -9)
          CFI (cfiCond585) R26 Frame(CFA_Y, -8)
          CFI (cfiCond585) R27 Frame(CFA_Y, -7)
          CFI (cfiCond585) R4 Frame(CFA_Y, -6)
          CFI (cfiCond585) R5 Frame(CFA_Y, -5)
          CFI (cfiCond585) R6 Frame(CFA_Y, -4)
          CFI (cfiCond585) R7 Frame(CFA_Y, -3)
          CFI (cfiCond585) R8 Frame(CFA_Y, -2)
          CFI (cfiCond585) R9 Frame(CFA_Y, -1)
          CFI (cfiCond585) CFA_SP SP+4
          CFI (cfiCond585) CFA_Y Y+10
          CFI Block cfiPicker586 Using cfiCommon2
          CFI (cfiPicker586) NoFunction
          CFI (cfiPicker586) Picker
        LDI     R30, LOW(cod3)
        LDI     R31, (cod3) >> 8
        RET
          CFI EndBlock cfiCond579
          CFI EndBlock cfiCond580
          CFI EndBlock cfiCond581
          CFI EndBlock cfiCond582
          CFI EndBlock cfiCond583
          CFI EndBlock cfiCond584
          CFI EndBlock cfiCond585
          CFI EndBlock cfiPicker586

        RSEG CODE:CODE:NOROOT(1)
?Subroutine44:
          CFI Block cfiCond587 Using cfiCommon0
          CFI Function PEREP
          CFI Conditional ??CrossCallReturnLabel_372
          CFI R24 Frame(CFA_Y, -8)
          CFI R25 Frame(CFA_Y, -7)
          CFI R26 Frame(CFA_Y, -6)
          CFI R27 Frame(CFA_Y, -5)
          CFI R4 Frame(CFA_Y, -4)
          CFI R5 Frame(CFA_Y, -3)
          CFI R6 Frame(CFA_Y, -2)
          CFI R7 Frame(CFA_Y, -1)
          CFI CFA_SP SP+4
          CFI CFA_Y Y+8
          CFI Block cfiCond588 Using cfiCommon0
          CFI (cfiCond588) Function coding
          CFI (cfiCond588) Conditional ??CrossCallReturnLabel_373
          CFI (cfiCond588) R24 Frame(CFA_Y, -10)
          CFI (cfiCond588) R25 Frame(CFA_Y, -9)
          CFI (cfiCond588) R26 Frame(CFA_Y, -8)
          CFI (cfiCond588) R27 Frame(CFA_Y, -7)
          CFI (cfiCond588) R4 Frame(CFA_Y, -6)
          CFI (cfiCond588) R5 Frame(CFA_Y, -5)
          CFI (cfiCond588) R6 Frame(CFA_Y, -4)
          CFI (cfiCond588) R7 Frame(CFA_Y, -3)
          CFI (cfiCond588) R8 Frame(CFA_Y, -2)
          CFI (cfiCond588) R9 Frame(CFA_Y, -1)
          CFI (cfiCond588) CFA_SP SP+4
          CFI (cfiCond588) CFA_Y Y+10
          CFI Block cfiPicker589 Using cfiCommon2
          CFI (cfiPicker589) NoFunction
          CFI (cfiPicker589) Picker
        RCALL   rprintfStr
          CFI EndBlock cfiCond587
          CFI EndBlock cfiCond588
          CFI EndBlock cfiPicker589
        REQUIRE ??Subroutine148_0
        ;               // Fall through to label ??Subroutine148_0

        RSEG CODE:CODE:NOROOT(1)
??Subroutine148_0:
          CFI Block cfiCond590 Using cfiCommon0
          CFI Function coding
          CFI Conditional ??CrossCallReturnLabel_374
          CFI R24 Frame(CFA_Y, -10)
          CFI R25 Frame(CFA_Y, -9)
          CFI R26 Frame(CFA_Y, -8)
          CFI R27 Frame(CFA_Y, -7)
          CFI R4 Frame(CFA_Y, -6)
          CFI R5 Frame(CFA_Y, -5)
          CFI R6 Frame(CFA_Y, -4)
          CFI R7 Frame(CFA_Y, -3)
          CFI R8 Frame(CFA_Y, -2)
          CFI R9 Frame(CFA_Y, -1)
          CFI CFA_SP SP+4
          CFI CFA_Y Y+10
          CFI Block cfiCond591 Using cfiCommon0
          CFI (cfiCond591) Function coding
          CFI (cfiCond591) Conditional ??CrossCallReturnLabel_375
          CFI (cfiCond591) R24 Frame(CFA_Y, -10)
          CFI (cfiCond591) R25 Frame(CFA_Y, -9)
          CFI (cfiCond591) R26 Frame(CFA_Y, -8)
          CFI (cfiCond591) R27 Frame(CFA_Y, -7)
          CFI (cfiCond591) R4 Frame(CFA_Y, -6)
          CFI (cfiCond591) R5 Frame(CFA_Y, -5)
          CFI (cfiCond591) R6 Frame(CFA_Y, -4)
          CFI (cfiCond591) R7 Frame(CFA_Y, -3)
          CFI (cfiCond591) R8 Frame(CFA_Y, -2)
          CFI (cfiCond591) R9 Frame(CFA_Y, -1)
          CFI (cfiCond591) CFA_SP SP+4
          CFI (cfiCond591) CFA_Y Y+10
          CFI Block cfiCond592 Using cfiCommon0
          CFI (cfiCond592) Function coding
          CFI (cfiCond592) Conditional ??CrossCallReturnLabel_376
          CFI (cfiCond592) R24 Frame(CFA_Y, -10)
          CFI (cfiCond592) R25 Frame(CFA_Y, -9)
          CFI (cfiCond592) R26 Frame(CFA_Y, -8)
          CFI (cfiCond592) R27 Frame(CFA_Y, -7)
          CFI (cfiCond592) R4 Frame(CFA_Y, -6)
          CFI (cfiCond592) R5 Frame(CFA_Y, -5)
          CFI (cfiCond592) R6 Frame(CFA_Y, -4)
          CFI (cfiCond592) R7 Frame(CFA_Y, -3)
          CFI (cfiCond592) R8 Frame(CFA_Y, -2)
          CFI (cfiCond592) R9 Frame(CFA_Y, -1)
          CFI (cfiCond592) CFA_SP SP+4
          CFI (cfiCond592) CFA_Y Y+10
          CFI Block cfiCond593 Using cfiCommon0
          CFI (cfiCond593) Function coding
          CFI (cfiCond593) Conditional ??CrossCallReturnLabel_377
          CFI (cfiCond593) R24 Frame(CFA_Y, -10)
          CFI (cfiCond593) R25 Frame(CFA_Y, -9)
          CFI (cfiCond593) R26 Frame(CFA_Y, -8)
          CFI (cfiCond593) R27 Frame(CFA_Y, -7)
          CFI (cfiCond593) R4 Frame(CFA_Y, -6)
          CFI (cfiCond593) R5 Frame(CFA_Y, -5)
          CFI (cfiCond593) R6 Frame(CFA_Y, -4)
          CFI (cfiCond593) R7 Frame(CFA_Y, -3)
          CFI (cfiCond593) R8 Frame(CFA_Y, -2)
          CFI (cfiCond593) R9 Frame(CFA_Y, -1)
          CFI (cfiCond593) CFA_SP SP+4
          CFI (cfiCond593) CFA_Y Y+10
          CFI Block cfiCond594 Using cfiCommon0
          CFI (cfiCond594) Function coding
          CFI (cfiCond594) Conditional ??CrossCallReturnLabel_378
          CFI (cfiCond594) R24 Frame(CFA_Y, -10)
          CFI (cfiCond594) R25 Frame(CFA_Y, -9)
          CFI (cfiCond594) R26 Frame(CFA_Y, -8)
          CFI (cfiCond594) R27 Frame(CFA_Y, -7)
          CFI (cfiCond594) R4 Frame(CFA_Y, -6)
          CFI (cfiCond594) R5 Frame(CFA_Y, -5)
          CFI (cfiCond594) R6 Frame(CFA_Y, -4)
          CFI (cfiCond594) R7 Frame(CFA_Y, -3)
          CFI (cfiCond594) R8 Frame(CFA_Y, -2)
          CFI (cfiCond594) R9 Frame(CFA_Y, -1)
          CFI (cfiCond594) CFA_SP SP+4
          CFI (cfiCond594) CFA_Y Y+10
          CFI Block cfiCond595 Using cfiCommon0
          CFI (cfiCond595) Function coding
          CFI (cfiCond595) Conditional ??CrossCallReturnLabel_379
          CFI (cfiCond595) R24 Frame(CFA_Y, -10)
          CFI (cfiCond595) R25 Frame(CFA_Y, -9)
          CFI (cfiCond595) R26 Frame(CFA_Y, -8)
          CFI (cfiCond595) R27 Frame(CFA_Y, -7)
          CFI (cfiCond595) R4 Frame(CFA_Y, -6)
          CFI (cfiCond595) R5 Frame(CFA_Y, -5)
          CFI (cfiCond595) R6 Frame(CFA_Y, -4)
          CFI (cfiCond595) R7 Frame(CFA_Y, -3)
          CFI (cfiCond595) R8 Frame(CFA_Y, -2)
          CFI (cfiCond595) R9 Frame(CFA_Y, -1)
          CFI (cfiCond595) CFA_SP SP+4
          CFI (cfiCond595) CFA_Y Y+10
          CFI Block cfiCond596 Using cfiCommon0
          CFI (cfiCond596) Function writeCOD
          CFI (cfiCond596) Conditional ??CrossCallReturnLabel_380
          CFI (cfiCond596) R24 Frame(CFA_Y, -1)
          CFI (cfiCond596) CFA_SP SP+4
          CFI (cfiCond596) CFA_Y Y+1
          CFI Block cfiCond597 Using cfiCommon0
          CFI (cfiCond597) Function PEREP
          CFI (cfiCond597) Conditional ??CrossCallReturnLabel_372
          CFI (cfiCond597) R24 Frame(CFA_Y, -8)
          CFI (cfiCond597) R25 Frame(CFA_Y, -7)
          CFI (cfiCond597) R26 Frame(CFA_Y, -6)
          CFI (cfiCond597) R27 Frame(CFA_Y, -5)
          CFI (cfiCond597) R4 Frame(CFA_Y, -4)
          CFI (cfiCond597) R5 Frame(CFA_Y, -3)
          CFI (cfiCond597) R6 Frame(CFA_Y, -2)
          CFI (cfiCond597) R7 Frame(CFA_Y, -1)
          CFI (cfiCond597) CFA_SP SP+4
          CFI (cfiCond597) CFA_Y Y+8
          CFI Block cfiCond598 Using cfiCommon0
          CFI (cfiCond598) Function coding
          CFI (cfiCond598) Conditional ??CrossCallReturnLabel_373
          CFI (cfiCond598) R24 Frame(CFA_Y, -10)
          CFI (cfiCond598) R25 Frame(CFA_Y, -9)
          CFI (cfiCond598) R26 Frame(CFA_Y, -8)
          CFI (cfiCond598) R27 Frame(CFA_Y, -7)
          CFI (cfiCond598) R4 Frame(CFA_Y, -6)
          CFI (cfiCond598) R5 Frame(CFA_Y, -5)
          CFI (cfiCond598) R6 Frame(CFA_Y, -4)
          CFI (cfiCond598) R7 Frame(CFA_Y, -3)
          CFI (cfiCond598) R8 Frame(CFA_Y, -2)
          CFI (cfiCond598) R9 Frame(CFA_Y, -1)
          CFI (cfiCond598) CFA_SP SP+4
          CFI (cfiCond598) CFA_Y Y+10
          CFI Block cfiPicker599 Using cfiCommon2
          CFI (cfiPicker599) NoFunction
          CFI (cfiPicker599) Picker
        LDI     R30, LOW(cod2)
        LDI     R31, (cod2) >> 8
        RET
          CFI EndBlock cfiCond590
          CFI EndBlock cfiCond591
          CFI EndBlock cfiCond592
          CFI EndBlock cfiCond593
          CFI EndBlock cfiCond594
          CFI EndBlock cfiCond595
          CFI EndBlock cfiCond596
          CFI EndBlock cfiCond597
          CFI EndBlock cfiCond598
          CFI EndBlock cfiPicker599

        RSEG CODE:CODE:NOROOT(1)
?Subroutine105:
          CFI Block cfiCond600 Using cfiCommon0
          CFI Function PEREP
          CFI Conditional ??CrossCallReturnLabel_201, ??CrossCallReturnLabel_308
          CFI R24 Frame(CFA_Y, -8)
          CFI R25 Frame(CFA_Y, -7)
          CFI R26 Frame(CFA_Y, -6)
          CFI R27 Frame(CFA_Y, -5)
          CFI R4 Frame(CFA_Y, -4)
          CFI R5 Frame(CFA_Y, -3)
          CFI R6 Frame(CFA_Y, -2)
          CFI R7 Frame(CFA_Y, -1)
          CFI CFA_SP SP+6
          CFI CFA_Y Y+8
          CFI Block cfiCond601 Using cfiCommon0
          CFI (cfiCond601) Function coding
          CFI (cfiCond601) Conditional ??CrossCallReturnLabel_201, ??CrossCallReturnLabel_307
          CFI (cfiCond601) R24 Frame(CFA_Y, -10)
          CFI (cfiCond601) R25 Frame(CFA_Y, -9)
          CFI (cfiCond601) R26 Frame(CFA_Y, -8)
          CFI (cfiCond601) R27 Frame(CFA_Y, -7)
          CFI (cfiCond601) R4 Frame(CFA_Y, -6)
          CFI (cfiCond601) R5 Frame(CFA_Y, -5)
          CFI (cfiCond601) R6 Frame(CFA_Y, -4)
          CFI (cfiCond601) R7 Frame(CFA_Y, -3)
          CFI (cfiCond601) R8 Frame(CFA_Y, -2)
          CFI (cfiCond601) R9 Frame(CFA_Y, -1)
          CFI (cfiCond601) CFA_SP SP+6
          CFI (cfiCond601) CFA_Y Y+10
          CFI Block cfiCond602 Using cfiCommon0
          CFI (cfiCond602) Function PEREP
          CFI (cfiCond602) Conditional ??CrossCallReturnLabel_200, ??CrossCallReturnLabel_23
          CFI (cfiCond602) R24 Frame(CFA_Y, -8)
          CFI (cfiCond602) R25 Frame(CFA_Y, -7)
          CFI (cfiCond602) R26 Frame(CFA_Y, -6)
          CFI (cfiCond602) R27 Frame(CFA_Y, -5)
          CFI (cfiCond602) R4 Frame(CFA_Y, -4)
          CFI (cfiCond602) R5 Frame(CFA_Y, -3)
          CFI (cfiCond602) R6 Frame(CFA_Y, -2)
          CFI (cfiCond602) R7 Frame(CFA_Y, -1)
          CFI (cfiCond602) CFA_SP SP+6
          CFI (cfiCond602) CFA_Y Y+8
          CFI Block cfiCond603 Using cfiCommon0
          CFI (cfiCond603) Function main
          CFI (cfiCond603) Conditional ??CrossCallReturnLabel_200, ??CrossCallReturnLabel_22
          CFI (cfiCond603) R24 Frame(CFA_Y, -1)
          CFI (cfiCond603) CFA_SP SP+6
          CFI (cfiCond603) CFA_Y Y+1
          CFI Block cfiCond604 Using cfiCommon0
          CFI (cfiCond604) Function coding
          CFI (cfiCond604) Conditional ??CrossCallReturnLabel_193
          CFI (cfiCond604) R24 Frame(CFA_Y, -10)
          CFI (cfiCond604) R25 Frame(CFA_Y, -9)
          CFI (cfiCond604) R26 Frame(CFA_Y, -8)
          CFI (cfiCond604) R27 Frame(CFA_Y, -7)
          CFI (cfiCond604) R4 Frame(CFA_Y, -6)
          CFI (cfiCond604) R5 Frame(CFA_Y, -5)
          CFI (cfiCond604) R6 Frame(CFA_Y, -4)
          CFI (cfiCond604) R7 Frame(CFA_Y, -3)
          CFI (cfiCond604) R8 Frame(CFA_Y, -2)
          CFI (cfiCond604) R9 Frame(CFA_Y, -1)
          CFI (cfiCond604) CFA_SP SP+4
          CFI (cfiCond604) CFA_Y Y+10
          CFI Block cfiCond605 Using cfiCommon0
          CFI (cfiCond605) Function coding
          CFI (cfiCond605) Conditional ??CrossCallReturnLabel_194
          CFI (cfiCond605) R24 Frame(CFA_Y, -10)
          CFI (cfiCond605) R25 Frame(CFA_Y, -9)
          CFI (cfiCond605) R26 Frame(CFA_Y, -8)
          CFI (cfiCond605) R27 Frame(CFA_Y, -7)
          CFI (cfiCond605) R4 Frame(CFA_Y, -6)
          CFI (cfiCond605) R5 Frame(CFA_Y, -5)
          CFI (cfiCond605) R6 Frame(CFA_Y, -4)
          CFI (cfiCond605) R7 Frame(CFA_Y, -3)
          CFI (cfiCond605) R8 Frame(CFA_Y, -2)
          CFI (cfiCond605) R9 Frame(CFA_Y, -1)
          CFI (cfiCond605) CFA_SP SP+4
          CFI (cfiCond605) CFA_Y Y+10
          CFI Block cfiCond606 Using cfiCommon0
          CFI (cfiCond606) Function coding
          CFI (cfiCond606) Conditional ??CrossCallReturnLabel_195
          CFI (cfiCond606) R24 Frame(CFA_Y, -10)
          CFI (cfiCond606) R25 Frame(CFA_Y, -9)
          CFI (cfiCond606) R26 Frame(CFA_Y, -8)
          CFI (cfiCond606) R27 Frame(CFA_Y, -7)
          CFI (cfiCond606) R4 Frame(CFA_Y, -6)
          CFI (cfiCond606) R5 Frame(CFA_Y, -5)
          CFI (cfiCond606) R6 Frame(CFA_Y, -4)
          CFI (cfiCond606) R7 Frame(CFA_Y, -3)
          CFI (cfiCond606) R8 Frame(CFA_Y, -2)
          CFI (cfiCond606) R9 Frame(CFA_Y, -1)
          CFI (cfiCond606) CFA_SP SP+4
          CFI (cfiCond606) CFA_Y Y+10
          CFI Block cfiCond607 Using cfiCommon0
          CFI (cfiCond607) Function coding
          CFI (cfiCond607) Conditional ??CrossCallReturnLabel_196
          CFI (cfiCond607) R24 Frame(CFA_Y, -10)
          CFI (cfiCond607) R25 Frame(CFA_Y, -9)
          CFI (cfiCond607) R26 Frame(CFA_Y, -8)
          CFI (cfiCond607) R27 Frame(CFA_Y, -7)
          CFI (cfiCond607) R4 Frame(CFA_Y, -6)
          CFI (cfiCond607) R5 Frame(CFA_Y, -5)
          CFI (cfiCond607) R6 Frame(CFA_Y, -4)
          CFI (cfiCond607) R7 Frame(CFA_Y, -3)
          CFI (cfiCond607) R8 Frame(CFA_Y, -2)
          CFI (cfiCond607) R9 Frame(CFA_Y, -1)
          CFI (cfiCond607) CFA_SP SP+4
          CFI (cfiCond607) CFA_Y Y+10
          CFI Block cfiCond608 Using cfiCommon0
          CFI (cfiCond608) Function coding
          CFI (cfiCond608) Conditional ??CrossCallReturnLabel_197
          CFI (cfiCond608) R24 Frame(CFA_Y, -10)
          CFI (cfiCond608) R25 Frame(CFA_Y, -9)
          CFI (cfiCond608) R26 Frame(CFA_Y, -8)
          CFI (cfiCond608) R27 Frame(CFA_Y, -7)
          CFI (cfiCond608) R4 Frame(CFA_Y, -6)
          CFI (cfiCond608) R5 Frame(CFA_Y, -5)
          CFI (cfiCond608) R6 Frame(CFA_Y, -4)
          CFI (cfiCond608) R7 Frame(CFA_Y, -3)
          CFI (cfiCond608) R8 Frame(CFA_Y, -2)
          CFI (cfiCond608) R9 Frame(CFA_Y, -1)
          CFI (cfiCond608) CFA_SP SP+4
          CFI (cfiCond608) CFA_Y Y+10
          CFI Block cfiCond609 Using cfiCommon0
          CFI (cfiCond609) Function coding
          CFI (cfiCond609) Conditional ??CrossCallReturnLabel_198
          CFI (cfiCond609) R24 Frame(CFA_Y, -10)
          CFI (cfiCond609) R25 Frame(CFA_Y, -9)
          CFI (cfiCond609) R26 Frame(CFA_Y, -8)
          CFI (cfiCond609) R27 Frame(CFA_Y, -7)
          CFI (cfiCond609) R4 Frame(CFA_Y, -6)
          CFI (cfiCond609) R5 Frame(CFA_Y, -5)
          CFI (cfiCond609) R6 Frame(CFA_Y, -4)
          CFI (cfiCond609) R7 Frame(CFA_Y, -3)
          CFI (cfiCond609) R8 Frame(CFA_Y, -2)
          CFI (cfiCond609) R9 Frame(CFA_Y, -1)
          CFI (cfiCond609) CFA_SP SP+4
          CFI (cfiCond609) CFA_Y Y+10
          CFI Block cfiCond610 Using cfiCommon0
          CFI (cfiCond610) Function writeCOD
          CFI (cfiCond610) Conditional ??CrossCallReturnLabel_199
          CFI (cfiCond610) R24 Frame(CFA_Y, -1)
          CFI (cfiCond610) CFA_SP SP+4
          CFI (cfiCond610) CFA_Y Y+1
          CFI Block cfiCond611 Using cfiCommon0
          CFI (cfiCond611) Function proverka
          CFI (cfiCond611) Conditional ??CrossCallReturnLabel_202, ??CrossCallReturnLabel_227
          CFI (cfiCond611) CFA_SP SP+6
          CFI Block cfiCond612 Using cfiCommon0
          CFI (cfiCond612) Function analizCOD
          CFI (cfiCond612) Conditional ??CrossCallReturnLabel_202, ??CrossCallReturnLabel_228
          CFI (cfiCond612) R24 Frame(CFA_Y, -2)
          CFI (cfiCond612) R25 Frame(CFA_Y, -1)
          CFI (cfiCond612) CFA_SP SP+6
          CFI (cfiCond612) CFA_Y Y+2
          CFI Block cfiPicker613 Using cfiCommon2
          CFI (cfiPicker613) NoFunction
          CFI (cfiPicker613) Picker
        LDI     R30, LOW(cod1)
        LDI     R31, (cod1) >> 8
        RET
          CFI EndBlock cfiCond600
          CFI EndBlock cfiCond601
          CFI EndBlock cfiCond602
          CFI EndBlock cfiCond603
          CFI EndBlock cfiCond604
          CFI EndBlock cfiCond605
          CFI EndBlock cfiCond606
          CFI EndBlock cfiCond607
          CFI EndBlock cfiCond608
          CFI EndBlock cfiCond609
          CFI EndBlock cfiCond610
          CFI EndBlock cfiCond611
          CFI EndBlock cfiCond612
          CFI EndBlock cfiPicker613
//  427 
//  428 
//  429 
//  430  

        RSEG CODE:CODE:NOROOT(1)
//  431 uchar analizCOD ()
analizCOD:
          CFI Block cfiBlock614 Using cfiCommon0
          CFI Function analizCOD
//  432 {
        RCALL   ?PROLOGUE2_L09
          CFI R25 Frame(CFA_Y, -1)
          CFI R24 Frame(CFA_Y, -2)
          CFI CFA_Y Y+2
//  433  uint i;
//  434   for (i=0; i<MAXEEP-4; i++) 
        LDI     R24, 0
        LDI     R25, 0
//  435   {
//  436    // if ((kbuf[i])==cod1)  if ((kbuf[i+1])==cod2) if ((kbuf[i+2])==cod3) return(i);
//  437     if ((k[i])==cod1)  if ((k[i+1])==cod2) if ((k[i+2])==cod3) return(i);   
??analizCOD_0:
        MOVW    R17:R16, R25:R24
        LSL     R16
        ROL     R17
        LDI     R18, LOW(k)
        LDI     R19, (k) >> 8
        ADD     R18, R16
        ADC     R19, R17
        RCALL   ?Subroutine39
??CrossCallReturnLabel_228:
        BRNE    ??analizCOD_1
        RCALL   ?Subroutine43
??CrossCallReturnLabel_53:
        BRNE    ??analizCOD_1
        RCALL   ?Subroutine45
??CrossCallReturnLabel_55:
        BRNE    ??analizCOD_1
        MOV     R16, R24
        RJMP    ??analizCOD_2
//  438   }
??analizCOD_1:
        ADIW    R25:R24, 1
        CPI     R24, 116
        LDI     R16, 0
        CPC     R25, R16
        BRCS    ??analizCOD_0
          CFI EndBlock cfiBlock614
//  439 
//  440 return(0);
??analizCOD_2:
        REQUIRE ?Subroutine135
        ;               // Fall through to label ?Subroutine135
//  441 }

        RSEG CODE:CODE:NOROOT(1)
?Subroutine135:
          CFI Block cfiBlock615 Using cfiCommon0
          CFI NoFunction
          CFI CFA_Y Y+2
          CFI R24 Frame(CFA_Y, -2)
          CFI R25 Frame(CFA_Y, -1)
        LDI     R30, 2
        RJMP    ?EPILOGUE_B2_L09
          CFI EndBlock cfiBlock615

        RSEG CODE:CODE:NOROOT(1)
?Subroutine45:
          CFI Block cfiCond616 Using cfiCommon0
          CFI Function proverka
          CFI Conditional ??CrossCallReturnLabel_54
          CFI CFA_SP SP+4
          CFI Block cfiCond617 Using cfiCommon0
          CFI (cfiCond617) Function analizCOD
          CFI (cfiCond617) Conditional ??CrossCallReturnLabel_55
          CFI (cfiCond617) R24 Frame(CFA_Y, -2)
          CFI (cfiCond617) R25 Frame(CFA_Y, -1)
          CFI (cfiCond617) CFA_SP SP+4
          CFI (cfiCond617) CFA_Y Y+2
          CFI Block cfiPicker618 Using cfiCommon2
          CFI (cfiPicker618) NoFunction
          CFI (cfiPicker618) Picker
        SUBI    R18, 252
        SBCI    R19, 255
        MOVW    R21:R20, R19:R18
        RCALL   __eeget16_16
        LDI     R30, LOW(cod3)
        LDI     R31, (cod3) >> 8
        LD      R18, Z
        LDD     R19, Z+1
        CP      R16, R18
        CPC     R17, R19
        RET
          CFI EndBlock cfiCond616
          CFI EndBlock cfiCond617
          CFI EndBlock cfiPicker618

        RSEG CODE:CODE:NOROOT(1)
?Subroutine43:
          CFI Block cfiCond619 Using cfiCommon0
          CFI Function proverka
          CFI Conditional ??CrossCallReturnLabel_52
          CFI CFA_SP SP+4
          CFI Block cfiCond620 Using cfiCommon0
          CFI (cfiCond620) Function analizCOD
          CFI (cfiCond620) Conditional ??CrossCallReturnLabel_53
          CFI (cfiCond620) R24 Frame(CFA_Y, -2)
          CFI (cfiCond620) R25 Frame(CFA_Y, -1)
          CFI (cfiCond620) CFA_SP SP+4
          CFI (cfiCond620) CFA_Y Y+2
          CFI Block cfiPicker621 Using cfiCommon2
          CFI (cfiPicker621) NoFunction
          CFI (cfiPicker621) Picker
        MOVW    R21:R20, R19:R18
        SUBI    R20, 254
        SBCI    R21, 255
        RCALL   __eeget16_16
        LDI     R30, LOW(cod2)
        LDI     R31, (cod2) >> 8
        RJMP    ?Subroutine116
          CFI EndBlock cfiCond619
          CFI EndBlock cfiCond620
          CFI EndBlock cfiPicker621

        RSEG CODE:CODE:NOROOT(1)
?Subroutine39:
          CFI Block cfiCond622 Using cfiCommon0
          CFI Function proverka
          CFI Conditional ??CrossCallReturnLabel_227
          CFI CFA_SP SP+4
          CFI Block cfiCond623 Using cfiCommon0
          CFI (cfiCond623) Function analizCOD
          CFI (cfiCond623) Conditional ??CrossCallReturnLabel_228
          CFI (cfiCond623) R24 Frame(CFA_Y, -2)
          CFI (cfiCond623) R25 Frame(CFA_Y, -1)
          CFI (cfiCond623) CFA_SP SP+4
          CFI (cfiCond623) CFA_Y Y+2
          CFI Block cfiPicker624 Using cfiCommon2
          CFI (cfiPicker624) NoFunction
          CFI (cfiPicker624) Picker
        MOVW    R21:R20, R19:R18
        RCALL   __eeget16_16
        RCALL   ?Subroutine105
          CFI EndBlock cfiCond622
          CFI EndBlock cfiCond623
          CFI EndBlock cfiPicker624
??CrossCallReturnLabel_202:
        REQUIRE ?Subroutine116
        ;               // Fall through to label ?Subroutine116

        RSEG CODE:CODE:NOROOT(1)
?Subroutine116:
          CFI Block cfiCond625 Using cfiCommon0
          CFI Function proverka
          CFI Conditional ??CrossCallReturnLabel_52
          CFI CFA_SP SP+4
          CFI Block cfiCond626 Using cfiCommon0
          CFI (cfiCond626) Function analizCOD
          CFI (cfiCond626) Conditional ??CrossCallReturnLabel_53
          CFI (cfiCond626) R24 Frame(CFA_Y, -2)
          CFI (cfiCond626) R25 Frame(CFA_Y, -1)
          CFI (cfiCond626) CFA_SP SP+4
          CFI (cfiCond626) CFA_Y Y+2
          CFI Block cfiCond627 Using cfiCommon0
          CFI (cfiCond627) Function proverka
          CFI (cfiCond627) Conditional ??CrossCallReturnLabel_227
          CFI (cfiCond627) CFA_SP SP+4
          CFI Block cfiCond628 Using cfiCommon0
          CFI (cfiCond628) Function analizCOD
          CFI (cfiCond628) Conditional ??CrossCallReturnLabel_228
          CFI (cfiCond628) R24 Frame(CFA_Y, -2)
          CFI (cfiCond628) R25 Frame(CFA_Y, -1)
          CFI (cfiCond628) CFA_SP SP+4
          CFI (cfiCond628) CFA_Y Y+2
          CFI Block cfiPicker629 Using cfiCommon2
          CFI (cfiPicker629) NoFunction
          CFI (cfiPicker629) Picker
        LD      R20, Z
        LDD     R21, Z+1
        CP      R16, R20
        CPC     R17, R21
        RET
          CFI EndBlock cfiCond625
          CFI EndBlock cfiCond626
          CFI EndBlock cfiCond627
          CFI EndBlock cfiCond628
          CFI EndBlock cfiPicker629
//  442 
//  443 
//  444 

        RSEG CODE:CODE:NOROOT(1)
//  445 void resled(void)
resled:
          CFI Block cfiBlock630 Using cfiCommon0
          CFI Function resled
//  446 {
//  447   RES(PORTB,0);RES(PORTB,1);RES(PORTB,2);RES(PORTB,3); if (mode==0)RES(PORTB,4);
        RCALL   ?Subroutine87
??CrossCallReturnLabel_144:
        RCALL   ?Subroutine71
??CrossCallReturnLabel_273:
        BRNE    ??resled_0
        CBI     0x18, 0x04
//  448 }
??resled_0:
        RET
          CFI EndBlock cfiBlock630
        REQUIRE _A_PORTB

        RSEG CODE:CODE:NOROOT(1)
?Subroutine71:
          CFI Block cfiCond631 Using cfiCommon0
          CFI Function main
          CFI Conditional ??CrossCallReturnLabel_271
          CFI R24 Frame(CFA_Y, -1)
          CFI CFA_SP SP+4
          CFI CFA_Y Y+1
          CFI Block cfiCond632 Using cfiCommon0
          CFI (cfiCond632) Function source
          CFI (cfiCond632) Conditional ??CrossCallReturnLabel_272
          CFI (cfiCond632) CFA_SP SP+4
          CFI Block cfiCond633 Using cfiCommon0
          CFI (cfiCond633) Function resled
          CFI (cfiCond633) Conditional ??CrossCallReturnLabel_273
          CFI (cfiCond633) CFA_SP SP+4
          CFI Block cfiCond634 Using cfiCommon0
          CFI (cfiCond634) Function resOUT
          CFI (cfiCond634) Conditional ??CrossCallReturnLabel_274
          CFI (cfiCond634) CFA_SP SP+4
          CFI Block cfiPicker635 Using cfiCommon2
          CFI (cfiPicker635) NoFunction
          CFI (cfiPicker635) Picker
        LDS     R16, ??mode
        RJMP    ?Subroutine129
          CFI EndBlock cfiCond631
          CFI EndBlock cfiCond632
          CFI EndBlock cfiCond633
          CFI EndBlock cfiCond634
          CFI EndBlock cfiPicker635
//  449 
//  450 

        RSEG CODE:CODE:NOROOT(1)
//  451 void resOUT(void)
resOUT:
          CFI Block cfiBlock636 Using cfiCommon0
          CFI Function resOUT
//  452 {
//  453   RES(PORTC,1);RES(PORTC,2);RES(PORTC,3);RES(PORTC,4); if (mode==0)RES(PORTC,5);
        CBI     0x15, 0x01
        CBI     0x15, 0x02
        CBI     0x15, 0x03
        CBI     0x15, 0x04
        RCALL   ?Subroutine71
??CrossCallReturnLabel_274:
        BRNE    ??resOUT_0
        CBI     0x15, 0x05
          CFI EndBlock cfiBlock636
//  454   p2;//что бы не было перекрытия источников
??resOUT_0:
        REQUIRE ?Subroutine76
        REQUIRE _A_PORTC
        ;               // Fall through to label ?Subroutine76
//  455 }

        RSEG CODE:CODE:NOROOT(1)
?Subroutine76:
          CFI Block cfiCond637 Using cfiCommon0
          CFI Function main_logic
          CFI Conditional ??CrossCallReturnLabel_104
          CFI CFA_SP SP+4
          CFI Block cfiCond638 Using cfiCommon0
          CFI (cfiCond638) Function main_logic
          CFI (cfiCond638) Conditional ??CrossCallReturnLabel_105
          CFI (cfiCond638) CFA_SP SP+4
          CFI Block cfiCond639 Using cfiCommon0
          CFI (cfiCond639) Function main_logic
          CFI (cfiCond639) Conditional ??CrossCallReturnLabel_106
          CFI (cfiCond639) CFA_SP SP+4
          CFI Block cfiBlock640 Using cfiCommon0
          CFI (cfiBlock640) NoFunction
          CFI Block cfiPicker641 Using cfiCommon2
          CFI (cfiPicker641) NoFunction
          CFI (cfiPicker641) Picker
        LDI     R16, 255
        LDI     R17, 112
        LDI     R18, 2
        SUBI    R16, 1
        SBCI    R17, 0
        SBCI    R18, 0
        BRNE    $-6
        RJMP    $+2
        NOP
        RET
          CFI EndBlock cfiCond637
          CFI EndBlock cfiCond638
          CFI EndBlock cfiCond639
          CFI EndBlock cfiBlock640
          CFI EndBlock cfiPicker641
//  456 
//  457 
//  458  

        RSEG CODE:CODE:NOROOT(1)
//  459 void led_all(bool a)
led_all:
          CFI Block cfiBlock642 Using cfiCommon0
          CFI Function led_all
//  460 {
//  461  if (a)
        TST     R16
        BREQ    ??led_all_0
//  462  {
//  463    SET(PORTB,0);SET(PORTB,1);SET(PORTB,2);SET(PORTB,3);SET(PORTB,4);SET(PORTB,5);
        SBI     0x18, 0x00
        SBI     0x18, 0x01
        SBI     0x18, 0x02
        SBI     0x18, 0x03
        SBI     0x18, 0x04
        SBI     0x18, 0x05
//  464    /*AC_ON; */SET(PORTD,7);
        SBI     0x12, 0x07
        RET
//  465  }
//  466  else
//  467   {
//  468    RES(PORTB,0);RES(PORTB,1);RES(PORTB,2);RES(PORTB,3);RES(PORTB,4);RES(PORTB,5);
??led_all_0:
        RCALL   ?Subroutine87
??CrossCallReturnLabel_145:
        CBI     0x18, 0x04
        CBI     0x18, 0x05
//  469    AC_OFF; RES(PORTD,7);
        CBI     0x12, 0x06
        CBI     0x12, 0x07
//  470  } 
//  471 }
        RET
          CFI EndBlock cfiBlock642
        REQUIRE _A_PORTB
        REQUIRE _A_PORTD

        RSEG CODE:CODE:NOROOT(1)
?Subroutine87:
          CFI Block cfiCond643 Using cfiCommon0
          CFI Function resled
          CFI Conditional ??CrossCallReturnLabel_144
          CFI CFA_SP SP+4
          CFI Block cfiCond644 Using cfiCommon0
          CFI (cfiCond644) Function led_all
          CFI (cfiCond644) Conditional ??CrossCallReturnLabel_145
          CFI (cfiCond644) CFA_SP SP+4
          CFI Block cfiPicker645 Using cfiCommon2
          CFI (cfiPicker645) NoFunction
          CFI (cfiPicker645) Picker
        CBI     0x18, 0x00
        CBI     0x18, 0x01
        CBI     0x18, 0x02
        CBI     0x18, 0x03
        RET
          CFI EndBlock cfiCond643
          CFI EndBlock cfiCond644
          CFI EndBlock cfiPicker645
//  472 
//  473 

        RSEG CODE:CODE:NOROOT(1)
//  474 void gro(uchar a)
gro:
          CFI Block cfiBlock646 Using cfiCommon0
          CFI Function gro
//  475 {
        MOV     R17, R16
//  476   if (modegro!=1) {
        RCALL   ?Subroutine67
??CrossCallReturnLabel_284:
        BREQ    ??gro_0
//  477   if (a==1) {SET(PORTC,0); delay_us(100);RES(PORTC,0);}
        CPI     R17, 1
        BRNE    ??gro_1
        SBI     0x15, 0x00
        RCALL   ?Subroutine88
??CrossCallReturnLabel_146:
        RJMP    ??gro_2
//  478   if (a==2) {SET(PORTD,3); delay_us(100);RES(PORTD,3);}  
??gro_1:
        CPI     R17, 2
        BRNE    ??gro_3
        SBI     0x12, 0x03
        RCALL   ?Subroutine88
??CrossCallReturnLabel_147:
        RJMP    ??gro_4
//  479                   }
//  480   else  { 
//  481     if (a==1) { if (gro1)  { gro1=0; RES(PORTC,0);  } else { gro1=1; SET(PORTC,0);  } }
??gro_0:
        CPI     R17, 1
        BRNE    ??gro_5
        LDS     R16, ??gro1
        TST     R16
        BREQ    ??gro_6
        LDI     R16, 0
        STS     ??gro1, R16
??gro_2:
        CBI     0x15, 0x00
        RET
??gro_6:
        LDI     R16, 1
        STS     ??gro1, R16
        SBI     0x15, 0x00
        RET
//  482     if (a==2) { if (gro2)  { gro2=0; RES(PORTD,3);  } else { gro2=1; SET(PORTD,3);  } }
??gro_5:
        CPI     R17, 2
        BRNE    ??gro_3
        LDS     R16, ??gro2
        TST     R16
        BREQ    ??gro_7
        LDI     R16, 0
        STS     ??gro2, R16
??gro_4:
        CBI     0x12, 0x03
        RET
??gro_7:
        LDI     R16, 1
        STS     ??gro2, R16
        SBI     0x12, 0x03
//  483         }
//  484 }
??gro_3:
        RET
          CFI EndBlock cfiBlock646
        REQUIRE _A_PORTC
        REQUIRE _A_PORTD

        RSEG CODE:CODE:NOROOT(1)
?Subroutine88:
          CFI Block cfiCond647 Using cfiCommon0
          CFI Function gro
          CFI Conditional ??CrossCallReturnLabel_146
          CFI CFA_SP SP+4
          CFI Block cfiCond648 Using cfiCommon0
          CFI (cfiCond648) Function gro
          CFI (cfiCond648) Conditional ??CrossCallReturnLabel_147
          CFI (cfiCond648) CFA_SP SP+4
          CFI Block cfiPicker649 Using cfiCommon2
          CFI (cfiPicker649) NoFunction
          CFI (cfiPicker649) Picker
        LDI     R16, 133
        DEC     R16
        BRNE    $-2
        NOP
        RET
          CFI EndBlock cfiCond647
          CFI EndBlock cfiCond648
          CFI EndBlock cfiPicker649

        RSEG CODE:CODE:NOROOT(1)
?Subroutine67:
          CFI Block cfiCond650 Using cfiCommon0
          CFI Function main
          CFI Conditional ??CrossCallReturnLabel_281
          CFI R24 Frame(CFA_Y, -1)
          CFI CFA_SP SP+4
          CFI CFA_Y Y+1
          CFI Block cfiCond651 Using cfiCommon0
          CFI (cfiCond651) Function main
          CFI (cfiCond651) Conditional ??CrossCallReturnLabel_282
          CFI (cfiCond651) R24 Frame(CFA_Y, -1)
          CFI (cfiCond651) CFA_SP SP+4
          CFI (cfiCond651) CFA_Y Y+1
          CFI Block cfiCond652 Using cfiCommon0
          CFI (cfiCond652) Function main
          CFI (cfiCond652) Conditional ??CrossCallReturnLabel_283
          CFI (cfiCond652) R24 Frame(CFA_Y, -1)
          CFI (cfiCond652) CFA_SP SP+4
          CFI (cfiCond652) CFA_Y Y+1
          CFI Block cfiCond653 Using cfiCommon0
          CFI (cfiCond653) Function gro
          CFI (cfiCond653) Conditional ??CrossCallReturnLabel_284
          CFI (cfiCond653) CFA_SP SP+4
          CFI Block cfiPicker654 Using cfiCommon2
          CFI (cfiPicker654) NoFunction
          CFI (cfiPicker654) Picker
        RCALL   ?Subroutine110
          CFI EndBlock cfiCond650
          CFI EndBlock cfiCond651
          CFI EndBlock cfiCond652
          CFI EndBlock cfiCond653
          CFI EndBlock cfiPicker654
??CrossCallReturnLabel_209:
        REQUIRE ?Subroutine131
        ;               // Fall through to label ?Subroutine131

        RSEG CODE:CODE:NOROOT(1)
?Subroutine131:
          CFI Block cfiCond655 Using cfiCommon0
          CFI Function main
          CFI Conditional ??CrossCallReturnLabel_281
          CFI R24 Frame(CFA_Y, -1)
          CFI CFA_SP SP+4
          CFI CFA_Y Y+1
          CFI Block cfiCond656 Using cfiCommon0
          CFI (cfiCond656) Function main
          CFI (cfiCond656) Conditional ??CrossCallReturnLabel_282
          CFI (cfiCond656) R24 Frame(CFA_Y, -1)
          CFI (cfiCond656) CFA_SP SP+4
          CFI (cfiCond656) CFA_Y Y+1
          CFI Block cfiCond657 Using cfiCommon0
          CFI (cfiCond657) Function main
          CFI (cfiCond657) Conditional ??CrossCallReturnLabel_283
          CFI (cfiCond657) R24 Frame(CFA_Y, -1)
          CFI (cfiCond657) CFA_SP SP+4
          CFI (cfiCond657) CFA_Y Y+1
          CFI Block cfiCond658 Using cfiCommon0
          CFI (cfiCond658) Function gro
          CFI (cfiCond658) Conditional ??CrossCallReturnLabel_284
          CFI (cfiCond658) CFA_SP SP+4
          CFI Block cfiCond659 Using cfiCommon0
          CFI (cfiCond659) Function main_logic
          CFI (cfiCond659) Conditional ??CrossCallReturnLabel_285
          CFI (cfiCond659) CFA_SP SP+4
          CFI Block cfiCond660 Using cfiCommon0
          CFI (cfiCond660) Function main_logic
          CFI (cfiCond660) Conditional ??CrossCallReturnLabel_286
          CFI (cfiCond660) CFA_SP SP+4
          CFI Block cfiCond661 Using cfiCommon0
          CFI (cfiCond661) Function main_logic
          CFI (cfiCond661) Conditional ??CrossCallReturnLabel_287
          CFI (cfiCond661) CFA_SP SP+4
          CFI Block cfiCond662 Using cfiCommon0
          CFI (cfiCond662) Function diag
          CFI (cfiCond662) Conditional ??CrossCallReturnLabel_288
          CFI (cfiCond662) R24 Frame(CFA_Y, -2)
          CFI (cfiCond662) R25 Frame(CFA_Y, -1)
          CFI (cfiCond662) CFA_SP SP+4
          CFI (cfiCond662) CFA_Y Y+2
          CFI Block cfiPicker663 Using cfiCommon2
          CFI (cfiPicker663) NoFunction
          CFI (cfiPicker663) Picker
        CPI     R16, 1
        RET
          CFI EndBlock cfiCond655
          CFI EndBlock cfiCond656
          CFI EndBlock cfiCond657
          CFI EndBlock cfiCond658
          CFI EndBlock cfiCond659
          CFI EndBlock cfiCond660
          CFI EndBlock cfiCond661
          CFI EndBlock cfiCond662
          CFI EndBlock cfiPicker663

        RSEG CODE:CODE:NOROOT(1)
?Subroutine110:
          CFI Block cfiCond664 Using cfiCommon0
          CFI Function main
          CFI Conditional ??CrossCallReturnLabel_210, ??CrossCallReturnLabel_268
          CFI R24 Frame(CFA_Y, -1)
          CFI CFA_SP SP+6
          CFI CFA_Y Y+1
          CFI Block cfiCond665 Using cfiCommon0
          CFI (cfiCond665) Function main
          CFI (cfiCond665) Conditional ??CrossCallReturnLabel_210, ??CrossCallReturnLabel_269
          CFI (cfiCond665) R24 Frame(CFA_Y, -1)
          CFI (cfiCond665) CFA_SP SP+6
          CFI (cfiCond665) CFA_Y Y+1
          CFI Block cfiCond666 Using cfiCommon0
          CFI (cfiCond666) Function main
          CFI (cfiCond666) Conditional ??CrossCallReturnLabel_210, ??CrossCallReturnLabel_270
          CFI (cfiCond666) R24 Frame(CFA_Y, -1)
          CFI (cfiCond666) CFA_SP SP+6
          CFI (cfiCond666) CFA_Y Y+1
          CFI Block cfiCond667 Using cfiCommon0
          CFI (cfiCond667) Function main
          CFI (cfiCond667) Conditional ??CrossCallReturnLabel_209, ??CrossCallReturnLabel_281
          CFI (cfiCond667) R24 Frame(CFA_Y, -1)
          CFI (cfiCond667) CFA_SP SP+6
          CFI (cfiCond667) CFA_Y Y+1
          CFI Block cfiCond668 Using cfiCommon0
          CFI (cfiCond668) Function main
          CFI (cfiCond668) Conditional ??CrossCallReturnLabel_209, ??CrossCallReturnLabel_282
          CFI (cfiCond668) R24 Frame(CFA_Y, -1)
          CFI (cfiCond668) CFA_SP SP+6
          CFI (cfiCond668) CFA_Y Y+1
          CFI Block cfiCond669 Using cfiCommon0
          CFI (cfiCond669) Function main
          CFI (cfiCond669) Conditional ??CrossCallReturnLabel_209, ??CrossCallReturnLabel_283
          CFI (cfiCond669) R24 Frame(CFA_Y, -1)
          CFI (cfiCond669) CFA_SP SP+6
          CFI (cfiCond669) CFA_Y Y+1
          CFI Block cfiCond670 Using cfiCommon0
          CFI (cfiCond670) Function gro
          CFI (cfiCond670) Conditional ??CrossCallReturnLabel_209, ??CrossCallReturnLabel_284
          CFI (cfiCond670) CFA_SP SP+6
          CFI Block cfiPicker671 Using cfiCommon2
          CFI (cfiPicker671) NoFunction
          CFI (cfiPicker671) Picker
        LDI     R20, LOW(modegro)
        LDI     R21, (modegro) >> 8
        RJMP    __eeget8_16
          CFI EndBlock cfiCond664
          CFI EndBlock cfiCond665
          CFI EndBlock cfiCond666
          CFI EndBlock cfiCond667
          CFI EndBlock cfiCond668
          CFI EndBlock cfiCond669
          CFI EndBlock cfiCond670
          CFI EndBlock cfiPicker671
//  485 
//  486 
//  487 
//  488 
//  489 
//  490 
//  491 //инициализация портов

        RSEG CODE:CODE:NOROOT(1)
//  492 void iniPORTS()
iniPORTS:
          CFI Block cfiBlock672 Using cfiCommon0
          CFI Function iniPORTS
//  493 {
//  494   
//  495  
//  496   //DDRx=0 - ВХОДЫ   PORTx = 0xFF; //подключаем нагрузочные резисторы
//  497  //---------------------------------------------------------------
//  498  //DDRx=0xFF - ВЫХОДЫ    PORTx = 0; //устанавливаем 0 на выходе
//  499  
//  500   
//  501  DDRD = b(11011000);// 0xD8;  //PD3 4 6 7 ВЫХОДЫ  b11011000
        LDI     R16, 216
        OUT     0x11, R16
//  502  PORTD = (uchar)~(b(11011000)); 
        LDI     R16, 39
        OUT     0x12, R16
//  503 
//  504  
//  505  DDRB = 0x3F; //порт B - выход    6,7-кварц
        LDI     R16, 63
        OUT     0x17, R16
//  506  PORTB = 0x00; 
        LDI     R16, 0
        OUT     0x18, R16
//  507   
//  508   
//  509   DDRC =0xFF; 
        LDI     R16, 255
        OUT     0x14, R16
//  510   PORTC = 0x00; //устанавливаем 0 на выходе
        LDI     R16, 0
        OUT     0x15, R16
//  511   
//  512  
//  513 // Timer(s)/Counter(s) Interrupt(s) initialization
//  514 TIMSK=0x00;  
        OUT     0x39, R16
//  515 TCNT0=0x00;
        OUT     0x32, R16
//  516 OCR1A=0x00;
        LDI     R17, 0
        OUT     0x2B, R16
        OUT     0x2A, R16
//  517 OCR1B=0x00;
        OUT     0x29, R16
        OUT     0x28, R16
//  518 TCCR1A=0x00;
        OUT     0x2F, R16
//  519   SET(TIMSK,TOIE1);//разреш прерывание при переполнении
        IN      R16, 0x39
        ORI     R16, 0x04
        OUT     0x39, R16
//  520    TCCR1B=0; TIFR = 0xFF;  
        OUT     0x2E, R17
        LDI     R16, 255
        OUT     0x38, R16
//  521 TCNT1H=0x00;
        OUT     0x2D, R17
//  522 TCNT1L=0x00;
        OUT     0x2C, R17
//  523 ICR1H=0x00;
        OUT     0x27, R17
//  524 ICR1L=0x00;
        OUT     0x26, R17
//  525 OCR1AH=0;
        OUT     0x2B, R17
//  526 OCR1AL=0x00;
        OUT     0x2A, R17
//  527 OCR1BH=0x00;
        OUT     0x29, R17
//  528 OCR1BL=0x00;
        OUT     0x28, R17
//  529 
//  530 
//  531 // External Interrupt(s) initialization
//  532 // INT0: Off
//  533 // INT1: Off
//  534 // Interrupt on any change on pins PCINT0-7: Off
//  535 //GIMSK=0x00;
//  536 //MCUCR=0x00;
//  537 
//  538 SET(MCUCR,0); RES(MCUCR,1);//ПРЕРЫВАНИЕ ПО ИЗМЕНЕНИЮ УРОВНЯ INT0
        IN      R16, 0x35
        ORI     R16, 0x01
        OUT     0x35, R16
        IN      R16, 0x35
        ANDI    R16, 0xFD
        OUT     0x35, R16
//  539 SET(GICR,6);//РАЗРЕШАЕМ ПРЕРЫВАНИЕ INT0
        IN      R16, 0x3B
        ORI     R16, 0x40
        OUT     0x3B, R16
//  540 
//  541 
//  542 //timer2
//  543 SET(TCCR2, CS20 );
        IN      R16, 0x25
        ORI     R16, 0x01
        OUT     0x25, R16
//  544 RES(TCCR2, CS21 );
        IN      R16, 0x25
        ANDI    R16, 0xFD
        OUT     0x25, R16
//  545 RES(TCCR2, CS22 );//делитель 1/1
        IN      R16, 0x25
        ANDI    R16, 0xFB
        OUT     0x25, R16
//  546 // initialize counter
//  547     TCNT2 = 0;
        OUT     0x24, R17
//  548     // enable overflow interrupt
//  549     TIMSK |= (1 << TOIE2);
        IN      R16, 0x39
        ORI     R16, 0x40
        OUT     0x39, R16
//  550 
//  551     
//  552 // Analog Comparator initialization
//  553 // Analog Comparator: Off
//  554 // Analog Comparator Input Capture by Timer/Counter 1: Off
//  555 ACSR=0x80;
        LDI     R16, 128
        OUT     0x08, R16
//  556 //DIDR=0x00;
//  557 
//  558 } 
        RET
          CFI EndBlock cfiBlock672
        REQUIRE _A_DDRD
        REQUIRE _A_PORTD
        REQUIRE _A_DDRB
        REQUIRE _A_PORTB
        REQUIRE _A_DDRC
        REQUIRE _A_PORTC
        REQUIRE _A_TIMSK
        REQUIRE _A_TCNT0
        REQUIRE _A_OCR1A
        REQUIRE _A_OCR1B
        REQUIRE _A_TCCR1A
        REQUIRE _A_TCCR1B
        REQUIRE _A_TIFR
        REQUIRE _A_TCNT1
        REQUIRE _A_ICR1
        REQUIRE _A_MCUCR
        REQUIRE _A_GICR
        REQUIRE _A_TCCR2
        REQUIRE _A_TCNT2
        REQUIRE _A_ACSR
//  559 //************************************************************************
//  560  
//  561 

        RSEG CODE:CODE:NOROOT(1)
//  562 void diag()
diag:
          CFI Block cfiBlock673 Using cfiCommon0
          CFI Function diag
//  563 {
        FUNCALL diag, USART_GetChar
        LOCFRAME CSTACK, 2, STACK
        LOCFRAME RSTACK, 2, STACK
        ARGFRAME RSTACK, 0, STACK
        FUNCALL diag, rprintfStr
        LOCFRAME CSTACK, 2, STACK
        LOCFRAME RSTACK, 2, STACK
        ARGFRAME RSTACK, 0, STACK
        FUNCALL diag, USART_SendChar
        LOCFRAME CSTACK, 2, STACK
        LOCFRAME RSTACK, 2, STACK
        ARGFRAME RSTACK, 0, STACK
        FUNCALL diag, USART_SendChar
        LOCFRAME CSTACK, 2, STACK
        LOCFRAME RSTACK, 2, STACK
        ARGFRAME RSTACK, 0, STACK
        FUNCALL diag, rprintfStr
        LOCFRAME CSTACK, 2, STACK
        LOCFRAME RSTACK, 2, STACK
        ARGFRAME RSTACK, 0, STACK
        FUNCALL diag, USART_SendChar
        LOCFRAME CSTACK, 2, STACK
        LOCFRAME RSTACK, 2, STACK
        ARGFRAME RSTACK, 0, STACK
        FUNCALL diag, rprintfFloat
        LOCFRAME CSTACK, 2, STACK
        LOCFRAME RSTACK, 2, STACK
        ARGFRAME RSTACK, 0, STACK
        FUNCALL diag, rprintfStr
        LOCFRAME CSTACK, 2, STACK
        LOCFRAME RSTACK, 2, STACK
        ARGFRAME RSTACK, 0, STACK
        FUNCALL diag, rprintfFloat
        LOCFRAME CSTACK, 2, STACK
        LOCFRAME RSTACK, 2, STACK
        ARGFRAME RSTACK, 0, STACK
        FUNCALL diag, USART_SendChar
        LOCFRAME CSTACK, 2, STACK
        LOCFRAME RSTACK, 2, STACK
        ARGFRAME RSTACK, 0, STACK
        FUNCALL diag, rprintfStr
        LOCFRAME CSTACK, 2, STACK
        LOCFRAME RSTACK, 2, STACK
        ARGFRAME RSTACK, 0, STACK
        FUNCALL diag, USART_SendChar
        LOCFRAME CSTACK, 2, STACK
        LOCFRAME RSTACK, 2, STACK
        ARGFRAME RSTACK, 0, STACK
        FUNCALL diag, rprintfStr
        LOCFRAME CSTACK, 2, STACK
        LOCFRAME RSTACK, 2, STACK
        ARGFRAME RSTACK, 0, STACK
        FUNCALL diag, rprintfStr
        LOCFRAME CSTACK, 2, STACK
        LOCFRAME RSTACK, 2, STACK
        ARGFRAME RSTACK, 0, STACK
        FUNCALL diag, rprintfStr
        LOCFRAME CSTACK, 2, STACK
        LOCFRAME RSTACK, 2, STACK
        ARGFRAME RSTACK, 0, STACK
        FUNCALL diag, USART_SendChar
        LOCFRAME CSTACK, 2, STACK
        LOCFRAME RSTACK, 2, STACK
        ARGFRAME RSTACK, 0, STACK
        RCALL   ?PROLOGUE2_L09
          CFI R25 Frame(CFA_Y, -1)
          CFI R24 Frame(CFA_Y, -2)
          CFI CFA_Y Y+2
//  564   
//  565   uchar sym = USART_GetChar(); //читаем буфер
        RCALL   USART_GetChar
        MOV     R25, R16
//  566   if (sym=='0') { pr=1;  rprintfStr("- vkluchen kratkiy viviod -");  ent;   }
        CPI     R16, 48
        BRNE    ??diag_0
        LDI     R16, 1
        STS     pr, R16
        LDI     R16, LOW(`?<Constant "- vkluchen kratkiy vi...">`)
        LDI     R17, (`?<Constant "- vkluchen kratkiy vi...">`) >> 8
        RCALL   ?Subroutine48
??CrossCallReturnLabel_248:
        RJMP    ??diag_1
//  567 
//  568   if (sym=='e') {
??diag_0:
        CPI     R16, 101
        BRNE    ??diag_2
//  569     ent;rprintfStr(" ==  EEPROM read == ");ent;
        RCALL   ?Subroutine123
??CrossCallReturnLabel_253:
        LDI     R16, LOW(`?<Constant " ==  EEPROM read == ">`)
        LDI     R17, (`?<Constant " ==  EEPROM read == ">`) >> 8
        RCALL   ?Subroutine48
//  570     for (uchar i=0; i<MAXEEP-1; i++) { 
??CrossCallReturnLabel_249:
        LDI     R24, 0
//  571       rprintfFloat(4, i );   rprintfStr(" > ");
??diag_3:
        MOV     R16, R24
        RCALL   ?Subroutine119
??CrossCallReturnLabel_319:
        RCALL   ?Subroutine121
??CrossCallReturnLabel_314:
        LDI     R16, 4
        RCALL   rprintfFloat
        LDI     R16, LOW(`?<Constant " > ">`)
        LDI     R17, (`?<Constant " > ">`) >> 8
        RCALL   rprintfStr
//  572        rprintfFloat(9, k[i] ); ent;
        RCALL   ?Subroutine99
//  573                                       }
??CrossCallReturnLabel_167:
        LDI     R20, LOW(k)
        LDI     R21, (k) >> 8
        ADD     R20, R0
        ADC     R21, R1
        RCALL   __eeget16_16
        RCALL   ?Subroutine47
??CrossCallReturnLabel_191:
        INC     R24
        CPI     R24, 119
        BRCC    ??diag_1
        RJMP    ??diag_3
//  574                 }
//  575   
//  576   if (sym) 
??diag_2:
        TST     R16
        BREQ    ??CrossCallReturnLabel_250
//  577   {             //если что-то приняли, то 
//  578       rprintfStr(" get: ");
??diag_1:
        LDI     R16, LOW(`?<Constant " get: ">`)
        LDI     R17, (`?<Constant " get: ">`) >> 8
        RCALL   rprintfStr
//  579       USART_SendChar(sym); 
        MOV     R16, R25
        RCALL   USART_SendChar
//  580 
//  581       if (mode==1) rprintfStr("  regim  no source5 >");  
        RCALL   ?Subroutine72
??CrossCallReturnLabel_288:
        BRNE    ??diag_4
        LDI     R16, LOW(`?<Constant "  regim  no source5 >">`)
        LDI     R17, (`?<Constant "  regim  no source5 >">`) >> 8
        RCALL   rprintfStr
//  582       if (mode_programming==1) rprintfStr("  regim  PROGRAMMING !!  READY >");  
??diag_4:
        LDS     R16, ??mode_programming
        TST     R16
        BREQ    ??diag_5
        LDI     R16, LOW(`?<Constant "  regim  PROGRAMMING ...">`)
        LDI     R17, (`?<Constant "  regim  PROGRAMMING ...">`) >> 8
        RJMP    ??diag_6
//  583       else rprintfStr("  regim  normal  READY >");  
??diag_5:
        LDI     R16, LOW(`?<Constant "  regim  normal  READY >">`)
        LDI     R17, (`?<Constant "  regim  normal  READY >">`) >> 8
//  584        ent;   
//  585   }
??diag_6:
        RCALL   ?Subroutine48
//  586 }
??CrossCallReturnLabel_250:
        RJMP    ?Subroutine135
          CFI EndBlock cfiBlock673

        RSEG CODE:CODE:NOROOT(1)
?Subroutine72:
          CFI Block cfiCond674 Using cfiCommon0
          CFI Function main_logic
          CFI Conditional ??CrossCallReturnLabel_285
          CFI CFA_SP SP+4
          CFI Block cfiCond675 Using cfiCommon0
          CFI (cfiCond675) Function main_logic
          CFI (cfiCond675) Conditional ??CrossCallReturnLabel_286
          CFI (cfiCond675) CFA_SP SP+4
          CFI Block cfiCond676 Using cfiCommon0
          CFI (cfiCond676) Function main_logic
          CFI (cfiCond676) Conditional ??CrossCallReturnLabel_287
          CFI (cfiCond676) CFA_SP SP+4
          CFI Block cfiCond677 Using cfiCommon0
          CFI (cfiCond677) Function diag
          CFI (cfiCond677) Conditional ??CrossCallReturnLabel_288
          CFI (cfiCond677) R24 Frame(CFA_Y, -2)
          CFI (cfiCond677) R25 Frame(CFA_Y, -1)
          CFI (cfiCond677) CFA_SP SP+4
          CFI (cfiCond677) CFA_Y Y+2
          CFI Block cfiPicker678 Using cfiCommon2
          CFI (cfiPicker678) NoFunction
          CFI (cfiPicker678) Picker
        LDS     R16, ??mode
        RJMP    ?Subroutine131
          CFI EndBlock cfiCond674
          CFI EndBlock cfiCond675
          CFI EndBlock cfiCond676
          CFI EndBlock cfiCond677
          CFI EndBlock cfiPicker678

        RSEG CODE:CODE:NOROOT(1)
?Subroutine48:
          CFI Block cfiCond679 Using cfiCommon0
          CFI Function writeCOD
          CFI Conditional ??CrossCallReturnLabel_247
          CFI R24 Frame(CFA_Y, -1)
          CFI CFA_SP SP+4
          CFI CFA_Y Y+1
          CFI Block cfiCond680 Using cfiCommon0
          CFI (cfiCond680) Function diag
          CFI (cfiCond680) Conditional ??CrossCallReturnLabel_248
          CFI (cfiCond680) R24 Frame(CFA_Y, -2)
          CFI (cfiCond680) R25 Frame(CFA_Y, -1)
          CFI (cfiCond680) CFA_SP SP+4
          CFI (cfiCond680) CFA_Y Y+2
          CFI Block cfiCond681 Using cfiCommon0
          CFI (cfiCond681) Function diag
          CFI (cfiCond681) Conditional ??CrossCallReturnLabel_249
          CFI (cfiCond681) R24 Frame(CFA_Y, -2)
          CFI (cfiCond681) R25 Frame(CFA_Y, -1)
          CFI (cfiCond681) CFA_SP SP+4
          CFI (cfiCond681) CFA_Y Y+2
          CFI Block cfiCond682 Using cfiCommon0
          CFI (cfiCond682) Function diag
          CFI (cfiCond682) Conditional ??CrossCallReturnLabel_250
          CFI (cfiCond682) R24 Frame(CFA_Y, -2)
          CFI (cfiCond682) R25 Frame(CFA_Y, -1)
          CFI (cfiCond682) CFA_SP SP+4
          CFI (cfiCond682) CFA_Y Y+2
          CFI Block cfiPicker683 Using cfiCommon2
          CFI (cfiPicker683) NoFunction
          CFI (cfiPicker683) Picker
        RCALL   rprintfStr
          CFI EndBlock cfiCond679
          CFI EndBlock cfiCond680
          CFI EndBlock cfiCond681
          CFI EndBlock cfiCond682
          CFI EndBlock cfiPicker683
        REQUIRE ?Subroutine123
        ;               // Fall through to label ?Subroutine123

        RSEG CODE:CODE:NOROOT(1)
?Subroutine123:
          CFI Block cfiCond684 Using cfiCommon0
          CFI Function PEREP
          CFI Conditional ??CrossCallReturnLabel_251
          CFI R24 Frame(CFA_Y, -8)
          CFI R25 Frame(CFA_Y, -7)
          CFI R26 Frame(CFA_Y, -6)
          CFI R27 Frame(CFA_Y, -5)
          CFI R4 Frame(CFA_Y, -4)
          CFI R5 Frame(CFA_Y, -3)
          CFI R6 Frame(CFA_Y, -2)
          CFI R7 Frame(CFA_Y, -1)
          CFI CFA_SP SP+4
          CFI CFA_Y Y+8
          CFI Block cfiCond685 Using cfiCommon0
          CFI (cfiCond685) Function main_logic
          CFI (cfiCond685) Conditional ??CrossCallReturnLabel_252
          CFI (cfiCond685) CFA_SP SP+4
          CFI Block cfiCond686 Using cfiCommon0
          CFI (cfiCond686) Function diag
          CFI (cfiCond686) Conditional ??CrossCallReturnLabel_253
          CFI (cfiCond686) R24 Frame(CFA_Y, -2)
          CFI (cfiCond686) R25 Frame(CFA_Y, -1)
          CFI (cfiCond686) CFA_SP SP+4
          CFI (cfiCond686) CFA_Y Y+2
          CFI Block cfiCond687 Using cfiCommon0
          CFI (cfiCond687) Function writeCOD
          CFI (cfiCond687) Conditional ??CrossCallReturnLabel_247
          CFI (cfiCond687) R24 Frame(CFA_Y, -1)
          CFI (cfiCond687) CFA_SP SP+4
          CFI (cfiCond687) CFA_Y Y+1
          CFI Block cfiCond688 Using cfiCommon0
          CFI (cfiCond688) Function diag
          CFI (cfiCond688) Conditional ??CrossCallReturnLabel_248
          CFI (cfiCond688) R24 Frame(CFA_Y, -2)
          CFI (cfiCond688) R25 Frame(CFA_Y, -1)
          CFI (cfiCond688) CFA_SP SP+4
          CFI (cfiCond688) CFA_Y Y+2
          CFI Block cfiCond689 Using cfiCommon0
          CFI (cfiCond689) Function diag
          CFI (cfiCond689) Conditional ??CrossCallReturnLabel_249
          CFI (cfiCond689) R24 Frame(CFA_Y, -2)
          CFI (cfiCond689) R25 Frame(CFA_Y, -1)
          CFI (cfiCond689) CFA_SP SP+4
          CFI (cfiCond689) CFA_Y Y+2
          CFI Block cfiCond690 Using cfiCommon0
          CFI (cfiCond690) Function diag
          CFI (cfiCond690) Conditional ??CrossCallReturnLabel_250
          CFI (cfiCond690) R24 Frame(CFA_Y, -2)
          CFI (cfiCond690) R25 Frame(CFA_Y, -1)
          CFI (cfiCond690) CFA_SP SP+4
          CFI (cfiCond690) CFA_Y Y+2
          CFI Block cfiCond691 Using cfiCommon0
          CFI (cfiCond691) Function main_power
          CFI (cfiCond691) Conditional ??CrossCallReturnLabel_36
          CFI (cfiCond691) CFA_SP SP+4
          CFI Block cfiCond692 Using cfiCommon0
          CFI (cfiCond692) Function main_power
          CFI (cfiCond692) Conditional ??CrossCallReturnLabel_37
          CFI (cfiCond692) CFA_SP SP+4
          CFI Block cfiCond693 Using cfiCommon0
          CFI (cfiCond693) Function coding
          CFI (cfiCond693) Conditional ??CrossCallReturnLabel_192
          CFI (cfiCond693) R24 Frame(CFA_Y, -10)
          CFI (cfiCond693) R25 Frame(CFA_Y, -9)
          CFI (cfiCond693) R26 Frame(CFA_Y, -8)
          CFI (cfiCond693) R27 Frame(CFA_Y, -7)
          CFI (cfiCond693) R4 Frame(CFA_Y, -6)
          CFI (cfiCond693) R5 Frame(CFA_Y, -5)
          CFI (cfiCond693) R6 Frame(CFA_Y, -4)
          CFI (cfiCond693) R7 Frame(CFA_Y, -3)
          CFI (cfiCond693) R8 Frame(CFA_Y, -2)
          CFI (cfiCond693) R9 Frame(CFA_Y, -1)
          CFI (cfiCond693) CFA_SP SP+4
          CFI (cfiCond693) CFA_Y Y+10
          CFI Block cfiCond694 Using cfiCommon0
          CFI (cfiCond694) Function diag
          CFI (cfiCond694) Conditional ??CrossCallReturnLabel_191
          CFI (cfiCond694) R24 Frame(CFA_Y, -2)
          CFI (cfiCond694) R25 Frame(CFA_Y, -1)
          CFI (cfiCond694) CFA_SP SP+4
          CFI (cfiCond694) CFA_Y Y+2
          CFI Block cfiPicker695 Using cfiCommon2
          CFI (cfiPicker695) NoFunction
          CFI (cfiPicker695) Picker
        LDI     R16, 13
        RJMP    USART_SendChar
          CFI EndBlock cfiCond684
          CFI EndBlock cfiCond685
          CFI EndBlock cfiCond686
          CFI EndBlock cfiCond687
          CFI EndBlock cfiCond688
          CFI EndBlock cfiCond689
          CFI EndBlock cfiCond690
          CFI EndBlock cfiCond691
          CFI EndBlock cfiCond692
          CFI EndBlock cfiCond693
          CFI EndBlock cfiCond694
          CFI EndBlock cfiPicker695

        RSEG CODE:CODE:NOROOT(1)
?Subroutine47:
          CFI Block cfiCond696 Using cfiCommon0
          CFI Function coding
          CFI Conditional ??CrossCallReturnLabel_192
          CFI R24 Frame(CFA_Y, -10)
          CFI R25 Frame(CFA_Y, -9)
          CFI R26 Frame(CFA_Y, -8)
          CFI R27 Frame(CFA_Y, -7)
          CFI R4 Frame(CFA_Y, -6)
          CFI R5 Frame(CFA_Y, -5)
          CFI R6 Frame(CFA_Y, -4)
          CFI R7 Frame(CFA_Y, -3)
          CFI R8 Frame(CFA_Y, -2)
          CFI R9 Frame(CFA_Y, -1)
          CFI CFA_SP SP+4
          CFI CFA_Y Y+10
          CFI Block cfiCond697 Using cfiCommon0
          CFI (cfiCond697) Function diag
          CFI (cfiCond697) Conditional ??CrossCallReturnLabel_191
          CFI (cfiCond697) R24 Frame(CFA_Y, -2)
          CFI (cfiCond697) R25 Frame(CFA_Y, -1)
          CFI (cfiCond697) CFA_SP SP+4
          CFI (cfiCond697) CFA_Y Y+2
          CFI Block cfiPicker698 Using cfiCommon2
          CFI (cfiPicker698) NoFunction
          CFI (cfiPicker698) Picker
        RCALL   ??Subroutine136_0
          CFI EndBlock cfiCond696
          CFI EndBlock cfiCond697
          CFI EndBlock cfiPicker698
??CrossCallReturnLabel_311:
        REQUIRE ?Subroutine104
        ;               // Fall through to label ?Subroutine104

        RSEG CODE:CODE:NOROOT(1)
?Subroutine104:
          CFI Block cfiCond699 Using cfiCommon0
          CFI Function main_power
          CFI Conditional ??CrossCallReturnLabel_36
          CFI CFA_SP SP+4
          CFI Block cfiCond700 Using cfiCommon0
          CFI (cfiCond700) Function main_power
          CFI (cfiCond700) Conditional ??CrossCallReturnLabel_37
          CFI (cfiCond700) CFA_SP SP+4
          CFI Block cfiCond701 Using cfiCommon0
          CFI (cfiCond701) Function coding
          CFI (cfiCond701) Conditional ??CrossCallReturnLabel_192
          CFI (cfiCond701) R24 Frame(CFA_Y, -10)
          CFI (cfiCond701) R25 Frame(CFA_Y, -9)
          CFI (cfiCond701) R26 Frame(CFA_Y, -8)
          CFI (cfiCond701) R27 Frame(CFA_Y, -7)
          CFI (cfiCond701) R4 Frame(CFA_Y, -6)
          CFI (cfiCond701) R5 Frame(CFA_Y, -5)
          CFI (cfiCond701) R6 Frame(CFA_Y, -4)
          CFI (cfiCond701) R7 Frame(CFA_Y, -3)
          CFI (cfiCond701) R8 Frame(CFA_Y, -2)
          CFI (cfiCond701) R9 Frame(CFA_Y, -1)
          CFI (cfiCond701) CFA_SP SP+4
          CFI (cfiCond701) CFA_Y Y+10
          CFI Block cfiCond702 Using cfiCommon0
          CFI (cfiCond702) Function diag
          CFI (cfiCond702) Conditional ??CrossCallReturnLabel_191
          CFI (cfiCond702) R24 Frame(CFA_Y, -2)
          CFI (cfiCond702) R25 Frame(CFA_Y, -1)
          CFI (cfiCond702) CFA_SP SP+4
          CFI (cfiCond702) CFA_Y Y+2
          CFI Block cfiPicker703 Using cfiCommon2
          CFI (cfiPicker703) NoFunction
          CFI (cfiPicker703) Picker
        LDI     R16, 9
        RCALL   rprintfFloat
        RJMP    ?Subroutine123
          CFI EndBlock cfiCond699
          CFI EndBlock cfiCond700
          CFI EndBlock cfiCond701
          CFI EndBlock cfiCond702
          CFI EndBlock cfiPicker703
//  587 
// F:\Dulov\RemoteAMP\SoftTimers.c
//    1 
//    2 #include <stdbool.h>//поддержка bool
//    3 #include "iom8.h"//<ioavr.h>
//    4 #include <inavr.h>
//    5 #include <intrinsics.h>
//    6 #include "init.h"
//    7 #include "SoftTimers.h"

        RSEG NEAR_I:DATA:NOROOT(0)
        REQUIRE `?<Segment init: NEAR_I>`
// static unsigned char port
??port:
        DS8 1
        REQUIRE `?<Initializer for port>`
//    8 #include "main.h"
//    9 //***************************************************************************
//   10 //
//   11 //***************************************************************************

        RSEG NEAR_Z:DATA:NOROOT(0)
        REQUIRE `?<Segment init: NEAR_Z>`
//   12 timers tm1,tm2,tm3;
tm1:
        DS8 9

        RSEG NEAR_Z:DATA:NOROOT(0)
        REQUIRE `?<Segment init: NEAR_Z>`
tm2:
        DS8 9

        RSEG NEAR_Z:DATA:NOROOT(0)
        REQUIRE `?<Segment init: NEAR_Z>`
tm3:
        DS8 9

        RSEG NEAR_Z:DATA:NOROOT(0)
        REQUIRE `?<Segment init: NEAR_Z>`
//   13 static uchar raz;
??raz:
        DS8 1
//   14 static uchar port;

        RSEG NEAR_Z:DATA:NOROOT(0)
        REQUIRE `?<Segment init: NEAR_Z>`
//   15 static uchar razct;
??razct:
        DS8 1
//   16 
//   17 
//   18 #pragma vector = TIMER2_OVF_vect

        RSEG CODE:CODE:NOROOT(1)
//   19 __interrupt void TIMER2ovf(void)
TIMER2ovf:
          CFI Block cfiBlock704 Using cfiCommon1
          CFI Function TIMER2ovf
//   20 {
        FUNCALL TIMER2ovf, TimerTick
        LOCFRAME CSTACK, 15, STACK
        LOCFRAME RSTACK, 2, STACK
        ARGFRAME RSTACK, 0, STACK
        FUNCALL TIMER2ovf, TimerTick
        LOCFRAME CSTACK, 15, STACK
        LOCFRAME RSTACK, 2, STACK
        ARGFRAME RSTACK, 0, STACK
        ST      -Y, R24
          CFI R24 Frame(CFA_Y, -1)
          CFI CFA_Y Y+1
        ST      -Y, R31
          CFI R31 Frame(CFA_Y, -2)
          CFI CFA_Y Y+2
        ST      -Y, R30
          CFI R30 Frame(CFA_Y, -3)
          CFI CFA_Y Y+3
        ST      -Y, R3
          CFI R3 Frame(CFA_Y, -4)
          CFI CFA_Y Y+4
        ST      -Y, R2
          CFI R2 Frame(CFA_Y, -5)
          CFI CFA_Y Y+5
        ST      -Y, R1
          CFI R1 Frame(CFA_Y, -6)
          CFI CFA_Y Y+6
        ST      -Y, R0
          CFI R0 Frame(CFA_Y, -7)
          CFI CFA_Y Y+7
        ST      -Y, R23
          CFI R23 Frame(CFA_Y, -8)
          CFI CFA_Y Y+8
        ST      -Y, R22
          CFI R22 Frame(CFA_Y, -9)
          CFI CFA_Y Y+9
        ST      -Y, R21
          CFI R21 Frame(CFA_Y, -10)
          CFI CFA_Y Y+10
        ST      -Y, R20
          CFI R20 Frame(CFA_Y, -11)
          CFI CFA_Y Y+11
        ST      -Y, R19
          CFI R19 Frame(CFA_Y, -12)
          CFI CFA_Y Y+12
        ST      -Y, R18
          CFI R18 Frame(CFA_Y, -13)
          CFI CFA_Y Y+13
        ST      -Y, R17
          CFI R17 Frame(CFA_Y, -14)
          CFI CFA_Y Y+14
        ST      -Y, R16
          CFI R16 Frame(CFA_Y, -15)
          CFI CFA_Y Y+15
        IN      R24, 0x3F
//   21  TimerTick(&tm3); // Work
        LDI     R16, LOW(tm3)
        LDI     R17, (tm3) >> 8
        RCALL   TimerTick
//   22  TCNT2 = 0;
        LDI     R16, 0
        OUT     0x24, R16
//   23   TimerTick(&tm2);
        LDI     R16, LOW(tm2)
        LDI     R17, (tm2) >> 8
        RCALL   TimerTick
//   24  
//   25 
//   26  static bool state=0;
//   27  
//   28  if (tm3.out ) { 
//   29  //if (!state) {RES(PORTB,5); state=1; }   else {SET(PORTB,5); state=0;}
//   30  //       TimerSet(&tm3,3000);       
//   31               }
//   32 }
        OUT     0x3F, R24
        LD      R16, Y+
          CFI R16 SameValue
          CFI CFA_Y Y+14
        LD      R17, Y+
          CFI R17 SameValue
          CFI CFA_Y Y+13
        LD      R18, Y+
          CFI R18 SameValue
          CFI CFA_Y Y+12
        LD      R19, Y+
          CFI R19 SameValue
          CFI CFA_Y Y+11
        LD      R20, Y+
          CFI R20 SameValue
          CFI CFA_Y Y+10
        LD      R21, Y+
          CFI R21 SameValue
          CFI CFA_Y Y+9
        LD      R22, Y+
          CFI R22 SameValue
          CFI CFA_Y Y+8
        LD      R23, Y+
          CFI R23 SameValue
          CFI CFA_Y Y+7
        LD      R0, Y+
          CFI R0 SameValue
          CFI CFA_Y Y+6
        LD      R1, Y+
          CFI R1 SameValue
          CFI CFA_Y Y+5
        LD      R2, Y+
          CFI R2 SameValue
          CFI CFA_Y Y+4
        LD      R3, Y+
          CFI R3 SameValue
          CFI CFA_Y Y+3
        LD      R30, Y+
          CFI R30 SameValue
          CFI CFA_Y Y+2
        LD      R31, Y+
          CFI R31 SameValue
          CFI CFA_Y Y+1
        LD      R24, Y+
          CFI R24 SameValue
          CFI CFA_Y Y+0
        RETI
          CFI EndBlock cfiBlock704
        REQUIRE _A_TCNT2
//   33 
//   34 
//   35 
//   36 
//   37 

        RSEG CODE:CODE:NOROOT(1)
//   38 void TimerSet(timers *t, long tm)
TimerSet:
          CFI Block cfiBlock705 Using cfiCommon0
          CFI Function TimerSet
//   39 {
        MOVW    R31:R30, R17:R16
        MOVW    R17:R16, R21:R20
        MOVW    R19:R18, R23:R22
//   40   t->out=0;
        LDI     R20, 0
        STD     Z+8, R20
//   41   t->ct=0;
        RCALL   ??Subroutine149_0
??CrossCallReturnLabel_382:
        ST      Z, R21
        STD     Z+1, R21
        STD     Z+2, R21
        STD     Z+3, R21
//   42   //F_CPU/4/100; 1-сек
//   43   t->time=F_CPU/4/100000   *tm;
        LDI     R20, 10
        RCALL   ?L_EC_MUL_L03
        STD     Z+4, R16
        STD     Z+5, R17
        STD     Z+6, R18
        STD     Z+7, R19
//   44   //t->x=0;
//   45 }
        RET
          CFI EndBlock cfiBlock705
//   46 

        RSEG CODE:CODE:NOROOT(1)
//   47 void TimerTick( timers *t)
TimerTick:
          CFI Block cfiBlock706 Using cfiCommon0
          CFI Function TimerTick
//   48 {
//   49   if (t->out) return;
        MOVW    R31:R30, R17:R16
        LDD     R18, Z+8
        TST     R18
        BRNE    ??TimerTick_0
//   50  // t->x++;
//   51   //if (t->x>=CALIBR) { t->x=0; t->ct++;}
//   52   t->ct++;
        LD      R20, Z
        LDD     R21, Z+1
        LDD     R22, Z+2
        LDD     R23, Z+3
        SUBI    R20, 255
        SBCI    R21, 255
        SBCI    R22, 255
        SBCI    R23, 255
        ST      Z, R20
        STD     Z+1, R21
        STD     Z+2, R22
        STD     Z+3, R23
//   53   if (t->ct  >  t->time ) t->out=1;
        LDD     R20, Z+4
        LDD     R21, Z+5
        LDD     R22, Z+6
        LDD     R23, Z+7
        LD      R0, Z
        LDD     R1, Z+1
        LDD     R2, Z+2
        LDD     R3, Z+3
        CP      R20, R0
        CPC     R21, R1
        CPC     R22, R2
        CPC     R23, R3
        BRGE    ??TimerTick_0
        LDI     R18, 1
        STD     Z+8, R18
//   54 }
??TimerTick_0:
        RET
          CFI EndBlock cfiBlock706
//   55 //**************************************************************
//   56 //**************************************************************
//   57 
//   58 

        RSEG CODE:CODE:NOROOT(1)
//   59 void migINI(uchar sel,  uchar razp, bool prton)//мигание sel - кол-во раз
migINI:
          CFI Block cfiBlock707 Using cfiCommon0
          CFI Function migINI
//   60 {
        FUNCALL migINI, TimerSet
        LOCFRAME CSTACK, 0, STACK
        LOCFRAME RSTACK, 2, STACK
        ARGFRAME RSTACK, 0, STACK
        MOV     R19, R16
        MOVW    R21:R20, R17:R16
//   61   SET(PORTB,sel);//вкл-ем для ускорения индикации
        RCALL   ?Subroutine7
//   62   
//   63   
//   64   if (port!=255) {  //если все еще мигает
??CrossCallReturnLabel_289:
        LDS     R16, ??port
        CPI     R16, 255
        BREQ    ??migINI_0
//   65      
//   66     if (prton)SET(PORTB,port); //фиксируем чтобы горел
        LDS     R20, ??port
        RCALL   ?Subroutine118
??CrossCallReturnLabel_231:
        TST     R18
        BREQ    ??migINI_1
        IN      R17, 0x18
        OR      R17, R16
        RJMP    ??migINI_2
//   67     else RES(PORTB,port);
??migINI_1:
        COM     R16
        IN      R17, 0x18
        AND     R17, R16
??migINI_2:
        OUT     0x18, R17
//   68                 }
//   69   
//   70   
//   71   raz=razp;  port=sel; razct=0;
??migINI_0:
        STS     ??raz, R21
        STS     ??port, R19
        LDI     R16, 0
        STS     ??razct, R16
//   72   
//   73   
//   74   TimerSet(&tm2,5);
        LDI     R20, 5
        RCALL   ??Subroutine149_0
??CrossCallReturnLabel_383:
        RCALL   ?Subroutine117
//   75   tm2.out=1;
??CrossCallReturnLabel_230:
        LDI     R16, 1
        STS     (tm2 + 8), R16
//   76   //iniT2(5);
//   77   //T2out=1;
//   78   
//   79 }
        RET
          CFI EndBlock cfiBlock707
        REQUIRE _A_PORTB

        RSEG CODE:CODE:NOROOT(1)
?Subroutine118:
          CFI Block cfiCond708 Using cfiCommon0
          CFI Function coding
          CFI Conditional ??CrossCallReturnLabel_233, ??CrossCallReturnLabel_5
          CFI R24 Frame(CFA_Y, -10)
          CFI R25 Frame(CFA_Y, -9)
          CFI R26 Frame(CFA_Y, -8)
          CFI R27 Frame(CFA_Y, -7)
          CFI R4 Frame(CFA_Y, -6)
          CFI R5 Frame(CFA_Y, -5)
          CFI R6 Frame(CFA_Y, -4)
          CFI R7 Frame(CFA_Y, -3)
          CFI R8 Frame(CFA_Y, -2)
          CFI R9 Frame(CFA_Y, -1)
          CFI CFA_SP SP+6
          CFI CFA_Y Y+10
          CFI Block cfiCond709 Using cfiCommon0
          CFI (cfiCond709) Function coding
          CFI (cfiCond709) Conditional ??CrossCallReturnLabel_233, ??CrossCallReturnLabel_6
          CFI (cfiCond709) R24 Frame(CFA_Y, -10)
          CFI (cfiCond709) R25 Frame(CFA_Y, -9)
          CFI (cfiCond709) R26 Frame(CFA_Y, -8)
          CFI (cfiCond709) R27 Frame(CFA_Y, -7)
          CFI (cfiCond709) R4 Frame(CFA_Y, -6)
          CFI (cfiCond709) R5 Frame(CFA_Y, -5)
          CFI (cfiCond709) R6 Frame(CFA_Y, -4)
          CFI (cfiCond709) R7 Frame(CFA_Y, -3)
          CFI (cfiCond709) R8 Frame(CFA_Y, -2)
          CFI (cfiCond709) R9 Frame(CFA_Y, -1)
          CFI (cfiCond709) CFA_SP SP+6
          CFI (cfiCond709) CFA_Y Y+10
          CFI Block cfiCond710 Using cfiCommon0
          CFI (cfiCond710) Function coding
          CFI (cfiCond710) Conditional ??CrossCallReturnLabel_233, ??CrossCallReturnLabel_7
          CFI (cfiCond710) R24 Frame(CFA_Y, -10)
          CFI (cfiCond710) R25 Frame(CFA_Y, -9)
          CFI (cfiCond710) R26 Frame(CFA_Y, -8)
          CFI (cfiCond710) R27 Frame(CFA_Y, -7)
          CFI (cfiCond710) R4 Frame(CFA_Y, -6)
          CFI (cfiCond710) R5 Frame(CFA_Y, -5)
          CFI (cfiCond710) R6 Frame(CFA_Y, -4)
          CFI (cfiCond710) R7 Frame(CFA_Y, -3)
          CFI (cfiCond710) R8 Frame(CFA_Y, -2)
          CFI (cfiCond710) R9 Frame(CFA_Y, -1)
          CFI (cfiCond710) CFA_SP SP+6
          CFI (cfiCond710) CFA_Y Y+10
          CFI Block cfiCond711 Using cfiCommon0
          CFI (cfiCond711) Function coding
          CFI (cfiCond711) Conditional ??CrossCallReturnLabel_232, ??CrossCallReturnLabel_2
          CFI (cfiCond711) R24 Frame(CFA_Y, -10)
          CFI (cfiCond711) R25 Frame(CFA_Y, -9)
          CFI (cfiCond711) R26 Frame(CFA_Y, -8)
          CFI (cfiCond711) R27 Frame(CFA_Y, -7)
          CFI (cfiCond711) R4 Frame(CFA_Y, -6)
          CFI (cfiCond711) R5 Frame(CFA_Y, -5)
          CFI (cfiCond711) R6 Frame(CFA_Y, -4)
          CFI (cfiCond711) R7 Frame(CFA_Y, -3)
          CFI (cfiCond711) R8 Frame(CFA_Y, -2)
          CFI (cfiCond711) R9 Frame(CFA_Y, -1)
          CFI (cfiCond711) CFA_SP SP+6
          CFI (cfiCond711) CFA_Y Y+10
          CFI Block cfiCond712 Using cfiCommon0
          CFI (cfiCond712) Function coding
          CFI (cfiCond712) Conditional ??CrossCallReturnLabel_232, ??CrossCallReturnLabel_3
          CFI (cfiCond712) R24 Frame(CFA_Y, -10)
          CFI (cfiCond712) R25 Frame(CFA_Y, -9)
          CFI (cfiCond712) R26 Frame(CFA_Y, -8)
          CFI (cfiCond712) R27 Frame(CFA_Y, -7)
          CFI (cfiCond712) R4 Frame(CFA_Y, -6)
          CFI (cfiCond712) R5 Frame(CFA_Y, -5)
          CFI (cfiCond712) R6 Frame(CFA_Y, -4)
          CFI (cfiCond712) R7 Frame(CFA_Y, -3)
          CFI (cfiCond712) R8 Frame(CFA_Y, -2)
          CFI (cfiCond712) R9 Frame(CFA_Y, -1)
          CFI (cfiCond712) CFA_SP SP+6
          CFI (cfiCond712) CFA_Y Y+10
          CFI Block cfiCond713 Using cfiCommon0
          CFI (cfiCond713) Function coding
          CFI (cfiCond713) Conditional ??CrossCallReturnLabel_232, ??CrossCallReturnLabel_4
          CFI (cfiCond713) R24 Frame(CFA_Y, -10)
          CFI (cfiCond713) R25 Frame(CFA_Y, -9)
          CFI (cfiCond713) R26 Frame(CFA_Y, -8)
          CFI (cfiCond713) R27 Frame(CFA_Y, -7)
          CFI (cfiCond713) R4 Frame(CFA_Y, -6)
          CFI (cfiCond713) R5 Frame(CFA_Y, -5)
          CFI (cfiCond713) R6 Frame(CFA_Y, -4)
          CFI (cfiCond713) R7 Frame(CFA_Y, -3)
          CFI (cfiCond713) R8 Frame(CFA_Y, -2)
          CFI (cfiCond713) R9 Frame(CFA_Y, -1)
          CFI (cfiCond713) CFA_SP SP+6
          CFI (cfiCond713) CFA_Y Y+10
          CFI Block cfiCond714 Using cfiCommon0
          CFI (cfiCond714) Function migINI
          CFI (cfiCond714) Conditional ??CrossCallReturnLabel_231
          CFI (cfiCond714) CFA_SP SP+4
          CFI Block cfiCond715 Using cfiCommon0
          CFI (cfiCond715) Function migINI
          CFI (cfiCond715) Conditional ??CrossCallReturnLabel_234, ??CrossCallReturnLabel_289
          CFI (cfiCond715) CFA_SP SP+6
          CFI Block cfiCond716 Using cfiCommon0
          CFI (cfiCond716) Function migWORK
          CFI (cfiCond716) Conditional ??CrossCallReturnLabel_234, ??CrossCallReturnLabel_290
          CFI (cfiCond716) CFA_SP SP+6
          CFI Block cfiCond717 Using cfiCommon0
          CFI (cfiCond717) Function main_logic
          CFI (cfiCond717) Conditional ??CrossCallReturnLabel_235, ??CrossCallReturnLabel_293, ??CrossCallReturnLabel_254
          CFI (cfiCond717) CFA_SP SP+8
          CFI Block cfiCond718 Using cfiCommon0
          CFI (cfiCond718) Function main_logic
          CFI (cfiCond718) Conditional ??CrossCallReturnLabel_235, ??CrossCallReturnLabel_293, ??CrossCallReturnLabel_255
          CFI (cfiCond718) CFA_SP SP+8
          CFI Block cfiCond719 Using cfiCommon0
          CFI (cfiCond719) Function main_logic
          CFI (cfiCond719) Conditional ??CrossCallReturnLabel_235, ??CrossCallReturnLabel_291
          CFI (cfiCond719) CFA_SP SP+6
          CFI Block cfiCond720 Using cfiCommon0
          CFI (cfiCond720) Function migWORK
          CFI (cfiCond720) Conditional ??CrossCallReturnLabel_235, ??CrossCallReturnLabel_292
          CFI (cfiCond720) CFA_SP SP+6
          CFI Block cfiPicker721 Using cfiCommon2
          CFI (cfiPicker721) NoFunction
          CFI (cfiPicker721) Picker
        LDI     R16, 1
        LDI     R17, 0
        RJMP    ?S_SHL_L02
          CFI EndBlock cfiCond708
          CFI EndBlock cfiCond709
          CFI EndBlock cfiCond710
          CFI EndBlock cfiCond711
          CFI EndBlock cfiCond712
          CFI EndBlock cfiCond713
          CFI EndBlock cfiCond714
          CFI EndBlock cfiCond715
          CFI EndBlock cfiCond716
          CFI EndBlock cfiCond717
          CFI EndBlock cfiCond718
          CFI EndBlock cfiCond719
          CFI EndBlock cfiCond720
          CFI EndBlock cfiPicker721

        RSEG CODE:CODE:NOROOT(1)
?Subroutine52:
          CFI Block cfiCond722 Using cfiCommon0
          CFI Function PEREP
          CFI Conditional ??CrossCallReturnLabel_384
          CFI R24 Frame(CFA_Y, -8)
          CFI R25 Frame(CFA_Y, -7)
          CFI R26 Frame(CFA_Y, -6)
          CFI R27 Frame(CFA_Y, -5)
          CFI R4 Frame(CFA_Y, -4)
          CFI R5 Frame(CFA_Y, -3)
          CFI R6 Frame(CFA_Y, -2)
          CFI R7 Frame(CFA_Y, -1)
          CFI CFA_SP SP+4
          CFI CFA_Y Y+8
          CFI Block cfiCond723 Using cfiCommon0
          CFI (cfiCond723) Function rprintfFloat
          CFI (cfiCond723) Conditional ??CrossCallReturnLabel_385
          CFI (cfiCond723) R24 Frame(CFA_Y, -12)
          CFI (cfiCond723) R25 Frame(CFA_Y, -11)
          CFI (cfiCond723) R26 Frame(CFA_Y, -10)
          CFI (cfiCond723) R27 Frame(CFA_Y, -9)
          CFI (cfiCond723) R4 Frame(CFA_Y, -8)
          CFI (cfiCond723) R5 Frame(CFA_Y, -7)
          CFI (cfiCond723) R6 Frame(CFA_Y, -6)
          CFI (cfiCond723) R7 Frame(CFA_Y, -5)
          CFI (cfiCond723) R8 Frame(CFA_Y, -4)
          CFI (cfiCond723) R9 Frame(CFA_Y, -3)
          CFI (cfiCond723) R10 Frame(CFA_Y, -2)
          CFI (cfiCond723) R11 Frame(CFA_Y, -1)
          CFI (cfiCond723) CFA_SP SP+4
          CFI (cfiCond723) CFA_Y Y+12
          CFI Block cfiPicker724 Using cfiCommon2
          CFI (cfiPicker724) NoFunction
          CFI (cfiPicker724) Picker
        LDI     R20, 0
          CFI EndBlock cfiCond722
          CFI EndBlock cfiCond723
          CFI EndBlock cfiPicker724
        REQUIRE ??Subroutine149_0
        ;               // Fall through to label ??Subroutine149_0

        RSEG CODE:CODE:NOROOT(1)
??Subroutine149_0:
          CFI Block cfiCond725 Using cfiCommon0
          CFI Function main
          CFI Conditional ??CrossCallReturnLabel_381
          CFI R24 Frame(CFA_Y, -1)
          CFI CFA_SP SP+4
          CFI CFA_Y Y+1
          CFI Block cfiCond726 Using cfiCommon0
          CFI (cfiCond726) Function TimerSet
          CFI (cfiCond726) Conditional ??CrossCallReturnLabel_382
          CFI (cfiCond726) CFA_SP SP+4
          CFI Block cfiCond727 Using cfiCommon0
          CFI (cfiCond727) Function migINI
          CFI (cfiCond727) Conditional ??CrossCallReturnLabel_383
          CFI (cfiCond727) CFA_SP SP+4
          CFI Block cfiCond728 Using cfiCommon0
          CFI (cfiCond728) Function PEREP
          CFI (cfiCond728) Conditional ??CrossCallReturnLabel_384
          CFI (cfiCond728) R24 Frame(CFA_Y, -8)
          CFI (cfiCond728) R25 Frame(CFA_Y, -7)
          CFI (cfiCond728) R26 Frame(CFA_Y, -6)
          CFI (cfiCond728) R27 Frame(CFA_Y, -5)
          CFI (cfiCond728) R4 Frame(CFA_Y, -4)
          CFI (cfiCond728) R5 Frame(CFA_Y, -3)
          CFI (cfiCond728) R6 Frame(CFA_Y, -2)
          CFI (cfiCond728) R7 Frame(CFA_Y, -1)
          CFI (cfiCond728) CFA_SP SP+4
          CFI (cfiCond728) CFA_Y Y+8
          CFI Block cfiCond729 Using cfiCommon0
          CFI (cfiCond729) Function rprintfFloat
          CFI (cfiCond729) Conditional ??CrossCallReturnLabel_385
          CFI (cfiCond729) R24 Frame(CFA_Y, -12)
          CFI (cfiCond729) R25 Frame(CFA_Y, -11)
          CFI (cfiCond729) R26 Frame(CFA_Y, -10)
          CFI (cfiCond729) R27 Frame(CFA_Y, -9)
          CFI (cfiCond729) R4 Frame(CFA_Y, -8)
          CFI (cfiCond729) R5 Frame(CFA_Y, -7)
          CFI (cfiCond729) R6 Frame(CFA_Y, -6)
          CFI (cfiCond729) R7 Frame(CFA_Y, -5)
          CFI (cfiCond729) R8 Frame(CFA_Y, -4)
          CFI (cfiCond729) R9 Frame(CFA_Y, -3)
          CFI (cfiCond729) R10 Frame(CFA_Y, -2)
          CFI (cfiCond729) R11 Frame(CFA_Y, -1)
          CFI (cfiCond729) CFA_SP SP+4
          CFI (cfiCond729) CFA_Y Y+12
          CFI Block cfiPicker730 Using cfiCommon2
          CFI (cfiPicker730) NoFunction
          CFI (cfiPicker730) Picker
        LDI     R21, 0
        LDI     R22, 0
        LDI     R23, 0
        RET
          CFI EndBlock cfiCond725
          CFI EndBlock cfiCond726
          CFI EndBlock cfiCond727
          CFI EndBlock cfiCond728
          CFI EndBlock cfiCond729
          CFI EndBlock cfiPicker730
//   80 

        RSEG CODE:CODE:NOROOT(1)
//   81 void migWORK(void)//мигание 
migWORK:
          CFI Block cfiBlock731 Using cfiCommon0
          CFI Function migWORK
//   82 {
//   83   static bool sost=0;
//   84  // TimerTick(&tm2); // WorkT2();
//   85   if (tm2.out==1 && port!=255)  {
        FUNCALL migWORK, TimerSet
        LOCFRAME CSTACK, 0, STACK
        LOCFRAME RSTACK, 2, STACK
        ARGFRAME RSTACK, 0, STACK
        FUNCALL migWORK, TimerSet
        LOCFRAME CSTACK, 0, STACK
        LOCFRAME RSTACK, 2, STACK
        ARGFRAME RSTACK, 0, STACK
        LDS     R16, (tm2 + 8)
        TST     R16
        BREQ    ??CrossCallReturnLabel_292
        LDS     R16, ??port
        CPI     R16, 255
        BREQ    ??CrossCallReturnLabel_292
//   86        if (sost!=1)  {sost=1; TimerSet(&tm2,200); SET(PORTB,port); razct++;}
        LDS     R16, ??sost
        TST     R16
        BRNE    ??migWORK_0
        LDI     R16, 1
        RCALL   ?Subroutine51
??CrossCallReturnLabel_61:
        RCALL   ?Subroutine7
??CrossCallReturnLabel_290:
        LDI     R30, LOW(??razct)
        LDI     R31, (??razct) >> 8
        RCALL   ?Subroutine98
??CrossCallReturnLabel_329:
        RJMP    ??CrossCallReturnLabel_292
//   87   else if (sost!=0)  {sost=0; TimerSet(&tm2,200); RES(PORTB,port);}
??migWORK_0:
        LDI     R16, 0
        RCALL   ?Subroutine51
//   88                               }
??CrossCallReturnLabel_62:
        RCALL   ?Subroutine89
//   89   if (razct>=raz) {  tm2.out=1; port=255;}
??CrossCallReturnLabel_292:
        LDS     R16, ??razct
        LDS     R17, ??raz
        CP      R16, R17
        BRCS    ??migWORK_1
        LDI     R16, 1
        STS     (tm2 + 8), R16
        LDI     R16, 255
        STS     ??port, R16
//   90 }
??migWORK_1:
        RET
          CFI EndBlock cfiBlock731
        REQUIRE _A_PORTB

        RSEG CODE:CODE:NOROOT(1)
?Subroutine51:
          CFI Block cfiCond732 Using cfiCommon0
          CFI Function migWORK
          CFI Conditional ??CrossCallReturnLabel_61
          CFI CFA_SP SP+4
          CFI Block cfiCond733 Using cfiCommon0
          CFI (cfiCond733) Function migWORK
          CFI (cfiCond733) Conditional ??CrossCallReturnLabel_62
          CFI (cfiCond733) CFA_SP SP+4
          CFI Block cfiPicker734 Using cfiCommon2
          CFI (cfiPicker734) NoFunction
          CFI (cfiPicker734) Picker
        STS     ??sost, R16
        LDI     R20, 200
        LDI     R21, 0
        LDI     R22, 0
        LDI     R23, 0
        RCALL   ?Subroutine117
??CrossCallReturnLabel_229:
        LDS     R20, ??port
        RET
          CFI EndBlock cfiCond732
          CFI EndBlock cfiCond733
          CFI EndBlock cfiPicker734

        RSEG CODE:CODE:NOROOT(1)
?Subroutine117:
          CFI Block cfiCond735 Using cfiCommon0
          CFI Function migINI
          CFI Conditional ??CrossCallReturnLabel_230
          CFI CFA_SP SP+4
          CFI Block cfiCond736 Using cfiCommon0
          CFI (cfiCond736) Function migWORK
          CFI (cfiCond736) Conditional ??CrossCallReturnLabel_229, ??CrossCallReturnLabel_61
          CFI (cfiCond736) CFA_SP SP+6
          CFI Block cfiCond737 Using cfiCommon0
          CFI (cfiCond737) Function migWORK
          CFI (cfiCond737) Conditional ??CrossCallReturnLabel_229, ??CrossCallReturnLabel_62
          CFI (cfiCond737) CFA_SP SP+6
          CFI Block cfiPicker738 Using cfiCommon2
          CFI (cfiPicker738) NoFunction
          CFI (cfiPicker738) Picker
        LDI     R16, LOW(tm2)
        LDI     R17, (tm2) >> 8
        RJMP    TimerSet
          CFI EndBlock cfiCond735
          CFI EndBlock cfiCond736
          CFI EndBlock cfiCond737
          CFI EndBlock cfiPicker738

        RSEG CODE:CODE:NOROOT(1)
?Subroutine7:
          CFI Block cfiCond739 Using cfiCommon0
          CFI Function migINI
          CFI Conditional ??CrossCallReturnLabel_289
          CFI CFA_SP SP+4
          CFI Block cfiCond740 Using cfiCommon0
          CFI (cfiCond740) Function migWORK
          CFI (cfiCond740) Conditional ??CrossCallReturnLabel_290
          CFI (cfiCond740) CFA_SP SP+4
          CFI Block cfiPicker741 Using cfiCommon2
          CFI (cfiPicker741) NoFunction
          CFI (cfiPicker741) Picker
        RCALL   ?Subroutine118
??CrossCallReturnLabel_234:
        IN      R17, 0x18
        OR      R17, R16
          CFI EndBlock cfiCond739
          CFI EndBlock cfiCond740
          CFI EndBlock cfiPicker741
        REQUIRE ?Subroutine132
        ;               // Fall through to label ?Subroutine132

        RSEG CODE:CODE:NOROOT(1)
?Subroutine132:
          CFI Block cfiCond742 Using cfiCommon0
          CFI Function migINI
          CFI Conditional ??CrossCallReturnLabel_289
          CFI CFA_SP SP+4
          CFI Block cfiCond743 Using cfiCommon0
          CFI (cfiCond743) Function migWORK
          CFI (cfiCond743) Conditional ??CrossCallReturnLabel_290
          CFI (cfiCond743) CFA_SP SP+4
          CFI Block cfiCond744 Using cfiCommon0
          CFI (cfiCond744) Function main_logic
          CFI (cfiCond744) Conditional ??CrossCallReturnLabel_293, ??CrossCallReturnLabel_254
          CFI (cfiCond744) CFA_SP SP+6
          CFI Block cfiCond745 Using cfiCommon0
          CFI (cfiCond745) Function main_logic
          CFI (cfiCond745) Conditional ??CrossCallReturnLabel_293, ??CrossCallReturnLabel_255
          CFI (cfiCond745) CFA_SP SP+6
          CFI Block cfiCond746 Using cfiCommon0
          CFI (cfiCond746) Function main_logic
          CFI (cfiCond746) Conditional ??CrossCallReturnLabel_291
          CFI (cfiCond746) CFA_SP SP+4
          CFI Block cfiCond747 Using cfiCommon0
          CFI (cfiCond747) Function migWORK
          CFI (cfiCond747) Conditional ??CrossCallReturnLabel_292
          CFI (cfiCond747) CFA_SP SP+4
          CFI Block cfiPicker748 Using cfiCommon2
          CFI (cfiPicker748) NoFunction
          CFI (cfiPicker748) Picker
        OUT     0x18, R17
        RET
          CFI EndBlock cfiCond742
          CFI EndBlock cfiCond743
          CFI EndBlock cfiCond744
          CFI EndBlock cfiCond745
          CFI EndBlock cfiCond746
          CFI EndBlock cfiCond747
          CFI EndBlock cfiPicker748

        RSEG CODE:CODE:NOROOT(1)
?Subroutine89:
          CFI Block cfiCond749 Using cfiCommon0
          CFI Function main_logic
          CFI Conditional ??CrossCallReturnLabel_293, ??CrossCallReturnLabel_254
          CFI CFA_SP SP+6
          CFI Block cfiCond750 Using cfiCommon0
          CFI (cfiCond750) Function main_logic
          CFI (cfiCond750) Conditional ??CrossCallReturnLabel_293, ??CrossCallReturnLabel_255
          CFI (cfiCond750) CFA_SP SP+6
          CFI Block cfiCond751 Using cfiCommon0
          CFI (cfiCond751) Function main_logic
          CFI (cfiCond751) Conditional ??CrossCallReturnLabel_291
          CFI (cfiCond751) CFA_SP SP+4
          CFI Block cfiCond752 Using cfiCommon0
          CFI (cfiCond752) Function migWORK
          CFI (cfiCond752) Conditional ??CrossCallReturnLabel_292
          CFI (cfiCond752) CFA_SP SP+4
          CFI Block cfiPicker753 Using cfiCommon2
          CFI (cfiPicker753) NoFunction
          CFI (cfiPicker753) Picker
        RCALL   ?Subroutine118
??CrossCallReturnLabel_235:
        COM     R16
        IN      R17, 0x18
        AND     R17, R16
        RJMP    ?Subroutine132
          CFI EndBlock cfiCond749
          CFI EndBlock cfiCond750
          CFI EndBlock cfiCond751
          CFI EndBlock cfiCond752
          CFI EndBlock cfiPicker753

        RSEG NEAR_Z:DATA:NOROOT(0)
        REQUIRE `?<Segment init: NEAR_Z>`
??sost:
        DS8 1
//   91 //uchar migSEL(void){ return(port);} //возвращает текущий мигающий порт
//   92 //**************************************************************
//   93 //**************************************************************
// F:\Dulov\RemoteAMP\usart.c
//    1 #include "usart.h"
//    2 //#include <math.h>
//    3 //#include <intrinsics.h>
//    4 
//    5 #include "init.h"
//    6 
//    7 //однобайтный буфер

        RSEG NEAR_Z:DATA:NOROOT(0)
        REQUIRE `?<Segment init: NEAR_Z>`
//    8 volatile unsigned char usartRxBuf = 0;
usartRxBuf:
        DS8 1

        RSEG NEAR_Z:DATA:NOROOT(0)
        REQUIRE `?<Segment init: NEAR_Z>`
//    9 volatile static bool usarton;
??usarton:
        DS8 1
//   10 
//   11 //инициализация usart`a

        RSEG CODE:CODE:NOROOT(1)
//   12 void USART_Init()
USART_Init:
          CFI Block cfiBlock754 Using cfiCommon0
          CFI Function USART_Init
//   13 {
//   14   UBRRH = 0;
        LDI     R16, 0
        OUT     0x20, R16
//   15   UBRRL = ((F_CPU/9600UL)-1)/16;//    26;//78; //скорость обмена 9600 бод
        LDI     R16, 25
        OUT     0x09, R16
//   16   UCSRB = (1<<RXCIE)|(1<<RXEN)|(1<<TXEN); //разр. прерыв при приеме, разр приема, разр передачи.
        LDI     R16, 152
        OUT     0x0A, R16
//   17   UCSRC = (1<<URSEL)|(1<<UCSZ1)|(1<<UCSZ0); //размер слова 8 разрядов
        LDI     R16, 134
        OUT     0x20, R16
//   18 }
        RET
          CFI EndBlock cfiBlock754
        REQUIRE _A_UBRRH
        REQUIRE _A_UBRRL
        REQUIRE _A_UCSRB
//   19 
//   20 //отправка символа по usart`у

        RSEG CODE:CODE:NOROOT(1)
//   21 void USART_SendChar(unsigned char sym)
USART_SendChar:
          CFI Block cfiBlock755 Using cfiCommon0
          CFI Function USART_SendChar
//   22 {
//   23   if (!usarton) return;
        LDS     R17, ??usarton
        TST     R17
        BREQ    ??USART_SendChar_0
//   24   while(!(UCSRA & (1<<UDRE)));
??USART_SendChar_1:
        SBIS    0x0B, 0x05
        RJMP    ??USART_SendChar_1
//   25   UDR = sym;
        OUT     0x0C, R16
//   26 }
??USART_SendChar_0:
        RET
          CFI EndBlock cfiBlock755
        REQUIRE _A_UCSRA
        REQUIRE _A_UDR
//   27 
//   28 //чтение буфера

        RSEG CODE:CODE:NOROOT(1)
//   29 __monitor unsigned char USART_GetChar(void)
USART_GetChar:
          CFI Block cfiBlock756 Using cfiCommon0
          CFI Function USART_GetChar
//   30 {
        IN      R18, 0x3F
        CLI
//   31   unsigned char tmp = usartRxBuf;
        LDS     R16, usartRxBuf
//   32   usartRxBuf = 0;
        LDI     R17, 0
        STS     usartRxBuf, R17
//   33   return tmp;  
        OUT     0x3F, R18
        RET
          CFI EndBlock cfiBlock756
//   34 }
//   35 
//   36 //прием символа по usart`у в буфер
//   37 #pragma vector=USART_RXC_vect

        RSEG CODE:CODE:NOROOT(1)
//   38 __interrupt void usart_rxc_my(void) 
usart_rxc_my:
          CFI Block cfiBlock757 Using cfiCommon1
          CFI Function usart_rxc_my
//   39 {
        ST      -Y, R16
          CFI R16 Frame(CFA_Y, -1)
          CFI CFA_Y Y+1
//   40   usartRxBuf = UDR; 
        IN      R16, 0x0C
        STS     usartRxBuf, R16
//   41 } 
        RJMP    ?Subroutine133
          CFI EndBlock cfiBlock757
        REQUIRE _A_UDR
//   42 
//   43 // *** rprintfStr ***
//   44 // prints a null-terminated string stored in RAM

        RSEG CODE:CODE:NOROOT(1)
//   45 void rprintfStr(char str[])
rprintfStr:
          CFI Block cfiBlock758 Using cfiCommon0
          CFI Function rprintfStr
//   46 {        
        FUNCALL rprintfStr, USART_SendChar
        LOCFRAME CSTACK, 4, STACK
        LOCFRAME RSTACK, 2, STACK
        ARGFRAME RSTACK, 0, STACK
        RCALL   ?PROLOGUE4_L09
          CFI R27 Frame(CFA_Y, -1)
          CFI R26 Frame(CFA_Y, -2)
          CFI R25 Frame(CFA_Y, -3)
          CFI R24 Frame(CFA_Y, -4)
          CFI CFA_Y Y+4
        MOVW    R27:R26, R17:R16
//   47     if (!usarton) return;
        LDS     R16, ??usarton
        TST     R16
        BREQ    ??rprintfStr_0
//   48 	// send a string stored in RAM
//   49 	// check to make sure we have a good pointer
//   50 	if (!str) return;
        MOV     R16, R26
        OR      R16, R17
        BRNE    ??rprintfStr_1
        RJMP    ??rprintfStr_0
//   51 
//   52 	// print the string until a null-terminator
//   53 	while (*str)
//   54 		USART_SendChar(*str++);
??rprintfStr_2:
        RCALL   USART_SendChar
??rprintfStr_1:
        LD      R16, X+
        TST     R16
        BRNE    ??rprintfStr_2
//   55 }
??rprintfStr_0:
        LDI     R30, 4
        RJMP    ?EPILOGUE_B4_L09
          CFI EndBlock cfiBlock758
//   56 
//   57 // *** rprintfFloat ***Pascal Stang - Copyright (C) 2000-2002
//   58 // floating-point print

        RSEG CODE:CODE:NOROOT(1)
//   59 void rprintfFloat(char numDigits, double x)
rprintfFloat:
          CFI Block cfiBlock759 Using cfiCommon0
          CFI Function rprintfFloat
//   60 {
        FUNCALL rprintfFloat, USART_SendChar
        LOCFRAME CSTACK, 12, STACK
        LOCFRAME RSTACK, 2, STACK
        ARGFRAME RSTACK, 0, STACK
        FUNCALL rprintfFloat, USART_SendChar
        LOCFRAME CSTACK, 12, STACK
        LOCFRAME RSTACK, 2, STACK
        ARGFRAME RSTACK, 0, STACK
        FUNCALL rprintfFloat, USART_SendChar
        LOCFRAME CSTACK, 12, STACK
        LOCFRAME RSTACK, 2, STACK
        ARGFRAME RSTACK, 0, STACK
        FUNCALL rprintfFloat, USART_SendChar
        LOCFRAME CSTACK, 12, STACK
        LOCFRAME RSTACK, 2, STACK
        ARGFRAME RSTACK, 0, STACK
        FUNCALL rprintfFloat, USART_SendChar
        LOCFRAME CSTACK, 12, STACK
        LOCFRAME RSTACK, 2, STACK
        ARGFRAME RSTACK, 0, STACK
        RCALL   ?PROLOGUE12_L09
          CFI R11 Frame(CFA_Y, -1)
          CFI R10 Frame(CFA_Y, -2)
          CFI R9 Frame(CFA_Y, -3)
          CFI R8 Frame(CFA_Y, -4)
          CFI R7 Frame(CFA_Y, -5)
          CFI R6 Frame(CFA_Y, -6)
          CFI R5 Frame(CFA_Y, -7)
          CFI R4 Frame(CFA_Y, -8)
          CFI R27 Frame(CFA_Y, -9)
          CFI R26 Frame(CFA_Y, -10)
          CFI R25 Frame(CFA_Y, -11)
          CFI R24 Frame(CFA_Y, -12)
          CFI CFA_Y Y+12
        REQUIRE ?Register_R4_is_cg_reg
        REQUIRE ?Register_R5_is_cg_reg
        REQUIRE ?Register_R6_is_cg_reg
        REQUIRE ?Register_R7_is_cg_reg
        REQUIRE ?Register_R8_is_cg_reg
        REQUIRE ?Register_R9_is_cg_reg
        REQUIRE ?Register_R10_is_cg_reg
        REQUIRE ?Register_R11_is_cg_reg
        MOV     R11, R16
        MOVW    R5:R4, R21:R20
        MOVW    R7:R6, R23:R22
//   61     if (!usarton) return;
        LDS     R16, ??usarton
        TST     R16
        BRNE    $+2+2
        RJMP    ??rprintfFloat_0
//   62 	unsigned char firstplace = 0;
        CLR     R10
//   63 	unsigned char negative;
//   64 	unsigned char i, digit;
//   65 	double place = 1.0;
        LDI     R24, 0
        LDI     R25, 0
        LDI     R26, 128
        LDI     R27, 63
//   66 	
//   67 	// save sign
//   68 	negative = (x<0);
        RCALL   ?Subroutine52
??CrossCallReturnLabel_385:
        RCALL   ?Subroutine102
??CrossCallReturnLabel_183:
        RCALL   ?F_CMP_LT_L04
        CLR     R8
        BRCC    ??rprintfFloat_1
        INC     R8
//   69 	// convert to absolute value
//   70 	x = (x>0)?(x):(-x);
??rprintfFloat_1:
        LDI     R20, 1
        RCALL   ?F_CMP_GE_L04
        BRCS    ??rprintfFloat_2
        EOR     R7, R26
//   71 	
//   72 	// find starting digit place
//   73 	for(i=0; i<15; i++)
??rprintfFloat_2:
        LDI     R16, 15
        MOV     R9, R16
//   74 	{
//   75 		if((x/place) < 10.0)
??rprintfFloat_3:
        RCALL   ?Subroutine55
??CrossCallReturnLabel_68:
        RCALL   ?Subroutine59
??CrossCallReturnLabel_79:
        RCALL   ?F_CMP_LT_L04
        BRCS    ??rprintfFloat_4
//   76 			break;
//   77 		else
//   78 			place *= 10.0;
        MOVW    R17:R16, R25:R24
        MOVW    R19:R18, R27:R26
        RCALL   ?F_MUL_L04
        MOVW    R25:R24, R17:R16
        MOVW    R27:R26, R19:R18
//   79 	}
        DEC     R9
        BRNE    ??rprintfFloat_3
//   80 	// print polarity character
//   81 	if(negative)
??rprintfFloat_4:
        BST     R8, 0
        BRTC    ??rprintfFloat_5
//   82 		USART_SendChar('-');
        LDI     R16, 45
        RJMP    ??rprintfFloat_6
//   83 	else
//   84 		USART_SendChar('+');
??rprintfFloat_5:
        LDI     R16, 43
??rprintfFloat_6:
        RCALL   USART_SendChar
//   85 
//   86 	// print digits
//   87 	for(i=0; i<numDigits; i++)
        CLR     R9
        RJMP    ??rprintfFloat_7
//   88 	{
//   89 		digit = (unsigned char)(x/place);
//   90 
//   91 		if(digit | firstplace | (place == 1.0))
//   92 		{
//   93 			firstplace = 1;
//   94 			USART_SendChar(digit+0x30);
//   95 		}
//   96 		else
//   97 			USART_SendChar(' ');
??rprintfFloat_8:
        LDI     R16, 32
??rprintfFloat_9:
        RCALL   USART_SendChar
//   98 		
//   99 		if(place == 1.0)
        RCALL   ?Subroutine53
??CrossCallReturnLabel_63:
        BRNE    ??rprintfFloat_10
//  100 		{
//  101 			USART_SendChar('.');
        LDI     R16, 46
        RCALL   USART_SendChar
//  102 		}
//  103 		
//  104 		x -= (digit*place);
??rprintfFloat_10:
        MOV     R16, R8
        RCALL   ?Subroutine119
??CrossCallReturnLabel_320:
        MOVW    R21:R20, R25:R24
        MOVW    R23:R22, R27:R26
        RCALL   ?F_MUL_L04
        RCALL   ?Subroutine121
??CrossCallReturnLabel_315:
        RCALL   ?Subroutine102
??CrossCallReturnLabel_184:
        RCALL   ?F_SUB_L04
        MOVW    R5:R4, R17:R16
        MOVW    R7:R6, R19:R18
//  105 		place /= 10.0;
        RCALL   ?Subroutine59
??CrossCallReturnLabel_80:
        MOVW    R17:R16, R25:R24
        MOVW    R19:R18, R27:R26
        RCALL   ?F_DIV_L04
        MOVW    R25:R24, R17:R16
        MOVW    R27:R26, R19:R18
        INC     R9
??rprintfFloat_7:
        CP      R9, R11
        BRCC    ??rprintfFloat_0
        RCALL   ?Subroutine55
??CrossCallReturnLabel_69:
        RCALL   ?F2SL_L04
        MOV     R8, R16
        RCALL   ?Subroutine53
??CrossCallReturnLabel_64:
        BRNE    ??rprintfFloat_11
        LDI     R16, 1
        RJMP    ??rprintfFloat_12
??rprintfFloat_11:
        LDI     R16, 0
??rprintfFloat_12:
        MOV     R17, R8
        OR      R17, R10
        OR      R17, R16
        BREQ    ??rprintfFloat_8
        CLR     R10
        INC     R10
        MOV     R16, R8
        SUBI    R16, 208
        RJMP    ??rprintfFloat_9
//  106 	}
//  107 }
??rprintfFloat_0:
        LDI     R30, 12
        RJMP    ?EPILOGUE_B12_L09
          CFI EndBlock cfiBlock759

        RSEG CODE:CODE:NOROOT(1)
?Subroutine59:
          CFI Block cfiCond760 Using cfiCommon0
          CFI Function rprintfFloat
          CFI Conditional ??CrossCallReturnLabel_79
          CFI R24 Frame(CFA_Y, -12)
          CFI R25 Frame(CFA_Y, -11)
          CFI R26 Frame(CFA_Y, -10)
          CFI R27 Frame(CFA_Y, -9)
          CFI R4 Frame(CFA_Y, -8)
          CFI R5 Frame(CFA_Y, -7)
          CFI R6 Frame(CFA_Y, -6)
          CFI R7 Frame(CFA_Y, -5)
          CFI R8 Frame(CFA_Y, -4)
          CFI R9 Frame(CFA_Y, -3)
          CFI R10 Frame(CFA_Y, -2)
          CFI R11 Frame(CFA_Y, -1)
          CFI CFA_SP SP+4
          CFI CFA_Y Y+12
          CFI Block cfiCond761 Using cfiCommon0
          CFI (cfiCond761) Function rprintfFloat
          CFI (cfiCond761) Conditional ??CrossCallReturnLabel_80
          CFI (cfiCond761) R24 Frame(CFA_Y, -12)
          CFI (cfiCond761) R25 Frame(CFA_Y, -11)
          CFI (cfiCond761) R26 Frame(CFA_Y, -10)
          CFI (cfiCond761) R27 Frame(CFA_Y, -9)
          CFI (cfiCond761) R4 Frame(CFA_Y, -8)
          CFI (cfiCond761) R5 Frame(CFA_Y, -7)
          CFI (cfiCond761) R6 Frame(CFA_Y, -6)
          CFI (cfiCond761) R7 Frame(CFA_Y, -5)
          CFI (cfiCond761) R8 Frame(CFA_Y, -4)
          CFI (cfiCond761) R9 Frame(CFA_Y, -3)
          CFI (cfiCond761) R10 Frame(CFA_Y, -2)
          CFI (cfiCond761) R11 Frame(CFA_Y, -1)
          CFI (cfiCond761) CFA_SP SP+4
          CFI (cfiCond761) CFA_Y Y+12
          CFI Block cfiPicker762 Using cfiCommon2
          CFI (cfiPicker762) NoFunction
          CFI (cfiPicker762) Picker
        LDI     R20, 0
        LDI     R21, 0
        LDI     R22, 32
        LDI     R23, 65
        RET
          CFI EndBlock cfiCond760
          CFI EndBlock cfiCond761
          CFI EndBlock cfiPicker762

        RSEG CODE:CODE:NOROOT(1)
?Subroutine55:
          CFI Block cfiCond763 Using cfiCommon0
          CFI Function rprintfFloat
          CFI Conditional ??CrossCallReturnLabel_68
          CFI R24 Frame(CFA_Y, -12)
          CFI R25 Frame(CFA_Y, -11)
          CFI R26 Frame(CFA_Y, -10)
          CFI R27 Frame(CFA_Y, -9)
          CFI R4 Frame(CFA_Y, -8)
          CFI R5 Frame(CFA_Y, -7)
          CFI R6 Frame(CFA_Y, -6)
          CFI R7 Frame(CFA_Y, -5)
          CFI R8 Frame(CFA_Y, -4)
          CFI R9 Frame(CFA_Y, -3)
          CFI R10 Frame(CFA_Y, -2)
          CFI R11 Frame(CFA_Y, -1)
          CFI CFA_SP SP+4
          CFI CFA_Y Y+12
          CFI Block cfiCond764 Using cfiCommon0
          CFI (cfiCond764) Function rprintfFloat
          CFI (cfiCond764) Conditional ??CrossCallReturnLabel_69
          CFI (cfiCond764) R24 Frame(CFA_Y, -12)
          CFI (cfiCond764) R25 Frame(CFA_Y, -11)
          CFI (cfiCond764) R26 Frame(CFA_Y, -10)
          CFI (cfiCond764) R27 Frame(CFA_Y, -9)
          CFI (cfiCond764) R4 Frame(CFA_Y, -8)
          CFI (cfiCond764) R5 Frame(CFA_Y, -7)
          CFI (cfiCond764) R6 Frame(CFA_Y, -6)
          CFI (cfiCond764) R7 Frame(CFA_Y, -5)
          CFI (cfiCond764) R8 Frame(CFA_Y, -4)
          CFI (cfiCond764) R9 Frame(CFA_Y, -3)
          CFI (cfiCond764) R10 Frame(CFA_Y, -2)
          CFI (cfiCond764) R11 Frame(CFA_Y, -1)
          CFI (cfiCond764) CFA_SP SP+4
          CFI (cfiCond764) CFA_Y Y+12
          CFI Block cfiPicker765 Using cfiCommon2
          CFI (cfiPicker765) NoFunction
          CFI (cfiPicker765) Picker
        MOVW    R21:R20, R25:R24
        MOVW    R23:R22, R27:R26
        RCALL   ?Subroutine102
??CrossCallReturnLabel_187:
        RJMP    ?F_DIV_L04
          CFI EndBlock cfiCond763
          CFI EndBlock cfiCond764
          CFI EndBlock cfiPicker765

        RSEG CODE:CODE:NOROOT(1)
?Subroutine53:
          CFI Block cfiCond766 Using cfiCommon0
          CFI Function rprintfFloat
          CFI Conditional ??CrossCallReturnLabel_63
          CFI R24 Frame(CFA_Y, -12)
          CFI R25 Frame(CFA_Y, -11)
          CFI R26 Frame(CFA_Y, -10)
          CFI R27 Frame(CFA_Y, -9)
          CFI R4 Frame(CFA_Y, -8)
          CFI R5 Frame(CFA_Y, -7)
          CFI R6 Frame(CFA_Y, -6)
          CFI R7 Frame(CFA_Y, -5)
          CFI R8 Frame(CFA_Y, -4)
          CFI R9 Frame(CFA_Y, -3)
          CFI R10 Frame(CFA_Y, -2)
          CFI R11 Frame(CFA_Y, -1)
          CFI CFA_SP SP+4
          CFI CFA_Y Y+12
          CFI Block cfiCond767 Using cfiCommon0
          CFI (cfiCond767) Function rprintfFloat
          CFI (cfiCond767) Conditional ??CrossCallReturnLabel_64
          CFI (cfiCond767) R24 Frame(CFA_Y, -12)
          CFI (cfiCond767) R25 Frame(CFA_Y, -11)
          CFI (cfiCond767) R26 Frame(CFA_Y, -10)
          CFI (cfiCond767) R27 Frame(CFA_Y, -9)
          CFI (cfiCond767) R4 Frame(CFA_Y, -8)
          CFI (cfiCond767) R5 Frame(CFA_Y, -7)
          CFI (cfiCond767) R6 Frame(CFA_Y, -6)
          CFI (cfiCond767) R7 Frame(CFA_Y, -5)
          CFI (cfiCond767) R8 Frame(CFA_Y, -4)
          CFI (cfiCond767) R9 Frame(CFA_Y, -3)
          CFI (cfiCond767) R10 Frame(CFA_Y, -2)
          CFI (cfiCond767) R11 Frame(CFA_Y, -1)
          CFI (cfiCond767) CFA_SP SP+4
          CFI (cfiCond767) CFA_Y Y+12
          CFI Block cfiPicker768 Using cfiCommon2
          CFI (cfiPicker768) NoFunction
          CFI (cfiPicker768) Picker
        LDI     R20, 0
        LDI     R21, 0
        LDI     R22, 128
        LDI     R23, 63
        MOVW    R17:R16, R25:R24
        MOVW    R19:R18, R27:R26
        RJMP    ?F_CMP_EQ_L04
          CFI EndBlock cfiCond766
          CFI EndBlock cfiCond767
          CFI EndBlock cfiPicker768

        RSEG CODE:CODE:NOROOT(1)
?Subroutine119:
          CFI Block cfiCond769 Using cfiCommon0
          CFI Function main_power
          CFI Conditional ??CrossCallReturnLabel_321, ??CrossCallReturnLabel_316, ??CrossCallReturnLabel_36
          CFI CFA_SP SP+8
          CFI Block cfiCond770 Using cfiCommon0
          CFI (cfiCond770) Function main_power
          CFI (cfiCond770) Conditional ??CrossCallReturnLabel_321, ??CrossCallReturnLabel_316, ??CrossCallReturnLabel_37
          CFI (cfiCond770) CFA_SP SP+8
          CFI Block cfiCond771 Using cfiCommon0
          CFI (cfiCond771) Function PEREP
          CFI (cfiCond771) Conditional ??CrossCallReturnLabel_321, ??CrossCallReturnLabel_317, ??CrossCallReturnLabel_302
          CFI (cfiCond771) R24 Frame(CFA_Y, -8)
          CFI (cfiCond771) R25 Frame(CFA_Y, -7)
          CFI (cfiCond771) R26 Frame(CFA_Y, -6)
          CFI (cfiCond771) R27 Frame(CFA_Y, -5)
          CFI (cfiCond771) R4 Frame(CFA_Y, -4)
          CFI (cfiCond771) R5 Frame(CFA_Y, -3)
          CFI (cfiCond771) R6 Frame(CFA_Y, -2)
          CFI (cfiCond771) R7 Frame(CFA_Y, -1)
          CFI (cfiCond771) CFA_SP SP+8
          CFI (cfiCond771) CFA_Y Y+8
          CFI Block cfiCond772 Using cfiCommon0
          CFI (cfiCond772) Function main_logic
          CFI (cfiCond772) Conditional ??CrossCallReturnLabel_321, ??CrossCallReturnLabel_317, ??CrossCallReturnLabel_301
          CFI (cfiCond772) CFA_SP SP+8
          CFI Block cfiCond773 Using cfiCommon0
          CFI (cfiCond773) Function diag
          CFI (cfiCond773) Conditional ??CrossCallReturnLabel_319
          CFI (cfiCond773) R24 Frame(CFA_Y, -2)
          CFI (cfiCond773) R25 Frame(CFA_Y, -1)
          CFI (cfiCond773) CFA_SP SP+4
          CFI (cfiCond773) CFA_Y Y+2
          CFI Block cfiCond774 Using cfiCommon0
          CFI (cfiCond774) Function rprintfFloat
          CFI (cfiCond774) Conditional ??CrossCallReturnLabel_320
          CFI (cfiCond774) R24 Frame(CFA_Y, -12)
          CFI (cfiCond774) R25 Frame(CFA_Y, -11)
          CFI (cfiCond774) R26 Frame(CFA_Y, -10)
          CFI (cfiCond774) R27 Frame(CFA_Y, -9)
          CFI (cfiCond774) R4 Frame(CFA_Y, -8)
          CFI (cfiCond774) R5 Frame(CFA_Y, -7)
          CFI (cfiCond774) R6 Frame(CFA_Y, -6)
          CFI (cfiCond774) R7 Frame(CFA_Y, -5)
          CFI (cfiCond774) R8 Frame(CFA_Y, -4)
          CFI (cfiCond774) R9 Frame(CFA_Y, -3)
          CFI (cfiCond774) R10 Frame(CFA_Y, -2)
          CFI (cfiCond774) R11 Frame(CFA_Y, -1)
          CFI (cfiCond774) CFA_SP SP+4
          CFI (cfiCond774) CFA_Y Y+12
          CFI Block cfiPicker775 Using cfiCommon2
          CFI (cfiPicker775) NoFunction
          CFI (cfiPicker775) Picker
        LDI     R17, 0
        LDI     R18, 0
          CFI EndBlock cfiCond769
          CFI EndBlock cfiCond770
          CFI EndBlock cfiCond771
          CFI EndBlock cfiCond772
          CFI EndBlock cfiCond773
          CFI EndBlock cfiCond774
          CFI EndBlock cfiPicker775
        REQUIRE ?Subroutine124
        ;               // Fall through to label ?Subroutine124

        RSEG CODE:CODE:NOROOT(1)
?Subroutine124:
          CFI Block cfiCond776 Using cfiCommon0
          CFI Function PEREP
          CFI Conditional ??CrossCallReturnLabel_322, ??CrossCallReturnLabel_312, ??CrossCallReturnLabel_185
          CFI R24 Frame(CFA_Y, -8)
          CFI R25 Frame(CFA_Y, -7)
          CFI R26 Frame(CFA_Y, -6)
          CFI R27 Frame(CFA_Y, -5)
          CFI R4 Frame(CFA_Y, -4)
          CFI R5 Frame(CFA_Y, -3)
          CFI R6 Frame(CFA_Y, -2)
          CFI R7 Frame(CFA_Y, -1)
          CFI CFA_SP SP+8
          CFI CFA_Y Y+8
          CFI Block cfiCond777 Using cfiCommon0
          CFI (cfiCond777) Function PEREP
          CFI (cfiCond777) Conditional ??CrossCallReturnLabel_322, ??CrossCallReturnLabel_312, ??CrossCallReturnLabel_186
          CFI (cfiCond777) R24 Frame(CFA_Y, -8)
          CFI (cfiCond777) R25 Frame(CFA_Y, -7)
          CFI (cfiCond777) R26 Frame(CFA_Y, -6)
          CFI (cfiCond777) R27 Frame(CFA_Y, -5)
          CFI (cfiCond777) R4 Frame(CFA_Y, -4)
          CFI (cfiCond777) R5 Frame(CFA_Y, -3)
          CFI (cfiCond777) R6 Frame(CFA_Y, -2)
          CFI (cfiCond777) R7 Frame(CFA_Y, -1)
          CFI (cfiCond777) CFA_SP SP+8
          CFI (cfiCond777) CFA_Y Y+8
          CFI Block cfiCond778 Using cfiCommon0
          CFI (cfiCond778) Function PEREP
          CFI (cfiCond778) Conditional ??CrossCallReturnLabel_322, ??CrossCallReturnLabel_313, ??CrossCallReturnLabel_308
          CFI (cfiCond778) R24 Frame(CFA_Y, -8)
          CFI (cfiCond778) R25 Frame(CFA_Y, -7)
          CFI (cfiCond778) R26 Frame(CFA_Y, -6)
          CFI (cfiCond778) R27 Frame(CFA_Y, -5)
          CFI (cfiCond778) R4 Frame(CFA_Y, -4)
          CFI (cfiCond778) R5 Frame(CFA_Y, -3)
          CFI (cfiCond778) R6 Frame(CFA_Y, -2)
          CFI (cfiCond778) R7 Frame(CFA_Y, -1)
          CFI (cfiCond778) CFA_SP SP+8
          CFI (cfiCond778) CFA_Y Y+8
          CFI Block cfiCond779 Using cfiCommon0
          CFI (cfiCond779) Function coding
          CFI (cfiCond779) Conditional ??CrossCallReturnLabel_322, ??CrossCallReturnLabel_313, ??CrossCallReturnLabel_307
          CFI (cfiCond779) R24 Frame(CFA_Y, -10)
          CFI (cfiCond779) R25 Frame(CFA_Y, -9)
          CFI (cfiCond779) R26 Frame(CFA_Y, -8)
          CFI (cfiCond779) R27 Frame(CFA_Y, -7)
          CFI (cfiCond779) R4 Frame(CFA_Y, -6)
          CFI (cfiCond779) R5 Frame(CFA_Y, -5)
          CFI (cfiCond779) R6 Frame(CFA_Y, -4)
          CFI (cfiCond779) R7 Frame(CFA_Y, -3)
          CFI (cfiCond779) R8 Frame(CFA_Y, -2)
          CFI (cfiCond779) R9 Frame(CFA_Y, -1)
          CFI (cfiCond779) CFA_SP SP+8
          CFI (cfiCond779) CFA_Y Y+10
          CFI Block cfiCond780 Using cfiCommon0
          CFI (cfiCond780) Function PEREP
          CFI (cfiCond780) Conditional ??CrossCallReturnLabel_322, ??CrossCallReturnLabel_313, ??CrossCallReturnLabel_306
          CFI (cfiCond780) R24 Frame(CFA_Y, -8)
          CFI (cfiCond780) R25 Frame(CFA_Y, -7)
          CFI (cfiCond780) R26 Frame(CFA_Y, -6)
          CFI (cfiCond780) R27 Frame(CFA_Y, -5)
          CFI (cfiCond780) R4 Frame(CFA_Y, -4)
          CFI (cfiCond780) R5 Frame(CFA_Y, -3)
          CFI (cfiCond780) R6 Frame(CFA_Y, -2)
          CFI (cfiCond780) R7 Frame(CFA_Y, -1)
          CFI (cfiCond780) CFA_SP SP+8
          CFI (cfiCond780) CFA_Y Y+8
          CFI Block cfiCond781 Using cfiCommon0
          CFI (cfiCond781) Function PEREP
          CFI (cfiCond781) Conditional ??CrossCallReturnLabel_322, ??CrossCallReturnLabel_313, ??CrossCallReturnLabel_305
          CFI (cfiCond781) R24 Frame(CFA_Y, -8)
          CFI (cfiCond781) R25 Frame(CFA_Y, -7)
          CFI (cfiCond781) R26 Frame(CFA_Y, -6)
          CFI (cfiCond781) R27 Frame(CFA_Y, -5)
          CFI (cfiCond781) R4 Frame(CFA_Y, -4)
          CFI (cfiCond781) R5 Frame(CFA_Y, -3)
          CFI (cfiCond781) R6 Frame(CFA_Y, -2)
          CFI (cfiCond781) R7 Frame(CFA_Y, -1)
          CFI (cfiCond781) CFA_SP SP+8
          CFI (cfiCond781) CFA_Y Y+8
          CFI Block cfiCond782 Using cfiCommon0
          CFI (cfiCond782) Function coding
          CFI (cfiCond782) Conditional ??CrossCallReturnLabel_322, ??CrossCallReturnLabel_313, ??CrossCallReturnLabel_304
          CFI (cfiCond782) R24 Frame(CFA_Y, -10)
          CFI (cfiCond782) R25 Frame(CFA_Y, -9)
          CFI (cfiCond782) R26 Frame(CFA_Y, -8)
          CFI (cfiCond782) R27 Frame(CFA_Y, -7)
          CFI (cfiCond782) R4 Frame(CFA_Y, -6)
          CFI (cfiCond782) R5 Frame(CFA_Y, -5)
          CFI (cfiCond782) R6 Frame(CFA_Y, -4)
          CFI (cfiCond782) R7 Frame(CFA_Y, -3)
          CFI (cfiCond782) R8 Frame(CFA_Y, -2)
          CFI (cfiCond782) R9 Frame(CFA_Y, -1)
          CFI (cfiCond782) CFA_SP SP+8
          CFI (cfiCond782) CFA_Y Y+10
          CFI Block cfiCond783 Using cfiCommon0
          CFI (cfiCond783) Function coding
          CFI (cfiCond783) Conditional ??CrossCallReturnLabel_322, ??CrossCallReturnLabel_313, ??CrossCallReturnLabel_303
          CFI (cfiCond783) R24 Frame(CFA_Y, -10)
          CFI (cfiCond783) R25 Frame(CFA_Y, -9)
          CFI (cfiCond783) R26 Frame(CFA_Y, -8)
          CFI (cfiCond783) R27 Frame(CFA_Y, -7)
          CFI (cfiCond783) R4 Frame(CFA_Y, -6)
          CFI (cfiCond783) R5 Frame(CFA_Y, -5)
          CFI (cfiCond783) R6 Frame(CFA_Y, -4)
          CFI (cfiCond783) R7 Frame(CFA_Y, -3)
          CFI (cfiCond783) R8 Frame(CFA_Y, -2)
          CFI (cfiCond783) R9 Frame(CFA_Y, -1)
          CFI (cfiCond783) CFA_SP SP+8
          CFI (cfiCond783) CFA_Y Y+10
          CFI Block cfiCond784 Using cfiCommon0
          CFI (cfiCond784) Function coding
          CFI (cfiCond784) Conditional ??CrossCallReturnLabel_322, ??CrossCallReturnLabel_311, ??CrossCallReturnLabel_192
          CFI (cfiCond784) R24 Frame(CFA_Y, -10)
          CFI (cfiCond784) R25 Frame(CFA_Y, -9)
          CFI (cfiCond784) R26 Frame(CFA_Y, -8)
          CFI (cfiCond784) R27 Frame(CFA_Y, -7)
          CFI (cfiCond784) R4 Frame(CFA_Y, -6)
          CFI (cfiCond784) R5 Frame(CFA_Y, -5)
          CFI (cfiCond784) R6 Frame(CFA_Y, -4)
          CFI (cfiCond784) R7 Frame(CFA_Y, -3)
          CFI (cfiCond784) R8 Frame(CFA_Y, -2)
          CFI (cfiCond784) R9 Frame(CFA_Y, -1)
          CFI (cfiCond784) CFA_SP SP+8
          CFI (cfiCond784) CFA_Y Y+10
          CFI Block cfiCond785 Using cfiCommon0
          CFI (cfiCond785) Function diag
          CFI (cfiCond785) Conditional ??CrossCallReturnLabel_322, ??CrossCallReturnLabel_311, ??CrossCallReturnLabel_191
          CFI (cfiCond785) R24 Frame(CFA_Y, -2)
          CFI (cfiCond785) R25 Frame(CFA_Y, -1)
          CFI (cfiCond785) CFA_SP SP+8
          CFI (cfiCond785) CFA_Y Y+2
          CFI Block cfiCond786 Using cfiCommon0
          CFI (cfiCond786) Function coding
          CFI (cfiCond786) Conditional ??CrossCallReturnLabel_322, ??CrossCallReturnLabel_309
          CFI (cfiCond786) R24 Frame(CFA_Y, -10)
          CFI (cfiCond786) R25 Frame(CFA_Y, -9)
          CFI (cfiCond786) R26 Frame(CFA_Y, -8)
          CFI (cfiCond786) R27 Frame(CFA_Y, -7)
          CFI (cfiCond786) R4 Frame(CFA_Y, -6)
          CFI (cfiCond786) R5 Frame(CFA_Y, -5)
          CFI (cfiCond786) R6 Frame(CFA_Y, -4)
          CFI (cfiCond786) R7 Frame(CFA_Y, -3)
          CFI (cfiCond786) R8 Frame(CFA_Y, -2)
          CFI (cfiCond786) R9 Frame(CFA_Y, -1)
          CFI (cfiCond786) CFA_SP SP+6
          CFI (cfiCond786) CFA_Y Y+10
          CFI Block cfiCond787 Using cfiCommon0
          CFI (cfiCond787) Function coding
          CFI (cfiCond787) Conditional ??CrossCallReturnLabel_322, ??CrossCallReturnLabel_310
          CFI (cfiCond787) R24 Frame(CFA_Y, -10)
          CFI (cfiCond787) R25 Frame(CFA_Y, -9)
          CFI (cfiCond787) R26 Frame(CFA_Y, -8)
          CFI (cfiCond787) R27 Frame(CFA_Y, -7)
          CFI (cfiCond787) R4 Frame(CFA_Y, -6)
          CFI (cfiCond787) R5 Frame(CFA_Y, -5)
          CFI (cfiCond787) R6 Frame(CFA_Y, -4)
          CFI (cfiCond787) R7 Frame(CFA_Y, -3)
          CFI (cfiCond787) R8 Frame(CFA_Y, -2)
          CFI (cfiCond787) R9 Frame(CFA_Y, -1)
          CFI (cfiCond787) CFA_SP SP+6
          CFI (cfiCond787) CFA_Y Y+10
          CFI Block cfiCond788 Using cfiCommon0
          CFI (cfiCond788) Function PEREP
          CFI (cfiCond788) Conditional ??CrossCallReturnLabel_318, ??CrossCallReturnLabel_44
          CFI (cfiCond788) R24 Frame(CFA_Y, -8)
          CFI (cfiCond788) R25 Frame(CFA_Y, -7)
          CFI (cfiCond788) R26 Frame(CFA_Y, -6)
          CFI (cfiCond788) R27 Frame(CFA_Y, -5)
          CFI (cfiCond788) R4 Frame(CFA_Y, -4)
          CFI (cfiCond788) R5 Frame(CFA_Y, -3)
          CFI (cfiCond788) R6 Frame(CFA_Y, -2)
          CFI (cfiCond788) R7 Frame(CFA_Y, -1)
          CFI (cfiCond788) CFA_SP SP+6
          CFI (cfiCond788) CFA_Y Y+8
          CFI Block cfiCond789 Using cfiCommon0
          CFI (cfiCond789) Function PEREP
          CFI (cfiCond789) Conditional ??CrossCallReturnLabel_318, ??CrossCallReturnLabel_45
          CFI (cfiCond789) R24 Frame(CFA_Y, -8)
          CFI (cfiCond789) R25 Frame(CFA_Y, -7)
          CFI (cfiCond789) R26 Frame(CFA_Y, -6)
          CFI (cfiCond789) R27 Frame(CFA_Y, -5)
          CFI (cfiCond789) R4 Frame(CFA_Y, -4)
          CFI (cfiCond789) R5 Frame(CFA_Y, -3)
          CFI (cfiCond789) R6 Frame(CFA_Y, -2)
          CFI (cfiCond789) R7 Frame(CFA_Y, -1)
          CFI (cfiCond789) CFA_SP SP+6
          CFI (cfiCond789) CFA_Y Y+8
          CFI Block cfiCond790 Using cfiCommon0
          CFI (cfiCond790) Function main_power
          CFI (cfiCond790) Conditional ??CrossCallReturnLabel_321, ??CrossCallReturnLabel_316, ??CrossCallReturnLabel_36
          CFI (cfiCond790) CFA_SP SP+8
          CFI Block cfiCond791 Using cfiCommon0
          CFI (cfiCond791) Function main_power
          CFI (cfiCond791) Conditional ??CrossCallReturnLabel_321, ??CrossCallReturnLabel_316, ??CrossCallReturnLabel_37
          CFI (cfiCond791) CFA_SP SP+8
          CFI Block cfiCond792 Using cfiCommon0
          CFI (cfiCond792) Function PEREP
          CFI (cfiCond792) Conditional ??CrossCallReturnLabel_321, ??CrossCallReturnLabel_317, ??CrossCallReturnLabel_302
          CFI (cfiCond792) R24 Frame(CFA_Y, -8)
          CFI (cfiCond792) R25 Frame(CFA_Y, -7)
          CFI (cfiCond792) R26 Frame(CFA_Y, -6)
          CFI (cfiCond792) R27 Frame(CFA_Y, -5)
          CFI (cfiCond792) R4 Frame(CFA_Y, -4)
          CFI (cfiCond792) R5 Frame(CFA_Y, -3)
          CFI (cfiCond792) R6 Frame(CFA_Y, -2)
          CFI (cfiCond792) R7 Frame(CFA_Y, -1)
          CFI (cfiCond792) CFA_SP SP+8
          CFI (cfiCond792) CFA_Y Y+8
          CFI Block cfiCond793 Using cfiCommon0
          CFI (cfiCond793) Function main_logic
          CFI (cfiCond793) Conditional ??CrossCallReturnLabel_321, ??CrossCallReturnLabel_317, ??CrossCallReturnLabel_301
          CFI (cfiCond793) CFA_SP SP+8
          CFI Block cfiCond794 Using cfiCommon0
          CFI (cfiCond794) Function diag
          CFI (cfiCond794) Conditional ??CrossCallReturnLabel_319
          CFI (cfiCond794) R24 Frame(CFA_Y, -2)
          CFI (cfiCond794) R25 Frame(CFA_Y, -1)
          CFI (cfiCond794) CFA_SP SP+4
          CFI (cfiCond794) CFA_Y Y+2
          CFI Block cfiCond795 Using cfiCommon0
          CFI (cfiCond795) Function rprintfFloat
          CFI (cfiCond795) Conditional ??CrossCallReturnLabel_320
          CFI (cfiCond795) R24 Frame(CFA_Y, -12)
          CFI (cfiCond795) R25 Frame(CFA_Y, -11)
          CFI (cfiCond795) R26 Frame(CFA_Y, -10)
          CFI (cfiCond795) R27 Frame(CFA_Y, -9)
          CFI (cfiCond795) R4 Frame(CFA_Y, -8)
          CFI (cfiCond795) R5 Frame(CFA_Y, -7)
          CFI (cfiCond795) R6 Frame(CFA_Y, -6)
          CFI (cfiCond795) R7 Frame(CFA_Y, -5)
          CFI (cfiCond795) R8 Frame(CFA_Y, -4)
          CFI (cfiCond795) R9 Frame(CFA_Y, -3)
          CFI (cfiCond795) R10 Frame(CFA_Y, -2)
          CFI (cfiCond795) R11 Frame(CFA_Y, -1)
          CFI (cfiCond795) CFA_SP SP+4
          CFI (cfiCond795) CFA_Y Y+12
          CFI Block cfiPicker796 Using cfiCommon2
          CFI (cfiPicker796) NoFunction
          CFI (cfiPicker796) Picker
        LDI     R19, 0
        RJMP    ?UL2F_L04
          CFI EndBlock cfiCond776
          CFI EndBlock cfiCond777
          CFI EndBlock cfiCond778
          CFI EndBlock cfiCond779
          CFI EndBlock cfiCond780
          CFI EndBlock cfiCond781
          CFI EndBlock cfiCond782
          CFI EndBlock cfiCond783
          CFI EndBlock cfiCond784
          CFI EndBlock cfiCond785
          CFI EndBlock cfiCond786
          CFI EndBlock cfiCond787
          CFI EndBlock cfiCond788
          CFI EndBlock cfiCond789
          CFI EndBlock cfiCond790
          CFI EndBlock cfiCond791
          CFI EndBlock cfiCond792
          CFI EndBlock cfiCond793
          CFI EndBlock cfiCond794
          CFI EndBlock cfiCond795
          CFI EndBlock cfiPicker796

        ASEGN ABSOLUTE:DATA:NOROOT,01cH
__?EECR:

        ASEGN ABSOLUTE:DATA:NOROOT,01dH
__?EEDR:

        ASEGN ABSOLUTE:DATA:NOROOT,01eH
__?EEARL:

        ASEGN ABSOLUTE:DATA:NOROOT,01fH
__?EEARH:

        COMMON INTVEC:CODE:ROOT(1)
        ORG 2
`??funINT0_vect??INTVEC 2`:
        RJMP    funINT0_vect

        COMMON INTVEC:CODE:ROOT(1)
        ORG 8
`??TIMER2ovf??INTVEC 8`:
        RJMP    TIMER2ovf

        COMMON INTVEC:CODE:ROOT(1)
        ORG 16
`??funTIMER1_OVF_vect??INTVEC 16`:
        RJMP    funTIMER1_OVF_vect

        COMMON INTVEC:CODE:ROOT(1)
        ORG 22
`??usart_rxc_my??INTVEC 22`:
        RJMP    usart_rxc_my

        RSEG NEAR_ID:CODE:NOROOT(0)
`?<Initializer for <Constant " error ct big =">`:
        DC8 " error ct big ="

        RSEG INITTAB:CODE:NOROOT(0)
`?<Segment init: NEAR_I>`:
        DC16    SFE(NEAR_I) - SFB(NEAR_I)
        DC16    SFB(NEAR_I)
        DC16    SFB(NEAR_ID)
        REQUIRE ?need_segment_init

        RSEG NEAR_ID:CODE:NOROOT(0)
`?<Initializer for <Constant "  /   cod1= ">>`:
        DC8 "  /   cod1= "

        RSEG NEAR_ID:CODE:NOROOT(0)
`?<Initializer for <Constant "/   cod2= ">>`:
        DC8 "/   cod2= "

        RSEG NEAR_ID:CODE:NOROOT(0)
`?<Initializer for <Constant "/   cod3= ">>`:
        DC8 "/   cod3= "

        RSEG NEAR_ID:CODE:NOROOT(0)
`?<Initializer for <Constant "  / abslen= ">>`:
        DC8 "  / abslen= "

        RSEG NEAR_ID:CODE:NOROOT(0)
`?<Initializer for <Constant "  / len= ">>`:
        DC8 "  / len= "

        RSEG NEAR_ID:CODE:NOROOT(0)
`?<Initializer for <Constant "  ">>`:
        DC8 "  "

        RSEG NEAR_ID:CODE:NOROOT(0)
`?<Initializer for <Constant "  / cod1= ">>`:
        DC8 "  / cod1= "

        RSEG NEAR_ID:CODE:NOROOT(0)
`?<Initializer for <Constant " / cod2= ">>`:
        DC8 " / cod2= "

        RSEG NEAR_ID:CODE:NOROOT(0)
`?<Initializer for <Constant " / cod3= ">>`:
        DC8 " / cod3= "

        RSEG NEAR_ID:CODE:NOROOT(0)
`?<Initializer for <Constant "/ minlen=">>`:
        DC8 "/ minlen="

        RSEG NEAR_ID:CODE:NOROOT(0)
`?<Initializer for <Constant "OFF>adr=">>`:
        DC8 "OFF>adr="

        RSEG NEAR_ID:CODE:NOROOT(0)
`?<Initializer for <Constant "ON>adr=">>`:
        DC8 "ON>adr="

        RSEG NEAR_ID:CODE:NOROOT(0)
`?<Initializer for <Constant "normal>command fi`:
        DC8 "normal>command find  adr="

        RSEG NEAR_ID:CODE:NOROOT(0)
`?<Initializer for <Constant "write ..">>`:
        DC8 "write .."

        RSEG NEAR_ID:CODE:NOROOT(0)
`?<Initializer for <Constant "OK !   ">>`:
        DC8 "OK !   "

        RSEG NEAR_ID:CODE:NOROOT(0)
`?<Initializer for <Constant "- vkluchen kratki`:
        DC8 "- vkluchen kratkiy viviod -"

        RSEG NEAR_ID:CODE:NOROOT(0)
`?<Initializer for <Constant " ==  EEPROM read `:
        DC8 " ==  EEPROM read == "

        RSEG NEAR_ID:CODE:NOROOT(0)
`?<Initializer for <Constant " > ">>`:
        DC8 " > "

        RSEG NEAR_ID:CODE:NOROOT(0)
`?<Initializer for <Constant " get: ">>`:
        DC8 " get: "

        RSEG NEAR_ID:CODE:NOROOT(0)
`?<Initializer for <Constant "  regim  no sourc`:
        DC8 "  regim  no source5 >"

        RSEG NEAR_ID:CODE:NOROOT(0)
`?<Initializer for <Constant "  regim  PROGRAMM`:
        DC8 "  regim  PROGRAMMING !!  READY >"

        RSEG NEAR_ID:CODE:NOROOT(0)
`?<Initializer for <Constant "  regim  normal  `:
        DC8 "  regim  normal  READY >"

        RSEG INITTAB:CODE:NOROOT(0)
`?<Segment init: NEAR_Z>`:
        DC16    SFE(NEAR_Z) - SFB(NEAR_Z)
        DC16    SFB(NEAR_Z)
        DC16    0
        REQUIRE ?need_segment_init

        RSEG NEAR_ID:CODE:NOROOT(0)
`?<Initializer for ind>`:
        DC8 1

        RSEG NEAR_ID:CODE:NOROOT(0)
`?<Initializer for tON>`:
        DC16 20000

        RSEG NEAR_ID:CODE:NOROOT(0)
`?<Initializer for lastsel>`:
        DC8 1

        RSEG NEAR_ID:CODE:NOROOT(0)
`?<Initializer for sel>`:
        DC8 1

        RSEG NEAR_ID:CODE:NOROOT(0)
`?<Initializer for port>`:
        DC8 255

        END
// 
//    30 bytes in segment ABSOLUTE
// 4 590 bytes in segment CODE
//   242 bytes in segment EEPROM_N
//    12 bytes in segment INITTAB
//     8 bytes in segment INTVEC
//   324 bytes in segment NEAR_I
//   324 bytes in segment NEAR_ID
//   472 bytes in segment NEAR_Z
// 
// 4 914 bytes of CODE  memory (+ 20 bytes shared)
//   796 bytes of DATA  memory (+ 30 bytes shared)
//   242 bytes of XDATA memory
//
//Errors: none
//Warnings: 3
