///////////////////////////////////////////////////////////////////////////////
//
// IAR C/C++ Compiler V6.40.1.741 for Atmel AVR           07/Feb/2017  15:42:50
// Copyright 1996-2014 IAR Systems AB.
//
//    Source file  =  F:\Dulov\remoteamp\du.c
//    Command line =  
//        F:\Dulov\remoteamp\du.c --cpu=m8 -ms -o
//        F:\Dulov\remoteamp\Release\Obj\ -D NDEBUG -lC
//        F:\Dulov\remoteamp\Release\List\ -lA F:\Dulov\remoteamp\Release\List\
//        --initializers_in_flash --no_clustering -DENABLE_BIT_DEFINITIONS -e
//        --eeprom_size 512 --dlib --dlib_config "C:\Program Files\IAR
//        Systems\Embedded Workbench 6.5\avr\LIB\DLIB\dlAVR-1s-ec_mul-n.h" -Ohz
//        --mfc F:\Dulov\remoteamp\main.c F:\Dulov\remoteamp\SoftTimers.c
//        F:\Dulov\remoteamp\usart.c
//    List file    =  F:\Dulov\remoteamp\Release\List\du.s90
//
///////////////////////////////////////////////////////////////////////////////

        NAME du

        RTMODEL "__64bit_doubles", "disabled"
        RTMODEL "__SystemLibrary", "DLib"
        RTMODEL "__cpu", "1"
        RTMODEL "__cpu_name", "ATmega8"
        RTMODEL "__enhanced_core", "enabled"
        RTMODEL "__has_elpm", "false"
        RTMODEL "__memory_model", "2"
        RTMODEL "__rt_version", "3"

        RSEG CSTACK:DATA:NOROOT(0)
        RSEG RSTACK:DATA:NOROOT(0)

        EXTERN ?EPILOGUE_B10_L09
        EXTERN ?EPILOGUE_B12_L09
        EXTERN ?EPILOGUE_B2_L09
        EXTERN ?EPILOGUE_B4_L09
        EXTERN ?EPILOGUE_B8_L09
        EXTERN ?F2SL_L04
        EXTERN ?F_CMP_EQ_L04
        EXTERN ?F_CMP_GE_L04
        EXTERN ?F_CMP_LT_L04
        EXTERN ?F_DIV_L04
        EXTERN ?F_MUL_L04
        EXTERN ?F_SUB_L04
        EXTERN ?PROLOGUE10_L09
        EXTERN ?PROLOGUE12_L09
        EXTERN ?PROLOGUE2_L09
        EXTERN ?PROLOGUE4_L09
        EXTERN ?PROLOGUE8_L09
        EXTERN ?Register_R10_is_cg_reg
        EXTERN ?Register_R11_is_cg_reg
        EXTERN ?Register_R4_is_cg_reg
        EXTERN ?Register_R5_is_cg_reg
        EXTERN ?Register_R6_is_cg_reg
        EXTERN ?Register_R7_is_cg_reg
        EXTERN ?Register_R8_is_cg_reg
        EXTERN ?Register_R9_is_cg_reg
        EXTERN ?S_SHL_L02
        EXTERN ?UL2F_L04
        EXTERN ?need_segment_init
        EXTERN __eeget16_16
        EXTERN __eeget8_16
        EXTERN __eeput16_16
        EXTERN __eeput8_16

        PUBWEAK `?<Segment init: NEAR_I>`
        PUBWEAK `?<Segment init: NEAR_Z>`
        PUBWEAK `??funINT0_vect??INTVEC 2`
        PUBWEAK `??funTIMER1_OVF_vect??INTVEC 16`
        PUBWEAK `??usart_rxc_my??INTVEC 22`
        PUBLIC PEREP
        FUNCTION PEREP,021201H
        ARGFRAME RSTACK, 0, STACK
        LOCFRAME CSTACK, 8, STACK
        LOCFRAME RSTACK, 4, STACK
        PUBLIC TimerSet
        FUNCTION TimerSet,0203H
        ARGFRAME RSTACK, 0, STACK
        LOCFRAME RSTACK, 2, STACK
        PUBLIC TimerTick
        FUNCTION TimerTick,0203H
        ARGFRAME RSTACK, 0, STACK
        LOCFRAME RSTACK, 2, STACK
        PUBLIC USART_GetChar
        FUNCTION USART_GetChar,0203H
        ARGFRAME RSTACK, 0, STACK
        LOCFRAME RSTACK, 2, STACK
        PUBLIC USART_Init
        FUNCTION USART_Init,0201H
        ARGFRAME RSTACK, 0, STACK
        LOCFRAME RSTACK, 2, STACK
        PUBLIC USART_SendChar
        FUNCTION USART_SendChar,0203H
        ARGFRAME RSTACK, 0, STACK
        LOCFRAME RSTACK, 2, STACK
        PUBWEAK _A_ACSR
        PUBWEAK _A_DDRB
        PUBWEAK _A_DDRC
        PUBWEAK _A_DDRD
        PUBWEAK _A_GICR
        PUBWEAK _A_ICR1
        PUBWEAK _A_MCUCR
        PUBWEAK _A_OCR1A
        PUBWEAK _A_OCR1B
        PUBWEAK _A_PIND
        PUBWEAK _A_PORTB
        PUBWEAK _A_PORTC
        PUBWEAK _A_PORTD
        PUBWEAK _A_TCCR1A
        PUBWEAK _A_TCCR1B
        PUBWEAK _A_TCNT0
        PUBWEAK _A_TCNT1
        PUBWEAK _A_TIFR
        PUBWEAK _A_TIMSK
        PUBWEAK _A_UBRRH
        PUBWEAK _A_UBRRL
        PUBWEAK _A_UCSRA
        PUBWEAK _A_UCSRB
        PUBWEAK _A_UDR
        PUBWEAK __?EEARH
        PUBWEAK __?EEARL
        PUBWEAK __?EECR
        PUBWEAK __?EEDR
        PUBLIC analizCOD
        FUNCTION analizCOD,0203H
        ARGFRAME RSTACK, 0, STACK
        LOCFRAME CSTACK, 2, STACK
        LOCFRAME RSTACK, 4, STACK
        PUBLIC analiz_INT
        FUNCTION analiz_INT,0201H
        ARGFRAME RSTACK, 0, STACK
        LOCFRAME RSTACK, 2, STACK
        PUBLIC aoff
        PUBLIC c1
        PUBLIC c2
        PUBLIC c3
        PUBLIC cod1
        PUBLIC cod2
        PUBLIC cod3
        PUBLIC cod4
        PUBLIC cod_ok
        PUBLIC coding
        FUNCTION coding,021203H
        ARGFRAME RSTACK, 0, STACK
        LOCFRAME CSTACK, 10, STACK
        LOCFRAME RSTACK, 4, STACK
        PUBLIC ct
        PUBLIC diag
        FUNCTION diag,021203H
        ARGFRAME RSTACK, 0, STACK
        LOCFRAME CSTACK, 2, STACK
        LOCFRAME RSTACK, 4, STACK
        PUBLIC dim1
        PUBLIC dim2
        PUBLIC du_init
        FUNCTION du_init,0203H
        ARGFRAME RSTACK, 0, STACK
        LOCFRAME RSTACK, 2, STACK
        PUBLIC du_main
        FUNCTION du_main,021203H
        ARGFRAME RSTACK, 0, STACK
        LOCFRAME RSTACK, 2, STACK
        PUBLIC fmode
        PUBLIC funINT0_vect
        FUNCTION funINT0_vect,0233H
        ARGFRAME CSTACK, 0, STACK
        LOCFRAME CSTACK, 2, STACK
        LOCFRAME RSTACK, 2, STACK
        PUBLIC funTIMER1_OVF_vect
        FUNCTION funTIMER1_OVF_vect,0233H
        ARGFRAME CSTACK, 0, STACK
        LOCFRAME CSTACK, 2, STACK
        LOCFRAME RSTACK, 2, STACK
        PUBLIC getadr
        FUNCTION getadr,0203H
        ARGFRAME RSTACK, 0, STACK
        LOCFRAME RSTACK, 2, STACK
        PUBLIC gro
        FUNCTION gro,0203H
        ARGFRAME RSTACK, 0, STACK
        LOCFRAME RSTACK, 4, STACK
        PUBLIC ind
        PUBLIC iniPORTS
        FUNCTION iniPORTS,0203H
        ARGFRAME RSTACK, 0, STACK
        LOCFRAME RSTACK, 2, STACK
        PUBLIC k
        PUBLIC led_all
        FUNCTION led_all,0203H
        ARGFRAME RSTACK, 0, STACK
        LOCFRAME RSTACK, 2, STACK
        PUBLIC led_test
        FUNCTION led_test,021201H
        ARGFRAME RSTACK, 0, STACK
        LOCFRAME CSTACK, 1, STACK
        LOCFRAME RSTACK, 2, STACK
        PUBLIC len
        PUBLIC main
        FUNCTION main,021a03H
        ARGFRAME CSTACK, 0, STACK
        LOCFRAME CSTACK, 1, STACK
        LOCFRAME RSTACK, 4, STACK
        PUBLIC main_logic
        FUNCTION main_logic,021201H
        ARGFRAME CSTACK, 0, STACK
        LOCFRAME RSTACK, 4, STACK
        PUBLIC migINI
        FUNCTION migINI,021203H
        ARGFRAME RSTACK, 0, STACK
        LOCFRAME RSTACK, 4, STACK
        PUBLIC migWORK
        FUNCTION migWORK,021203H
        ARGFRAME RSTACK, 0, STACK
        LOCFRAME RSTACK, 4, STACK
        PUBLIC minimallen
        PUBLIC mode
        PUBLIC mode_programming
        PUBLIC modegro
        PUBLIC mute
        PUBLIC normal
        FUNCTION normal,021203H
        ARGFRAME RSTACK, 0, STACK
        LOCFRAME CSTACK, 1, STACK
        LOCFRAME RSTACK, 4, STACK
        PUBLIC on
        PUBLIC onok
        PUBLIC perepoln
        PUBLIC pr
        PUBLIC programming
        FUNCTION programming,021203H
        ARGFRAME RSTACK, 0, STACK
        LOCFRAME CSTACK, 1, STACK
        LOCFRAME RSTACK, 2, STACK
        PUBLIC pult
        FUNCTION pult,021201H
        ARGFRAME RSTACK, 0, STACK
        LOCFRAME RSTACK, 2, STACK
        PUBLIC pultadr
        PUBLIC resOUT
        FUNCTION resOUT,0203H
        ARGFRAME RSTACK, 0, STACK
        LOCFRAME RSTACK, 2, STACK
        PUBLIC resled
        FUNCTION resled,0203H
        ARGFRAME RSTACK, 0, STACK
        LOCFRAME RSTACK, 2, STACK
        PUBLIC rez
        PUBLIC rprintfFloat
        FUNCTION rprintfFloat,021203H
        ARGFRAME RSTACK, 0, STACK
        LOCFRAME CSTACK, 12, STACK
        LOCFRAME RSTACK, 4, STACK
        PUBLIC rprintfStr
        FUNCTION rprintfStr,021203H
        ARGFRAME RSTACK, 0, STACK
        LOCFRAME CSTACK, 4, STACK
        LOCFRAME RSTACK, 2, STACK
        PUBLIC source
        FUNCTION source,021203H
        ARGFRAME RSTACK, 0, STACK
        LOCFRAME RSTACK, 2, STACK
        PUBLIC t1
        PUBLIC t2
        PUBLIC tON
        PUBLIC tekfunc
        PUBLIC til
        PUBLIC timerzad
        PUBLIC tm1
        PUBLIC tm2
        PUBLIC u
        PUBLIC usartRxBuf
        PUBLIC usart_rxc_my
        FUNCTION usart_rxc_my,0233H
        ARGFRAME CSTACK, 0, STACK
        LOCFRAME CSTACK, 2, STACK
        LOCFRAME RSTACK, 2, STACK
        PUBLIC writeCOD
        FUNCTION writeCOD,021203H
        ARGFRAME RSTACK, 0, STACK
        LOCFRAME CSTACK, 1, STACK
        LOCFRAME RSTACK, 4, STACK
        PUBLIC zader
        
          CFI Names cfiNames0
          CFI StackFrame CFA_Y Y DATA
          CFI StackFrame CFA_SP SP DATA
          CFI VirtualResource ?RetPad:1, ?RetHigh:8, ?RetLow:8, ?Ret:17
          CFI Resource R0:8, R1:8, R2:8, R3:8, R4:8, R5:8, R6:8, R7:8, R8:8, R9:8
          CFI Resource R10:8, R11:8, R12:8, R13:8, R14:8, R15:8, R16:8, R17:8
          CFI Resource R18:8, R19:8, R20:8, R21:8, R22:8, R23:8, R24:8, R25:8
          CFI Resource R26:8, R27:8, R28:8, R29:8, R30:8, R31:8
          CFI Resource ?RetHighByteMask:8, SP:16, SPH:8, SPL:8, Y:16
          CFI ResourceParts ?Ret ?RetHigh, ?RetLow, ?RetPad
          CFI ResourceParts SP SPH, SPL
          CFI ResourceParts Y R29, R28
          CFI EndNames cfiNames0
        
          CFI Common cfiCommon0 Using cfiNames0
          CFI CodeAlign 1
          CFI DataAlign 1
          CFI ReturnAddress ?Ret CODE
          CFI CFA_Y Y+0
          CFI CFA_SP SP+2
          CFI ?RetPad 0
          CFI ?RetHigh and(load(1, DATA, sub(CFA_SP, 1)), ?RetHighByteMask)
          CFI ?RetLow Frame(CFA_SP, 0)
          CFI ?Ret Concat
          CFI R0 Undefined
          CFI R1 Undefined
          CFI R2 Undefined
          CFI R3 Undefined
          CFI R4 SameValue
          CFI R5 SameValue
          CFI R6 SameValue
          CFI R7 SameValue
          CFI R8 SameValue
          CFI R9 SameValue
          CFI R10 SameValue
          CFI R11 SameValue
          CFI R12 SameValue
          CFI R13 SameValue
          CFI R14 SameValue
          CFI R15 SameValue
          CFI R16 Undefined
          CFI R17 Undefined
          CFI R18 Undefined
          CFI R19 Undefined
          CFI R20 Undefined
          CFI R21 Undefined
          CFI R22 Undefined
          CFI R23 Undefined
          CFI R24 SameValue
          CFI R25 SameValue
          CFI R26 SameValue
          CFI R27 SameValue
          CFI R28 Undefined
          CFI R29 Undefined
          CFI R30 Undefined
          CFI R31 Undefined
          CFI ?RetHighByteMask SameValue
          CFI SPH Undefined
          CFI SPL Undefined
          CFI EndCommon cfiCommon0
        
        
          CFI Common cfiCommon1 Using cfiNames0
          CFI CodeAlign 1
          CFI DataAlign 1
          CFI ReturnAddress ?Ret CODE
          CFI CFA_Y Y+0
          CFI CFA_SP SP+2
          CFI ?RetPad 0
          CFI ?RetHigh and(load(1, DATA, sub(CFA_SP, 1)), ?RetHighByteMask)
          CFI ?RetLow Frame(CFA_SP, 0)
          CFI ?Ret Concat
          CFI R0 SameValue
          CFI R1 SameValue
          CFI R2 SameValue
          CFI R3 SameValue
          CFI R4 SameValue
          CFI R5 SameValue
          CFI R6 SameValue
          CFI R7 SameValue
          CFI R8 SameValue
          CFI R9 SameValue
          CFI R10 SameValue
          CFI R11 SameValue
          CFI R12 SameValue
          CFI R13 SameValue
          CFI R14 SameValue
          CFI R15 SameValue
          CFI R16 SameValue
          CFI R17 SameValue
          CFI R18 SameValue
          CFI R19 SameValue
          CFI R20 SameValue
          CFI R21 SameValue
          CFI R22 SameValue
          CFI R23 SameValue
          CFI R24 SameValue
          CFI R25 SameValue
          CFI R26 SameValue
          CFI R27 SameValue
          CFI R28 Undefined
          CFI R29 Undefined
          CFI R30 SameValue
          CFI R31 SameValue
          CFI ?RetHighByteMask SameValue
          CFI SPH Undefined
          CFI SPL Undefined
          CFI EndCommon cfiCommon1
        
        
          CFI Common cfiCommon2 Using cfiNames0
          CFI CodeAlign 1
          CFI DataAlign 1
          CFI ReturnAddress ?Ret CODE
          CFI CFA_Y Notused
          CFI CFA_SP SP+2
          CFI ?RetPad 0
          CFI ?RetHigh and(load(1, DATA, sub(CFA_SP, 1)), ?RetHighByteMask)
          CFI ?RetLow Frame(CFA_SP, 0)
          CFI ?Ret Concat
          CFI R0 SameValue
          CFI R1 SameValue
          CFI R2 SameValue
          CFI R3 SameValue
          CFI R4 SameValue
          CFI R5 SameValue
          CFI R6 SameValue
          CFI R7 SameValue
          CFI R8 SameValue
          CFI R9 SameValue
          CFI R10 SameValue
          CFI R11 SameValue
          CFI R12 SameValue
          CFI R13 SameValue
          CFI R14 SameValue
          CFI R15 SameValue
          CFI R16 SameValue
          CFI R17 SameValue
          CFI R18 SameValue
          CFI R19 SameValue
          CFI R20 SameValue
          CFI R21 SameValue
          CFI R22 SameValue
          CFI R23 SameValue
          CFI R24 SameValue
          CFI R25 SameValue
          CFI R26 SameValue
          CFI R27 SameValue
          CFI R28 Undefined
          CFI R29 Undefined
          CFI R30 SameValue
          CFI R31 SameValue
          CFI ?RetHighByteMask SameValue
          CFI SPH Undefined
          CFI SPL Undefined
          CFI Y SameValue
          CFI EndCommon cfiCommon2
        
funINT0_vect        SYMBOL "funINT0_vect"
`??funINT0_vect??INTVEC 2` SYMBOL "??INTVEC 2", funINT0_vect
funTIMER1_OVF_vect  SYMBOL "funTIMER1_OVF_vect"
`??funTIMER1_OVF_vect??INTVEC 16` SYMBOL "??INTVEC 16", funTIMER1_OVF_vect
usart_rxc_my        SYMBOL "usart_rxc_my"
`??usart_rxc_my??INTVEC 22` SYMBOL "??INTVEC 22", usart_rxc_my

// F:\Dulov\remoteamp\du.c
//    1 //***************************************************************************
//    2 //
//    3 //  Author(s)...: dav COBRA 
//    4 //
//    5 //  Target(s)...: ATMega8
//    6 //
//    7 //  Compiler....: 6 40
//    8 //
//    9 //  Description.: Универсальный ДЕКОДЕР ДУ v1.25
//   10 //
//   11 //  Data........: 2014
//   12 //
//   13 //***************************************************************************
//   14 #include <stdbool.h>//поддержка bool
//   15 #include "iom8.h"//<ioavr.h>

        ASEGN ABSOLUTE:DATA:NOROOT,028H
// union <unnamed> volatile __io _A_ACSR
_A_ACSR:
        DS8 1

        ASEGN ABSOLUTE:DATA:NOROOT,029H
// union <unnamed> volatile __io _A_UBRRL
_A_UBRRL:
        DS8 1

        ASEGN ABSOLUTE:DATA:NOROOT,02aH
// union <unnamed> volatile __io _A_UCSRB
_A_UCSRB:
        DS8 1

        ASEGN ABSOLUTE:DATA:NOROOT,02bH
// union <unnamed> volatile __io _A_UCSRA
_A_UCSRA:
        DS8 1

        ASEGN ABSOLUTE:DATA:NOROOT,02cH
// union <unnamed> volatile __io _A_UDR
_A_UDR:
        DS8 1

        ASEGN ABSOLUTE:DATA:NOROOT,030H
// union <unnamed> volatile __io _A_PIND
_A_PIND:
        DS8 1

        ASEGN ABSOLUTE:DATA:NOROOT,031H
// union <unnamed> volatile __io _A_DDRD
_A_DDRD:
        DS8 1

        ASEGN ABSOLUTE:DATA:NOROOT,032H
// union <unnamed> volatile __io _A_PORTD
_A_PORTD:
        DS8 1

        ASEGN ABSOLUTE:DATA:NOROOT,034H
// union <unnamed> volatile __io _A_DDRC
_A_DDRC:
        DS8 1

        ASEGN ABSOLUTE:DATA:NOROOT,035H
// union <unnamed> volatile __io _A_PORTC
_A_PORTC:
        DS8 1

        ASEGN ABSOLUTE:DATA:NOROOT,037H
// union <unnamed> volatile __io _A_DDRB
_A_DDRB:
        DS8 1

        ASEGN ABSOLUTE:DATA:NOROOT,038H
// union <unnamed> volatile __io _A_PORTB
_A_PORTB:
        DS8 1

        ASEGN ABSOLUTE:DATA:NOROOT,040H
// union <unnamed> volatile __io _A_UBRRH
_A_UBRRH:
        DS8 1

        ASEGN ABSOLUTE:DATA:NOROOT,046H
// union <unnamed> volatile __io _A_ICR1
_A_ICR1:
        DS8 2

        ASEGN ABSOLUTE:DATA:NOROOT,048H
// union <unnamed> volatile __io _A_OCR1B
_A_OCR1B:
        DS8 2

        ASEGN ABSOLUTE:DATA:NOROOT,04aH
// union <unnamed> volatile __io _A_OCR1A
_A_OCR1A:
        DS8 2

        ASEGN ABSOLUTE:DATA:NOROOT,04cH
// union <unnamed> volatile __io _A_TCNT1
_A_TCNT1:
        DS8 2

        ASEGN ABSOLUTE:DATA:NOROOT,04eH
// union <unnamed> volatile __io _A_TCCR1B
_A_TCCR1B:
        DS8 1

        ASEGN ABSOLUTE:DATA:NOROOT,04fH
// union <unnamed> volatile __io _A_TCCR1A
_A_TCCR1A:
        DS8 1

        ASEGN ABSOLUTE:DATA:NOROOT,052H
// union <unnamed> volatile __io _A_TCNT0
_A_TCNT0:
        DS8 1

        ASEGN ABSOLUTE:DATA:NOROOT,055H
// union <unnamed> volatile __io _A_MCUCR
_A_MCUCR:
        DS8 1

        ASEGN ABSOLUTE:DATA:NOROOT,058H
// union <unnamed> volatile __io _A_TIFR
_A_TIFR:
        DS8 1

        ASEGN ABSOLUTE:DATA:NOROOT,059H
// union <unnamed> volatile __io _A_TIMSK
_A_TIMSK:
        DS8 1

        ASEGN ABSOLUTE:DATA:NOROOT,05bH
// union <unnamed> volatile __io _A_GICR
_A_GICR:
        DS8 1
//   16 #include <inavr.h>
//   17 #include <intrinsics.h> 
//   18 #include "init.h"
//   19 #include "usart.h"
//   20 #include "main.h"
//   21 #include "eeprom.h"

        RSEG EEPROM_N:XDATA:NOROOT(0)
// unsigned int __eeprom k[120]
k:
        DS8 240

        RSEG EEPROM_N:XDATA:NOROOT(0)
// unsigned char __eeprom fmode
fmode:
        DS8 1

        RSEG EEPROM_N:XDATA:NOROOT(0)
// unsigned char __eeprom modegro
modegro:
        DS8 1

        RSEG NEAR_Z:DATA:NOROOT(0)
        REQUIRE `?<Segment init: NEAR_Z>`
// unsigned int cod1
cod1:
        DS8 2

        RSEG NEAR_Z:DATA:NOROOT(0)
        REQUIRE `?<Segment init: NEAR_Z>`
// unsigned int cod2
cod2:
        DS8 2

        RSEG NEAR_Z:DATA:NOROOT(0)
        REQUIRE `?<Segment init: NEAR_Z>`
// unsigned int cod3
cod3:
        DS8 2

        RSEG NEAR_Z:DATA:NOROOT(0)
        REQUIRE `?<Segment init: NEAR_Z>`
// unsigned int cod4
cod4:
        DS8 2
//   22 #include "du.h"
//   23 

        RSEG NEAR_Z:DATA:NOROOT(0)
        REQUIRE `?<Segment init: NEAR_Z>`
//   24   extern uchar  perepoln=0;//кол-во переполнений счетчика
perepoln:
        DS8 1

        RSEG NEAR_Z:DATA:NOROOT(0)
        REQUIRE `?<Segment init: NEAR_Z>`
//   25   extern uchar t1=0,t2=0;
t1:
        DS8 1

        RSEG NEAR_Z:DATA:NOROOT(0)
        REQUIRE `?<Segment init: NEAR_Z>`
t2:
        DS8 1

        RSEG NEAR_Z:DATA:NOROOT(0)
        REQUIRE `?<Segment init: NEAR_Z>`
//   26   static bool ini; 
??ini:
        DS8 1

        RSEG NEAR_Z:DATA:NOROOT(0)
        REQUIRE `?<Segment init: NEAR_Z>`
//   27   uint dim1[MAX],dim2[MAX];
dim1:
        DS8 100

        RSEG NEAR_Z:DATA:NOROOT(0)
        REQUIRE `?<Segment init: NEAR_Z>`
dim2:
        DS8 100

        RSEG NEAR_Z:DATA:NOROOT(0)
        REQUIRE `?<Segment init: NEAR_Z>`
//   28   char ct=0;
ct:
        DS8 1

        RSEG NEAR_Z:DATA:NOROOT(0)
        REQUIRE `?<Segment init: NEAR_Z>`
//   29   uint minimallen;    
minimallen:
        DS8 2

        RSEG NEAR_Z:DATA:NOROOT(0)
        REQUIRE `?<Segment init: NEAR_Z>`
//   30   float len[MAX];
len:
        DS8 200

        RSEG NEAR_Z:DATA:NOROOT(0)
        REQUIRE `?<Segment init: NEAR_Z>`
//   31   static bool intok,readint,big;
??intok:
        DS8 1

        RSEG NEAR_Z:DATA:NOROOT(0)
        REQUIRE `?<Segment init: NEAR_Z>`
??big:
        DS8 1
//   32   static uint last;

        RSEG NEAR_Z:DATA:NOROOT(0)
        REQUIRE `?<Segment init: NEAR_Z>`
//   33   char cod_ok=0;
cod_ok:
        DS8 1
//   34    //static float sst=0;

        RSEG NEAR_Z:DATA:NOROOT(0)
        REQUIRE `?<Segment init: NEAR_Z>`
//   35   uchar c1,c2,c3;
c1:
        DS8 1

        RSEG NEAR_Z:DATA:NOROOT(0)
        REQUIRE `?<Segment init: NEAR_Z>`
c2:
        DS8 1

        RSEG NEAR_Z:DATA:NOROOT(0)
        REQUIRE `?<Segment init: NEAR_Z>`
c3:
        DS8 1

        RSEG NEAR_I:DATA:NOROOT(0)
        REQUIRE `?<Segment init: NEAR_I>`
`?<Constant " error ct big =">`:
        DS8 16
        REQUIRE `?<Initializer for <Constant " error ct big =">`

        RSEG NEAR_I:DATA:NOROOT(0)
        REQUIRE `?<Segment init: NEAR_I>`
`?<Constant "  /   cod1= ">`:
        DS8 13
        REQUIRE `?<Initializer for <Constant "  /   cod1= ">>`

        RSEG NEAR_I:DATA:NOROOT(0)
        REQUIRE `?<Segment init: NEAR_I>`
`?<Constant "/   cod2= ">`:
        DS8 11
        REQUIRE `?<Initializer for <Constant "/   cod2= ">>`

        RSEG NEAR_I:DATA:NOROOT(0)
        REQUIRE `?<Segment init: NEAR_I>`
`?<Constant "/   cod3= ">`:
        DS8 11
        REQUIRE `?<Initializer for <Constant "/   cod3= ">>`

        RSEG NEAR_I:DATA:NOROOT(0)
        REQUIRE `?<Segment init: NEAR_I>`
`?<Constant "  / abslen= ">`:
        DS8 13
        REQUIRE `?<Initializer for <Constant "  / abslen= ">>`

        RSEG NEAR_I:DATA:NOROOT(0)
        REQUIRE `?<Segment init: NEAR_I>`
`?<Constant "  / len= ">`:
        DS8 10
        REQUIRE `?<Initializer for <Constant "  / len= ">>`

        RSEG NEAR_I:DATA:NOROOT(0)
        REQUIRE `?<Segment init: NEAR_I>`
`?<Constant "  ">`:
        DS8 3
        REQUIRE `?<Initializer for <Constant "  ">>`

        RSEG NEAR_I:DATA:NOROOT(0)
        REQUIRE `?<Segment init: NEAR_I>`
`?<Constant "  / cod1= ">`:
        DS8 11
        REQUIRE `?<Initializer for <Constant "  / cod1= ">>`

        RSEG NEAR_I:DATA:NOROOT(0)
        REQUIRE `?<Segment init: NEAR_I>`
`?<Constant " / cod2= ">`:
        DS8 10
        REQUIRE `?<Initializer for <Constant " / cod2= ">>`

        RSEG NEAR_I:DATA:NOROOT(0)
        REQUIRE `?<Segment init: NEAR_I>`
`?<Constant " / cod3= ">`:
        DS8 10
        REQUIRE `?<Initializer for <Constant " / cod3= ">>`

        RSEG NEAR_I:DATA:NOROOT(0)
        REQUIRE `?<Segment init: NEAR_I>`
`?<Constant "/ minlen=">`:
        DS8 10
        REQUIRE `?<Initializer for <Constant "/ minlen=">>`

        RSEG NEAR_I:DATA:NOROOT(0)
        REQUIRE `?<Segment init: NEAR_I>`
`?<Constant "OFF>adr=">`:
        DS8 9
        REQUIRE `?<Initializer for <Constant "OFF>adr=">>`

        RSEG NEAR_I:DATA:NOROOT(0)
        REQUIRE `?<Segment init: NEAR_I>`
`?<Constant "ON>adr=">`:
        DS8 8
        REQUIRE `?<Initializer for <Constant "ON>adr=">>`

        RSEG NEAR_I:DATA:NOROOT(0)
        REQUIRE `?<Segment init: NEAR_I>`
`?<Constant "normal>no find command ">`:
        DS8 24
        REQUIRE `?<Initializer for <Constant "normal>no find co`

        RSEG NEAR_I:DATA:NOROOT(0)
        REQUIRE `?<Segment init: NEAR_I>`
`?<Constant "normal>command find  ...">`:
        DS8 27
        REQUIRE `?<Initializer for <Constant "normal>command fi`

        RSEG NEAR_I:DATA:NOROOT(0)
        REQUIRE `?<Segment init: NEAR_I>`
`?<Constant "write ..">`:
        DS8 9
        REQUIRE `?<Initializer for <Constant "write ..">>`

        RSEG NEAR_I:DATA:NOROOT(0)
        REQUIRE `?<Segment init: NEAR_I>`
`?<Constant "OK !   ">`:
        DS8 8
        REQUIRE `?<Initializer for <Constant "OK !   ">>`

        RSEG NEAR_I:DATA:NOROOT(0)
        REQUIRE `?<Segment init: NEAR_I>`
`?<Constant "- vkluchen kratkiy vi...">`:
        DS8 28
        REQUIRE `?<Initializer for <Constant "- vkluchen kratki`

        RSEG NEAR_I:DATA:NOROOT(0)
        REQUIRE `?<Segment init: NEAR_I>`
`?<Constant " ==  EEPROM read == ">`:
        DS8 21
        REQUIRE `?<Initializer for <Constant " ==  EEPROM read `

        RSEG NEAR_I:DATA:NOROOT(0)
        REQUIRE `?<Segment init: NEAR_I>`
`?<Constant " > ">`:
        DS8 4
        REQUIRE `?<Initializer for <Constant " > ">>`

        RSEG NEAR_I:DATA:NOROOT(0)
        REQUIRE `?<Segment init: NEAR_I>`
`?<Constant " get: ">`:
        DS8 7
        REQUIRE `?<Initializer for <Constant " get: ">>`

        RSEG NEAR_I:DATA:NOROOT(0)
        REQUIRE `?<Segment init: NEAR_I>`
`?<Constant "  regim  no source5 >">`:
        DS8 22
        REQUIRE `?<Initializer for <Constant "  regim  no sourc`

        RSEG NEAR_I:DATA:NOROOT(0)
        REQUIRE `?<Segment init: NEAR_I>`
`?<Constant "  regim  PROGRAMMING ...">`:
        DS8 33
        REQUIRE `?<Initializer for <Constant "  regim  PROGRAMM`

        RSEG NEAR_I:DATA:NOROOT(0)
        REQUIRE `?<Segment init: NEAR_I>`
`?<Constant "  regim  normal  READY >">`:
        DS8 25
        REQUIRE `?<Initializer for <Constant "  regim  normal  `

        RSEG NEAR_I:DATA:NOROOT(0)
        REQUIRE `?<Segment init: NEAR_I>`
//   36   char ind=1;
ind:
        DS8 1
        REQUIRE `?<Initializer for ind>`
//   37 
//   38  //*****************************************************************
//   39  // init
//   40  //*****************************************************************

        RSEG CODE:CODE:NOROOT(1)
//   41    void du_init(void)
du_init:
          CFI Block cfiBlock0 Using cfiCommon0
          CFI Function du_init
//   42    {
//   43      ini=1;  intok=0;
        LDI     R16, 1
        STS     ??ini, R16
        LDI     R16, 0
        STS     ??intok, R16
//   44      //TCCR1B = (0<<CS02)|(1<<CS01)|(1<<CS00); //пуск таймера
//   45      TCCR1B = (0<<CS02)|(0<<CS01)|(1<<CS00); //пуск таймера
        LDI     R16, 1
        OUT     0x2E, R16
//   46      ct=0;
        LDI     R16, 0
        STS     ct, R16
//   47    }
        RET
          CFI EndBlock cfiBlock0
        REQUIRE _A_TCCR1B
//   48  //*****************************************************************
//   49  //  INT
//   50  //*****************************************************************
//   51 //прерывание при изменении сигнала на ноге
//   52 #pragma vector = INT0_vect

        RSEG CODE:CODE:NOROOT(1)
//   53 __interrupt void funINT0_vect(void)
funINT0_vect:
          CFI Block cfiBlock1 Using cfiCommon1
          CFI Function funINT0_vect
//   54 {
        ST      -Y, R17
          CFI R17 Frame(CFA_Y, -1)
          CFI CFA_Y Y+1
        ST      -Y, R16
          CFI R16 Frame(CFA_Y, -2)
          CFI CFA_Y Y+2
        IN      R17, 0x3F
//   55   intok=1; 
        LDI     R16, 1
        STS     ??intok, R16
//   56   //if (readint!=0){  last=TCNT1L;   readint=0; }
//   57   t1 = TCNT1L;  t2 = TCNT1H; 
        IN      R16, 0x2C
        STS     t1, R16
        IN      R16, 0x2D
        STS     t2, R16
//   58   if (t1!=0) { TCNT1H=0;TCNT1L=0;}
        LDS     R16, t1
        TST     R16
        BREQ    ??funINT0_vect_0
        LDI     R16, 0
        OUT     0x2D, R16
        OUT     0x2C, R16
//   59      
//   60 }
??funINT0_vect_0:
        OUT     0x3F, R17
        LD      R16, Y+
          CFI R16 SameValue
          CFI CFA_Y Y+1
        LD      R17, Y+
          CFI R17 SameValue
          CFI CFA_Y Y+0
        RETI
          CFI EndBlock cfiBlock1
        REQUIRE _A_TCNT1
//   61 //*****************************************************************
//   62 //  Анализ прерывания
//   63 //*****************************************************************

        RSEG CODE:CODE:NOROOT(1)
//   64 void analiz_INT()
analiz_INT:
          CFI Block cfiBlock2 Using cfiCommon0
          CFI Function analiz_INT
//   65 {
//   66    static bool state;
//   67  //  if (readint==0 && last!=TCNT1L)  {
//   68           if (state==1) {RES(PORTB,5); state=0; }   else {SET(PORTB,5); state=1;}
        LDS     R16, ??state
        TST     R16
        BREQ    ??analiz_INT_0
        CBI     0x18, 0x05
        LDI     R16, 0
        RJMP    ??analiz_INT_1
??analiz_INT_0:
        SBI     0x18, 0x05
        LDI     R16, 1
??analiz_INT_1:
        STS     ??state, R16
//   69           
//   70       //  t1 = TCNT1L;  t2 = TCNT1H;
//   71          
//   72         dim1[ct]=t1;  dim2[ct]=t2; ct++;
        RCALL   ?Subroutine20
??CrossCallReturnLabel_24:
        LDI     R17, 2
        MUL     R16, R17
        LDS     R16, t1
        LDI     R17, 0
        RCALL   ?Subroutine91
??CrossCallReturnLabel_144:
        RCALL   ??Subroutine142_0
??CrossCallReturnLabel_333:
        LDS     R16, t2
        RCALL   ?Subroutine92
??CrossCallReturnLabel_147:
        RCALL   ??Subroutine142_0
??CrossCallReturnLabel_334:
        LDI     R30, LOW(ct)
        LDI     R31, (ct) >> 8
        RCALL   ?Subroutine96
//   73         if (ct>=MAX-1) ct--;  //слишком длинная посылка переписываем каждый раз последний
??CrossCallReturnLabel_324:
        CPI     R16, 49
        BRCS    ??analiz_INT_2
        DEC     R16
        ST      Z, R16
//   74 
//   75       //  if (t1!=0) {readint=1;  TCNT1H=0;TCNT1L=0;}
//   76        intok=0;
??analiz_INT_2:
        STS     ??intok, R17
//   77         //readint=1;
//   78           //                                }
//   79 
//   80 }
        RET
          CFI EndBlock cfiBlock2
        REQUIRE _A_PORTB

        RSEG NEAR_Z:DATA:NOROOT(0)
        REQUIRE `?<Segment init: NEAR_Z>`
??state:
        DS8 1
//   81 //*****************************************************************
//   82 //  Конец кода на приемнике
//   83 //*****************************************************************

        RSEG CODE:CODE:NOROOT(1)
//   84 void PEREP()
PEREP:
          CFI Block cfiBlock3 Using cfiCommon0
          CFI Function PEREP
//   85 {
        FUNCALL PEREP, rprintfStr
        LOCFRAME CSTACK, 8, STACK
        LOCFRAME RSTACK, 2, STACK
        ARGFRAME RSTACK, 0, STACK
        FUNCALL PEREP, rprintfFloat
        LOCFRAME CSTACK, 8, STACK
        LOCFRAME RSTACK, 2, STACK
        ARGFRAME RSTACK, 0, STACK
        FUNCALL PEREP, coding
        LOCFRAME CSTACK, 8, STACK
        LOCFRAME RSTACK, 2, STACK
        ARGFRAME RSTACK, 0, STACK
        FUNCALL PEREP, rprintfStr
        LOCFRAME CSTACK, 8, STACK
        LOCFRAME RSTACK, 2, STACK
        ARGFRAME RSTACK, 0, STACK
        FUNCALL PEREP, rprintfFloat
        LOCFRAME CSTACK, 8, STACK
        LOCFRAME RSTACK, 2, STACK
        ARGFRAME RSTACK, 0, STACK
        FUNCALL PEREP, rprintfStr
        LOCFRAME CSTACK, 8, STACK
        LOCFRAME RSTACK, 2, STACK
        ARGFRAME RSTACK, 0, STACK
        FUNCALL PEREP, rprintfFloat
        LOCFRAME CSTACK, 8, STACK
        LOCFRAME RSTACK, 2, STACK
        ARGFRAME RSTACK, 0, STACK
        FUNCALL PEREP, rprintfStr
        LOCFRAME CSTACK, 8, STACK
        LOCFRAME RSTACK, 2, STACK
        ARGFRAME RSTACK, 0, STACK
        FUNCALL PEREP, rprintfFloat
        LOCFRAME CSTACK, 8, STACK
        LOCFRAME RSTACK, 2, STACK
        ARGFRAME RSTACK, 0, STACK
        FUNCALL PEREP, USART_SendChar
        LOCFRAME CSTACK, 8, STACK
        LOCFRAME RSTACK, 2, STACK
        ARGFRAME RSTACK, 0, STACK
        RCALL   ?PROLOGUE8_L09
          CFI R7 Frame(CFA_Y, -1)
          CFI R6 Frame(CFA_Y, -2)
          CFI R5 Frame(CFA_Y, -3)
          CFI R4 Frame(CFA_Y, -4)
          CFI R27 Frame(CFA_Y, -5)
          CFI R26 Frame(CFA_Y, -6)
          CFI R25 Frame(CFA_Y, -7)
          CFI R24 Frame(CFA_Y, -8)
          CFI CFA_Y Y+8
        REQUIRE ?Register_R4_is_cg_reg
        REQUIRE ?Register_R5_is_cg_reg
        REQUIRE ?Register_R6_is_cg_reg
        REQUIRE ?Register_R7_is_cg_reg
//   86  static bool state2;
//   87  uchar i;
//   88  
//   89   if (state2==1) {RES(PORTB,2); state2=0; }   else {SET(PORTB,2); state2=1;}
        LDS     R16, ??state2
        TST     R16
        BREQ    ??PEREP_0
        CBI     0x18, 0x02
        LDI     R16, 0
        RJMP    ??PEREP_1
??PEREP_0:
        SBI     0x18, 0x02
        LDI     R16, 1
??PEREP_1:
        STS     ??state2, R16
//   90        
//   91       cod1=0;cod2=0;cod3=0; 
        RCALL   ?Subroutine10
//   92       c1=0; c2=0; c3=0;  //sst=0;
??CrossCallReturnLabel_11:
        STS     c1, R16
        STS     c2, R16
        STS     c3, R16
//   93       minimallen=65535;   
        LDI     R16, 255
        RCALL   ?Subroutine94
??CrossCallReturnLabel_158:
        RCALL   ?Subroutine93
//   94      
//   95       if (ct>(MAX-1)) {  rprintfStr(" error ct big ="); rprintfFloat(6,  ct); }
??CrossCallReturnLabel_150:
        RCALL   ?Subroutine20
??CrossCallReturnLabel_25:
        CPI     R16, 50
        BRCS    ??CrossCallReturnLabel_313
        LDI     R16, LOW(`?<Constant " error ct big =">`)
        LDI     R17, (`?<Constant " error ct big =">`) >> 8
        RCALL   rprintfStr
        RCALL   ?Subroutine20
??CrossCallReturnLabel_26:
        RCALL   ?Subroutine19
//   96                 
//   97       if ((ct>5 && big==0)|| big==1) 
??CrossCallReturnLabel_313:
        RCALL   ?Subroutine20
??CrossCallReturnLabel_27:
        CPI     R16, 6
        BRCS    ??PEREP_2
        LDS     R16, ??big
        TST     R16
        BREQ    ??PEREP_3
??PEREP_2:
        LDS     R16, ??big
        TST     R16
        BREQ    ??PEREP_4
//   98       {//от 5 посылок анализируем остальное шум
//   99         
//  100           for (i=1; i<ct; i++) //ищем миимальную длину
??PEREP_3:
        LDI     R24, 1
        RJMP    ??PEREP_5
//  101           {  
//  102                 len[i]=( dim1[i]+ (256*dim2[i])  );           
??PEREP_6:
        RCALL   ?Subroutine22
??CrossCallReturnLabel_30:
        LDI     R16, 4
        MUL     R24, R16
        RCALL   ??Subroutine136_0
??CrossCallReturnLabel_298:
        ST      Z, R4
        STD     Z+1, R17
        STD     Z+2, R18
        STD     Z+3, R19
//  103                 if (len[i]>900  && len[i]<(float)minimallen)  minimallen=(uint)len[i];
        LDI     R20, 1
        LDI     R21, 0
        LDI     R22, 97
        LDI     R23, 68
        MOV     R16, R4
        RCALL   ?F_CMP_GE_L04
        BRCC    ??CrossCallReturnLabel_335
        RCALL   ?Subroutine30
??CrossCallReturnLabel_188:
        RCALL   ?F_CMP_LT_L04
        BRCC    ??CrossCallReturnLabel_335
        RCALL   ?F2SL_L04
        RCALL   ?Subroutine94
//  104           }
??CrossCallReturnLabel_159:
        RCALL   ??Subroutine142_0
??CrossCallReturnLabel_335:
        INC     R24
??PEREP_5:
        RCALL   ?Subroutine20
??CrossCallReturnLabel_28:
        CP      R24, R16
        BRCS    ??PEREP_6
//  105      
//  106            for (i=1; i<ct; i++) 
        LDI     R24, 1
        RJMP    ??PEREP_7
//  107            { //for 
//  108              uint tr;
//  109              tr=( dim1[i]+ (256*dim2[i]));
//  110              len[i]=(float)tr/minimallen;       
??PEREP_8:
        RCALL   ?Subroutine22
??CrossCallReturnLabel_31:
        RCALL   ?Subroutine30
??CrossCallReturnLabel_189:
        RCALL   ?F_DIV_L04
        LDI     R20, 4
        RCALL   ?Subroutine26
??CrossCallReturnLabel_299:
        RCALL   ??Subroutine142_0
??CrossCallReturnLabel_336:
        STD     Z+2, R18
        STD     Z+3, R19
//  111              if (len[i]!=0)   coding(i, pr);
        RCALL   ?Subroutine52
??CrossCallReturnLabel_71:
        RCALL   ?F_CMP_EQ_L04
        BREQ    ??PEREP_9
        LDS     R18, pr
        MOV     R16, R24
        LDI     R17, 0
        RCALL   coding
//  112            }//for
??PEREP_9:
        INC     R24
??PEREP_7:
        RCALL   ?Subroutine20
//  113       }//от 5 посылок анализируем 
??CrossCallReturnLabel_29:
        CP      R24, R16
        BRCS    ??PEREP_8
//  114       
//  115       //очистка
//  116        for (i=0; i<MAX; i++) {dim1[i]=0;dim2[i]=0;len[i]=0;}
??PEREP_4:
        LDI     R24, 0
        LDI     R20, 4
??PEREP_10:
        RCALL   ?Subroutine97
??CrossCallReturnLabel_162:
        LDI     R16, 0
        RCALL   ?Subroutine91
??CrossCallReturnLabel_145:
        RCALL   ?Subroutine93
??CrossCallReturnLabel_151:
        RCALL   ?Subroutine92
??CrossCallReturnLabel_148:
        RCALL   ?Subroutine93
??CrossCallReturnLabel_152:
        RCALL   ?Subroutine26
??CrossCallReturnLabel_300:
        RCALL   ?Subroutine93
??CrossCallReturnLabel_153:
        STD     Z+2, R16
        STD     Z+3, R16
        INC     R24
        CPI     R24, 50
        BRCS    ??PEREP_10
//  117        perepoln=0;  t1=0; t2=0; ct=0; big=0;     
        STS     perepoln, R16
        STS     t1, R16
        STS     t2, R16
        STS     ct, R16
        STS     ??big, R16
//  118        
//  119     if (pr==1 && cod_ok!=0)     
        LDS     R16, pr
        CPI     R16, 1
        BRNE    ??CrossCallReturnLabel_240
        LDS     R16, cod_ok
        TST     R16
        BREQ    ??CrossCallReturnLabel_240
//  120      {//diag
//  121               rprintfStr("  /   cod1= ");
        LDI     R16, LOW(`?<Constant "  /   cod1= ">`)
        LDI     R17, (`?<Constant "  /   cod1= ">`) >> 8
        RCALL   ?Subroutine28
//  122               rprintfFloat(6,  cod1);
//  123               rprintfStr("/   cod2= ");
??CrossCallReturnLabel_319:
        LDI     R16, LOW(`?<Constant "/   cod2= ">`)
        LDI     R17, (`?<Constant "/   cod2= ">`) >> 8
        RCALL   ?Subroutine38
//  124               rprintfFloat(6,  cod2);
??CrossCallReturnLabel_388:
        RCALL   ??Subroutine138_0
//  125               rprintfStr("/   cod3= ");
??CrossCallReturnLabel_317:
        LDI     R16, LOW(`?<Constant "/   cod3= ">`)
        LDI     R17, (`?<Constant "/   cod3= ">`) >> 8
        RCALL   ?Subroutine40
//  126               rprintfFloat(6,  cod3);
??CrossCallReturnLabel_382:
        RCALL   ??Subroutine138_0
//  127               ent;
??CrossCallReturnLabel_316:
        RCALL   ?Subroutine120
//  128                                 
//  129      }//diag
//  130  
//  131 }
??CrossCallReturnLabel_240:
        LDI     R30, 8
        RJMP    ?EPILOGUE_B8_L09
          CFI EndBlock cfiBlock3
        REQUIRE _A_PORTB

        RSEG CODE:CODE:NOROOT(1)
?Subroutine92:
          CFI Block cfiCond4 Using cfiCommon0
          CFI Function analiz_INT
          CFI Conditional ??CrossCallReturnLabel_147
          CFI CFA_SP SP+4
          CFI Block cfiCond5 Using cfiCommon0
          CFI (cfiCond5) Function PEREP
          CFI (cfiCond5) Conditional ??CrossCallReturnLabel_148
          CFI (cfiCond5) R24 Frame(CFA_Y, -8)
          CFI (cfiCond5) R25 Frame(CFA_Y, -7)
          CFI (cfiCond5) R26 Frame(CFA_Y, -6)
          CFI (cfiCond5) R27 Frame(CFA_Y, -5)
          CFI (cfiCond5) R4 Frame(CFA_Y, -4)
          CFI (cfiCond5) R5 Frame(CFA_Y, -3)
          CFI (cfiCond5) R6 Frame(CFA_Y, -2)
          CFI (cfiCond5) R7 Frame(CFA_Y, -1)
          CFI (cfiCond5) CFA_SP SP+4
          CFI (cfiCond5) CFA_Y Y+8
          CFI Block cfiCond6 Using cfiCommon0
          CFI (cfiCond6) Function PEREP
          CFI (cfiCond6) Conditional ??CrossCallReturnLabel_149, ??CrossCallReturnLabel_30
          CFI (cfiCond6) R24 Frame(CFA_Y, -8)
          CFI (cfiCond6) R25 Frame(CFA_Y, -7)
          CFI (cfiCond6) R26 Frame(CFA_Y, -6)
          CFI (cfiCond6) R27 Frame(CFA_Y, -5)
          CFI (cfiCond6) R4 Frame(CFA_Y, -4)
          CFI (cfiCond6) R5 Frame(CFA_Y, -3)
          CFI (cfiCond6) R6 Frame(CFA_Y, -2)
          CFI (cfiCond6) R7 Frame(CFA_Y, -1)
          CFI (cfiCond6) CFA_SP SP+6
          CFI (cfiCond6) CFA_Y Y+8
          CFI Block cfiCond7 Using cfiCommon0
          CFI (cfiCond7) Function PEREP
          CFI (cfiCond7) Conditional ??CrossCallReturnLabel_149, ??CrossCallReturnLabel_31
          CFI (cfiCond7) R24 Frame(CFA_Y, -8)
          CFI (cfiCond7) R25 Frame(CFA_Y, -7)
          CFI (cfiCond7) R26 Frame(CFA_Y, -6)
          CFI (cfiCond7) R27 Frame(CFA_Y, -5)
          CFI (cfiCond7) R4 Frame(CFA_Y, -4)
          CFI (cfiCond7) R5 Frame(CFA_Y, -3)
          CFI (cfiCond7) R6 Frame(CFA_Y, -2)
          CFI (cfiCond7) R7 Frame(CFA_Y, -1)
          CFI (cfiCond7) CFA_SP SP+6
          CFI (cfiCond7) CFA_Y Y+8
          CFI Block cfiPicker8 Using cfiCommon2
          CFI (cfiPicker8) NoFunction
          CFI (cfiPicker8) Picker
        MOVW    R31:R30, R1:R0
        SUBI    R30, LOW((-(dim2) & 0xFFFF))
        SBCI    R31, (-(dim2) & 0xFFFF) >> 8
        RET
          CFI EndBlock cfiCond4
          CFI EndBlock cfiCond5
          CFI EndBlock cfiCond6
          CFI EndBlock cfiCond7
          CFI EndBlock cfiPicker8

        RSEG CODE:CODE:NOROOT(1)
?Subroutine91:
          CFI Block cfiCond9 Using cfiCommon0
          CFI Function analiz_INT
          CFI Conditional ??CrossCallReturnLabel_144
          CFI CFA_SP SP+4
          CFI Block cfiCond10 Using cfiCommon0
          CFI (cfiCond10) Function PEREP
          CFI (cfiCond10) Conditional ??CrossCallReturnLabel_145
          CFI (cfiCond10) R24 Frame(CFA_Y, -8)
          CFI (cfiCond10) R25 Frame(CFA_Y, -7)
          CFI (cfiCond10) R26 Frame(CFA_Y, -6)
          CFI (cfiCond10) R27 Frame(CFA_Y, -5)
          CFI (cfiCond10) R4 Frame(CFA_Y, -4)
          CFI (cfiCond10) R5 Frame(CFA_Y, -3)
          CFI (cfiCond10) R6 Frame(CFA_Y, -2)
          CFI (cfiCond10) R7 Frame(CFA_Y, -1)
          CFI (cfiCond10) CFA_SP SP+4
          CFI (cfiCond10) CFA_Y Y+8
          CFI Block cfiCond11 Using cfiCommon0
          CFI (cfiCond11) Function PEREP
          CFI (cfiCond11) Conditional ??CrossCallReturnLabel_146, ??CrossCallReturnLabel_30
          CFI (cfiCond11) R24 Frame(CFA_Y, -8)
          CFI (cfiCond11) R25 Frame(CFA_Y, -7)
          CFI (cfiCond11) R26 Frame(CFA_Y, -6)
          CFI (cfiCond11) R27 Frame(CFA_Y, -5)
          CFI (cfiCond11) R4 Frame(CFA_Y, -4)
          CFI (cfiCond11) R5 Frame(CFA_Y, -3)
          CFI (cfiCond11) R6 Frame(CFA_Y, -2)
          CFI (cfiCond11) R7 Frame(CFA_Y, -1)
          CFI (cfiCond11) CFA_SP SP+6
          CFI (cfiCond11) CFA_Y Y+8
          CFI Block cfiCond12 Using cfiCommon0
          CFI (cfiCond12) Function PEREP
          CFI (cfiCond12) Conditional ??CrossCallReturnLabel_146, ??CrossCallReturnLabel_31
          CFI (cfiCond12) R24 Frame(CFA_Y, -8)
          CFI (cfiCond12) R25 Frame(CFA_Y, -7)
          CFI (cfiCond12) R26 Frame(CFA_Y, -6)
          CFI (cfiCond12) R27 Frame(CFA_Y, -5)
          CFI (cfiCond12) R4 Frame(CFA_Y, -4)
          CFI (cfiCond12) R5 Frame(CFA_Y, -3)
          CFI (cfiCond12) R6 Frame(CFA_Y, -2)
          CFI (cfiCond12) R7 Frame(CFA_Y, -1)
          CFI (cfiCond12) CFA_SP SP+6
          CFI (cfiCond12) CFA_Y Y+8
          CFI Block cfiPicker13 Using cfiCommon2
          CFI (cfiPicker13) NoFunction
          CFI (cfiPicker13) Picker
        MOVW    R31:R30, R1:R0
        SUBI    R30, LOW((-(dim1) & 0xFFFF))
        SBCI    R31, (-(dim1) & 0xFFFF) >> 8
        RET
          CFI EndBlock cfiCond9
          CFI EndBlock cfiCond10
          CFI EndBlock cfiCond11
          CFI EndBlock cfiCond12
          CFI EndBlock cfiPicker13

        RSEG CODE:CODE:NOROOT(1)
?Subroutine30:
          CFI Block cfiCond14 Using cfiCommon0
          CFI Function PEREP
          CFI Conditional ??CrossCallReturnLabel_188
          CFI R24 Frame(CFA_Y, -8)
          CFI R25 Frame(CFA_Y, -7)
          CFI R26 Frame(CFA_Y, -6)
          CFI R27 Frame(CFA_Y, -5)
          CFI R4 Frame(CFA_Y, -4)
          CFI R5 Frame(CFA_Y, -3)
          CFI R6 Frame(CFA_Y, -2)
          CFI R7 Frame(CFA_Y, -1)
          CFI CFA_SP SP+4
          CFI CFA_Y Y+8
          CFI Block cfiCond15 Using cfiCommon0
          CFI (cfiCond15) Function PEREP
          CFI (cfiCond15) Conditional ??CrossCallReturnLabel_189
          CFI (cfiCond15) R24 Frame(CFA_Y, -8)
          CFI (cfiCond15) R25 Frame(CFA_Y, -7)
          CFI (cfiCond15) R26 Frame(CFA_Y, -6)
          CFI (cfiCond15) R27 Frame(CFA_Y, -5)
          CFI (cfiCond15) R4 Frame(CFA_Y, -4)
          CFI (cfiCond15) R5 Frame(CFA_Y, -3)
          CFI (cfiCond15) R6 Frame(CFA_Y, -2)
          CFI (cfiCond15) R7 Frame(CFA_Y, -1)
          CFI (cfiCond15) CFA_SP SP+4
          CFI (cfiCond15) CFA_Y Y+8
          CFI Block cfiPicker16 Using cfiCommon2
          CFI (cfiPicker16) NoFunction
          CFI (cfiPicker16) Picker
        RCALL   ?Subroutine94
??CrossCallReturnLabel_161:
        RCALL   ?Subroutine95
          CFI EndBlock cfiCond14
          CFI EndBlock cfiCond15
          CFI EndBlock cfiPicker16
??CrossCallReturnLabel_305:
        REQUIRE ?Subroutine102
        ;               // Fall through to label ?Subroutine102

        RSEG CODE:CODE:NOROOT(1)
?Subroutine102:
          CFI Block cfiCond17 Using cfiCommon0
          CFI Function PEREP
          CFI Conditional ??CrossCallReturnLabel_188
          CFI R24 Frame(CFA_Y, -8)
          CFI R25 Frame(CFA_Y, -7)
          CFI R26 Frame(CFA_Y, -6)
          CFI R27 Frame(CFA_Y, -5)
          CFI R4 Frame(CFA_Y, -4)
          CFI R5 Frame(CFA_Y, -3)
          CFI R6 Frame(CFA_Y, -2)
          CFI R7 Frame(CFA_Y, -1)
          CFI CFA_SP SP+4
          CFI CFA_Y Y+8
          CFI Block cfiCond18 Using cfiCommon0
          CFI (cfiCond18) Function PEREP
          CFI (cfiCond18) Conditional ??CrossCallReturnLabel_189
          CFI (cfiCond18) R24 Frame(CFA_Y, -8)
          CFI (cfiCond18) R25 Frame(CFA_Y, -7)
          CFI (cfiCond18) R26 Frame(CFA_Y, -6)
          CFI (cfiCond18) R27 Frame(CFA_Y, -5)
          CFI (cfiCond18) R4 Frame(CFA_Y, -4)
          CFI (cfiCond18) R5 Frame(CFA_Y, -3)
          CFI (cfiCond18) R6 Frame(CFA_Y, -2)
          CFI (cfiCond18) R7 Frame(CFA_Y, -1)
          CFI (cfiCond18) CFA_SP SP+4
          CFI (cfiCond18) CFA_Y Y+8
          CFI Block cfiCond19 Using cfiCommon0
          CFI (cfiCond19) Function rprintfFloat
          CFI (cfiCond19) Conditional ??CrossCallReturnLabel_186
          CFI (cfiCond19) R24 Frame(CFA_Y, -12)
          CFI (cfiCond19) R25 Frame(CFA_Y, -11)
          CFI (cfiCond19) R26 Frame(CFA_Y, -10)
          CFI (cfiCond19) R27 Frame(CFA_Y, -9)
          CFI (cfiCond19) R4 Frame(CFA_Y, -8)
          CFI (cfiCond19) R5 Frame(CFA_Y, -7)
          CFI (cfiCond19) R6 Frame(CFA_Y, -6)
          CFI (cfiCond19) R7 Frame(CFA_Y, -5)
          CFI (cfiCond19) R8 Frame(CFA_Y, -4)
          CFI (cfiCond19) R9 Frame(CFA_Y, -3)
          CFI (cfiCond19) R10 Frame(CFA_Y, -2)
          CFI (cfiCond19) R11 Frame(CFA_Y, -1)
          CFI (cfiCond19) CFA_SP SP+4
          CFI (cfiCond19) CFA_Y Y+12
          CFI Block cfiCond20 Using cfiCommon0
          CFI (cfiCond20) Function rprintfFloat
          CFI (cfiCond20) Conditional ??CrossCallReturnLabel_187
          CFI (cfiCond20) R24 Frame(CFA_Y, -12)
          CFI (cfiCond20) R25 Frame(CFA_Y, -11)
          CFI (cfiCond20) R26 Frame(CFA_Y, -10)
          CFI (cfiCond20) R27 Frame(CFA_Y, -9)
          CFI (cfiCond20) R4 Frame(CFA_Y, -8)
          CFI (cfiCond20) R5 Frame(CFA_Y, -7)
          CFI (cfiCond20) R6 Frame(CFA_Y, -6)
          CFI (cfiCond20) R7 Frame(CFA_Y, -5)
          CFI (cfiCond20) R8 Frame(CFA_Y, -4)
          CFI (cfiCond20) R9 Frame(CFA_Y, -3)
          CFI (cfiCond20) R10 Frame(CFA_Y, -2)
          CFI (cfiCond20) R11 Frame(CFA_Y, -1)
          CFI (cfiCond20) CFA_SP SP+4
          CFI (cfiCond20) CFA_Y Y+12
          CFI Block cfiCond21 Using cfiCommon0
          CFI (cfiCond21) Function rprintfFloat
          CFI (cfiCond21) Conditional ??CrossCallReturnLabel_190, ??CrossCallReturnLabel_60
          CFI (cfiCond21) R24 Frame(CFA_Y, -12)
          CFI (cfiCond21) R25 Frame(CFA_Y, -11)
          CFI (cfiCond21) R26 Frame(CFA_Y, -10)
          CFI (cfiCond21) R27 Frame(CFA_Y, -9)
          CFI (cfiCond21) R4 Frame(CFA_Y, -8)
          CFI (cfiCond21) R5 Frame(CFA_Y, -7)
          CFI (cfiCond21) R6 Frame(CFA_Y, -6)
          CFI (cfiCond21) R7 Frame(CFA_Y, -5)
          CFI (cfiCond21) R8 Frame(CFA_Y, -4)
          CFI (cfiCond21) R9 Frame(CFA_Y, -3)
          CFI (cfiCond21) R10 Frame(CFA_Y, -2)
          CFI (cfiCond21) R11 Frame(CFA_Y, -1)
          CFI (cfiCond21) CFA_SP SP+6
          CFI (cfiCond21) CFA_Y Y+12
          CFI Block cfiCond22 Using cfiCommon0
          CFI (cfiCond22) Function rprintfFloat
          CFI (cfiCond22) Conditional ??CrossCallReturnLabel_190, ??CrossCallReturnLabel_61
          CFI (cfiCond22) R24 Frame(CFA_Y, -12)
          CFI (cfiCond22) R25 Frame(CFA_Y, -11)
          CFI (cfiCond22) R26 Frame(CFA_Y, -10)
          CFI (cfiCond22) R27 Frame(CFA_Y, -9)
          CFI (cfiCond22) R4 Frame(CFA_Y, -8)
          CFI (cfiCond22) R5 Frame(CFA_Y, -7)
          CFI (cfiCond22) R6 Frame(CFA_Y, -6)
          CFI (cfiCond22) R7 Frame(CFA_Y, -5)
          CFI (cfiCond22) R8 Frame(CFA_Y, -4)
          CFI (cfiCond22) R9 Frame(CFA_Y, -3)
          CFI (cfiCond22) R10 Frame(CFA_Y, -2)
          CFI (cfiCond22) R11 Frame(CFA_Y, -1)
          CFI (cfiCond22) CFA_SP SP+6
          CFI (cfiCond22) CFA_Y Y+12
          CFI Block cfiPicker23 Using cfiCommon2
          CFI (cfiPicker23) NoFunction
          CFI (cfiPicker23) Picker
        MOVW    R17:R16, R5:R4
        MOVW    R19:R18, R7:R6
        RET
          CFI EndBlock cfiCond17
          CFI EndBlock cfiCond18
          CFI EndBlock cfiCond19
          CFI EndBlock cfiCond20
          CFI EndBlock cfiCond21
          CFI EndBlock cfiCond22
          CFI EndBlock cfiPicker23

        RSEG CODE:CODE:NOROOT(1)
?Subroutine95:
          CFI Block cfiCond24 Using cfiCommon0
          CFI Function PEREP
          CFI Conditional ??CrossCallReturnLabel_305, ??CrossCallReturnLabel_188
          CFI R24 Frame(CFA_Y, -8)
          CFI R25 Frame(CFA_Y, -7)
          CFI R26 Frame(CFA_Y, -6)
          CFI R27 Frame(CFA_Y, -5)
          CFI R4 Frame(CFA_Y, -4)
          CFI R5 Frame(CFA_Y, -3)
          CFI R6 Frame(CFA_Y, -2)
          CFI R7 Frame(CFA_Y, -1)
          CFI CFA_SP SP+6
          CFI CFA_Y Y+8
          CFI Block cfiCond25 Using cfiCommon0
          CFI (cfiCond25) Function PEREP
          CFI (cfiCond25) Conditional ??CrossCallReturnLabel_305, ??CrossCallReturnLabel_189
          CFI (cfiCond25) R24 Frame(CFA_Y, -8)
          CFI (cfiCond25) R25 Frame(CFA_Y, -7)
          CFI (cfiCond25) R26 Frame(CFA_Y, -6)
          CFI (cfiCond25) R27 Frame(CFA_Y, -5)
          CFI (cfiCond25) R4 Frame(CFA_Y, -4)
          CFI (cfiCond25) R5 Frame(CFA_Y, -3)
          CFI (cfiCond25) R6 Frame(CFA_Y, -2)
          CFI (cfiCond25) R7 Frame(CFA_Y, -1)
          CFI (cfiCond25) CFA_SP SP+6
          CFI (cfiCond25) CFA_Y Y+8
          CFI Block cfiCond26 Using cfiCommon0
          CFI (cfiCond26) Function PEREP
          CFI (cfiCond26) Conditional ??CrossCallReturnLabel_306, ??CrossCallReturnLabel_319
          CFI (cfiCond26) R24 Frame(CFA_Y, -8)
          CFI (cfiCond26) R25 Frame(CFA_Y, -7)
          CFI (cfiCond26) R26 Frame(CFA_Y, -6)
          CFI (cfiCond26) R27 Frame(CFA_Y, -5)
          CFI (cfiCond26) R4 Frame(CFA_Y, -4)
          CFI (cfiCond26) R5 Frame(CFA_Y, -3)
          CFI (cfiCond26) R6 Frame(CFA_Y, -2)
          CFI (cfiCond26) R7 Frame(CFA_Y, -1)
          CFI (cfiCond26) CFA_SP SP+6
          CFI (cfiCond26) CFA_Y Y+8
          CFI Block cfiCond27 Using cfiCommon0
          CFI (cfiCond27) Function coding
          CFI (cfiCond27) Conditional ??CrossCallReturnLabel_306, ??CrossCallReturnLabel_318
          CFI (cfiCond27) R24 Frame(CFA_Y, -10)
          CFI (cfiCond27) R25 Frame(CFA_Y, -9)
          CFI (cfiCond27) R26 Frame(CFA_Y, -8)
          CFI (cfiCond27) R27 Frame(CFA_Y, -7)
          CFI (cfiCond27) R4 Frame(CFA_Y, -6)
          CFI (cfiCond27) R5 Frame(CFA_Y, -5)
          CFI (cfiCond27) R6 Frame(CFA_Y, -4)
          CFI (cfiCond27) R7 Frame(CFA_Y, -3)
          CFI (cfiCond27) R8 Frame(CFA_Y, -2)
          CFI (cfiCond27) R9 Frame(CFA_Y, -1)
          CFI (cfiCond27) CFA_SP SP+6
          CFI (cfiCond27) CFA_Y Y+10
          CFI Block cfiCond28 Using cfiCommon0
          CFI (cfiCond28) Function PEREP
          CFI (cfiCond28) Conditional ??CrossCallReturnLabel_306, ??CrossCallReturnLabel_317
          CFI (cfiCond28) R24 Frame(CFA_Y, -8)
          CFI (cfiCond28) R25 Frame(CFA_Y, -7)
          CFI (cfiCond28) R26 Frame(CFA_Y, -6)
          CFI (cfiCond28) R27 Frame(CFA_Y, -5)
          CFI (cfiCond28) R4 Frame(CFA_Y, -4)
          CFI (cfiCond28) R5 Frame(CFA_Y, -3)
          CFI (cfiCond28) R6 Frame(CFA_Y, -2)
          CFI (cfiCond28) R7 Frame(CFA_Y, -1)
          CFI (cfiCond28) CFA_SP SP+6
          CFI (cfiCond28) CFA_Y Y+8
          CFI Block cfiCond29 Using cfiCommon0
          CFI (cfiCond29) Function PEREP
          CFI (cfiCond29) Conditional ??CrossCallReturnLabel_306, ??CrossCallReturnLabel_316
          CFI (cfiCond29) R24 Frame(CFA_Y, -8)
          CFI (cfiCond29) R25 Frame(CFA_Y, -7)
          CFI (cfiCond29) R26 Frame(CFA_Y, -6)
          CFI (cfiCond29) R27 Frame(CFA_Y, -5)
          CFI (cfiCond29) R4 Frame(CFA_Y, -4)
          CFI (cfiCond29) R5 Frame(CFA_Y, -3)
          CFI (cfiCond29) R6 Frame(CFA_Y, -2)
          CFI (cfiCond29) R7 Frame(CFA_Y, -1)
          CFI (cfiCond29) CFA_SP SP+6
          CFI (cfiCond29) CFA_Y Y+8
          CFI Block cfiCond30 Using cfiCommon0
          CFI (cfiCond30) Function coding
          CFI (cfiCond30) Conditional ??CrossCallReturnLabel_306, ??CrossCallReturnLabel_315
          CFI (cfiCond30) R24 Frame(CFA_Y, -10)
          CFI (cfiCond30) R25 Frame(CFA_Y, -9)
          CFI (cfiCond30) R26 Frame(CFA_Y, -8)
          CFI (cfiCond30) R27 Frame(CFA_Y, -7)
          CFI (cfiCond30) R4 Frame(CFA_Y, -6)
          CFI (cfiCond30) R5 Frame(CFA_Y, -5)
          CFI (cfiCond30) R6 Frame(CFA_Y, -4)
          CFI (cfiCond30) R7 Frame(CFA_Y, -3)
          CFI (cfiCond30) R8 Frame(CFA_Y, -2)
          CFI (cfiCond30) R9 Frame(CFA_Y, -1)
          CFI (cfiCond30) CFA_SP SP+6
          CFI (cfiCond30) CFA_Y Y+10
          CFI Block cfiCond31 Using cfiCommon0
          CFI (cfiCond31) Function coding
          CFI (cfiCond31) Conditional ??CrossCallReturnLabel_306, ??CrossCallReturnLabel_314
          CFI (cfiCond31) R24 Frame(CFA_Y, -10)
          CFI (cfiCond31) R25 Frame(CFA_Y, -9)
          CFI (cfiCond31) R26 Frame(CFA_Y, -8)
          CFI (cfiCond31) R27 Frame(CFA_Y, -7)
          CFI (cfiCond31) R4 Frame(CFA_Y, -6)
          CFI (cfiCond31) R5 Frame(CFA_Y, -5)
          CFI (cfiCond31) R6 Frame(CFA_Y, -4)
          CFI (cfiCond31) R7 Frame(CFA_Y, -3)
          CFI (cfiCond31) R8 Frame(CFA_Y, -2)
          CFI (cfiCond31) R9 Frame(CFA_Y, -1)
          CFI (cfiCond31) CFA_SP SP+6
          CFI (cfiCond31) CFA_Y Y+10
          CFI Block cfiPicker32 Using cfiCommon2
          CFI (cfiPicker32) NoFunction
          CFI (cfiPicker32) Picker
        LD      R16, Z
        LDD     R17, Z+1
        RJMP    ?Subroutine118
          CFI EndBlock cfiCond24
          CFI EndBlock cfiCond25
          CFI EndBlock cfiCond26
          CFI EndBlock cfiCond27
          CFI EndBlock cfiCond28
          CFI EndBlock cfiCond29
          CFI EndBlock cfiCond30
          CFI EndBlock cfiCond31
          CFI EndBlock cfiPicker32

        RSEG CODE:CODE:NOROOT(1)
?Subroutine94:
          CFI Block cfiCond33 Using cfiCommon0
          CFI Function PEREP
          CFI Conditional ??CrossCallReturnLabel_158
          CFI R24 Frame(CFA_Y, -8)
          CFI R25 Frame(CFA_Y, -7)
          CFI R26 Frame(CFA_Y, -6)
          CFI R27 Frame(CFA_Y, -5)
          CFI R4 Frame(CFA_Y, -4)
          CFI R5 Frame(CFA_Y, -3)
          CFI R6 Frame(CFA_Y, -2)
          CFI R7 Frame(CFA_Y, -1)
          CFI CFA_SP SP+4
          CFI CFA_Y Y+8
          CFI Block cfiCond34 Using cfiCommon0
          CFI (cfiCond34) Function PEREP
          CFI (cfiCond34) Conditional ??CrossCallReturnLabel_159
          CFI (cfiCond34) R24 Frame(CFA_Y, -8)
          CFI (cfiCond34) R25 Frame(CFA_Y, -7)
          CFI (cfiCond34) R26 Frame(CFA_Y, -6)
          CFI (cfiCond34) R27 Frame(CFA_Y, -5)
          CFI (cfiCond34) R4 Frame(CFA_Y, -4)
          CFI (cfiCond34) R5 Frame(CFA_Y, -3)
          CFI (cfiCond34) R6 Frame(CFA_Y, -2)
          CFI (cfiCond34) R7 Frame(CFA_Y, -1)
          CFI (cfiCond34) CFA_SP SP+4
          CFI (cfiCond34) CFA_Y Y+8
          CFI Block cfiCond35 Using cfiCommon0
          CFI (cfiCond35) Function PEREP
          CFI (cfiCond35) Conditional ??CrossCallReturnLabel_161, ??CrossCallReturnLabel_188
          CFI (cfiCond35) R24 Frame(CFA_Y, -8)
          CFI (cfiCond35) R25 Frame(CFA_Y, -7)
          CFI (cfiCond35) R26 Frame(CFA_Y, -6)
          CFI (cfiCond35) R27 Frame(CFA_Y, -5)
          CFI (cfiCond35) R4 Frame(CFA_Y, -4)
          CFI (cfiCond35) R5 Frame(CFA_Y, -3)
          CFI (cfiCond35) R6 Frame(CFA_Y, -2)
          CFI (cfiCond35) R7 Frame(CFA_Y, -1)
          CFI (cfiCond35) CFA_SP SP+6
          CFI (cfiCond35) CFA_Y Y+8
          CFI Block cfiCond36 Using cfiCommon0
          CFI (cfiCond36) Function PEREP
          CFI (cfiCond36) Conditional ??CrossCallReturnLabel_161, ??CrossCallReturnLabel_189
          CFI (cfiCond36) R24 Frame(CFA_Y, -8)
          CFI (cfiCond36) R25 Frame(CFA_Y, -7)
          CFI (cfiCond36) R26 Frame(CFA_Y, -6)
          CFI (cfiCond36) R27 Frame(CFA_Y, -5)
          CFI (cfiCond36) R4 Frame(CFA_Y, -4)
          CFI (cfiCond36) R5 Frame(CFA_Y, -3)
          CFI (cfiCond36) R6 Frame(CFA_Y, -2)
          CFI (cfiCond36) R7 Frame(CFA_Y, -1)
          CFI (cfiCond36) CFA_SP SP+6
          CFI (cfiCond36) CFA_Y Y+8
          CFI Block cfiCond37 Using cfiCommon0
          CFI (cfiCond37) Function coding
          CFI (cfiCond37) Conditional ??CrossCallReturnLabel_160
          CFI (cfiCond37) R24 Frame(CFA_Y, -10)
          CFI (cfiCond37) R25 Frame(CFA_Y, -9)
          CFI (cfiCond37) R26 Frame(CFA_Y, -8)
          CFI (cfiCond37) R27 Frame(CFA_Y, -7)
          CFI (cfiCond37) R4 Frame(CFA_Y, -6)
          CFI (cfiCond37) R5 Frame(CFA_Y, -5)
          CFI (cfiCond37) R6 Frame(CFA_Y, -4)
          CFI (cfiCond37) R7 Frame(CFA_Y, -3)
          CFI (cfiCond37) R8 Frame(CFA_Y, -2)
          CFI (cfiCond37) R9 Frame(CFA_Y, -1)
          CFI (cfiCond37) CFA_SP SP+4
          CFI (cfiCond37) CFA_Y Y+10
          CFI Block cfiPicker38 Using cfiCommon2
          CFI (cfiPicker38) NoFunction
          CFI (cfiPicker38) Picker
        LDI     R30, LOW(minimallen)
        LDI     R31, (minimallen) >> 8
        RET
          CFI EndBlock cfiCond33
          CFI EndBlock cfiCond34
          CFI EndBlock cfiCond35
          CFI EndBlock cfiCond36
          CFI EndBlock cfiCond37
          CFI EndBlock cfiPicker38

        RSEG CODE:CODE:NOROOT(1)
?Subroutine26:
          CFI Block cfiCond39 Using cfiCommon0
          CFI Function PEREP
          CFI Conditional ??CrossCallReturnLabel_299
          CFI R24 Frame(CFA_Y, -8)
          CFI R25 Frame(CFA_Y, -7)
          CFI R26 Frame(CFA_Y, -6)
          CFI R27 Frame(CFA_Y, -5)
          CFI R4 Frame(CFA_Y, -4)
          CFI R5 Frame(CFA_Y, -3)
          CFI R6 Frame(CFA_Y, -2)
          CFI R7 Frame(CFA_Y, -1)
          CFI CFA_SP SP+4
          CFI CFA_Y Y+8
          CFI Block cfiCond40 Using cfiCommon0
          CFI (cfiCond40) Function PEREP
          CFI (cfiCond40) Conditional ??CrossCallReturnLabel_300
          CFI (cfiCond40) R24 Frame(CFA_Y, -8)
          CFI (cfiCond40) R25 Frame(CFA_Y, -7)
          CFI (cfiCond40) R26 Frame(CFA_Y, -6)
          CFI (cfiCond40) R27 Frame(CFA_Y, -5)
          CFI (cfiCond40) R4 Frame(CFA_Y, -4)
          CFI (cfiCond40) R5 Frame(CFA_Y, -3)
          CFI (cfiCond40) R6 Frame(CFA_Y, -2)
          CFI (cfiCond40) R7 Frame(CFA_Y, -1)
          CFI (cfiCond40) CFA_SP SP+4
          CFI (cfiCond40) CFA_Y Y+8
          CFI Block cfiPicker41 Using cfiCommon2
          CFI (cfiPicker41) NoFunction
          CFI (cfiPicker41) Picker
        MUL     R24, R20
          CFI EndBlock cfiCond39
          CFI EndBlock cfiCond40
          CFI EndBlock cfiPicker41
        REQUIRE ??Subroutine136_0
        ;               // Fall through to label ??Subroutine136_0

        RSEG CODE:CODE:NOROOT(1)
??Subroutine136_0:
          CFI Block cfiCond42 Using cfiCommon0
          CFI Function PEREP
          CFI Conditional ??CrossCallReturnLabel_298
          CFI R24 Frame(CFA_Y, -8)
          CFI R25 Frame(CFA_Y, -7)
          CFI R26 Frame(CFA_Y, -6)
          CFI R27 Frame(CFA_Y, -5)
          CFI R4 Frame(CFA_Y, -4)
          CFI R5 Frame(CFA_Y, -3)
          CFI R6 Frame(CFA_Y, -2)
          CFI R7 Frame(CFA_Y, -1)
          CFI CFA_SP SP+4
          CFI CFA_Y Y+8
          CFI Block cfiCond43 Using cfiCommon0
          CFI (cfiCond43) Function PEREP
          CFI (cfiCond43) Conditional ??CrossCallReturnLabel_299
          CFI (cfiCond43) R24 Frame(CFA_Y, -8)
          CFI (cfiCond43) R25 Frame(CFA_Y, -7)
          CFI (cfiCond43) R26 Frame(CFA_Y, -6)
          CFI (cfiCond43) R27 Frame(CFA_Y, -5)
          CFI (cfiCond43) R4 Frame(CFA_Y, -4)
          CFI (cfiCond43) R5 Frame(CFA_Y, -3)
          CFI (cfiCond43) R6 Frame(CFA_Y, -2)
          CFI (cfiCond43) R7 Frame(CFA_Y, -1)
          CFI (cfiCond43) CFA_SP SP+4
          CFI (cfiCond43) CFA_Y Y+8
          CFI Block cfiCond44 Using cfiCommon0
          CFI (cfiCond44) Function PEREP
          CFI (cfiCond44) Conditional ??CrossCallReturnLabel_300
          CFI (cfiCond44) R24 Frame(CFA_Y, -8)
          CFI (cfiCond44) R25 Frame(CFA_Y, -7)
          CFI (cfiCond44) R26 Frame(CFA_Y, -6)
          CFI (cfiCond44) R27 Frame(CFA_Y, -5)
          CFI (cfiCond44) R4 Frame(CFA_Y, -4)
          CFI (cfiCond44) R5 Frame(CFA_Y, -3)
          CFI (cfiCond44) R6 Frame(CFA_Y, -2)
          CFI (cfiCond44) R7 Frame(CFA_Y, -1)
          CFI (cfiCond44) CFA_SP SP+4
          CFI (cfiCond44) CFA_Y Y+8
          CFI Block cfiPicker45 Using cfiCommon2
          CFI (cfiPicker45) NoFunction
          CFI (cfiPicker45) Picker
        MOVW    R31:R30, R1:R0
        SUBI    R30, LOW((-(len) & 0xFFFF))
        SBCI    R31, (-(len) & 0xFFFF) >> 8
        RET
          CFI EndBlock cfiCond42
          CFI EndBlock cfiCond43
          CFI EndBlock cfiCond44
          CFI EndBlock cfiPicker45

        RSEG CODE:CODE:NOROOT(1)
?Subroutine22:
          CFI Block cfiCond46 Using cfiCommon0
          CFI Function PEREP
          CFI Conditional ??CrossCallReturnLabel_30
          CFI R24 Frame(CFA_Y, -8)
          CFI R25 Frame(CFA_Y, -7)
          CFI R26 Frame(CFA_Y, -6)
          CFI R27 Frame(CFA_Y, -5)
          CFI R4 Frame(CFA_Y, -4)
          CFI R5 Frame(CFA_Y, -3)
          CFI R6 Frame(CFA_Y, -2)
          CFI R7 Frame(CFA_Y, -1)
          CFI CFA_SP SP+4
          CFI CFA_Y Y+8
          CFI Block cfiCond47 Using cfiCommon0
          CFI (cfiCond47) Function PEREP
          CFI (cfiCond47) Conditional ??CrossCallReturnLabel_31
          CFI (cfiCond47) R24 Frame(CFA_Y, -8)
          CFI (cfiCond47) R25 Frame(CFA_Y, -7)
          CFI (cfiCond47) R26 Frame(CFA_Y, -6)
          CFI (cfiCond47) R27 Frame(CFA_Y, -5)
          CFI (cfiCond47) R4 Frame(CFA_Y, -4)
          CFI (cfiCond47) R5 Frame(CFA_Y, -3)
          CFI (cfiCond47) R6 Frame(CFA_Y, -2)
          CFI (cfiCond47) R7 Frame(CFA_Y, -1)
          CFI (cfiCond47) CFA_SP SP+4
          CFI (cfiCond47) CFA_Y Y+8
          CFI Block cfiPicker48 Using cfiCommon2
          CFI (cfiPicker48) NoFunction
          CFI (cfiPicker48) Picker
        RCALL   ?Subroutine97
??CrossCallReturnLabel_165:
        RCALL   ?Subroutine91
??CrossCallReturnLabel_146:
        RCALL   ?Subroutine99
??CrossCallReturnLabel_177:
        RCALL   ?Subroutine92
??CrossCallReturnLabel_149:
        LD      R19, Z
        LDI     R18, 0
        ADD     R17, R19
        RCALL   ?Subroutine101
??CrossCallReturnLabel_184:
        MOVW    R5:R4, R17:R16
        MOVW    R7:R6, R19:R18
        RET
          CFI EndBlock cfiCond46
          CFI EndBlock cfiCond47
          CFI EndBlock cfiPicker48

        RSEG CODE:CODE:NOROOT(1)
?Subroutine20:
          CFI Block cfiCond49 Using cfiCommon0
          CFI Function analiz_INT
          CFI Conditional ??CrossCallReturnLabel_24
          CFI CFA_SP SP+4
          CFI Block cfiCond50 Using cfiCommon0
          CFI (cfiCond50) Function PEREP
          CFI (cfiCond50) Conditional ??CrossCallReturnLabel_25
          CFI (cfiCond50) R24 Frame(CFA_Y, -8)
          CFI (cfiCond50) R25 Frame(CFA_Y, -7)
          CFI (cfiCond50) R26 Frame(CFA_Y, -6)
          CFI (cfiCond50) R27 Frame(CFA_Y, -5)
          CFI (cfiCond50) R4 Frame(CFA_Y, -4)
          CFI (cfiCond50) R5 Frame(CFA_Y, -3)
          CFI (cfiCond50) R6 Frame(CFA_Y, -2)
          CFI (cfiCond50) R7 Frame(CFA_Y, -1)
          CFI (cfiCond50) CFA_SP SP+4
          CFI (cfiCond50) CFA_Y Y+8
          CFI Block cfiCond51 Using cfiCommon0
          CFI (cfiCond51) Function PEREP
          CFI (cfiCond51) Conditional ??CrossCallReturnLabel_26
          CFI (cfiCond51) R24 Frame(CFA_Y, -8)
          CFI (cfiCond51) R25 Frame(CFA_Y, -7)
          CFI (cfiCond51) R26 Frame(CFA_Y, -6)
          CFI (cfiCond51) R27 Frame(CFA_Y, -5)
          CFI (cfiCond51) R4 Frame(CFA_Y, -4)
          CFI (cfiCond51) R5 Frame(CFA_Y, -3)
          CFI (cfiCond51) R6 Frame(CFA_Y, -2)
          CFI (cfiCond51) R7 Frame(CFA_Y, -1)
          CFI (cfiCond51) CFA_SP SP+4
          CFI (cfiCond51) CFA_Y Y+8
          CFI Block cfiCond52 Using cfiCommon0
          CFI (cfiCond52) Function PEREP
          CFI (cfiCond52) Conditional ??CrossCallReturnLabel_27
          CFI (cfiCond52) R24 Frame(CFA_Y, -8)
          CFI (cfiCond52) R25 Frame(CFA_Y, -7)
          CFI (cfiCond52) R26 Frame(CFA_Y, -6)
          CFI (cfiCond52) R27 Frame(CFA_Y, -5)
          CFI (cfiCond52) R4 Frame(CFA_Y, -4)
          CFI (cfiCond52) R5 Frame(CFA_Y, -3)
          CFI (cfiCond52) R6 Frame(CFA_Y, -2)
          CFI (cfiCond52) R7 Frame(CFA_Y, -1)
          CFI (cfiCond52) CFA_SP SP+4
          CFI (cfiCond52) CFA_Y Y+8
          CFI Block cfiCond53 Using cfiCommon0
          CFI (cfiCond53) Function PEREP
          CFI (cfiCond53) Conditional ??CrossCallReturnLabel_28
          CFI (cfiCond53) R24 Frame(CFA_Y, -8)
          CFI (cfiCond53) R25 Frame(CFA_Y, -7)
          CFI (cfiCond53) R26 Frame(CFA_Y, -6)
          CFI (cfiCond53) R27 Frame(CFA_Y, -5)
          CFI (cfiCond53) R4 Frame(CFA_Y, -4)
          CFI (cfiCond53) R5 Frame(CFA_Y, -3)
          CFI (cfiCond53) R6 Frame(CFA_Y, -2)
          CFI (cfiCond53) R7 Frame(CFA_Y, -1)
          CFI (cfiCond53) CFA_SP SP+4
          CFI (cfiCond53) CFA_Y Y+8
          CFI Block cfiCond54 Using cfiCommon0
          CFI (cfiCond54) Function PEREP
          CFI (cfiCond54) Conditional ??CrossCallReturnLabel_29
          CFI (cfiCond54) R24 Frame(CFA_Y, -8)
          CFI (cfiCond54) R25 Frame(CFA_Y, -7)
          CFI (cfiCond54) R26 Frame(CFA_Y, -6)
          CFI (cfiCond54) R27 Frame(CFA_Y, -5)
          CFI (cfiCond54) R4 Frame(CFA_Y, -4)
          CFI (cfiCond54) R5 Frame(CFA_Y, -3)
          CFI (cfiCond54) R6 Frame(CFA_Y, -2)
          CFI (cfiCond54) R7 Frame(CFA_Y, -1)
          CFI (cfiCond54) CFA_SP SP+4
          CFI (cfiCond54) CFA_Y Y+8
          CFI Block cfiPicker55 Using cfiCommon2
          CFI (cfiPicker55) NoFunction
          CFI (cfiPicker55) Picker
        LDS     R16, ct
        RET
          CFI EndBlock cfiCond49
          CFI EndBlock cfiCond50
          CFI EndBlock cfiCond51
          CFI EndBlock cfiCond52
          CFI EndBlock cfiCond53
          CFI EndBlock cfiCond54
          CFI EndBlock cfiPicker55

        RSEG NEAR_Z:DATA:NOROOT(0)
        REQUIRE `?<Segment init: NEAR_Z>`
??state2:
        DS8 1
//  132 
//  133 ///////////////////////////////////////////////////////////////
//  134 //  main
//  135 //////////////////////////////////////////////////////////////

        RSEG CODE:CODE:NOROOT(1)
//  136   char du_main(uchar pr) 
du_main:
          CFI Block cfiBlock56 Using cfiCommon0
          CFI Function du_main
//  137   {   
//  138  
//  139     cod_ok=0;//признак готовности кода
        FUNCALL du_main, du_init
        LOCFRAME CSTACK, 0, STACK
        LOCFRAME RSTACK, 2, STACK
        ARGFRAME RSTACK, 0, STACK
        FUNCALL du_main, analiz_INT
        LOCFRAME CSTACK, 0, STACK
        LOCFRAME RSTACK, 2, STACK
        ARGFRAME RSTACK, 0, STACK
        FUNCALL du_main, PEREP
        LOCFRAME CSTACK, 0, STACK
        LOCFRAME RSTACK, 2, STACK
        ARGFRAME RSTACK, 0, STACK
        LDI     R16, 0
        STS     cod_ok, R16
//  140     
//  141     if (ini!=1) du_init();    
        LDS     R16, ??ini
        TST     R16
        BRNE    ??du_main_0
        RCALL   du_init
//  142     if (intok!=0) analiz_INT();  //INT событие произошло
??du_main_0:
        LDS     R16, ??intok
        TST     R16
        BREQ    ??du_main_1
        RCALL   analiz_INT
//  143     
//  144     if (perepoln!=0 ) 
??du_main_1:
        LDS     R16, perepoln
        TST     R16
        BREQ    ??du_main_2
//  145     {//получили переполнение, значит сигнал закончился
//  146       PEREP();
        RCALL   PEREP
//  147     }   
//  148      return(cod_ok);  
??du_main_2:
        LDS     R16, cod_ok
        RET
          CFI EndBlock cfiBlock56
//  149   }
//  150 
//  151 
//  152 ///////////////////////////////////////////////////////////////////       
//  153 //                             кодировка
//  154 ///////////////////////////////////////////////////////////////////

        RSEG CODE:CODE:NOROOT(1)
//  155   void coding(uint i, uchar pr)  
coding:
          CFI Block cfiBlock57 Using cfiCommon0
          CFI Function coding
//  156   {
        FUNCALL coding, rprintfFloat
        LOCFRAME CSTACK, 10, STACK
        LOCFRAME RSTACK, 2, STACK
        ARGFRAME RSTACK, 0, STACK
        FUNCALL coding, rprintfStr
        LOCFRAME CSTACK, 10, STACK
        LOCFRAME RSTACK, 2, STACK
        ARGFRAME RSTACK, 0, STACK
        FUNCALL coding, rprintfFloat
        LOCFRAME CSTACK, 10, STACK
        LOCFRAME RSTACK, 2, STACK
        ARGFRAME RSTACK, 0, STACK
        FUNCALL coding, rprintfStr
        LOCFRAME CSTACK, 10, STACK
        LOCFRAME RSTACK, 2, STACK
        ARGFRAME RSTACK, 0, STACK
        FUNCALL coding, rprintfFloat
        LOCFRAME CSTACK, 10, STACK
        LOCFRAME RSTACK, 2, STACK
        ARGFRAME RSTACK, 0, STACK
        FUNCALL coding, rprintfStr
        LOCFRAME CSTACK, 10, STACK
        LOCFRAME RSTACK, 2, STACK
        ARGFRAME RSTACK, 0, STACK
        FUNCALL coding, rprintfStr
        LOCFRAME CSTACK, 10, STACK
        LOCFRAME RSTACK, 2, STACK
        ARGFRAME RSTACK, 0, STACK
        FUNCALL coding, rprintfFloat
        LOCFRAME CSTACK, 10, STACK
        LOCFRAME RSTACK, 2, STACK
        ARGFRAME RSTACK, 0, STACK
        FUNCALL coding, rprintfStr
        LOCFRAME CSTACK, 10, STACK
        LOCFRAME RSTACK, 2, STACK
        ARGFRAME RSTACK, 0, STACK
        FUNCALL coding, rprintfFloat
        LOCFRAME CSTACK, 10, STACK
        LOCFRAME RSTACK, 2, STACK
        ARGFRAME RSTACK, 0, STACK
        FUNCALL coding, rprintfStr
        LOCFRAME CSTACK, 10, STACK
        LOCFRAME RSTACK, 2, STACK
        ARGFRAME RSTACK, 0, STACK
        FUNCALL coding, rprintfFloat
        LOCFRAME CSTACK, 10, STACK
        LOCFRAME RSTACK, 2, STACK
        ARGFRAME RSTACK, 0, STACK
        FUNCALL coding, rprintfStr
        LOCFRAME CSTACK, 10, STACK
        LOCFRAME RSTACK, 2, STACK
        ARGFRAME RSTACK, 0, STACK
        FUNCALL coding, rprintfFloat
        LOCFRAME CSTACK, 10, STACK
        LOCFRAME RSTACK, 2, STACK
        ARGFRAME RSTACK, 0, STACK
        FUNCALL coding, USART_SendChar
        LOCFRAME CSTACK, 10, STACK
        LOCFRAME RSTACK, 2, STACK
        ARGFRAME RSTACK, 0, STACK
        RCALL   ?PROLOGUE10_L09
          CFI R9 Frame(CFA_Y, -1)
          CFI R8 Frame(CFA_Y, -2)
          CFI R7 Frame(CFA_Y, -3)
          CFI R6 Frame(CFA_Y, -4)
          CFI R5 Frame(CFA_Y, -5)
          CFI R4 Frame(CFA_Y, -6)
          CFI R27 Frame(CFA_Y, -7)
          CFI R26 Frame(CFA_Y, -8)
          CFI R25 Frame(CFA_Y, -9)
          CFI R24 Frame(CFA_Y, -10)
          CFI CFA_Y Y+10
        REQUIRE ?Register_R4_is_cg_reg
        REQUIRE ?Register_R5_is_cg_reg
        REQUIRE ?Register_R6_is_cg_reg
        REQUIRE ?Register_R8_is_cg_reg
        REQUIRE ?Register_R9_is_cg_reg
        MOVW    R25:R24, R17:R16
        MOV     R6, R18
//  157  
//  158     
//  159     float v=len[i];
        RCALL   ?Subroutine103
??CrossCallReturnLabel_191:
        LDI     R26, LOW(len)
        LDI     R27, (len) >> 8
        ADD     R26, R16
        ADC     R27, R17
        LD      R0, X+
        LD      R1, X+
        LD      R2, X+
        LD      R3, X
        SBIW    R27:R26, 3
//  160              
//  161             //  sst=sst+v;
//  162        if (i>1) {
        CPI     R24, 2
        LDI     R16, 0
        CPC     R25, R16
        BRCC    $+2+2
        RJMP    ??CrossCallReturnLabel_195
//  163           
//  164   //-------------   версия  больше-меньше  ------------------
//  165               //  if (len[i]>len[i-1])  cod1+=1;
//  166          
//  167              //  if (len[i]<=len[i-1]) cod1+=3;
//  168    /*        
//  169     if (ind==4) { 
//  170                        if (len[i]>len[i-1]) { SET(cod4,c4); }
//  171                       // else cod4<<=1;
//  172                        c4++;
//  173                        if (c4>=15) ind=5;
//  174                     }
//  175          
//  176               
//  177 
//  178            if (ind==3) { 
//  179                        if (len[i]>len[i-1]) { SET(cod3,c3); }
//  180                       // else cod3<<=1;
//  181                        c3++;
//  182                        if (c3>=15) ind=4;
//  183                     }
//  184         
//  185          
//  186            if (ind==2) { 
//  187                        if (len[i]>len[i-1]) { SET(cod2,c2); }
//  188                       // else cod2<<=1;
//  189                        c2++;
//  190                        if (c2>=15) ind=3;
//  191                     }
//  192          
//  193          if (ind==1) { 
//  194            if (len[i]>len[i-1]) { SET(cod1,c1); }
//  195                        //else cod1<<=1;
//  196                        c1++;
//  197                        if (c1>=15) ind=2;
//  198                     }
//  199          
//  200       */ 
//  201          
//  202        /*  
//  203          if (ind==4) { 
//  204            if (len[i]<3) { SET(cod4,c4);c4++; }
//  205            if (len[i]>=3 && len[i]<5)  {  c4++;  c4++;}
//  206            if (len[i]>=5 && len[i]<25) { SET(cod4,c4); c4++;    if (c4<=15)  SET(cod4,c4);  c4++;}
//  207            if (len[i]>=25)  {  c4++;  c4++; c4++;}
//  208                        if (c4>=15) ind=0;
//  209                      }
//  210       */
//  211          
//  212          
//  213       //-----   версия v2  по относительной длине -------  
//  214 #define   set1 SET(cod1,c1);c1++   
//  215 #define   set2 SET(cod2,c2);c2++  
//  216 #define   set3 SET(cod3,c3);c3++  
//  217          
//  218         
//  219        //ДЕЛАТЬ точность менее 0.5 опасно, т.к. ШУМ измерения
//  220           if (ind==3) { 
        MOVW    R5:R4, R25:R24
        LSL     R4
        ROL     R5
        LDS     R16, ind
        CPI     R16, 3
        BREQ    $+2+2
        RJMP    ??coding_0
//  221             
//  222             if (v<1.5) cod3=cod3+i;
        LDS     R20, c3
        RCALL   ?Subroutine1
??CrossCallReturnLabel_2:
        BRCC    ??coding_1
        RCALL   ??Subroutine147_0
??CrossCallReturnLabel_384:
        RCALL   ?Subroutine25
//  223            if (v>=1.5 && v<2) { set3; c3++;    } else
//  224            if (v>=2 && v<3)   { set3; cod3=cod3+i;  c3++; } else
??CrossCallReturnLabel_346:
        RCALL   ?Subroutine49
??CrossCallReturnLabel_62:
        BRCC    ??coding_2
        RCALL   ?Subroutine55
??CrossCallReturnLabel_75:
        BRCS    ??coding_3
//  225            if (v>=3 && v<5)   { set3; cod3=cod3+i+i;  c3++; if (c3<=14) {set3; cod3=cod3+i;   c3++; }  }   else                                  
??coding_2:
        RCALL   ?Subroutine56
??CrossCallReturnLabel_78:
        BRCC    ??coding_4
        RCALL   ?Subroutine57
??CrossCallReturnLabel_81:
        BRCC    ??coding_4
        RCALL   ??Subroutine147_0
??CrossCallReturnLabel_385:
        RCALL   ?Subroutine29
??CrossCallReturnLabel_32:
        RCALL   ??Subroutine142_0
??CrossCallReturnLabel_337:
        RCALL   ?Subroutine37
??CrossCallReturnLabel_303:
        ST      Z, R16
        CPI     R16, 15
        BRCC    ??coding_5
??coding_3:
        RCALL   ?Subroutine39
??CrossCallReturnLabel_247:
        LDS     R20, c3
        RCALL   ?Subroutine2
??CrossCallReturnLabel_5:
        RJMP    ??CrossCallReturnLabel_338
??coding_1:
        RCALL   ?Subroutine51
??CrossCallReturnLabel_68:
        BRCC    ??CrossCallReturnLabel_346
        RCALL   ??Subroutine147_0
??CrossCallReturnLabel_386:
        RCALL   ?Subroutine98
??CrossCallReturnLabel_166:
        RCALL   ??Subroutine142_0
??CrossCallReturnLabel_338:
        RCALL   ?Subroutine37
??CrossCallReturnLabel_304:
        RJMP    ??coding_6
//  226            if (v>5 && v<7)    { c3++;   if (c3<=15)  c3++; }
??coding_4:
        RCALL   ?Subroutine47
??CrossCallReturnLabel_57:
        BRCC    ??coding_5
        RCALL   ?Subroutine50
??CrossCallReturnLabel_65:
        BRCC    ??coding_5
        LDI     R30, LOW(c3)
        LDI     R31, (c3) >> 8
        RCALL   ?Subroutine31
??CrossCallReturnLabel_35:
        BRCC    ??coding_5
        INC     R16
??coding_6:
        ST      Z, R16
//  227          
//  228             
//  229            if (c3>=16) {ind=1; cod1=cod1<<2; cod2=cod2<<2; c1=0; c2=0; c3=0;}//пошли по кругу
??coding_5:
        LDS     R16, c3
        CPI     R16, 16
        BRCC    $+2+2
        RJMP    ??coding_7
        LDI     R16, 1
        STS     ind, R16
        RCALL   ?Subroutine34
??CrossCallReturnLabel_38:
        RCALL   ?Subroutine33
??CrossCallReturnLabel_192:
        RCALL   ??Subroutine142_0
??CrossCallReturnLabel_339:
        RCALL   ??Subroutine148_0
??CrossCallReturnLabel_390:
        RCALL   ?Subroutine33
??CrossCallReturnLabel_193:
        RCALL   ??Subroutine142_0
??CrossCallReturnLabel_340:
        STS     c1, R21
        STS     c2, R21
        STS     c3, R21
        RJMP    ??coding_8
//  230         
//  231                      }
//  232          
//  233                 
//  234           if (ind==2) { 
??coding_0:
        CPI     R16, 2
        BRNE    ??coding_9
//  235           
//  236            if (v<1.5) cod2=cod2+i;
        LDS     R20, c2
        RCALL   ?Subroutine1
??CrossCallReturnLabel_3:
        BRCC    ??coding_10
        RCALL   ??Subroutine148_0
??CrossCallReturnLabel_391:
        RCALL   ?Subroutine25
//  237            if (v>=1.5 && v<2) { set2; c2++;  cod2=cod2+i;  } else
//  238            if (v>=2 && v<3)   { set2; cod2=cod2+i;  c2++; } else
??CrossCallReturnLabel_347:
        RCALL   ?Subroutine49
??CrossCallReturnLabel_63:
        BRCC    ??coding_11
        RCALL   ?Subroutine55
??CrossCallReturnLabel_76:
        BRCS    ??coding_12
//  239            if (v>=3 && v<5)   { set2; cod2=cod2+i+i;  c2++; if (c2<=14) { set2; cod2=cod2+i;  c2++; }  }   else                                  
??coding_11:
        RCALL   ?Subroutine56
??CrossCallReturnLabel_79:
        BRCC    ??coding_13
        RCALL   ?Subroutine57
??CrossCallReturnLabel_82:
        BRCC    ??coding_13
        RCALL   ??Subroutine148_0
??CrossCallReturnLabel_392:
        RCALL   ?Subroutine29
??CrossCallReturnLabel_33:
        RCALL   ?Subroutine23
??CrossCallReturnLabel_320:
        CPI     R16, 15
        BRCC    ??coding_14
??coding_12:
        RCALL   ??Subroutine148_0
??CrossCallReturnLabel_393:
        RCALL   ?Subroutine123
??CrossCallReturnLabel_243:
        LDS     R20, c2
        RCALL   ?Subroutine2
??CrossCallReturnLabel_6:
        LDI     R30, LOW(c2)
        LDI     R31, (c2) >> 8
        RCALL   ??Subroutine137_0
??CrossCallReturnLabel_301:
        RJMP    ??coding_15
??coding_10:
        RCALL   ?Subroutine51
??CrossCallReturnLabel_69:
        BRCC    ??CrossCallReturnLabel_347
        RCALL   ??Subroutine148_0
??CrossCallReturnLabel_394:
        RCALL   ?Subroutine98
??CrossCallReturnLabel_167:
        RCALL   ?Subroutine23
??CrossCallReturnLabel_321:
        RCALL   ??Subroutine148_0
??CrossCallReturnLabel_395:
        LD      R16, Z
        RCALL   ??Subroutine141_0
??CrossCallReturnLabel_344:
        RJMP    ??coding_14
//  240            if (v>5 && v<7)    { c2++;   if (c2<=15)  c2++; }
??coding_13:
        RCALL   ?Subroutine47
??CrossCallReturnLabel_58:
        BRCC    ??coding_14
        RCALL   ?Subroutine50
??CrossCallReturnLabel_66:
        BRCC    ??coding_14
        LDI     R30, LOW(c2)
        LDI     R31, (c2) >> 8
        RCALL   ?Subroutine31
??CrossCallReturnLabel_36:
        BRCC    ??coding_14
        INC     R16
??coding_15:
        ST      Z, R16
//  241          
//  242                 if (c2>=16) ind=3;
??coding_14:
        LDS     R16, c2
        CPI     R16, 16
        BRCS    ??coding_7
        LDI     R16, 3
        RJMP    ??coding_16
//  243                      }
//  244                 
//  245          if (ind==1) { 
??coding_9:
        CPI     R16, 1
        BRNE    ??coding_7
//  246            
//  247            if (v<1.5) cod1=cod1+i;
??coding_8:
        LDS     R20, c1
        RCALL   ?Subroutine1
??CrossCallReturnLabel_4:
        BRCC    ??coding_17
        RCALL   ?Subroutine34
??CrossCallReturnLabel_39:
        RCALL   ?Subroutine25
//  248            if (v>=1.5 && v<2) { set1; c1++;  cod1=cod1+i;  } else
//  249            if (v>=2 && v<3)   { set1; cod1=cod1+i;  c1++; } else
??CrossCallReturnLabel_348:
        RCALL   ?Subroutine49
??CrossCallReturnLabel_64:
        BRCC    ??coding_18
        RCALL   ?Subroutine55
??CrossCallReturnLabel_77:
        BRCS    ??coding_19
//  250            if (v>=3 && v<5)   { set1; cod1=cod1+i+i;  c1++; if (c1<=14) { set1; cod1=cod1+i; c1++; }  }   else                                  
??coding_18:
        RCALL   ?Subroutine56
??CrossCallReturnLabel_80:
        BRCC    ??coding_20
        RCALL   ?Subroutine57
??CrossCallReturnLabel_83:
        BRCC    ??coding_20
        RCALL   ?Subroutine34
??CrossCallReturnLabel_40:
        RCALL   ?Subroutine29
??CrossCallReturnLabel_34:
        RCALL   ?Subroutine24
??CrossCallReturnLabel_322:
        CPI     R16, 15
        BRCC    ??coding_21
??coding_19:
        RCALL   ?Subroutine34
??CrossCallReturnLabel_41:
        RCALL   ?Subroutine123
??CrossCallReturnLabel_244:
        LDS     R20, c1
        RCALL   ?Subroutine2
??CrossCallReturnLabel_7:
        LDI     R30, LOW(c1)
        LDI     R31, (c1) >> 8
        RCALL   ??Subroutine137_0
??CrossCallReturnLabel_302:
        RJMP    ??coding_22
??coding_17:
        RCALL   ?Subroutine51
??CrossCallReturnLabel_70:
        BRCC    ??CrossCallReturnLabel_348
        RCALL   ?Subroutine34
??CrossCallReturnLabel_42:
        RCALL   ?Subroutine98
??CrossCallReturnLabel_168:
        RCALL   ?Subroutine24
??CrossCallReturnLabel_323:
        RCALL   ?Subroutine34
??CrossCallReturnLabel_43:
        LD      R16, Z
        RCALL   ??Subroutine141_0
??CrossCallReturnLabel_345:
        RJMP    ??coding_21
//  251            if (v>5 && v<7)    { c1++;   if (c1<=15)  c1++; }
??coding_20:
        RCALL   ?Subroutine47
??CrossCallReturnLabel_59:
        BRCC    ??coding_21
        RCALL   ?Subroutine50
??CrossCallReturnLabel_67:
        BRCC    ??coding_21
        LDI     R30, LOW(c1)
        LDI     R31, (c1) >> 8
        RCALL   ?Subroutine31
??CrossCallReturnLabel_37:
        BRCC    ??coding_21
        INC     R16
??coding_22:
        ST      Z, R16
//  252          
//  253                 if (c1>=16) ind=2;
??coding_21:
        LDS     R16, c1
        CPI     R16, 16
        BRCS    ??coding_7
        LDI     R16, 2
??coding_16:
        STS     ind, R16
//  254                      }
//  255           
//  256          
//  257         
//  258          
//  259       
//  260              cod_ok=1;//код готов         
??coding_7:
        LDI     R16, 1
        STS     cod_ok, R16
//  261          
//  262          if (pr==0) {
        TST     R6
        BRNE    ??CrossCallReturnLabel_195
//  263                      rprintfFloat(2, i);
        MOVW    R17:R16, R25:R24
        LDI     R18, 0
        RCALL   ?Subroutine45
??CrossCallReturnLabel_53:
        LDI     R16, 2
        RCALL   rprintfFloat
//  264                      rprintfStr("  / abslen= ");
        LDI     R16, LOW(`?<Constant "  / abslen= ">`)
        LDI     R17, (`?<Constant "  / abslen= ">`) >> 8
        RCALL   rprintfStr
//  265                       rprintfFloat(9, dim1[i]+ (256*dim2[i])  );
        LSL     R24
        ROL     R25
        MOVW    R31:R30, R25:R24
        SUBI    R30, LOW((-(dim1) & 0xFFFF))
        SBCI    R31, (-(dim1) & 0xFFFF) >> 8
        RCALL   ?Subroutine99
??CrossCallReturnLabel_170:
        MOVW    R31:R30, R25:R24
        SUBI    R30, LOW((-(dim2) & 0xFFFF))
        SBCI    R31, (-(dim2) & 0xFFFF) >> 8
        LD      R19, Z
        LDI     R18, 0
        ADD     R17, R19
        RCALL   ?Subroutine45
??CrossCallReturnLabel_54:
        LDI     R16, 9
        RCALL   rprintfFloat
//  266                       rprintfStr("  / len= ");
        LDI     R16, LOW(`?<Constant "  / len= ">`)
        LDI     R17, (`?<Constant "  / len= ">`) >> 8
        RCALL   rprintfStr
//  267                   rprintfFloat(4,  len[i]);
        LD      R20, X+
        LD      R21, X+
        LD      R22, X+
        LD      R23, X
        LDI     R16, 4
        RCALL   rprintfFloat
//  268                    rprintfStr("  ");
        LDI     R16, LOW(`?<Constant "  ">`)
        LDI     R17, (`?<Constant "  ">`) >> 8
        RCALL   rprintfStr
//  269                  rprintfStr("  / cod1= ");
        LDI     R16, LOW(`?<Constant "  / cod1= ">`)
        LDI     R17, (`?<Constant "  / cod1= ">`) >> 8
        RCALL   ?Subroutine28
//  270                   rprintfFloat(6, cod1);
//  271                    rprintfStr(" / cod2= ");
??CrossCallReturnLabel_318:
        LDI     R16, LOW(`?<Constant " / cod2= ">`)
        LDI     R17, (`?<Constant " / cod2= ">`) >> 8
        RCALL   ?Subroutine38
//  272                   rprintfFloat(6,  cod2);
??CrossCallReturnLabel_389:
        RCALL   ??Subroutine138_0
//  273                    rprintfStr(" / cod3= ");
??CrossCallReturnLabel_315:
        LDI     R16, LOW(`?<Constant " / cod3= ">`)
        LDI     R17, (`?<Constant " / cod3= ">`) >> 8
        RCALL   ?Subroutine40
//  274                   rprintfFloat(6,  cod3);
??CrossCallReturnLabel_383:
        RCALL   ??Subroutine138_0
//  275                    rprintfStr("/ minlen=");
??CrossCallReturnLabel_314:
        LDI     R16, LOW(`?<Constant "/ minlen=">`)
        LDI     R17, (`?<Constant "/ minlen=">`) >> 8
        RCALL   rprintfStr
//  276                    rprintfFloat(9,   minimallen);
        RCALL   ?Subroutine94
//  277                    ent;
//  278                 }
//  279          
//  280          
//  281                    }
??CrossCallReturnLabel_160:
        RCALL   ?Subroutine99
??CrossCallReturnLabel_171:
        RCALL   ?Subroutine41
//  282        
//  283        
//  284        
//  285   
//  286   }
??CrossCallReturnLabel_195:
        LDI     R30, 10
        RJMP    ?EPILOGUE_B10_L09
          CFI EndBlock cfiBlock57

        RSEG CODE:CODE:NOROOT(1)
?Subroutine57:
          CFI Block cfiCond58 Using cfiCommon0
          CFI Function coding
          CFI Conditional ??CrossCallReturnLabel_81
          CFI R24 Frame(CFA_Y, -10)
          CFI R25 Frame(CFA_Y, -9)
          CFI R26 Frame(CFA_Y, -8)
          CFI R27 Frame(CFA_Y, -7)
          CFI R4 Frame(CFA_Y, -6)
          CFI R5 Frame(CFA_Y, -5)
          CFI R6 Frame(CFA_Y, -4)
          CFI R7 Frame(CFA_Y, -3)
          CFI R8 Frame(CFA_Y, -2)
          CFI R9 Frame(CFA_Y, -1)
          CFI CFA_SP SP+4
          CFI CFA_Y Y+10
          CFI Block cfiCond59 Using cfiCommon0
          CFI (cfiCond59) Function coding
          CFI (cfiCond59) Conditional ??CrossCallReturnLabel_82
          CFI (cfiCond59) R24 Frame(CFA_Y, -10)
          CFI (cfiCond59) R25 Frame(CFA_Y, -9)
          CFI (cfiCond59) R26 Frame(CFA_Y, -8)
          CFI (cfiCond59) R27 Frame(CFA_Y, -7)
          CFI (cfiCond59) R4 Frame(CFA_Y, -6)
          CFI (cfiCond59) R5 Frame(CFA_Y, -5)
          CFI (cfiCond59) R6 Frame(CFA_Y, -4)
          CFI (cfiCond59) R7 Frame(CFA_Y, -3)
          CFI (cfiCond59) R8 Frame(CFA_Y, -2)
          CFI (cfiCond59) R9 Frame(CFA_Y, -1)
          CFI (cfiCond59) CFA_SP SP+4
          CFI (cfiCond59) CFA_Y Y+10
          CFI Block cfiCond60 Using cfiCommon0
          CFI (cfiCond60) Function coding
          CFI (cfiCond60) Conditional ??CrossCallReturnLabel_83
          CFI (cfiCond60) R24 Frame(CFA_Y, -10)
          CFI (cfiCond60) R25 Frame(CFA_Y, -9)
          CFI (cfiCond60) R26 Frame(CFA_Y, -8)
          CFI (cfiCond60) R27 Frame(CFA_Y, -7)
          CFI (cfiCond60) R4 Frame(CFA_Y, -6)
          CFI (cfiCond60) R5 Frame(CFA_Y, -5)
          CFI (cfiCond60) R6 Frame(CFA_Y, -4)
          CFI (cfiCond60) R7 Frame(CFA_Y, -3)
          CFI (cfiCond60) R8 Frame(CFA_Y, -2)
          CFI (cfiCond60) R9 Frame(CFA_Y, -1)
          CFI (cfiCond60) CFA_SP SP+4
          CFI (cfiCond60) CFA_Y Y+10
          CFI Block cfiPicker61 Using cfiCommon2
          CFI (cfiPicker61) NoFunction
          CFI (cfiPicker61) Picker
        LDI     R22, 160
        RJMP    ?F_CMP_LT_L04
          CFI EndBlock cfiCond58
          CFI EndBlock cfiCond59
          CFI EndBlock cfiCond60
          CFI EndBlock cfiPicker61

        RSEG CODE:CODE:NOROOT(1)
?Subroutine56:
          CFI Block cfiCond62 Using cfiCommon0
          CFI Function coding
          CFI Conditional ??CrossCallReturnLabel_78
          CFI R24 Frame(CFA_Y, -10)
          CFI R25 Frame(CFA_Y, -9)
          CFI R26 Frame(CFA_Y, -8)
          CFI R27 Frame(CFA_Y, -7)
          CFI R4 Frame(CFA_Y, -6)
          CFI R5 Frame(CFA_Y, -5)
          CFI R6 Frame(CFA_Y, -4)
          CFI R7 Frame(CFA_Y, -3)
          CFI R8 Frame(CFA_Y, -2)
          CFI R9 Frame(CFA_Y, -1)
          CFI CFA_SP SP+4
          CFI CFA_Y Y+10
          CFI Block cfiCond63 Using cfiCommon0
          CFI (cfiCond63) Function coding
          CFI (cfiCond63) Conditional ??CrossCallReturnLabel_79
          CFI (cfiCond63) R24 Frame(CFA_Y, -10)
          CFI (cfiCond63) R25 Frame(CFA_Y, -9)
          CFI (cfiCond63) R26 Frame(CFA_Y, -8)
          CFI (cfiCond63) R27 Frame(CFA_Y, -7)
          CFI (cfiCond63) R4 Frame(CFA_Y, -6)
          CFI (cfiCond63) R5 Frame(CFA_Y, -5)
          CFI (cfiCond63) R6 Frame(CFA_Y, -4)
          CFI (cfiCond63) R7 Frame(CFA_Y, -3)
          CFI (cfiCond63) R8 Frame(CFA_Y, -2)
          CFI (cfiCond63) R9 Frame(CFA_Y, -1)
          CFI (cfiCond63) CFA_SP SP+4
          CFI (cfiCond63) CFA_Y Y+10
          CFI Block cfiCond64 Using cfiCommon0
          CFI (cfiCond64) Function coding
          CFI (cfiCond64) Conditional ??CrossCallReturnLabel_80
          CFI (cfiCond64) R24 Frame(CFA_Y, -10)
          CFI (cfiCond64) R25 Frame(CFA_Y, -9)
          CFI (cfiCond64) R26 Frame(CFA_Y, -8)
          CFI (cfiCond64) R27 Frame(CFA_Y, -7)
          CFI (cfiCond64) R4 Frame(CFA_Y, -6)
          CFI (cfiCond64) R5 Frame(CFA_Y, -5)
          CFI (cfiCond64) R6 Frame(CFA_Y, -4)
          CFI (cfiCond64) R7 Frame(CFA_Y, -3)
          CFI (cfiCond64) R8 Frame(CFA_Y, -2)
          CFI (cfiCond64) R9 Frame(CFA_Y, -1)
          CFI (cfiCond64) CFA_SP SP+4
          CFI (cfiCond64) CFA_Y Y+10
          CFI Block cfiPicker65 Using cfiCommon2
          CFI (cfiPicker65) NoFunction
          CFI (cfiPicker65) Picker
        LDI     R22, 64
        RJMP    ?F_CMP_GE_L04
          CFI EndBlock cfiCond62
          CFI EndBlock cfiCond63
          CFI EndBlock cfiCond64
          CFI EndBlock cfiPicker65

        RSEG CODE:CODE:NOROOT(1)
?Subroutine55:
          CFI Block cfiCond66 Using cfiCommon0
          CFI Function coding
          CFI Conditional ??CrossCallReturnLabel_75
          CFI R24 Frame(CFA_Y, -10)
          CFI R25 Frame(CFA_Y, -9)
          CFI R26 Frame(CFA_Y, -8)
          CFI R27 Frame(CFA_Y, -7)
          CFI R4 Frame(CFA_Y, -6)
          CFI R5 Frame(CFA_Y, -5)
          CFI R6 Frame(CFA_Y, -4)
          CFI R7 Frame(CFA_Y, -3)
          CFI R8 Frame(CFA_Y, -2)
          CFI R9 Frame(CFA_Y, -1)
          CFI CFA_SP SP+4
          CFI CFA_Y Y+10
          CFI Block cfiCond67 Using cfiCommon0
          CFI (cfiCond67) Function coding
          CFI (cfiCond67) Conditional ??CrossCallReturnLabel_76
          CFI (cfiCond67) R24 Frame(CFA_Y, -10)
          CFI (cfiCond67) R25 Frame(CFA_Y, -9)
          CFI (cfiCond67) R26 Frame(CFA_Y, -8)
          CFI (cfiCond67) R27 Frame(CFA_Y, -7)
          CFI (cfiCond67) R4 Frame(CFA_Y, -6)
          CFI (cfiCond67) R5 Frame(CFA_Y, -5)
          CFI (cfiCond67) R6 Frame(CFA_Y, -4)
          CFI (cfiCond67) R7 Frame(CFA_Y, -3)
          CFI (cfiCond67) R8 Frame(CFA_Y, -2)
          CFI (cfiCond67) R9 Frame(CFA_Y, -1)
          CFI (cfiCond67) CFA_SP SP+4
          CFI (cfiCond67) CFA_Y Y+10
          CFI Block cfiCond68 Using cfiCommon0
          CFI (cfiCond68) Function coding
          CFI (cfiCond68) Conditional ??CrossCallReturnLabel_77
          CFI (cfiCond68) R24 Frame(CFA_Y, -10)
          CFI (cfiCond68) R25 Frame(CFA_Y, -9)
          CFI (cfiCond68) R26 Frame(CFA_Y, -8)
          CFI (cfiCond68) R27 Frame(CFA_Y, -7)
          CFI (cfiCond68) R4 Frame(CFA_Y, -6)
          CFI (cfiCond68) R5 Frame(CFA_Y, -5)
          CFI (cfiCond68) R6 Frame(CFA_Y, -4)
          CFI (cfiCond68) R7 Frame(CFA_Y, -3)
          CFI (cfiCond68) R8 Frame(CFA_Y, -2)
          CFI (cfiCond68) R9 Frame(CFA_Y, -1)
          CFI (cfiCond68) CFA_SP SP+4
          CFI (cfiCond68) CFA_Y Y+10
          CFI Block cfiPicker69 Using cfiCommon2
          CFI (cfiPicker69) NoFunction
          CFI (cfiPicker69) Picker
        LDI     R22, 64
        RJMP    ?F_CMP_LT_L04
          CFI EndBlock cfiCond66
          CFI EndBlock cfiCond67
          CFI EndBlock cfiCond68
          CFI EndBlock cfiPicker69

        RSEG CODE:CODE:NOROOT(1)
?Subroutine51:
          CFI Block cfiCond70 Using cfiCommon0
          CFI Function coding
          CFI Conditional ??CrossCallReturnLabel_68
          CFI R24 Frame(CFA_Y, -10)
          CFI R25 Frame(CFA_Y, -9)
          CFI R26 Frame(CFA_Y, -8)
          CFI R27 Frame(CFA_Y, -7)
          CFI R4 Frame(CFA_Y, -6)
          CFI R5 Frame(CFA_Y, -5)
          CFI R6 Frame(CFA_Y, -4)
          CFI R7 Frame(CFA_Y, -3)
          CFI R8 Frame(CFA_Y, -2)
          CFI R9 Frame(CFA_Y, -1)
          CFI CFA_SP SP+4
          CFI CFA_Y Y+10
          CFI Block cfiCond71 Using cfiCommon0
          CFI (cfiCond71) Function coding
          CFI (cfiCond71) Conditional ??CrossCallReturnLabel_69
          CFI (cfiCond71) R24 Frame(CFA_Y, -10)
          CFI (cfiCond71) R25 Frame(CFA_Y, -9)
          CFI (cfiCond71) R26 Frame(CFA_Y, -8)
          CFI (cfiCond71) R27 Frame(CFA_Y, -7)
          CFI (cfiCond71) R4 Frame(CFA_Y, -6)
          CFI (cfiCond71) R5 Frame(CFA_Y, -5)
          CFI (cfiCond71) R6 Frame(CFA_Y, -4)
          CFI (cfiCond71) R7 Frame(CFA_Y, -3)
          CFI (cfiCond71) R8 Frame(CFA_Y, -2)
          CFI (cfiCond71) R9 Frame(CFA_Y, -1)
          CFI (cfiCond71) CFA_SP SP+4
          CFI (cfiCond71) CFA_Y Y+10
          CFI Block cfiCond72 Using cfiCommon0
          CFI (cfiCond72) Function coding
          CFI (cfiCond72) Conditional ??CrossCallReturnLabel_70
          CFI (cfiCond72) R24 Frame(CFA_Y, -10)
          CFI (cfiCond72) R25 Frame(CFA_Y, -9)
          CFI (cfiCond72) R26 Frame(CFA_Y, -8)
          CFI (cfiCond72) R27 Frame(CFA_Y, -7)
          CFI (cfiCond72) R4 Frame(CFA_Y, -6)
          CFI (cfiCond72) R5 Frame(CFA_Y, -5)
          CFI (cfiCond72) R6 Frame(CFA_Y, -4)
          CFI (cfiCond72) R7 Frame(CFA_Y, -3)
          CFI (cfiCond72) R8 Frame(CFA_Y, -2)
          CFI (cfiCond72) R9 Frame(CFA_Y, -1)
          CFI (cfiCond72) CFA_SP SP+4
          CFI (cfiCond72) CFA_Y Y+10
          CFI Block cfiPicker73 Using cfiCommon2
          CFI (cfiPicker73) NoFunction
          CFI (cfiPicker73) Picker
        LDI     R22, 0
        LDI     R23, 64
        RJMP    ?F_CMP_LT_L04
          CFI EndBlock cfiCond70
          CFI EndBlock cfiCond71
          CFI EndBlock cfiCond72
          CFI EndBlock cfiPicker73

        RSEG CODE:CODE:NOROOT(1)
?Subroutine50:
          CFI Block cfiCond74 Using cfiCommon0
          CFI Function coding
          CFI Conditional ??CrossCallReturnLabel_65
          CFI R24 Frame(CFA_Y, -10)
          CFI R25 Frame(CFA_Y, -9)
          CFI R26 Frame(CFA_Y, -8)
          CFI R27 Frame(CFA_Y, -7)
          CFI R4 Frame(CFA_Y, -6)
          CFI R5 Frame(CFA_Y, -5)
          CFI R6 Frame(CFA_Y, -4)
          CFI R7 Frame(CFA_Y, -3)
          CFI R8 Frame(CFA_Y, -2)
          CFI R9 Frame(CFA_Y, -1)
          CFI CFA_SP SP+4
          CFI CFA_Y Y+10
          CFI Block cfiCond75 Using cfiCommon0
          CFI (cfiCond75) Function coding
          CFI (cfiCond75) Conditional ??CrossCallReturnLabel_66
          CFI (cfiCond75) R24 Frame(CFA_Y, -10)
          CFI (cfiCond75) R25 Frame(CFA_Y, -9)
          CFI (cfiCond75) R26 Frame(CFA_Y, -8)
          CFI (cfiCond75) R27 Frame(CFA_Y, -7)
          CFI (cfiCond75) R4 Frame(CFA_Y, -6)
          CFI (cfiCond75) R5 Frame(CFA_Y, -5)
          CFI (cfiCond75) R6 Frame(CFA_Y, -4)
          CFI (cfiCond75) R7 Frame(CFA_Y, -3)
          CFI (cfiCond75) R8 Frame(CFA_Y, -2)
          CFI (cfiCond75) R9 Frame(CFA_Y, -1)
          CFI (cfiCond75) CFA_SP SP+4
          CFI (cfiCond75) CFA_Y Y+10
          CFI Block cfiCond76 Using cfiCommon0
          CFI (cfiCond76) Function coding
          CFI (cfiCond76) Conditional ??CrossCallReturnLabel_67
          CFI (cfiCond76) R24 Frame(CFA_Y, -10)
          CFI (cfiCond76) R25 Frame(CFA_Y, -9)
          CFI (cfiCond76) R26 Frame(CFA_Y, -8)
          CFI (cfiCond76) R27 Frame(CFA_Y, -7)
          CFI (cfiCond76) R4 Frame(CFA_Y, -6)
          CFI (cfiCond76) R5 Frame(CFA_Y, -5)
          CFI (cfiCond76) R6 Frame(CFA_Y, -4)
          CFI (cfiCond76) R7 Frame(CFA_Y, -3)
          CFI (cfiCond76) R8 Frame(CFA_Y, -2)
          CFI (cfiCond76) R9 Frame(CFA_Y, -1)
          CFI (cfiCond76) CFA_SP SP+4
          CFI (cfiCond76) CFA_Y Y+10
          CFI Block cfiPicker77 Using cfiCommon2
          CFI (cfiPicker77) NoFunction
          CFI (cfiPicker77) Picker
        LDI     R20, 0
        LDI     R22, 224
        RJMP    ?F_CMP_LT_L04
          CFI EndBlock cfiCond74
          CFI EndBlock cfiCond75
          CFI EndBlock cfiCond76
          CFI EndBlock cfiPicker77

        RSEG CODE:CODE:NOROOT(1)
?Subroutine49:
          CFI Block cfiCond78 Using cfiCommon0
          CFI Function coding
          CFI Conditional ??CrossCallReturnLabel_62
          CFI R24 Frame(CFA_Y, -10)
          CFI R25 Frame(CFA_Y, -9)
          CFI R26 Frame(CFA_Y, -8)
          CFI R27 Frame(CFA_Y, -7)
          CFI R4 Frame(CFA_Y, -6)
          CFI R5 Frame(CFA_Y, -5)
          CFI R6 Frame(CFA_Y, -4)
          CFI R7 Frame(CFA_Y, -3)
          CFI R8 Frame(CFA_Y, -2)
          CFI R9 Frame(CFA_Y, -1)
          CFI CFA_SP SP+4
          CFI CFA_Y Y+10
          CFI Block cfiCond79 Using cfiCommon0
          CFI (cfiCond79) Function coding
          CFI (cfiCond79) Conditional ??CrossCallReturnLabel_63
          CFI (cfiCond79) R24 Frame(CFA_Y, -10)
          CFI (cfiCond79) R25 Frame(CFA_Y, -9)
          CFI (cfiCond79) R26 Frame(CFA_Y, -8)
          CFI (cfiCond79) R27 Frame(CFA_Y, -7)
          CFI (cfiCond79) R4 Frame(CFA_Y, -6)
          CFI (cfiCond79) R5 Frame(CFA_Y, -5)
          CFI (cfiCond79) R6 Frame(CFA_Y, -4)
          CFI (cfiCond79) R7 Frame(CFA_Y, -3)
          CFI (cfiCond79) R8 Frame(CFA_Y, -2)
          CFI (cfiCond79) R9 Frame(CFA_Y, -1)
          CFI (cfiCond79) CFA_SP SP+4
          CFI (cfiCond79) CFA_Y Y+10
          CFI Block cfiCond80 Using cfiCommon0
          CFI (cfiCond80) Function coding
          CFI (cfiCond80) Conditional ??CrossCallReturnLabel_64
          CFI (cfiCond80) R24 Frame(CFA_Y, -10)
          CFI (cfiCond80) R25 Frame(CFA_Y, -9)
          CFI (cfiCond80) R26 Frame(CFA_Y, -8)
          CFI (cfiCond80) R27 Frame(CFA_Y, -7)
          CFI (cfiCond80) R4 Frame(CFA_Y, -6)
          CFI (cfiCond80) R5 Frame(CFA_Y, -5)
          CFI (cfiCond80) R6 Frame(CFA_Y, -4)
          CFI (cfiCond80) R7 Frame(CFA_Y, -3)
          CFI (cfiCond80) R8 Frame(CFA_Y, -2)
          CFI (cfiCond80) R9 Frame(CFA_Y, -1)
          CFI (cfiCond80) CFA_SP SP+4
          CFI (cfiCond80) CFA_Y Y+10
          CFI Block cfiPicker81 Using cfiCommon2
          CFI (cfiPicker81) NoFunction
          CFI (cfiPicker81) Picker
        LDI     R22, 0
        LDI     R23, 64
        MOVW    R17:R16, R1:R0
        RJMP    ?F_CMP_GE_L04
          CFI EndBlock cfiCond78
          CFI EndBlock cfiCond79
          CFI EndBlock cfiCond80
          CFI EndBlock cfiPicker81

        RSEG CODE:CODE:NOROOT(1)
?Subroutine47:
          CFI Block cfiCond82 Using cfiCommon0
          CFI Function coding
          CFI Conditional ??CrossCallReturnLabel_57
          CFI R24 Frame(CFA_Y, -10)
          CFI R25 Frame(CFA_Y, -9)
          CFI R26 Frame(CFA_Y, -8)
          CFI R27 Frame(CFA_Y, -7)
          CFI R4 Frame(CFA_Y, -6)
          CFI R5 Frame(CFA_Y, -5)
          CFI R6 Frame(CFA_Y, -4)
          CFI R7 Frame(CFA_Y, -3)
          CFI R8 Frame(CFA_Y, -2)
          CFI R9 Frame(CFA_Y, -1)
          CFI CFA_SP SP+4
          CFI CFA_Y Y+10
          CFI Block cfiCond83 Using cfiCommon0
          CFI (cfiCond83) Function coding
          CFI (cfiCond83) Conditional ??CrossCallReturnLabel_58
          CFI (cfiCond83) R24 Frame(CFA_Y, -10)
          CFI (cfiCond83) R25 Frame(CFA_Y, -9)
          CFI (cfiCond83) R26 Frame(CFA_Y, -8)
          CFI (cfiCond83) R27 Frame(CFA_Y, -7)
          CFI (cfiCond83) R4 Frame(CFA_Y, -6)
          CFI (cfiCond83) R5 Frame(CFA_Y, -5)
          CFI (cfiCond83) R6 Frame(CFA_Y, -4)
          CFI (cfiCond83) R7 Frame(CFA_Y, -3)
          CFI (cfiCond83) R8 Frame(CFA_Y, -2)
          CFI (cfiCond83) R9 Frame(CFA_Y, -1)
          CFI (cfiCond83) CFA_SP SP+4
          CFI (cfiCond83) CFA_Y Y+10
          CFI Block cfiCond84 Using cfiCommon0
          CFI (cfiCond84) Function coding
          CFI (cfiCond84) Conditional ??CrossCallReturnLabel_59
          CFI (cfiCond84) R24 Frame(CFA_Y, -10)
          CFI (cfiCond84) R25 Frame(CFA_Y, -9)
          CFI (cfiCond84) R26 Frame(CFA_Y, -8)
          CFI (cfiCond84) R27 Frame(CFA_Y, -7)
          CFI (cfiCond84) R4 Frame(CFA_Y, -6)
          CFI (cfiCond84) R5 Frame(CFA_Y, -5)
          CFI (cfiCond84) R6 Frame(CFA_Y, -4)
          CFI (cfiCond84) R7 Frame(CFA_Y, -3)
          CFI (cfiCond84) R8 Frame(CFA_Y, -2)
          CFI (cfiCond84) R9 Frame(CFA_Y, -1)
          CFI (cfiCond84) CFA_SP SP+4
          CFI (cfiCond84) CFA_Y Y+10
          CFI Block cfiPicker85 Using cfiCommon2
          CFI (cfiPicker85) NoFunction
          CFI (cfiPicker85) Picker
        LDI     R20, 1
        LDI     R22, 160
        RJMP    ?F_CMP_GE_L04
          CFI EndBlock cfiCond82
          CFI EndBlock cfiCond83
          CFI EndBlock cfiCond84
          CFI EndBlock cfiPicker85

        RSEG CODE:CODE:NOROOT(1)
?Subroutine45:
          CFI Block cfiCond86 Using cfiCommon0
          CFI Function coding
          CFI Conditional ??CrossCallReturnLabel_53
          CFI R24 Frame(CFA_Y, -10)
          CFI R25 Frame(CFA_Y, -9)
          CFI R26 Frame(CFA_Y, -8)
          CFI R27 Frame(CFA_Y, -7)
          CFI R4 Frame(CFA_Y, -6)
          CFI R5 Frame(CFA_Y, -5)
          CFI R6 Frame(CFA_Y, -4)
          CFI R7 Frame(CFA_Y, -3)
          CFI R8 Frame(CFA_Y, -2)
          CFI R9 Frame(CFA_Y, -1)
          CFI CFA_SP SP+4
          CFI CFA_Y Y+10
          CFI Block cfiCond87 Using cfiCommon0
          CFI (cfiCond87) Function coding
          CFI (cfiCond87) Conditional ??CrossCallReturnLabel_54
          CFI (cfiCond87) R24 Frame(CFA_Y, -10)
          CFI (cfiCond87) R25 Frame(CFA_Y, -9)
          CFI (cfiCond87) R26 Frame(CFA_Y, -8)
          CFI (cfiCond87) R27 Frame(CFA_Y, -7)
          CFI (cfiCond87) R4 Frame(CFA_Y, -6)
          CFI (cfiCond87) R5 Frame(CFA_Y, -5)
          CFI (cfiCond87) R6 Frame(CFA_Y, -4)
          CFI (cfiCond87) R7 Frame(CFA_Y, -3)
          CFI (cfiCond87) R8 Frame(CFA_Y, -2)
          CFI (cfiCond87) R9 Frame(CFA_Y, -1)
          CFI (cfiCond87) CFA_SP SP+4
          CFI (cfiCond87) CFA_Y Y+10
          CFI Block cfiPicker88 Using cfiCommon2
          CFI (cfiPicker88) NoFunction
          CFI (cfiPicker88) Picker
        RCALL   ?Subroutine101
??CrossCallReturnLabel_185:
        RJMP    ?Subroutine121
          CFI EndBlock cfiCond86
          CFI EndBlock cfiCond87
          CFI EndBlock cfiPicker88

        RSEG CODE:CODE:NOROOT(1)
?Subroutine37:
          CFI Block cfiCond89 Using cfiCommon0
          CFI Function coding
          CFI Conditional ??CrossCallReturnLabel_303
          CFI R24 Frame(CFA_Y, -10)
          CFI R25 Frame(CFA_Y, -9)
          CFI R26 Frame(CFA_Y, -8)
          CFI R27 Frame(CFA_Y, -7)
          CFI R4 Frame(CFA_Y, -6)
          CFI R5 Frame(CFA_Y, -5)
          CFI R6 Frame(CFA_Y, -4)
          CFI R7 Frame(CFA_Y, -3)
          CFI R8 Frame(CFA_Y, -2)
          CFI R9 Frame(CFA_Y, -1)
          CFI CFA_SP SP+4
          CFI CFA_Y Y+10
          CFI Block cfiCond90 Using cfiCommon0
          CFI (cfiCond90) Function coding
          CFI (cfiCond90) Conditional ??CrossCallReturnLabel_304
          CFI (cfiCond90) R24 Frame(CFA_Y, -10)
          CFI (cfiCond90) R25 Frame(CFA_Y, -9)
          CFI (cfiCond90) R26 Frame(CFA_Y, -8)
          CFI (cfiCond90) R27 Frame(CFA_Y, -7)
          CFI (cfiCond90) R4 Frame(CFA_Y, -6)
          CFI (cfiCond90) R5 Frame(CFA_Y, -5)
          CFI (cfiCond90) R6 Frame(CFA_Y, -4)
          CFI (cfiCond90) R7 Frame(CFA_Y, -3)
          CFI (cfiCond90) R8 Frame(CFA_Y, -2)
          CFI (cfiCond90) R9 Frame(CFA_Y, -1)
          CFI (cfiCond90) CFA_SP SP+4
          CFI (cfiCond90) CFA_Y Y+10
          CFI Block cfiPicker91 Using cfiCommon2
          CFI (cfiPicker91) NoFunction
          CFI (cfiPicker91) Picker
        LDI     R30, LOW(c3)
        LDI     R31, (c3) >> 8
          CFI EndBlock cfiCond89
          CFI EndBlock cfiCond90
          CFI EndBlock cfiPicker91
        REQUIRE ??Subroutine137_0
        ;               // Fall through to label ??Subroutine137_0

        RSEG CODE:CODE:NOROOT(1)
??Subroutine137_0:
          CFI Block cfiCond92 Using cfiCommon0
          CFI Function coding
          CFI Conditional ??CrossCallReturnLabel_301
          CFI R24 Frame(CFA_Y, -10)
          CFI R25 Frame(CFA_Y, -9)
          CFI R26 Frame(CFA_Y, -8)
          CFI R27 Frame(CFA_Y, -7)
          CFI R4 Frame(CFA_Y, -6)
          CFI R5 Frame(CFA_Y, -5)
          CFI R6 Frame(CFA_Y, -4)
          CFI R7 Frame(CFA_Y, -3)
          CFI R8 Frame(CFA_Y, -2)
          CFI R9 Frame(CFA_Y, -1)
          CFI CFA_SP SP+4
          CFI CFA_Y Y+10
          CFI Block cfiCond93 Using cfiCommon0
          CFI (cfiCond93) Function coding
          CFI (cfiCond93) Conditional ??CrossCallReturnLabel_302
          CFI (cfiCond93) R24 Frame(CFA_Y, -10)
          CFI (cfiCond93) R25 Frame(CFA_Y, -9)
          CFI (cfiCond93) R26 Frame(CFA_Y, -8)
          CFI (cfiCond93) R27 Frame(CFA_Y, -7)
          CFI (cfiCond93) R4 Frame(CFA_Y, -6)
          CFI (cfiCond93) R5 Frame(CFA_Y, -5)
          CFI (cfiCond93) R6 Frame(CFA_Y, -4)
          CFI (cfiCond93) R7 Frame(CFA_Y, -3)
          CFI (cfiCond93) R8 Frame(CFA_Y, -2)
          CFI (cfiCond93) R9 Frame(CFA_Y, -1)
          CFI (cfiCond93) CFA_SP SP+4
          CFI (cfiCond93) CFA_Y Y+10
          CFI Block cfiCond94 Using cfiCommon0
          CFI (cfiCond94) Function coding
          CFI (cfiCond94) Conditional ??CrossCallReturnLabel_303
          CFI (cfiCond94) R24 Frame(CFA_Y, -10)
          CFI (cfiCond94) R25 Frame(CFA_Y, -9)
          CFI (cfiCond94) R26 Frame(CFA_Y, -8)
          CFI (cfiCond94) R27 Frame(CFA_Y, -7)
          CFI (cfiCond94) R4 Frame(CFA_Y, -6)
          CFI (cfiCond94) R5 Frame(CFA_Y, -5)
          CFI (cfiCond94) R6 Frame(CFA_Y, -4)
          CFI (cfiCond94) R7 Frame(CFA_Y, -3)
          CFI (cfiCond94) R8 Frame(CFA_Y, -2)
          CFI (cfiCond94) R9 Frame(CFA_Y, -1)
          CFI (cfiCond94) CFA_SP SP+4
          CFI (cfiCond94) CFA_Y Y+10
          CFI Block cfiCond95 Using cfiCommon0
          CFI (cfiCond95) Function coding
          CFI (cfiCond95) Conditional ??CrossCallReturnLabel_304
          CFI (cfiCond95) R24 Frame(CFA_Y, -10)
          CFI (cfiCond95) R25 Frame(CFA_Y, -9)
          CFI (cfiCond95) R26 Frame(CFA_Y, -8)
          CFI (cfiCond95) R27 Frame(CFA_Y, -7)
          CFI (cfiCond95) R4 Frame(CFA_Y, -6)
          CFI (cfiCond95) R5 Frame(CFA_Y, -5)
          CFI (cfiCond95) R6 Frame(CFA_Y, -4)
          CFI (cfiCond95) R7 Frame(CFA_Y, -3)
          CFI (cfiCond95) R8 Frame(CFA_Y, -2)
          CFI (cfiCond95) R9 Frame(CFA_Y, -1)
          CFI (cfiCond95) CFA_SP SP+4
          CFI (cfiCond95) CFA_Y Y+10
          CFI Block cfiPicker96 Using cfiCommon2
          CFI (cfiPicker96) NoFunction
          CFI (cfiPicker96) Picker
        LD      R16, Z
        SUBI    R16, 254
        RET
          CFI EndBlock cfiCond92
          CFI EndBlock cfiCond93
          CFI EndBlock cfiCond94
          CFI EndBlock cfiCond95
          CFI EndBlock cfiPicker96

        RSEG CODE:CODE:NOROOT(1)
?Subroutine33:
          CFI Block cfiCond97 Using cfiCommon0
          CFI Function coding
          CFI Conditional ??CrossCallReturnLabel_192
          CFI R24 Frame(CFA_Y, -10)
          CFI R25 Frame(CFA_Y, -9)
          CFI R26 Frame(CFA_Y, -8)
          CFI R27 Frame(CFA_Y, -7)
          CFI R4 Frame(CFA_Y, -6)
          CFI R5 Frame(CFA_Y, -5)
          CFI R6 Frame(CFA_Y, -4)
          CFI R7 Frame(CFA_Y, -3)
          CFI R8 Frame(CFA_Y, -2)
          CFI R9 Frame(CFA_Y, -1)
          CFI CFA_SP SP+4
          CFI CFA_Y Y+10
          CFI Block cfiCond98 Using cfiCommon0
          CFI (cfiCond98) Function coding
          CFI (cfiCond98) Conditional ??CrossCallReturnLabel_193
          CFI (cfiCond98) R24 Frame(CFA_Y, -10)
          CFI (cfiCond98) R25 Frame(CFA_Y, -9)
          CFI (cfiCond98) R26 Frame(CFA_Y, -8)
          CFI (cfiCond98) R27 Frame(CFA_Y, -7)
          CFI (cfiCond98) R4 Frame(CFA_Y, -6)
          CFI (cfiCond98) R5 Frame(CFA_Y, -5)
          CFI (cfiCond98) R6 Frame(CFA_Y, -4)
          CFI (cfiCond98) R7 Frame(CFA_Y, -3)
          CFI (cfiCond98) R8 Frame(CFA_Y, -2)
          CFI (cfiCond98) R9 Frame(CFA_Y, -1)
          CFI (cfiCond98) CFA_SP SP+4
          CFI (cfiCond98) CFA_Y Y+10
          CFI Block cfiPicker99 Using cfiCommon2
          CFI (cfiPicker99) NoFunction
          CFI (cfiPicker99) Picker
        RCALL   ?Subroutine99
          CFI EndBlock cfiCond97
          CFI EndBlock cfiCond98
          CFI EndBlock cfiPicker99
??CrossCallReturnLabel_179:
        REQUIRE ?Subroutine103
        ;               // Fall through to label ?Subroutine103

        RSEG CODE:CODE:NOROOT(1)
?Subroutine103:
          CFI Block cfiCond100 Using cfiCommon0
          CFI Function coding
          CFI Conditional ??CrossCallReturnLabel_191
          CFI R24 Frame(CFA_Y, -10)
          CFI R25 Frame(CFA_Y, -9)
          CFI R26 Frame(CFA_Y, -8)
          CFI R27 Frame(CFA_Y, -7)
          CFI R4 Frame(CFA_Y, -6)
          CFI R5 Frame(CFA_Y, -5)
          CFI R6 Frame(CFA_Y, -4)
          CFI R7 Frame(CFA_Y, -3)
          CFI R8 Frame(CFA_Y, -2)
          CFI R9 Frame(CFA_Y, -1)
          CFI CFA_SP SP+4
          CFI CFA_Y Y+10
          CFI Block cfiCond101 Using cfiCommon0
          CFI (cfiCond101) Function coding
          CFI (cfiCond101) Conditional ??CrossCallReturnLabel_192
          CFI (cfiCond101) R24 Frame(CFA_Y, -10)
          CFI (cfiCond101) R25 Frame(CFA_Y, -9)
          CFI (cfiCond101) R26 Frame(CFA_Y, -8)
          CFI (cfiCond101) R27 Frame(CFA_Y, -7)
          CFI (cfiCond101) R4 Frame(CFA_Y, -6)
          CFI (cfiCond101) R5 Frame(CFA_Y, -5)
          CFI (cfiCond101) R6 Frame(CFA_Y, -4)
          CFI (cfiCond101) R7 Frame(CFA_Y, -3)
          CFI (cfiCond101) R8 Frame(CFA_Y, -2)
          CFI (cfiCond101) R9 Frame(CFA_Y, -1)
          CFI (cfiCond101) CFA_SP SP+4
          CFI (cfiCond101) CFA_Y Y+10
          CFI Block cfiCond102 Using cfiCommon0
          CFI (cfiCond102) Function coding
          CFI (cfiCond102) Conditional ??CrossCallReturnLabel_193
          CFI (cfiCond102) R24 Frame(CFA_Y, -10)
          CFI (cfiCond102) R25 Frame(CFA_Y, -9)
          CFI (cfiCond102) R26 Frame(CFA_Y, -8)
          CFI (cfiCond102) R27 Frame(CFA_Y, -7)
          CFI (cfiCond102) R4 Frame(CFA_Y, -6)
          CFI (cfiCond102) R5 Frame(CFA_Y, -5)
          CFI (cfiCond102) R6 Frame(CFA_Y, -4)
          CFI (cfiCond102) R7 Frame(CFA_Y, -3)
          CFI (cfiCond102) R8 Frame(CFA_Y, -2)
          CFI (cfiCond102) R9 Frame(CFA_Y, -1)
          CFI (cfiCond102) CFA_SP SP+4
          CFI (cfiCond102) CFA_Y Y+10
          CFI Block cfiPicker103 Using cfiCommon2
          CFI (cfiPicker103) NoFunction
          CFI (cfiPicker103) Picker
        LSL     R16
        ROL     R17
        LSL     R16
        ROL     R17
        RET
          CFI EndBlock cfiCond100
          CFI EndBlock cfiCond101
          CFI EndBlock cfiCond102
          CFI EndBlock cfiPicker103

        RSEG CODE:CODE:NOROOT(1)
?Subroutine98:
          CFI Block cfiCond104 Using cfiCommon0
          CFI Function coding
          CFI Conditional ??CrossCallReturnLabel_166
          CFI R24 Frame(CFA_Y, -10)
          CFI R25 Frame(CFA_Y, -9)
          CFI R26 Frame(CFA_Y, -8)
          CFI R27 Frame(CFA_Y, -7)
          CFI R4 Frame(CFA_Y, -6)
          CFI R5 Frame(CFA_Y, -5)
          CFI R6 Frame(CFA_Y, -4)
          CFI R7 Frame(CFA_Y, -3)
          CFI R8 Frame(CFA_Y, -2)
          CFI R9 Frame(CFA_Y, -1)
          CFI CFA_SP SP+4
          CFI CFA_Y Y+10
          CFI Block cfiCond105 Using cfiCommon0
          CFI (cfiCond105) Function coding
          CFI (cfiCond105) Conditional ??CrossCallReturnLabel_167
          CFI (cfiCond105) R24 Frame(CFA_Y, -10)
          CFI (cfiCond105) R25 Frame(CFA_Y, -9)
          CFI (cfiCond105) R26 Frame(CFA_Y, -8)
          CFI (cfiCond105) R27 Frame(CFA_Y, -7)
          CFI (cfiCond105) R4 Frame(CFA_Y, -6)
          CFI (cfiCond105) R5 Frame(CFA_Y, -5)
          CFI (cfiCond105) R6 Frame(CFA_Y, -4)
          CFI (cfiCond105) R7 Frame(CFA_Y, -3)
          CFI (cfiCond105) R8 Frame(CFA_Y, -2)
          CFI (cfiCond105) R9 Frame(CFA_Y, -1)
          CFI (cfiCond105) CFA_SP SP+4
          CFI (cfiCond105) CFA_Y Y+10
          CFI Block cfiCond106 Using cfiCommon0
          CFI (cfiCond106) Function coding
          CFI (cfiCond106) Conditional ??CrossCallReturnLabel_168
          CFI (cfiCond106) R24 Frame(CFA_Y, -10)
          CFI (cfiCond106) R25 Frame(CFA_Y, -9)
          CFI (cfiCond106) R26 Frame(CFA_Y, -8)
          CFI (cfiCond106) R27 Frame(CFA_Y, -7)
          CFI (cfiCond106) R4 Frame(CFA_Y, -6)
          CFI (cfiCond106) R5 Frame(CFA_Y, -5)
          CFI (cfiCond106) R6 Frame(CFA_Y, -4)
          CFI (cfiCond106) R7 Frame(CFA_Y, -3)
          CFI (cfiCond106) R8 Frame(CFA_Y, -2)
          CFI (cfiCond106) R9 Frame(CFA_Y, -1)
          CFI (cfiCond106) CFA_SP SP+4
          CFI (cfiCond106) CFA_Y Y+10
          CFI Block cfiCond107 Using cfiCommon0
          CFI (cfiCond107) Function coding
          CFI (cfiCond107) Conditional ??CrossCallReturnLabel_169, ??CrossCallReturnLabel_32
          CFI (cfiCond107) R24 Frame(CFA_Y, -10)
          CFI (cfiCond107) R25 Frame(CFA_Y, -9)
          CFI (cfiCond107) R26 Frame(CFA_Y, -8)
          CFI (cfiCond107) R27 Frame(CFA_Y, -7)
          CFI (cfiCond107) R4 Frame(CFA_Y, -6)
          CFI (cfiCond107) R5 Frame(CFA_Y, -5)
          CFI (cfiCond107) R6 Frame(CFA_Y, -4)
          CFI (cfiCond107) R7 Frame(CFA_Y, -3)
          CFI (cfiCond107) R8 Frame(CFA_Y, -2)
          CFI (cfiCond107) R9 Frame(CFA_Y, -1)
          CFI (cfiCond107) CFA_SP SP+6
          CFI (cfiCond107) CFA_Y Y+10
          CFI Block cfiCond108 Using cfiCommon0
          CFI (cfiCond108) Function coding
          CFI (cfiCond108) Conditional ??CrossCallReturnLabel_169, ??CrossCallReturnLabel_33
          CFI (cfiCond108) R24 Frame(CFA_Y, -10)
          CFI (cfiCond108) R25 Frame(CFA_Y, -9)
          CFI (cfiCond108) R26 Frame(CFA_Y, -8)
          CFI (cfiCond108) R27 Frame(CFA_Y, -7)
          CFI (cfiCond108) R4 Frame(CFA_Y, -6)
          CFI (cfiCond108) R5 Frame(CFA_Y, -5)
          CFI (cfiCond108) R6 Frame(CFA_Y, -4)
          CFI (cfiCond108) R7 Frame(CFA_Y, -3)
          CFI (cfiCond108) R8 Frame(CFA_Y, -2)
          CFI (cfiCond108) R9 Frame(CFA_Y, -1)
          CFI (cfiCond108) CFA_SP SP+6
          CFI (cfiCond108) CFA_Y Y+10
          CFI Block cfiCond109 Using cfiCommon0
          CFI (cfiCond109) Function coding
          CFI (cfiCond109) Conditional ??CrossCallReturnLabel_169, ??CrossCallReturnLabel_34
          CFI (cfiCond109) R24 Frame(CFA_Y, -10)
          CFI (cfiCond109) R25 Frame(CFA_Y, -9)
          CFI (cfiCond109) R26 Frame(CFA_Y, -8)
          CFI (cfiCond109) R27 Frame(CFA_Y, -7)
          CFI (cfiCond109) R4 Frame(CFA_Y, -6)
          CFI (cfiCond109) R5 Frame(CFA_Y, -5)
          CFI (cfiCond109) R6 Frame(CFA_Y, -4)
          CFI (cfiCond109) R7 Frame(CFA_Y, -3)
          CFI (cfiCond109) R8 Frame(CFA_Y, -2)
          CFI (cfiCond109) R9 Frame(CFA_Y, -1)
          CFI (cfiCond109) CFA_SP SP+6
          CFI (cfiCond109) CFA_Y Y+10
          CFI Block cfiPicker110 Using cfiCommon2
          CFI (cfiPicker110) NoFunction
          CFI (cfiPicker110) Picker
        LD      R16, Z
        LDD     R17, Z+1
        OR      R16, R8
        OR      R17, R9
        RET
          CFI EndBlock cfiCond104
          CFI EndBlock cfiCond105
          CFI EndBlock cfiCond106
          CFI EndBlock cfiCond107
          CFI EndBlock cfiCond108
          CFI EndBlock cfiCond109
          CFI EndBlock cfiPicker110

        RSEG CODE:CODE:NOROOT(1)
?Subroutine31:
          CFI Block cfiCond111 Using cfiCommon0
          CFI Function coding
          CFI Conditional ??CrossCallReturnLabel_35
          CFI R24 Frame(CFA_Y, -10)
          CFI R25 Frame(CFA_Y, -9)
          CFI R26 Frame(CFA_Y, -8)
          CFI R27 Frame(CFA_Y, -7)
          CFI R4 Frame(CFA_Y, -6)
          CFI R5 Frame(CFA_Y, -5)
          CFI R6 Frame(CFA_Y, -4)
          CFI R7 Frame(CFA_Y, -3)
          CFI R8 Frame(CFA_Y, -2)
          CFI R9 Frame(CFA_Y, -1)
          CFI CFA_SP SP+4
          CFI CFA_Y Y+10
          CFI Block cfiCond112 Using cfiCommon0
          CFI (cfiCond112) Function coding
          CFI (cfiCond112) Conditional ??CrossCallReturnLabel_36
          CFI (cfiCond112) R24 Frame(CFA_Y, -10)
          CFI (cfiCond112) R25 Frame(CFA_Y, -9)
          CFI (cfiCond112) R26 Frame(CFA_Y, -8)
          CFI (cfiCond112) R27 Frame(CFA_Y, -7)
          CFI (cfiCond112) R4 Frame(CFA_Y, -6)
          CFI (cfiCond112) R5 Frame(CFA_Y, -5)
          CFI (cfiCond112) R6 Frame(CFA_Y, -4)
          CFI (cfiCond112) R7 Frame(CFA_Y, -3)
          CFI (cfiCond112) R8 Frame(CFA_Y, -2)
          CFI (cfiCond112) R9 Frame(CFA_Y, -1)
          CFI (cfiCond112) CFA_SP SP+4
          CFI (cfiCond112) CFA_Y Y+10
          CFI Block cfiCond113 Using cfiCommon0
          CFI (cfiCond113) Function coding
          CFI (cfiCond113) Conditional ??CrossCallReturnLabel_37
          CFI (cfiCond113) R24 Frame(CFA_Y, -10)
          CFI (cfiCond113) R25 Frame(CFA_Y, -9)
          CFI (cfiCond113) R26 Frame(CFA_Y, -8)
          CFI (cfiCond113) R27 Frame(CFA_Y, -7)
          CFI (cfiCond113) R4 Frame(CFA_Y, -6)
          CFI (cfiCond113) R5 Frame(CFA_Y, -5)
          CFI (cfiCond113) R6 Frame(CFA_Y, -4)
          CFI (cfiCond113) R7 Frame(CFA_Y, -3)
          CFI (cfiCond113) R8 Frame(CFA_Y, -2)
          CFI (cfiCond113) R9 Frame(CFA_Y, -1)
          CFI (cfiCond113) CFA_SP SP+4
          CFI (cfiCond113) CFA_Y Y+10
          CFI Block cfiPicker114 Using cfiCommon2
          CFI (cfiPicker114) NoFunction
          CFI (cfiPicker114) Picker
        RCALL   ?Subroutine96
??CrossCallReturnLabel_328:
        CPI     R16, 16
        RET
          CFI EndBlock cfiCond111
          CFI EndBlock cfiCond112
          CFI EndBlock cfiCond113
          CFI EndBlock cfiPicker114

        RSEG CODE:CODE:NOROOT(1)
?Subroutine29:
          CFI Block cfiCond115 Using cfiCommon0
          CFI Function coding
          CFI Conditional ??CrossCallReturnLabel_32
          CFI R24 Frame(CFA_Y, -10)
          CFI R25 Frame(CFA_Y, -9)
          CFI R26 Frame(CFA_Y, -8)
          CFI R27 Frame(CFA_Y, -7)
          CFI R4 Frame(CFA_Y, -6)
          CFI R5 Frame(CFA_Y, -5)
          CFI R6 Frame(CFA_Y, -4)
          CFI R7 Frame(CFA_Y, -3)
          CFI R8 Frame(CFA_Y, -2)
          CFI R9 Frame(CFA_Y, -1)
          CFI CFA_SP SP+4
          CFI CFA_Y Y+10
          CFI Block cfiCond116 Using cfiCommon0
          CFI (cfiCond116) Function coding
          CFI (cfiCond116) Conditional ??CrossCallReturnLabel_33
          CFI (cfiCond116) R24 Frame(CFA_Y, -10)
          CFI (cfiCond116) R25 Frame(CFA_Y, -9)
          CFI (cfiCond116) R26 Frame(CFA_Y, -8)
          CFI (cfiCond116) R27 Frame(CFA_Y, -7)
          CFI (cfiCond116) R4 Frame(CFA_Y, -6)
          CFI (cfiCond116) R5 Frame(CFA_Y, -5)
          CFI (cfiCond116) R6 Frame(CFA_Y, -4)
          CFI (cfiCond116) R7 Frame(CFA_Y, -3)
          CFI (cfiCond116) R8 Frame(CFA_Y, -2)
          CFI (cfiCond116) R9 Frame(CFA_Y, -1)
          CFI (cfiCond116) CFA_SP SP+4
          CFI (cfiCond116) CFA_Y Y+10
          CFI Block cfiCond117 Using cfiCommon0
          CFI (cfiCond117) Function coding
          CFI (cfiCond117) Conditional ??CrossCallReturnLabel_34
          CFI (cfiCond117) R24 Frame(CFA_Y, -10)
          CFI (cfiCond117) R25 Frame(CFA_Y, -9)
          CFI (cfiCond117) R26 Frame(CFA_Y, -8)
          CFI (cfiCond117) R27 Frame(CFA_Y, -7)
          CFI (cfiCond117) R4 Frame(CFA_Y, -6)
          CFI (cfiCond117) R5 Frame(CFA_Y, -5)
          CFI (cfiCond117) R6 Frame(CFA_Y, -4)
          CFI (cfiCond117) R7 Frame(CFA_Y, -3)
          CFI (cfiCond117) R8 Frame(CFA_Y, -2)
          CFI (cfiCond117) R9 Frame(CFA_Y, -1)
          CFI (cfiCond117) CFA_SP SP+4
          CFI (cfiCond117) CFA_Y Y+10
          CFI Block cfiPicker118 Using cfiCommon2
          CFI (cfiPicker118) NoFunction
          CFI (cfiPicker118) Picker
        RCALL   ?Subroutine98
??CrossCallReturnLabel_169:
        ADD     R16, R4
        ADC     R17, R5
        RET
          CFI EndBlock cfiCond115
          CFI EndBlock cfiCond116
          CFI EndBlock cfiCond117
          CFI EndBlock cfiPicker118

        RSEG CODE:CODE:NOROOT(1)
?Subroutine28:
          CFI Block cfiCond119 Using cfiCommon0
          CFI Function PEREP
          CFI Conditional ??CrossCallReturnLabel_319
          CFI R24 Frame(CFA_Y, -8)
          CFI R25 Frame(CFA_Y, -7)
          CFI R26 Frame(CFA_Y, -6)
          CFI R27 Frame(CFA_Y, -5)
          CFI R4 Frame(CFA_Y, -4)
          CFI R5 Frame(CFA_Y, -3)
          CFI R6 Frame(CFA_Y, -2)
          CFI R7 Frame(CFA_Y, -1)
          CFI CFA_SP SP+4
          CFI CFA_Y Y+8
          CFI Block cfiCond120 Using cfiCommon0
          CFI (cfiCond120) Function coding
          CFI (cfiCond120) Conditional ??CrossCallReturnLabel_318
          CFI (cfiCond120) R24 Frame(CFA_Y, -10)
          CFI (cfiCond120) R25 Frame(CFA_Y, -9)
          CFI (cfiCond120) R26 Frame(CFA_Y, -8)
          CFI (cfiCond120) R27 Frame(CFA_Y, -7)
          CFI (cfiCond120) R4 Frame(CFA_Y, -6)
          CFI (cfiCond120) R5 Frame(CFA_Y, -5)
          CFI (cfiCond120) R6 Frame(CFA_Y, -4)
          CFI (cfiCond120) R7 Frame(CFA_Y, -3)
          CFI (cfiCond120) R8 Frame(CFA_Y, -2)
          CFI (cfiCond120) R9 Frame(CFA_Y, -1)
          CFI (cfiCond120) CFA_SP SP+4
          CFI (cfiCond120) CFA_Y Y+10
          CFI Block cfiPicker121 Using cfiCommon2
          CFI (cfiPicker121) NoFunction
          CFI (cfiPicker121) Picker
        RCALL   rprintfStr
        LDI     R30, LOW(cod1)
        LDI     R31, (cod1) >> 8
          CFI EndBlock cfiCond119
          CFI EndBlock cfiCond120
          CFI EndBlock cfiPicker121
        REQUIRE ?Subroutine134
        REQUIRE ??Subroutine138_0
        ;               // Fall through to label ??Subroutine138_0

        RSEG CODE:CODE:NOROOT(1)
??Subroutine138_0:
          CFI Block cfiCond122 Using cfiCommon0
          CFI Function PEREP
          CFI Conditional ??CrossCallReturnLabel_317
          CFI R24 Frame(CFA_Y, -8)
          CFI R25 Frame(CFA_Y, -7)
          CFI R26 Frame(CFA_Y, -6)
          CFI R27 Frame(CFA_Y, -5)
          CFI R4 Frame(CFA_Y, -4)
          CFI R5 Frame(CFA_Y, -3)
          CFI R6 Frame(CFA_Y, -2)
          CFI R7 Frame(CFA_Y, -1)
          CFI CFA_SP SP+4
          CFI CFA_Y Y+8
          CFI Block cfiCond123 Using cfiCommon0
          CFI (cfiCond123) Function PEREP
          CFI (cfiCond123) Conditional ??CrossCallReturnLabel_316
          CFI (cfiCond123) R24 Frame(CFA_Y, -8)
          CFI (cfiCond123) R25 Frame(CFA_Y, -7)
          CFI (cfiCond123) R26 Frame(CFA_Y, -6)
          CFI (cfiCond123) R27 Frame(CFA_Y, -5)
          CFI (cfiCond123) R4 Frame(CFA_Y, -4)
          CFI (cfiCond123) R5 Frame(CFA_Y, -3)
          CFI (cfiCond123) R6 Frame(CFA_Y, -2)
          CFI (cfiCond123) R7 Frame(CFA_Y, -1)
          CFI (cfiCond123) CFA_SP SP+4
          CFI (cfiCond123) CFA_Y Y+8
          CFI Block cfiCond124 Using cfiCommon0
          CFI (cfiCond124) Function coding
          CFI (cfiCond124) Conditional ??CrossCallReturnLabel_315
          CFI (cfiCond124) R24 Frame(CFA_Y, -10)
          CFI (cfiCond124) R25 Frame(CFA_Y, -9)
          CFI (cfiCond124) R26 Frame(CFA_Y, -8)
          CFI (cfiCond124) R27 Frame(CFA_Y, -7)
          CFI (cfiCond124) R4 Frame(CFA_Y, -6)
          CFI (cfiCond124) R5 Frame(CFA_Y, -5)
          CFI (cfiCond124) R6 Frame(CFA_Y, -4)
          CFI (cfiCond124) R7 Frame(CFA_Y, -3)
          CFI (cfiCond124) R8 Frame(CFA_Y, -2)
          CFI (cfiCond124) R9 Frame(CFA_Y, -1)
          CFI (cfiCond124) CFA_SP SP+4
          CFI (cfiCond124) CFA_Y Y+10
          CFI Block cfiCond125 Using cfiCommon0
          CFI (cfiCond125) Function coding
          CFI (cfiCond125) Conditional ??CrossCallReturnLabel_314
          CFI (cfiCond125) R24 Frame(CFA_Y, -10)
          CFI (cfiCond125) R25 Frame(CFA_Y, -9)
          CFI (cfiCond125) R26 Frame(CFA_Y, -8)
          CFI (cfiCond125) R27 Frame(CFA_Y, -7)
          CFI (cfiCond125) R4 Frame(CFA_Y, -6)
          CFI (cfiCond125) R5 Frame(CFA_Y, -5)
          CFI (cfiCond125) R6 Frame(CFA_Y, -4)
          CFI (cfiCond125) R7 Frame(CFA_Y, -3)
          CFI (cfiCond125) R8 Frame(CFA_Y, -2)
          CFI (cfiCond125) R9 Frame(CFA_Y, -1)
          CFI (cfiCond125) CFA_SP SP+4
          CFI (cfiCond125) CFA_Y Y+10
          CFI Block cfiCond126 Using cfiCommon0
          CFI (cfiCond126) Function PEREP
          CFI (cfiCond126) Conditional ??CrossCallReturnLabel_319
          CFI (cfiCond126) R24 Frame(CFA_Y, -8)
          CFI (cfiCond126) R25 Frame(CFA_Y, -7)
          CFI (cfiCond126) R26 Frame(CFA_Y, -6)
          CFI (cfiCond126) R27 Frame(CFA_Y, -5)
          CFI (cfiCond126) R4 Frame(CFA_Y, -4)
          CFI (cfiCond126) R5 Frame(CFA_Y, -3)
          CFI (cfiCond126) R6 Frame(CFA_Y, -2)
          CFI (cfiCond126) R7 Frame(CFA_Y, -1)
          CFI (cfiCond126) CFA_SP SP+4
          CFI (cfiCond126) CFA_Y Y+8
          CFI Block cfiCond127 Using cfiCommon0
          CFI (cfiCond127) Function coding
          CFI (cfiCond127) Conditional ??CrossCallReturnLabel_318
          CFI (cfiCond127) R24 Frame(CFA_Y, -10)
          CFI (cfiCond127) R25 Frame(CFA_Y, -9)
          CFI (cfiCond127) R26 Frame(CFA_Y, -8)
          CFI (cfiCond127) R27 Frame(CFA_Y, -7)
          CFI (cfiCond127) R4 Frame(CFA_Y, -6)
          CFI (cfiCond127) R5 Frame(CFA_Y, -5)
          CFI (cfiCond127) R6 Frame(CFA_Y, -4)
          CFI (cfiCond127) R7 Frame(CFA_Y, -3)
          CFI (cfiCond127) R8 Frame(CFA_Y, -2)
          CFI (cfiCond127) R9 Frame(CFA_Y, -1)
          CFI (cfiCond127) CFA_SP SP+4
          CFI (cfiCond127) CFA_Y Y+10
          CFI Block cfiPicker128 Using cfiCommon2
          CFI (cfiPicker128) NoFunction
          CFI (cfiPicker128) Picker
        RCALL   ?Subroutine95
          CFI EndBlock cfiCond122
          CFI EndBlock cfiCond123
          CFI EndBlock cfiCond124
          CFI EndBlock cfiCond125
          CFI EndBlock cfiCond126
          CFI EndBlock cfiCond127
          CFI EndBlock cfiPicker128
??CrossCallReturnLabel_306:
        REQUIRE ?Subroutine134
        ;               // Fall through to label ?Subroutine134

        RSEG CODE:CODE:NOROOT(1)
?Subroutine134:
          CFI Block cfiCond129 Using cfiCommon0
          CFI Function PEREP
          CFI Conditional ??CrossCallReturnLabel_319
          CFI R24 Frame(CFA_Y, -8)
          CFI R25 Frame(CFA_Y, -7)
          CFI R26 Frame(CFA_Y, -6)
          CFI R27 Frame(CFA_Y, -5)
          CFI R4 Frame(CFA_Y, -4)
          CFI R5 Frame(CFA_Y, -3)
          CFI R6 Frame(CFA_Y, -2)
          CFI R7 Frame(CFA_Y, -1)
          CFI CFA_SP SP+4
          CFI CFA_Y Y+8
          CFI Block cfiCond130 Using cfiCommon0
          CFI (cfiCond130) Function coding
          CFI (cfiCond130) Conditional ??CrossCallReturnLabel_318
          CFI (cfiCond130) R24 Frame(CFA_Y, -10)
          CFI (cfiCond130) R25 Frame(CFA_Y, -9)
          CFI (cfiCond130) R26 Frame(CFA_Y, -8)
          CFI (cfiCond130) R27 Frame(CFA_Y, -7)
          CFI (cfiCond130) R4 Frame(CFA_Y, -6)
          CFI (cfiCond130) R5 Frame(CFA_Y, -5)
          CFI (cfiCond130) R6 Frame(CFA_Y, -4)
          CFI (cfiCond130) R7 Frame(CFA_Y, -3)
          CFI (cfiCond130) R8 Frame(CFA_Y, -2)
          CFI (cfiCond130) R9 Frame(CFA_Y, -1)
          CFI (cfiCond130) CFA_SP SP+4
          CFI (cfiCond130) CFA_Y Y+10
          CFI Block cfiCond131 Using cfiCommon0
          CFI (cfiCond131) Function PEREP
          CFI (cfiCond131) Conditional ??CrossCallReturnLabel_317
          CFI (cfiCond131) R24 Frame(CFA_Y, -8)
          CFI (cfiCond131) R25 Frame(CFA_Y, -7)
          CFI (cfiCond131) R26 Frame(CFA_Y, -6)
          CFI (cfiCond131) R27 Frame(CFA_Y, -5)
          CFI (cfiCond131) R4 Frame(CFA_Y, -4)
          CFI (cfiCond131) R5 Frame(CFA_Y, -3)
          CFI (cfiCond131) R6 Frame(CFA_Y, -2)
          CFI (cfiCond131) R7 Frame(CFA_Y, -1)
          CFI (cfiCond131) CFA_SP SP+4
          CFI (cfiCond131) CFA_Y Y+8
          CFI Block cfiCond132 Using cfiCommon0
          CFI (cfiCond132) Function PEREP
          CFI (cfiCond132) Conditional ??CrossCallReturnLabel_316
          CFI (cfiCond132) R24 Frame(CFA_Y, -8)
          CFI (cfiCond132) R25 Frame(CFA_Y, -7)
          CFI (cfiCond132) R26 Frame(CFA_Y, -6)
          CFI (cfiCond132) R27 Frame(CFA_Y, -5)
          CFI (cfiCond132) R4 Frame(CFA_Y, -4)
          CFI (cfiCond132) R5 Frame(CFA_Y, -3)
          CFI (cfiCond132) R6 Frame(CFA_Y, -2)
          CFI (cfiCond132) R7 Frame(CFA_Y, -1)
          CFI (cfiCond132) CFA_SP SP+4
          CFI (cfiCond132) CFA_Y Y+8
          CFI Block cfiCond133 Using cfiCommon0
          CFI (cfiCond133) Function coding
          CFI (cfiCond133) Conditional ??CrossCallReturnLabel_315
          CFI (cfiCond133) R24 Frame(CFA_Y, -10)
          CFI (cfiCond133) R25 Frame(CFA_Y, -9)
          CFI (cfiCond133) R26 Frame(CFA_Y, -8)
          CFI (cfiCond133) R27 Frame(CFA_Y, -7)
          CFI (cfiCond133) R4 Frame(CFA_Y, -6)
          CFI (cfiCond133) R5 Frame(CFA_Y, -5)
          CFI (cfiCond133) R6 Frame(CFA_Y, -4)
          CFI (cfiCond133) R7 Frame(CFA_Y, -3)
          CFI (cfiCond133) R8 Frame(CFA_Y, -2)
          CFI (cfiCond133) R9 Frame(CFA_Y, -1)
          CFI (cfiCond133) CFA_SP SP+4
          CFI (cfiCond133) CFA_Y Y+10
          CFI Block cfiCond134 Using cfiCommon0
          CFI (cfiCond134) Function coding
          CFI (cfiCond134) Conditional ??CrossCallReturnLabel_314
          CFI (cfiCond134) R24 Frame(CFA_Y, -10)
          CFI (cfiCond134) R25 Frame(CFA_Y, -9)
          CFI (cfiCond134) R26 Frame(CFA_Y, -8)
          CFI (cfiCond134) R27 Frame(CFA_Y, -7)
          CFI (cfiCond134) R4 Frame(CFA_Y, -6)
          CFI (cfiCond134) R5 Frame(CFA_Y, -5)
          CFI (cfiCond134) R6 Frame(CFA_Y, -4)
          CFI (cfiCond134) R7 Frame(CFA_Y, -3)
          CFI (cfiCond134) R8 Frame(CFA_Y, -2)
          CFI (cfiCond134) R9 Frame(CFA_Y, -1)
          CFI (cfiCond134) CFA_SP SP+4
          CFI (cfiCond134) CFA_Y Y+10
          CFI Block cfiCond135 Using cfiCommon0
          CFI (cfiCond135) Function PEREP
          CFI (cfiCond135) Conditional ??CrossCallReturnLabel_313
          CFI (cfiCond135) R24 Frame(CFA_Y, -8)
          CFI (cfiCond135) R25 Frame(CFA_Y, -7)
          CFI (cfiCond135) R26 Frame(CFA_Y, -6)
          CFI (cfiCond135) R27 Frame(CFA_Y, -5)
          CFI (cfiCond135) R4 Frame(CFA_Y, -4)
          CFI (cfiCond135) R5 Frame(CFA_Y, -3)
          CFI (cfiCond135) R6 Frame(CFA_Y, -2)
          CFI (cfiCond135) R7 Frame(CFA_Y, -1)
          CFI (cfiCond135) CFA_SP SP+4
          CFI (cfiCond135) CFA_Y Y+8
          CFI Block cfiCond136 Using cfiCommon0
          CFI (cfiCond136) Function normal
          CFI (cfiCond136) Conditional ??CrossCallReturnLabel_312
          CFI (cfiCond136) R24 Frame(CFA_Y, -1)
          CFI (cfiCond136) CFA_SP SP+4
          CFI (cfiCond136) CFA_Y Y+1
          CFI Block cfiPicker137 Using cfiCommon2
          CFI (cfiPicker137) NoFunction
          CFI (cfiPicker137) Picker
        LDI     R16, 6
        RJMP    rprintfFloat
          CFI EndBlock cfiCond129
          CFI EndBlock cfiCond130
          CFI EndBlock cfiCond131
          CFI EndBlock cfiCond132
          CFI EndBlock cfiCond133
          CFI EndBlock cfiCond134
          CFI EndBlock cfiCond135
          CFI EndBlock cfiCond136
          CFI EndBlock cfiPicker137

        RSEG CODE:CODE:NOROOT(1)
?Subroutine24:
          CFI Block cfiCond138 Using cfiCommon0
          CFI Function coding
          CFI Conditional ??CrossCallReturnLabel_322
          CFI R24 Frame(CFA_Y, -10)
          CFI R25 Frame(CFA_Y, -9)
          CFI R26 Frame(CFA_Y, -8)
          CFI R27 Frame(CFA_Y, -7)
          CFI R4 Frame(CFA_Y, -6)
          CFI R5 Frame(CFA_Y, -5)
          CFI R6 Frame(CFA_Y, -4)
          CFI R7 Frame(CFA_Y, -3)
          CFI R8 Frame(CFA_Y, -2)
          CFI R9 Frame(CFA_Y, -1)
          CFI CFA_SP SP+4
          CFI CFA_Y Y+10
          CFI Block cfiCond139 Using cfiCommon0
          CFI (cfiCond139) Function coding
          CFI (cfiCond139) Conditional ??CrossCallReturnLabel_323
          CFI (cfiCond139) R24 Frame(CFA_Y, -10)
          CFI (cfiCond139) R25 Frame(CFA_Y, -9)
          CFI (cfiCond139) R26 Frame(CFA_Y, -8)
          CFI (cfiCond139) R27 Frame(CFA_Y, -7)
          CFI (cfiCond139) R4 Frame(CFA_Y, -6)
          CFI (cfiCond139) R5 Frame(CFA_Y, -5)
          CFI (cfiCond139) R6 Frame(CFA_Y, -4)
          CFI (cfiCond139) R7 Frame(CFA_Y, -3)
          CFI (cfiCond139) R8 Frame(CFA_Y, -2)
          CFI (cfiCond139) R9 Frame(CFA_Y, -1)
          CFI (cfiCond139) CFA_SP SP+4
          CFI (cfiCond139) CFA_Y Y+10
          CFI Block cfiPicker140 Using cfiCommon2
          CFI (cfiPicker140) NoFunction
          CFI (cfiPicker140) Picker
        ST      Z, R16
        STD     Z+1, R17
        LDI     R30, LOW(c1)
        LDI     R31, (c1) >> 8
          CFI EndBlock cfiCond138
          CFI EndBlock cfiCond139
          CFI EndBlock cfiPicker140
        REQUIRE ?Subroutine122
        ;               // Fall through to label ?Subroutine122

        RSEG CODE:CODE:NOROOT(1)
?Subroutine122:
          CFI Block cfiCond141 Using cfiCommon0
          CFI Function coding
          CFI Conditional ??CrossCallReturnLabel_322
          CFI R24 Frame(CFA_Y, -10)
          CFI R25 Frame(CFA_Y, -9)
          CFI R26 Frame(CFA_Y, -8)
          CFI R27 Frame(CFA_Y, -7)
          CFI R4 Frame(CFA_Y, -6)
          CFI R5 Frame(CFA_Y, -5)
          CFI R6 Frame(CFA_Y, -4)
          CFI R7 Frame(CFA_Y, -3)
          CFI R8 Frame(CFA_Y, -2)
          CFI R9 Frame(CFA_Y, -1)
          CFI CFA_SP SP+4
          CFI CFA_Y Y+10
          CFI Block cfiCond142 Using cfiCommon0
          CFI (cfiCond142) Function coding
          CFI (cfiCond142) Conditional ??CrossCallReturnLabel_323
          CFI (cfiCond142) R24 Frame(CFA_Y, -10)
          CFI (cfiCond142) R25 Frame(CFA_Y, -9)
          CFI (cfiCond142) R26 Frame(CFA_Y, -8)
          CFI (cfiCond142) R27 Frame(CFA_Y, -7)
          CFI (cfiCond142) R4 Frame(CFA_Y, -6)
          CFI (cfiCond142) R5 Frame(CFA_Y, -5)
          CFI (cfiCond142) R6 Frame(CFA_Y, -4)
          CFI (cfiCond142) R7 Frame(CFA_Y, -3)
          CFI (cfiCond142) R8 Frame(CFA_Y, -2)
          CFI (cfiCond142) R9 Frame(CFA_Y, -1)
          CFI (cfiCond142) CFA_SP SP+4
          CFI (cfiCond142) CFA_Y Y+10
          CFI Block cfiCond143 Using cfiCommon0
          CFI (cfiCond143) Function coding
          CFI (cfiCond143) Conditional ??CrossCallReturnLabel_320
          CFI (cfiCond143) R24 Frame(CFA_Y, -10)
          CFI (cfiCond143) R25 Frame(CFA_Y, -9)
          CFI (cfiCond143) R26 Frame(CFA_Y, -8)
          CFI (cfiCond143) R27 Frame(CFA_Y, -7)
          CFI (cfiCond143) R4 Frame(CFA_Y, -6)
          CFI (cfiCond143) R5 Frame(CFA_Y, -5)
          CFI (cfiCond143) R6 Frame(CFA_Y, -4)
          CFI (cfiCond143) R7 Frame(CFA_Y, -3)
          CFI (cfiCond143) R8 Frame(CFA_Y, -2)
          CFI (cfiCond143) R9 Frame(CFA_Y, -1)
          CFI (cfiCond143) CFA_SP SP+4
          CFI (cfiCond143) CFA_Y Y+10
          CFI Block cfiCond144 Using cfiCommon0
          CFI (cfiCond144) Function coding
          CFI (cfiCond144) Conditional ??CrossCallReturnLabel_321
          CFI (cfiCond144) R24 Frame(CFA_Y, -10)
          CFI (cfiCond144) R25 Frame(CFA_Y, -9)
          CFI (cfiCond144) R26 Frame(CFA_Y, -8)
          CFI (cfiCond144) R27 Frame(CFA_Y, -7)
          CFI (cfiCond144) R4 Frame(CFA_Y, -6)
          CFI (cfiCond144) R5 Frame(CFA_Y, -5)
          CFI (cfiCond144) R6 Frame(CFA_Y, -4)
          CFI (cfiCond144) R7 Frame(CFA_Y, -3)
          CFI (cfiCond144) R8 Frame(CFA_Y, -2)
          CFI (cfiCond144) R9 Frame(CFA_Y, -1)
          CFI (cfiCond144) CFA_SP SP+4
          CFI (cfiCond144) CFA_Y Y+10
          CFI Block cfiPicker145 Using cfiCommon2
          CFI (cfiPicker145) NoFunction
          CFI (cfiPicker145) Picker
        LD      R16, Z
        SUBI    R16, 254
          CFI EndBlock cfiCond141
          CFI EndBlock cfiCond142
          CFI EndBlock cfiCond143
          CFI EndBlock cfiCond144
          CFI EndBlock cfiPicker145
        REQUIRE ??Subroutine139_0
        ;               // Fall through to label ??Subroutine139_0

        RSEG CODE:CODE:NOROOT(1)
??Subroutine139_0:
          CFI Block cfiCond146 Using cfiCommon0
          CFI Function coding
          CFI Conditional ??CrossCallReturnLabel_328, ??CrossCallReturnLabel_35
          CFI R24 Frame(CFA_Y, -10)
          CFI R25 Frame(CFA_Y, -9)
          CFI R26 Frame(CFA_Y, -8)
          CFI R27 Frame(CFA_Y, -7)
          CFI R4 Frame(CFA_Y, -6)
          CFI R5 Frame(CFA_Y, -5)
          CFI R6 Frame(CFA_Y, -4)
          CFI R7 Frame(CFA_Y, -3)
          CFI R8 Frame(CFA_Y, -2)
          CFI R9 Frame(CFA_Y, -1)
          CFI CFA_SP SP+6
          CFI CFA_Y Y+10
          CFI Block cfiCond147 Using cfiCommon0
          CFI (cfiCond147) Function coding
          CFI (cfiCond147) Conditional ??CrossCallReturnLabel_328, ??CrossCallReturnLabel_36
          CFI (cfiCond147) R24 Frame(CFA_Y, -10)
          CFI (cfiCond147) R25 Frame(CFA_Y, -9)
          CFI (cfiCond147) R26 Frame(CFA_Y, -8)
          CFI (cfiCond147) R27 Frame(CFA_Y, -7)
          CFI (cfiCond147) R4 Frame(CFA_Y, -6)
          CFI (cfiCond147) R5 Frame(CFA_Y, -5)
          CFI (cfiCond147) R6 Frame(CFA_Y, -4)
          CFI (cfiCond147) R7 Frame(CFA_Y, -3)
          CFI (cfiCond147) R8 Frame(CFA_Y, -2)
          CFI (cfiCond147) R9 Frame(CFA_Y, -1)
          CFI (cfiCond147) CFA_SP SP+6
          CFI (cfiCond147) CFA_Y Y+10
          CFI Block cfiCond148 Using cfiCommon0
          CFI (cfiCond148) Function coding
          CFI (cfiCond148) Conditional ??CrossCallReturnLabel_328, ??CrossCallReturnLabel_37
          CFI (cfiCond148) R24 Frame(CFA_Y, -10)
          CFI (cfiCond148) R25 Frame(CFA_Y, -9)
          CFI (cfiCond148) R26 Frame(CFA_Y, -8)
          CFI (cfiCond148) R27 Frame(CFA_Y, -7)
          CFI (cfiCond148) R4 Frame(CFA_Y, -6)
          CFI (cfiCond148) R5 Frame(CFA_Y, -5)
          CFI (cfiCond148) R6 Frame(CFA_Y, -4)
          CFI (cfiCond148) R7 Frame(CFA_Y, -3)
          CFI (cfiCond148) R8 Frame(CFA_Y, -2)
          CFI (cfiCond148) R9 Frame(CFA_Y, -1)
          CFI (cfiCond148) CFA_SP SP+6
          CFI (cfiCond148) CFA_Y Y+10
          CFI Block cfiCond149 Using cfiCommon0
          CFI (cfiCond149) Function analiz_INT
          CFI (cfiCond149) Conditional ??CrossCallReturnLabel_324
          CFI (cfiCond149) CFA_SP SP+4
          CFI Block cfiCond150 Using cfiCommon0
          CFI (cfiCond150) Function main
          CFI (cfiCond150) Conditional ??CrossCallReturnLabel_325
          CFI (cfiCond150) R24 Frame(CFA_Y, -1)
          CFI (cfiCond150) CFA_SP SP+4
          CFI (cfiCond150) CFA_Y Y+1
          CFI Block cfiCond151 Using cfiCommon0
          CFI (cfiCond151) Function migWORK
          CFI (cfiCond151) Conditional ??CrossCallReturnLabel_326
          CFI (cfiCond151) CFA_SP SP+4
          CFI Block cfiCond152 Using cfiCommon0
          CFI (cfiCond152) Function programming
          CFI (cfiCond152) Conditional ??CrossCallReturnLabel_327, ??CrossCallReturnLabel_12
          CFI (cfiCond152) R24 Frame(CFA_Y, -1)
          CFI (cfiCond152) CFA_SP SP+6
          CFI (cfiCond152) CFA_Y Y+1
          CFI Block cfiCond153 Using cfiCommon0
          CFI (cfiCond153) Function programming
          CFI (cfiCond153) Conditional ??CrossCallReturnLabel_327, ??CrossCallReturnLabel_13
          CFI (cfiCond153) R24 Frame(CFA_Y, -1)
          CFI (cfiCond153) CFA_SP SP+6
          CFI (cfiCond153) CFA_Y Y+1
          CFI Block cfiCond154 Using cfiCommon0
          CFI (cfiCond154) Function coding
          CFI (cfiCond154) Conditional ??CrossCallReturnLabel_322
          CFI (cfiCond154) R24 Frame(CFA_Y, -10)
          CFI (cfiCond154) R25 Frame(CFA_Y, -9)
          CFI (cfiCond154) R26 Frame(CFA_Y, -8)
          CFI (cfiCond154) R27 Frame(CFA_Y, -7)
          CFI (cfiCond154) R4 Frame(CFA_Y, -6)
          CFI (cfiCond154) R5 Frame(CFA_Y, -5)
          CFI (cfiCond154) R6 Frame(CFA_Y, -4)
          CFI (cfiCond154) R7 Frame(CFA_Y, -3)
          CFI (cfiCond154) R8 Frame(CFA_Y, -2)
          CFI (cfiCond154) R9 Frame(CFA_Y, -1)
          CFI (cfiCond154) CFA_SP SP+4
          CFI (cfiCond154) CFA_Y Y+10
          CFI Block cfiCond155 Using cfiCommon0
          CFI (cfiCond155) Function coding
          CFI (cfiCond155) Conditional ??CrossCallReturnLabel_323
          CFI (cfiCond155) R24 Frame(CFA_Y, -10)
          CFI (cfiCond155) R25 Frame(CFA_Y, -9)
          CFI (cfiCond155) R26 Frame(CFA_Y, -8)
          CFI (cfiCond155) R27 Frame(CFA_Y, -7)
          CFI (cfiCond155) R4 Frame(CFA_Y, -6)
          CFI (cfiCond155) R5 Frame(CFA_Y, -5)
          CFI (cfiCond155) R6 Frame(CFA_Y, -4)
          CFI (cfiCond155) R7 Frame(CFA_Y, -3)
          CFI (cfiCond155) R8 Frame(CFA_Y, -2)
          CFI (cfiCond155) R9 Frame(CFA_Y, -1)
          CFI (cfiCond155) CFA_SP SP+4
          CFI (cfiCond155) CFA_Y Y+10
          CFI Block cfiCond156 Using cfiCommon0
          CFI (cfiCond156) Function coding
          CFI (cfiCond156) Conditional ??CrossCallReturnLabel_320
          CFI (cfiCond156) R24 Frame(CFA_Y, -10)
          CFI (cfiCond156) R25 Frame(CFA_Y, -9)
          CFI (cfiCond156) R26 Frame(CFA_Y, -8)
          CFI (cfiCond156) R27 Frame(CFA_Y, -7)
          CFI (cfiCond156) R4 Frame(CFA_Y, -6)
          CFI (cfiCond156) R5 Frame(CFA_Y, -5)
          CFI (cfiCond156) R6 Frame(CFA_Y, -4)
          CFI (cfiCond156) R7 Frame(CFA_Y, -3)
          CFI (cfiCond156) R8 Frame(CFA_Y, -2)
          CFI (cfiCond156) R9 Frame(CFA_Y, -1)
          CFI (cfiCond156) CFA_SP SP+4
          CFI (cfiCond156) CFA_Y Y+10
          CFI Block cfiCond157 Using cfiCommon0
          CFI (cfiCond157) Function coding
          CFI (cfiCond157) Conditional ??CrossCallReturnLabel_321
          CFI (cfiCond157) R24 Frame(CFA_Y, -10)
          CFI (cfiCond157) R25 Frame(CFA_Y, -9)
          CFI (cfiCond157) R26 Frame(CFA_Y, -8)
          CFI (cfiCond157) R27 Frame(CFA_Y, -7)
          CFI (cfiCond157) R4 Frame(CFA_Y, -6)
          CFI (cfiCond157) R5 Frame(CFA_Y, -5)
          CFI (cfiCond157) R6 Frame(CFA_Y, -4)
          CFI (cfiCond157) R7 Frame(CFA_Y, -3)
          CFI (cfiCond157) R8 Frame(CFA_Y, -2)
          CFI (cfiCond157) R9 Frame(CFA_Y, -1)
          CFI (cfiCond157) CFA_SP SP+4
          CFI (cfiCond157) CFA_Y Y+10
          CFI Block cfiPicker158 Using cfiCommon2
          CFI (cfiPicker158) NoFunction
          CFI (cfiPicker158) Picker
        ST      Z, R16
        RET
          CFI EndBlock cfiCond146
          CFI EndBlock cfiCond147
          CFI EndBlock cfiCond148
          CFI EndBlock cfiCond149
          CFI EndBlock cfiCond150
          CFI EndBlock cfiCond151
          CFI EndBlock cfiCond152
          CFI EndBlock cfiCond153
          CFI EndBlock cfiCond154
          CFI EndBlock cfiCond155
          CFI EndBlock cfiCond156
          CFI EndBlock cfiCond157
          CFI EndBlock cfiPicker158

        RSEG CODE:CODE:NOROOT(1)
?Subroutine23:
          CFI Block cfiCond159 Using cfiCommon0
          CFI Function coding
          CFI Conditional ??CrossCallReturnLabel_320
          CFI R24 Frame(CFA_Y, -10)
          CFI R25 Frame(CFA_Y, -9)
          CFI R26 Frame(CFA_Y, -8)
          CFI R27 Frame(CFA_Y, -7)
          CFI R4 Frame(CFA_Y, -6)
          CFI R5 Frame(CFA_Y, -5)
          CFI R6 Frame(CFA_Y, -4)
          CFI R7 Frame(CFA_Y, -3)
          CFI R8 Frame(CFA_Y, -2)
          CFI R9 Frame(CFA_Y, -1)
          CFI CFA_SP SP+4
          CFI CFA_Y Y+10
          CFI Block cfiCond160 Using cfiCommon0
          CFI (cfiCond160) Function coding
          CFI (cfiCond160) Conditional ??CrossCallReturnLabel_321
          CFI (cfiCond160) R24 Frame(CFA_Y, -10)
          CFI (cfiCond160) R25 Frame(CFA_Y, -9)
          CFI (cfiCond160) R26 Frame(CFA_Y, -8)
          CFI (cfiCond160) R27 Frame(CFA_Y, -7)
          CFI (cfiCond160) R4 Frame(CFA_Y, -6)
          CFI (cfiCond160) R5 Frame(CFA_Y, -5)
          CFI (cfiCond160) R6 Frame(CFA_Y, -4)
          CFI (cfiCond160) R7 Frame(CFA_Y, -3)
          CFI (cfiCond160) R8 Frame(CFA_Y, -2)
          CFI (cfiCond160) R9 Frame(CFA_Y, -1)
          CFI (cfiCond160) CFA_SP SP+4
          CFI (cfiCond160) CFA_Y Y+10
          CFI Block cfiPicker161 Using cfiCommon2
          CFI (cfiPicker161) NoFunction
          CFI (cfiPicker161) Picker
        ST      Z, R16
        STD     Z+1, R17
        LDI     R30, LOW(c2)
        LDI     R31, (c2) >> 8
        RJMP    ?Subroutine122
          CFI EndBlock cfiCond159
          CFI EndBlock cfiCond160
          CFI EndBlock cfiPicker161

        RSEG CODE:CODE:NOROOT(1)
?Subroutine2:
          CFI Block cfiCond162 Using cfiCommon0
          CFI Function coding
          CFI Conditional ??CrossCallReturnLabel_5
          CFI R24 Frame(CFA_Y, -10)
          CFI R25 Frame(CFA_Y, -9)
          CFI R26 Frame(CFA_Y, -8)
          CFI R27 Frame(CFA_Y, -7)
          CFI R4 Frame(CFA_Y, -6)
          CFI R5 Frame(CFA_Y, -5)
          CFI R6 Frame(CFA_Y, -4)
          CFI R7 Frame(CFA_Y, -3)
          CFI R8 Frame(CFA_Y, -2)
          CFI R9 Frame(CFA_Y, -1)
          CFI CFA_SP SP+4
          CFI CFA_Y Y+10
          CFI Block cfiCond163 Using cfiCommon0
          CFI (cfiCond163) Function coding
          CFI (cfiCond163) Conditional ??CrossCallReturnLabel_6
          CFI (cfiCond163) R24 Frame(CFA_Y, -10)
          CFI (cfiCond163) R25 Frame(CFA_Y, -9)
          CFI (cfiCond163) R26 Frame(CFA_Y, -8)
          CFI (cfiCond163) R27 Frame(CFA_Y, -7)
          CFI (cfiCond163) R4 Frame(CFA_Y, -6)
          CFI (cfiCond163) R5 Frame(CFA_Y, -5)
          CFI (cfiCond163) R6 Frame(CFA_Y, -4)
          CFI (cfiCond163) R7 Frame(CFA_Y, -3)
          CFI (cfiCond163) R8 Frame(CFA_Y, -2)
          CFI (cfiCond163) R9 Frame(CFA_Y, -1)
          CFI (cfiCond163) CFA_SP SP+4
          CFI (cfiCond163) CFA_Y Y+10
          CFI Block cfiCond164 Using cfiCommon0
          CFI (cfiCond164) Function coding
          CFI (cfiCond164) Conditional ??CrossCallReturnLabel_7
          CFI (cfiCond164) R24 Frame(CFA_Y, -10)
          CFI (cfiCond164) R25 Frame(CFA_Y, -9)
          CFI (cfiCond164) R26 Frame(CFA_Y, -8)
          CFI (cfiCond164) R27 Frame(CFA_Y, -7)
          CFI (cfiCond164) R4 Frame(CFA_Y, -6)
          CFI (cfiCond164) R5 Frame(CFA_Y, -5)
          CFI (cfiCond164) R6 Frame(CFA_Y, -4)
          CFI (cfiCond164) R7 Frame(CFA_Y, -3)
          CFI (cfiCond164) R8 Frame(CFA_Y, -2)
          CFI (cfiCond164) R9 Frame(CFA_Y, -1)
          CFI (cfiCond164) CFA_SP SP+4
          CFI (cfiCond164) CFA_Y Y+10
          CFI Block cfiPicker165 Using cfiCommon2
          CFI (cfiPicker165) NoFunction
          CFI (cfiPicker165) Picker
        RCALL   ?Subroutine117
??CrossCallReturnLabel_233:
        OR      R18, R16
        OR      R19, R17
        ADD     R18, R24
        ADC     R19, R25
        ST      Z, R18
        STD     Z+1, R19
        RET
          CFI EndBlock cfiCond162
          CFI EndBlock cfiCond163
          CFI EndBlock cfiCond164
          CFI EndBlock cfiPicker165

        RSEG CODE:CODE:NOROOT(1)
?Subroutine1:
          CFI Block cfiCond166 Using cfiCommon0
          CFI Function coding
          CFI Conditional ??CrossCallReturnLabel_2
          CFI R24 Frame(CFA_Y, -10)
          CFI R25 Frame(CFA_Y, -9)
          CFI R26 Frame(CFA_Y, -8)
          CFI R27 Frame(CFA_Y, -7)
          CFI R4 Frame(CFA_Y, -6)
          CFI R5 Frame(CFA_Y, -5)
          CFI R6 Frame(CFA_Y, -4)
          CFI R7 Frame(CFA_Y, -3)
          CFI R8 Frame(CFA_Y, -2)
          CFI R9 Frame(CFA_Y, -1)
          CFI CFA_SP SP+4
          CFI CFA_Y Y+10
          CFI Block cfiCond167 Using cfiCommon0
          CFI (cfiCond167) Function coding
          CFI (cfiCond167) Conditional ??CrossCallReturnLabel_3
          CFI (cfiCond167) R24 Frame(CFA_Y, -10)
          CFI (cfiCond167) R25 Frame(CFA_Y, -9)
          CFI (cfiCond167) R26 Frame(CFA_Y, -8)
          CFI (cfiCond167) R27 Frame(CFA_Y, -7)
          CFI (cfiCond167) R4 Frame(CFA_Y, -6)
          CFI (cfiCond167) R5 Frame(CFA_Y, -5)
          CFI (cfiCond167) R6 Frame(CFA_Y, -4)
          CFI (cfiCond167) R7 Frame(CFA_Y, -3)
          CFI (cfiCond167) R8 Frame(CFA_Y, -2)
          CFI (cfiCond167) R9 Frame(CFA_Y, -1)
          CFI (cfiCond167) CFA_SP SP+4
          CFI (cfiCond167) CFA_Y Y+10
          CFI Block cfiCond168 Using cfiCommon0
          CFI (cfiCond168) Function coding
          CFI (cfiCond168) Conditional ??CrossCallReturnLabel_4
          CFI (cfiCond168) R24 Frame(CFA_Y, -10)
          CFI (cfiCond168) R25 Frame(CFA_Y, -9)
          CFI (cfiCond168) R26 Frame(CFA_Y, -8)
          CFI (cfiCond168) R27 Frame(CFA_Y, -7)
          CFI (cfiCond168) R4 Frame(CFA_Y, -6)
          CFI (cfiCond168) R5 Frame(CFA_Y, -5)
          CFI (cfiCond168) R6 Frame(CFA_Y, -4)
          CFI (cfiCond168) R7 Frame(CFA_Y, -3)
          CFI (cfiCond168) R8 Frame(CFA_Y, -2)
          CFI (cfiCond168) R9 Frame(CFA_Y, -1)
          CFI (cfiCond168) CFA_SP SP+4
          CFI (cfiCond168) CFA_Y Y+10
          CFI Block cfiPicker169 Using cfiCommon2
          CFI (cfiPicker169) NoFunction
          CFI (cfiPicker169) Picker
        RCALL   ?Subroutine117
??CrossCallReturnLabel_232:
        MOVW    R9:R8, R17:R16
        RCALL   ?Subroutine105
??CrossCallReturnLabel_196:
        LDI     R22, 192
        LDI     R23, 63
        MOVW    R17:R16, R1:R0
        MOVW    R19:R18, R3:R2
        RJMP    ?F_CMP_LT_L04
          CFI EndBlock cfiCond166
          CFI EndBlock cfiCond167
          CFI EndBlock cfiCond168
          CFI EndBlock cfiPicker169
//  287   
//  288 
//  289  //переполнился импульс более 130мс  (1/(4000000/8)*65535)
//  290 #pragma vector = TIMER1_OVF_vect

        RSEG CODE:CODE:NOROOT(1)
//  291 __interrupt void funTIMER1_OVF_vect(void)
funTIMER1_OVF_vect:
          CFI Block cfiBlock170 Using cfiCommon1
          CFI Function funTIMER1_OVF_vect
//  292 {
        ST      -Y, R16
          CFI R16 Frame(CFA_Y, -1)
          CFI CFA_Y Y+1
//  293    //TIFR = 0xFF; - в прерывании сбрасывется сам
//  294   
//  295   perepoln=1;   
        LDI     R16, 1
        STS     perepoln, R16
          CFI EndBlock cfiBlock170
//  296  
//  297 }
        REQUIRE ?Subroutine133
        ;               // Fall through to label ?Subroutine133

        RSEG CODE:CODE:NOROOT(1)
?Subroutine133:
          CFI Block cfiBlock171 Using cfiCommon1
          CFI NoFunction
          CFI CFA_Y Y+1
          CFI R16 Frame(CFA_Y, -1)
        LD      R16, Y+
          CFI CFA_Y Y+0
          CFI R16 SameValue
        RETI
          CFI EndBlock cfiBlock171
//  298 
//  299 
//  300 
// F:\Dulov\remoteamp\main.c
//    1 //***************************************************************************
//    2 //  
//    3 //  Author(s)...: dav COBRA 
//    4 //  Target(s)...: ATMega8
//    5 //  Compiler....: 6 40
//    6 //  ТЕСТ1
//    7 //  Description.: Система  управления  для  Усилителя  Мощности   V-ниже
//    8 //  v1.1 - добавлена поддержка включения усилителя тыловых колонок вместо Source5
//    9 //       - изменена установка auto off
//   10 //  v1.2 - теперь во время мигания(только Source) светодиодов  команды пульта обрабатываются
//   11 //       - новая команда пульта - возврат в предыдущий source
//   12 //       - команды пульта можно продублировать на втором пульте, т.е. на каждую функцию 2 кнопки пульта
//   13 //       - вместо импульсов громкости можно формировать постоянный сигнал
//   14 //       - подправлены задержки
//   15 //       - обновлен алгоритм кодирования
//   16 // v1.22 - исправлена ошибка задержки вкл AC
//   17 // v1.23 - исправлен при включении включается SOURCE1 
//   18 // v1.24 - исправлен баг AUTOOFF на 30 минут 
//   19 // v1.25 - исправлен баг AUTOOFF при выключениии питания 
//   20 // v1.26 - refactoring 
//   21 //  Data........: 02 2017
//   22 //
//   23 //   - ВЫКЛЮЧИТЬ ОПЦИЮ clustering of variables В optimization compilator !!!!
//   24 //***************************************************************************
//   25 #include <iom8.h>//<ioavr.h>
//   26 //#include <inavr.h>  
//   27 #include <intrinsics.h>
//   28 #include "init.h"
//   29 #include "main.h"
//   30 #include "du.h"  
//   31 #include "SoftTimers.h" 
//   32 #include "keys.h"
//   33 //#include <stdlib.h>
//   34 //#include <math.h> 
//   35 #include "usart.h"
//   36 #include "eeprom.h"
//   37 //#include <stdarg.h>
//   38 //************************************************************************* 
//   39 #define AC_ON    SET(PORTD,6)
//   40 #define AC_OFF   RES(PORTD,6)
//   41 void diag(void);
//   42 void led_all(bool a);
//   43 void resled(void);
//   44 void source(void);
//   45 void resOUT(void);  
//   46 void gro(uchar a);
//   47 void normal(uchar rez);
//   48 void writeCOD(void);
//   49 uchar analizCOD(void);
//   50 void programming(uchar rez);
//   51 uchar getadr(void);

        RSEG NEAR_I:DATA:NOROOT(0)
        REQUIRE `?<Segment init: NEAR_I>`
//   52 uint tON=acon; 
tON:
        DS8 2
        REQUIRE `?<Initializer for tON>`

        RSEG NEAR_Z:DATA:NOROOT(0)
        REQUIRE `?<Segment init: NEAR_Z>`
//   53 uchar pr;
pr:
        DS8 1

        RSEG NEAR_Z:DATA:NOROOT(0)
        REQUIRE `?<Segment init: NEAR_Z>`
//   54 static bool get=0;
??get:
        DS8 1

        RSEG NEAR_Z:DATA:NOROOT(0)
        REQUIRE `?<Segment init: NEAR_Z>`
//   55 bool onok;  
onok:
        DS8 1

        RSEG NEAR_Z:DATA:NOROOT(0)
        REQUIRE `?<Segment init: NEAR_Z>`
//   56 bool on,mute;
on:
        DS8 1

        RSEG NEAR_Z:DATA:NOROOT(0)
        REQUIRE `?<Segment init: NEAR_Z>`
mute:
        DS8 1

        RSEG NEAR_Z:DATA:NOROOT(0)
        REQUIRE `?<Segment init: NEAR_Z>`
//   57 bool zader,aoff;
zader:
        DS8 1

        RSEG NEAR_Z:DATA:NOROOT(0)
        REQUIRE `?<Segment init: NEAR_Z>`
aoff:
        DS8 1

        RSEG NEAR_Z:DATA:NOROOT(0)
        REQUIRE `?<Segment init: NEAR_Z>`
//   58 uint timerzad; 
timerzad:
        DS8 2

        RSEG NEAR_Z:DATA:NOROOT(0)
        REQUIRE `?<Segment init: NEAR_Z>`
//   59 uchar pultadr; uchar rez;
pultadr:
        DS8 1

        RSEG NEAR_Z:DATA:NOROOT(0)
        REQUIRE `?<Segment init: NEAR_Z>`
rez:
        DS8 1

        RSEG NEAR_Z:DATA:NOROOT(0)
        REQUIRE `?<Segment init: NEAR_Z>`
//   60  bool u=0,til=0,mode_programming=0; 
u:
        DS8 1

        RSEG NEAR_Z:DATA:NOROOT(0)
        REQUIRE `?<Segment init: NEAR_Z>`
til:
        DS8 1

        RSEG NEAR_Z:DATA:NOROOT(0)
        REQUIRE `?<Segment init: NEAR_Z>`
mode_programming:
        DS8 1

        RSEG NEAR_Z:DATA:NOROOT(0)
        REQUIRE `?<Segment init: NEAR_Z>`
//   61 extern  uchar mode=0,tekfunc=0; 
mode:
        DS8 1

        RSEG NEAR_Z:DATA:NOROOT(0)
        REQUIRE `?<Segment init: NEAR_Z>`
tekfunc:
        DS8 1

        RSEG NEAR_I:DATA:NOROOT(0)
        REQUIRE `?<Segment init: NEAR_I>`
//   62 static uchar lastsel=1,sel=1,gro1=0,gro2=0,regaoff=0;
??lastsel:
        DS8 1
        REQUIRE `?<Initializer for lastsel>`

        RSEG NEAR_I:DATA:NOROOT(0)
        REQUIRE `?<Segment init: NEAR_I>`
??sel:
        DS8 1
        REQUIRE `?<Initializer for sel>`

        RSEG NEAR_Z:DATA:NOROOT(0)
        REQUIRE `?<Segment init: NEAR_Z>`
??gro1:
        DS8 1

        RSEG NEAR_Z:DATA:NOROOT(0)
        REQUIRE `?<Segment init: NEAR_Z>`
??gro2:
        DS8 1

        RSEG NEAR_Z:DATA:NOROOT(0)
        REQUIRE `?<Segment init: NEAR_Z>`
??regaoff:
        DS8 1
//   63 

        RSEG CODE:CODE:NOROOT(1)
//   64 void led_test()
led_test:
          CFI Block cfiBlock172 Using cfiCommon0
          CFI Function led_test
//   65 {
        FUNCALL led_test, led_all
        LOCFRAME CSTACK, 1, STACK
        LOCFRAME RSTACK, 2, STACK
        ARGFRAME RSTACK, 0, STACK
        FUNCALL led_test, led_all
        LOCFRAME CSTACK, 1, STACK
        LOCFRAME RSTACK, 2, STACK
        ARGFRAME RSTACK, 0, STACK
        ST      -Y, R24
          CFI R24 Frame(CFA_Y, -1)
          CFI CFA_Y Y+1
//   66   for (uchar i=0; i<=10; i++){ led_all(1);  p5; led_all(0);}
        LDI     R24, 11
??led_test_0:
        RCALL   ??Subroutine145_0
??CrossCallReturnLabel_376:
        RCALL   ?Subroutine119
??CrossCallReturnLabel_349:
        RCALL   ?Subroutine12
??CrossCallReturnLabel_17:
        DEC     R24
        BRNE    ??led_test_0
//   67 }
        RJMP    ?Subroutine127
          CFI EndBlock cfiBlock172
//   68 //***************************************************************************
//   69 //                  M  A  I  N
//   70 //***************************************************************************

        RSEG CODE:CODE:NOROOT(1)
//   71 int main( void )
main:
          CFI Block cfiBlock173 Using cfiCommon0
          CFI Function main
//   72 {//main
        FUNCALL main, iniPORTS
        LOCFRAME CSTACK, 1, STACK
        LOCFRAME RSTACK, 2, STACK
        ARGFRAME RSTACK, 0, STACK
        FUNCALL main, led_test
        LOCFRAME CSTACK, 1, STACK
        LOCFRAME RSTACK, 2, STACK
        ARGFRAME RSTACK, 0, STACK
        FUNCALL main, USART_Init
        LOCFRAME CSTACK, 1, STACK
        LOCFRAME RSTACK, 2, STACK
        ARGFRAME RSTACK, 0, STACK
        FUNCALL main, led_test
        LOCFRAME CSTACK, 1, STACK
        LOCFRAME RSTACK, 2, STACK
        ARGFRAME RSTACK, 0, STACK
        FUNCALL main, led_all
        LOCFRAME CSTACK, 1, STACK
        LOCFRAME RSTACK, 2, STACK
        ARGFRAME RSTACK, 0, STACK
        FUNCALL main, led_test
        LOCFRAME CSTACK, 1, STACK
        LOCFRAME RSTACK, 2, STACK
        ARGFRAME RSTACK, 0, STACK
        FUNCALL main, writeCOD
        LOCFRAME CSTACK, 1, STACK
        LOCFRAME RSTACK, 2, STACK
        ARGFRAME RSTACK, 0, STACK
        FUNCALL main, led_all
        LOCFRAME CSTACK, 1, STACK
        LOCFRAME RSTACK, 2, STACK
        ARGFRAME RSTACK, 0, STACK
        FUNCALL main, getadr
        LOCFRAME CSTACK, 1, STACK
        LOCFRAME RSTACK, 2, STACK
        ARGFRAME RSTACK, 0, STACK
        FUNCALL main, led_all
        LOCFRAME CSTACK, 1, STACK
        LOCFRAME RSTACK, 2, STACK
        ARGFRAME RSTACK, 0, STACK
        FUNCALL main, getadr
        LOCFRAME CSTACK, 1, STACK
        LOCFRAME RSTACK, 2, STACK
        ARGFRAME RSTACK, 0, STACK
        FUNCALL main, programming
        LOCFRAME CSTACK, 1, STACK
        LOCFRAME RSTACK, 2, STACK
        ARGFRAME RSTACK, 0, STACK
        FUNCALL main, diag
        LOCFRAME CSTACK, 1, STACK
        LOCFRAME RSTACK, 2, STACK
        ARGFRAME RSTACK, 0, STACK
        FUNCALL main, du_main
        LOCFRAME CSTACK, 1, STACK
        LOCFRAME RSTACK, 2, STACK
        ARGFRAME RSTACK, 0, STACK
        FUNCALL main, analizCOD
        LOCFRAME CSTACK, 1, STACK
        LOCFRAME RSTACK, 2, STACK
        ARGFRAME RSTACK, 0, STACK
        ST      -Y, R24
          CFI R24 Frame(CFA_Y, -1)
          CFI CFA_Y Y+1
//   73     iniPORTS();   
        RCALL   iniPORTS
//   74   p3;//задержка при включении
        RCALL   ?Subroutine59
//   75   
//   76    aoff=0; onok=0; pr=0; on=0; mute=0; zader=0;  til=0;
??CrossCallReturnLabel_84:
        LDI     R16, 0
        RCALL   ?Subroutine108
??CrossCallReturnLabel_203:
        STS     onok, R16
        STS     pr, R16
        RCALL   ??Subroutine140_0
??CrossCallReturnLabel_329:
        STS     mute, R16
        RCALL   ?Subroutine68
//   77  //----------------------------------
//   78    if (keyONsm) {u=1; led_test(); USART_Init();}//включаем UART
??CrossCallReturnLabel_90:
        SBIC    0x10, 0x05
        RJMP    ??main_0
        LDI     R16, 1
        STS     u, R16
        RCALL   led_test
        RCALL   USART_Init
//   79 //----------------------------------
//   80   mode=fmode; //смена режима работы
??main_0:
        LDI     R20, LOW(fmode)
        LDI     R21, (fmode) >> 8
        RCALL   __eeget8_16
        STS     mode, R16
//   81   if (mode!=1 && mode!=0) { fmode=0; mode=0;   }//ini
        CPI     R16, 1
        BREQ    ??main_1
        TST     R16
        BREQ    ??main_1
        RCALL   ?Subroutine13
??CrossCallReturnLabel_210:
        STS     mode, R16
//   82   if (modegro!=1 && modegro!=0) { modegro=0; p1;   }//ini
??main_1:
        RCALL   ?Subroutine64
??CrossCallReturnLabel_285:
        BREQ    ??CrossCallReturnLabel_87
        RCALL   ?Subroutine65
??CrossCallReturnLabel_269:
        BREQ    ??CrossCallReturnLabel_87
        RCALL   ?Subroutine14
??CrossCallReturnLabel_213:
        RCALL   ?Subroutine63
//   83   
//   84   if (keyMUTE && !keyAOFFsm) {  led_test();
??CrossCallReturnLabel_87:
        SBIC    0x10, 0x01
        RJMP    ??main_2
        SBIC    0x10, 0x05
        RJMP    ??main_2
        SBIS    0x10, 0x00
        RJMP    ??main_2
        RCALL   led_test
//   85   if (mode==0 && modegro==0)   {  fmode=1; p5;   SET(PORTB,4);  while(1) {}   }
        RCALL   ?Subroutine66
??CrossCallReturnLabel_272:
        BRNE    ??main_3
        RCALL   ?Subroutine65
??CrossCallReturnLabel_270:
        BRNE    ??main_4
        LDI     R16, 1
        RCALL   ?Subroutine110
??CrossCallReturnLabel_209:
        RCALL   ?Subroutine119
??CrossCallReturnLabel_350:
        SBI     0x18, 0x04
??main_5:
        RJMP    ??main_5
//   86   if (mode==1 && modegro==0)   {  modegro=1; p5; SET(PORTB,2);  SET(PORTB,3);  SET(PORTB,4);  while(1) {}  }
??main_3:
        CPI     R16, 1
        BRNE    ??main_2
        RCALL   ?Subroutine65
??CrossCallReturnLabel_271:
        BRNE    ??main_6
        LDI     R16, 1
        RCALL   ?Subroutine111
??CrossCallReturnLabel_212:
        RCALL   ?Subroutine60
??CrossCallReturnLabel_283:
        SBI     0x18, 0x04
??main_7:
        RJMP    ??main_7
??main_6:
        RCALL   ?Subroutine64
??CrossCallReturnLabel_286:
        BRNE    ??main_2
//   87   if (mode==1 && modegro==1)   {  fmode=0; p5; SET(PORTB,2);  SET(PORTB,3);    while(1) {}  } 
        RCALL   ?Subroutine13
??CrossCallReturnLabel_211:
        RCALL   ?Subroutine60
??CrossCallReturnLabel_284:
        RJMP    ??CrossCallReturnLabel_284
??main_4:
        RCALL   ?Subroutine64
??CrossCallReturnLabel_287:
        BRNE    ??main_2
//   88   if (mode==0 && modegro==1)   {  modegro=0; p5;  led_all(1);    while(1) {}   }
        RCALL   ?Subroutine14
??CrossCallReturnLabel_214:
        RCALL   ?Subroutine119
??CrossCallReturnLabel_351:
        RCALL   ??Subroutine145_0
??CrossCallReturnLabel_375:
        RJMP    ??CrossCallReturnLabel_375
//   89   
//   90                               }
//   91   
//   92  // modegro=1; mode=1;
//   93 //-----------------------------------
//   94   
//   95    if (keySELsm) {mode_programming=1; led_test();}//включаем программирование пульта
??main_2:
        SBIC    0x10, 0x01
        RJMP    ??main_8
        LDI     R16, 1
        STS     mode_programming, R16
        RCALL   led_test
//   96    if (keySELsm==1 && keyAOFFsm==1)//очистка
??main_8:
        SBIC    0x10, 0x01
        RJMP    ??main_9
        SBIC    0x10, 0x00
        RJMP    ??main_9
//   97       {
//   98         mode_programming=1; cod1=0;cod2=0;cod3=0;
        LDI     R16, 1
        STS     mode_programming, R16
        RCALL   ?Subroutine10
//   99         for (uchar i=0; i<=MAXFUNC; i++) {writeCOD();tekfunc++;}
??CrossCallReturnLabel_10:
        LDI     R24, 24
??main_10:
        RCALL   writeCOD
        LDI     R30, LOW(tekfunc)
        LDI     R31, (tekfunc) >> 8
        RCALL   ?Subroutine96
??CrossCallReturnLabel_325:
        DEC     R24
        BRNE    ??main_10
//  100         tekfunc=0;
//  101         led_all(1); while(1) {} //зависаем
        RCALL   ??Subroutine145_0
??CrossCallReturnLabel_374:
        RJMP    ??CrossCallReturnLabel_374
//  102       }
//  103 
//  104    if (mode_programming==1) //мигание первого программируемого
??main_9:
        RCALL   ?Subroutine73
??CrossCallReturnLabel_276:
        BREQ    ??main_11
//  105    {
//  106      for (uchar i=0; i<3; i++) {getadr(); p3;led_all(0); p3;}
        LDI     R24, 3
??main_12:
        RCALL   getadr
        RCALL   ?Subroutine59
??CrossCallReturnLabel_85:
        RCALL   ?Subroutine12
??CrossCallReturnLabel_16:
        RCALL   ?Subroutine59
??CrossCallReturnLabel_86:
        DEC     R24
        BRNE    ??main_12
//  107     
//  108      getadr();
        RCALL   getadr
//  109    }
//  110            
//  111 
//  112     __enable_interrupt();   
??main_11:
        SEI
        RJMP    ??main_13
//  113   while(1)
//  114   {
//  115      rez=du_main(pr);//вызов обработчика пульта 
//  116      if (mode_programming==0)  
//  117      {    
//  118        pultadr=0; 
//  119        if (rez) pultadr=analizCOD();      
//  120      }
//  121      else programming(rez);
??main_14:
        LDS     R16, rez
        RCALL   programming
//  122      if(u) diag();  
??main_15:
        LDS     R16, u
        TST     R16
        BREQ    ??main_13
        RCALL   diag
??main_13:
        LDS     R16, pr
        RCALL   du_main
        STS     rez, R16
        RCALL   ?Subroutine73
??CrossCallReturnLabel_277:
        BRNE    ??main_14
        RCALL   ??Subroutine144_0
??CrossCallReturnLabel_364:
        LDS     R16, rez
        TST     R16
        BREQ    ??main_15
        RCALL   ?Subroutine74
//  123   }
??CrossCallReturnLabel_356:
        RJMP    ??main_15
          CFI EndBlock cfiBlock173
        REQUIRE _A_PIND
        REQUIRE _A_PORTB
//  124 }//main

        RSEG CODE:CODE:NOROOT(1)
?Subroutine65:
          CFI Block cfiCond174 Using cfiCommon0
          CFI Function main
          CFI Conditional ??CrossCallReturnLabel_269
          CFI R24 Frame(CFA_Y, -1)
          CFI CFA_SP SP+4
          CFI CFA_Y Y+1
          CFI Block cfiCond175 Using cfiCommon0
          CFI (cfiCond175) Function main
          CFI (cfiCond175) Conditional ??CrossCallReturnLabel_270
          CFI (cfiCond175) R24 Frame(CFA_Y, -1)
          CFI (cfiCond175) CFA_SP SP+4
          CFI (cfiCond175) CFA_Y Y+1
          CFI Block cfiCond176 Using cfiCommon0
          CFI (cfiCond176) Function main
          CFI (cfiCond176) Conditional ??CrossCallReturnLabel_271
          CFI (cfiCond176) R24 Frame(CFA_Y, -1)
          CFI (cfiCond176) CFA_SP SP+4
          CFI (cfiCond176) CFA_Y Y+1
          CFI Block cfiPicker177 Using cfiCommon2
          CFI (cfiPicker177) NoFunction
          CFI (cfiPicker177) Picker
        RCALL   ?Subroutine112
??CrossCallReturnLabel_216:
        RJMP    ?Subroutine128
          CFI EndBlock cfiCond174
          CFI EndBlock cfiCond175
          CFI EndBlock cfiCond176
          CFI EndBlock cfiPicker177

        RSEG CODE:CODE:NOROOT(1)
?Subroutine119:
          CFI Block cfiCond178 Using cfiCommon0
          CFI Function led_test
          CFI Conditional ??CrossCallReturnLabel_349
          CFI R24 Frame(CFA_Y, -1)
          CFI CFA_SP SP+4
          CFI CFA_Y Y+1
          CFI Block cfiCond179 Using cfiCommon0
          CFI (cfiCond179) Function main
          CFI (cfiCond179) Conditional ??CrossCallReturnLabel_350
          CFI (cfiCond179) R24 Frame(CFA_Y, -1)
          CFI (cfiCond179) CFA_SP SP+4
          CFI (cfiCond179) CFA_Y Y+1
          CFI Block cfiCond180 Using cfiCommon0
          CFI (cfiCond180) Function main
          CFI (cfiCond180) Conditional ??CrossCallReturnLabel_351
          CFI (cfiCond180) R24 Frame(CFA_Y, -1)
          CFI (cfiCond180) CFA_SP SP+4
          CFI (cfiCond180) CFA_Y Y+1
          CFI Block cfiCond181 Using cfiCommon0
          CFI (cfiCond181) Function main_logic
          CFI (cfiCond181) Conditional ??CrossCallReturnLabel_352
          CFI (cfiCond181) CFA_SP SP+4
          CFI Block cfiCond182 Using cfiCommon0
          CFI (cfiCond182) Function main
          CFI (cfiCond182) Conditional ??CrossCallReturnLabel_353, ??CrossCallReturnLabel_283
          CFI (cfiCond182) R24 Frame(CFA_Y, -1)
          CFI (cfiCond182) CFA_SP SP+6
          CFI (cfiCond182) CFA_Y Y+1
          CFI Block cfiCond183 Using cfiCommon0
          CFI (cfiCond183) Function main
          CFI (cfiCond183) Conditional ??CrossCallReturnLabel_353, ??CrossCallReturnLabel_284
          CFI (cfiCond183) R24 Frame(CFA_Y, -1)
          CFI (cfiCond183) CFA_SP SP+6
          CFI (cfiCond183) CFA_Y Y+1
          CFI Block cfiCond184 Using cfiCommon0
          CFI (cfiCond184) Function normal
          CFI (cfiCond184) Conditional ??CrossCallReturnLabel_355, ??CrossCallReturnLabel_358
          CFI (cfiCond184) R24 Frame(CFA_Y, -1)
          CFI (cfiCond184) CFA_SP SP+6
          CFI (cfiCond184) CFA_Y Y+1
          CFI Block cfiCond185 Using cfiCommon0
          CFI (cfiCond185) Function normal
          CFI (cfiCond185) Conditional ??CrossCallReturnLabel_355, ??CrossCallReturnLabel_359
          CFI (cfiCond185) R24 Frame(CFA_Y, -1)
          CFI (cfiCond185) CFA_SP SP+6
          CFI (cfiCond185) CFA_Y Y+1
          CFI Block cfiCond186 Using cfiCommon0
          CFI (cfiCond186) Function normal
          CFI (cfiCond186) Conditional ??CrossCallReturnLabel_355, ??CrossCallReturnLabel_360
          CFI (cfiCond186) R24 Frame(CFA_Y, -1)
          CFI (cfiCond186) CFA_SP SP+6
          CFI (cfiCond186) CFA_Y Y+1
          CFI Block cfiCond187 Using cfiCommon0
          CFI (cfiCond187) Function main_logic
          CFI (cfiCond187) Conditional ??CrossCallReturnLabel_354, ??CrossCallReturnLabel_200
          CFI (cfiCond187) CFA_SP SP+6
          CFI Block cfiCond188 Using cfiCommon0
          CFI (cfiCond188) Function normal
          CFI (cfiCond188) Conditional ??CrossCallReturnLabel_354, ??CrossCallReturnLabel_201
          CFI (cfiCond188) R24 Frame(CFA_Y, -1)
          CFI (cfiCond188) CFA_SP SP+6
          CFI (cfiCond188) CFA_Y Y+1
          CFI Block cfiCond189 Using cfiCommon0
          CFI (cfiCond189) Function main_logic
          CFI (cfiCond189) Conditional ??CrossCallReturnLabel_354, ??CrossCallReturnLabel_202, ??CrossCallReturnLabel_249
          CFI (cfiCond189) CFA_SP SP+8
          CFI Block cfiCond190 Using cfiCommon0
          CFI (cfiCond190) Function normal
          CFI (cfiCond190) Conditional ??CrossCallReturnLabel_354, ??CrossCallReturnLabel_202, ??CrossCallReturnLabel_250
          CFI (cfiCond190) R24 Frame(CFA_Y, -1)
          CFI (cfiCond190) CFA_SP SP+8
          CFI (cfiCond190) CFA_Y Y+1
          CFI Block cfiPicker191 Using cfiCommon2
          CFI (cfiPicker191) NoFunction
          CFI (cfiPicker191) Picker
        LDI     R16, 127
        LDI     R17, 26
        LDI     R18, 6
        SUBI    R16, 1
        SBCI    R17, 0
        SBCI    R18, 0
        BRNE    $-6
        RJMP    $+2
        NOP
        RET
          CFI EndBlock cfiCond178
          CFI EndBlock cfiCond179
          CFI EndBlock cfiCond180
          CFI EndBlock cfiCond181
          CFI EndBlock cfiCond182
          CFI EndBlock cfiCond183
          CFI EndBlock cfiCond184
          CFI EndBlock cfiCond185
          CFI EndBlock cfiCond186
          CFI EndBlock cfiCond187
          CFI EndBlock cfiCond188
          CFI EndBlock cfiCond189
          CFI EndBlock cfiCond190
          CFI EndBlock cfiPicker191

        RSEG CODE:CODE:NOROOT(1)
?Subroutine60:
          CFI Block cfiCond192 Using cfiCommon0
          CFI Function main
          CFI Conditional ??CrossCallReturnLabel_283
          CFI R24 Frame(CFA_Y, -1)
          CFI CFA_SP SP+4
          CFI CFA_Y Y+1
          CFI Block cfiCond193 Using cfiCommon0
          CFI (cfiCond193) Function main
          CFI (cfiCond193) Conditional ??CrossCallReturnLabel_284
          CFI (cfiCond193) R24 Frame(CFA_Y, -1)
          CFI (cfiCond193) CFA_SP SP+4
          CFI (cfiCond193) CFA_Y Y+1
          CFI Block cfiPicker194 Using cfiCommon2
          CFI (cfiPicker194) NoFunction
          CFI (cfiPicker194) Picker
        RCALL   ?Subroutine119
??CrossCallReturnLabel_353:
        SBI     0x18, 0x02
          CFI EndBlock cfiCond192
          CFI EndBlock cfiCond193
          CFI EndBlock cfiPicker194
        REQUIRE ?Subroutine129
        ;               // Fall through to label ?Subroutine129

        RSEG CODE:CODE:NOROOT(1)
?Subroutine129:
          CFI Block cfiCond195 Using cfiCommon0
          CFI Function main
          CFI Conditional ??CrossCallReturnLabel_283
          CFI R24 Frame(CFA_Y, -1)
          CFI CFA_SP SP+4
          CFI CFA_Y Y+1
          CFI Block cfiCond196 Using cfiCommon0
          CFI (cfiCond196) Function main
          CFI (cfiCond196) Conditional ??CrossCallReturnLabel_284
          CFI (cfiCond196) R24 Frame(CFA_Y, -1)
          CFI (cfiCond196) CFA_SP SP+4
          CFI (cfiCond196) CFA_Y Y+1
          CFI Block cfiBlock197 Using cfiCommon0
          CFI (cfiBlock197) NoFunction
          CFI Block cfiPicker198 Using cfiCommon2
          CFI (cfiPicker198) NoFunction
          CFI (cfiPicker198) Picker
        SBI     0x18, 0x03
        RET
          CFI EndBlock cfiCond195
          CFI EndBlock cfiCond196
          CFI EndBlock cfiBlock197
          CFI EndBlock cfiPicker198

        RSEG CODE:CODE:NOROOT(1)
?Subroutine59:
          CFI Block cfiCond199 Using cfiCommon0
          CFI Function main
          CFI Conditional ??CrossCallReturnLabel_84
          CFI R24 Frame(CFA_Y, -1)
          CFI CFA_SP SP+4
          CFI CFA_Y Y+1
          CFI Block cfiCond200 Using cfiCommon0
          CFI (cfiCond200) Function main
          CFI (cfiCond200) Conditional ??CrossCallReturnLabel_85
          CFI (cfiCond200) R24 Frame(CFA_Y, -1)
          CFI (cfiCond200) CFA_SP SP+4
          CFI (cfiCond200) CFA_Y Y+1
          CFI Block cfiCond201 Using cfiCommon0
          CFI (cfiCond201) Function main
          CFI (cfiCond201) Conditional ??CrossCallReturnLabel_86
          CFI (cfiCond201) R24 Frame(CFA_Y, -1)
          CFI (cfiCond201) CFA_SP SP+4
          CFI (cfiCond201) CFA_Y Y+1
          CFI Block cfiPicker202 Using cfiCommon2
          CFI (cfiPicker202) NoFunction
          CFI (cfiPicker202) Picker
        LDI     R16, 127
        LDI     R17, 169
        LDI     R18, 3
        SUBI    R16, 1
        SBCI    R17, 0
        SBCI    R18, 0
        BRNE    $-6
        RJMP    $+2
        NOP
        RET
          CFI EndBlock cfiCond199
          CFI EndBlock cfiCond200
          CFI EndBlock cfiCond201
          CFI EndBlock cfiPicker202

        RSEG CODE:CODE:NOROOT(1)
?Subroutine96:
          CFI Block cfiCond203 Using cfiCommon0
          CFI Function coding
          CFI Conditional ??CrossCallReturnLabel_328, ??CrossCallReturnLabel_35
          CFI R24 Frame(CFA_Y, -10)
          CFI R25 Frame(CFA_Y, -9)
          CFI R26 Frame(CFA_Y, -8)
          CFI R27 Frame(CFA_Y, -7)
          CFI R4 Frame(CFA_Y, -6)
          CFI R5 Frame(CFA_Y, -5)
          CFI R6 Frame(CFA_Y, -4)
          CFI R7 Frame(CFA_Y, -3)
          CFI R8 Frame(CFA_Y, -2)
          CFI R9 Frame(CFA_Y, -1)
          CFI CFA_SP SP+6
          CFI CFA_Y Y+10
          CFI Block cfiCond204 Using cfiCommon0
          CFI (cfiCond204) Function coding
          CFI (cfiCond204) Conditional ??CrossCallReturnLabel_328, ??CrossCallReturnLabel_36
          CFI (cfiCond204) R24 Frame(CFA_Y, -10)
          CFI (cfiCond204) R25 Frame(CFA_Y, -9)
          CFI (cfiCond204) R26 Frame(CFA_Y, -8)
          CFI (cfiCond204) R27 Frame(CFA_Y, -7)
          CFI (cfiCond204) R4 Frame(CFA_Y, -6)
          CFI (cfiCond204) R5 Frame(CFA_Y, -5)
          CFI (cfiCond204) R6 Frame(CFA_Y, -4)
          CFI (cfiCond204) R7 Frame(CFA_Y, -3)
          CFI (cfiCond204) R8 Frame(CFA_Y, -2)
          CFI (cfiCond204) R9 Frame(CFA_Y, -1)
          CFI (cfiCond204) CFA_SP SP+6
          CFI (cfiCond204) CFA_Y Y+10
          CFI Block cfiCond205 Using cfiCommon0
          CFI (cfiCond205) Function coding
          CFI (cfiCond205) Conditional ??CrossCallReturnLabel_328, ??CrossCallReturnLabel_37
          CFI (cfiCond205) R24 Frame(CFA_Y, -10)
          CFI (cfiCond205) R25 Frame(CFA_Y, -9)
          CFI (cfiCond205) R26 Frame(CFA_Y, -8)
          CFI (cfiCond205) R27 Frame(CFA_Y, -7)
          CFI (cfiCond205) R4 Frame(CFA_Y, -6)
          CFI (cfiCond205) R5 Frame(CFA_Y, -5)
          CFI (cfiCond205) R6 Frame(CFA_Y, -4)
          CFI (cfiCond205) R7 Frame(CFA_Y, -3)
          CFI (cfiCond205) R8 Frame(CFA_Y, -2)
          CFI (cfiCond205) R9 Frame(CFA_Y, -1)
          CFI (cfiCond205) CFA_SP SP+6
          CFI (cfiCond205) CFA_Y Y+10
          CFI Block cfiCond206 Using cfiCommon0
          CFI (cfiCond206) Function analiz_INT
          CFI (cfiCond206) Conditional ??CrossCallReturnLabel_324
          CFI (cfiCond206) CFA_SP SP+4
          CFI Block cfiCond207 Using cfiCommon0
          CFI (cfiCond207) Function main
          CFI (cfiCond207) Conditional ??CrossCallReturnLabel_325
          CFI (cfiCond207) R24 Frame(CFA_Y, -1)
          CFI (cfiCond207) CFA_SP SP+4
          CFI (cfiCond207) CFA_Y Y+1
          CFI Block cfiCond208 Using cfiCommon0
          CFI (cfiCond208) Function migWORK
          CFI (cfiCond208) Conditional ??CrossCallReturnLabel_326
          CFI (cfiCond208) CFA_SP SP+4
          CFI Block cfiCond209 Using cfiCommon0
          CFI (cfiCond209) Function programming
          CFI (cfiCond209) Conditional ??CrossCallReturnLabel_327, ??CrossCallReturnLabel_12
          CFI (cfiCond209) R24 Frame(CFA_Y, -1)
          CFI (cfiCond209) CFA_SP SP+6
          CFI (cfiCond209) CFA_Y Y+1
          CFI Block cfiCond210 Using cfiCommon0
          CFI (cfiCond210) Function programming
          CFI (cfiCond210) Conditional ??CrossCallReturnLabel_327, ??CrossCallReturnLabel_13
          CFI (cfiCond210) R24 Frame(CFA_Y, -1)
          CFI (cfiCond210) CFA_SP SP+6
          CFI (cfiCond210) CFA_Y Y+1
          CFI Block cfiPicker211 Using cfiCommon2
          CFI (cfiPicker211) NoFunction
          CFI (cfiPicker211) Picker
        LD      R16, Z
        INC     R16
        RJMP    ??Subroutine139_0
          CFI EndBlock cfiCond203
          CFI EndBlock cfiCond204
          CFI EndBlock cfiCond205
          CFI EndBlock cfiCond206
          CFI EndBlock cfiCond207
          CFI EndBlock cfiCond208
          CFI EndBlock cfiCond209
          CFI EndBlock cfiCond210
          CFI EndBlock cfiPicker211

        RSEG CODE:CODE:NOROOT(1)
?Subroutine14:
          CFI Block cfiCond212 Using cfiCommon0
          CFI Function main
          CFI Conditional ??CrossCallReturnLabel_213
          CFI R24 Frame(CFA_Y, -1)
          CFI CFA_SP SP+4
          CFI CFA_Y Y+1
          CFI Block cfiCond213 Using cfiCommon0
          CFI (cfiCond213) Function main
          CFI (cfiCond213) Conditional ??CrossCallReturnLabel_214
          CFI (cfiCond213) R24 Frame(CFA_Y, -1)
          CFI (cfiCond213) CFA_SP SP+4
          CFI (cfiCond213) CFA_Y Y+1
          CFI Block cfiPicker214 Using cfiCommon2
          CFI (cfiPicker214) NoFunction
          CFI (cfiPicker214) Picker
        LDI     R16, 0
          CFI EndBlock cfiCond212
          CFI EndBlock cfiCond213
          CFI EndBlock cfiPicker214
        REQUIRE ?Subroutine111
        ;               // Fall through to label ?Subroutine111

        RSEG CODE:CODE:NOROOT(1)
?Subroutine111:
          CFI Block cfiCond215 Using cfiCommon0
          CFI Function main
          CFI Conditional ??CrossCallReturnLabel_212
          CFI R24 Frame(CFA_Y, -1)
          CFI CFA_SP SP+4
          CFI CFA_Y Y+1
          CFI Block cfiCond216 Using cfiCommon0
          CFI (cfiCond216) Function main
          CFI (cfiCond216) Conditional ??CrossCallReturnLabel_213
          CFI (cfiCond216) R24 Frame(CFA_Y, -1)
          CFI (cfiCond216) CFA_SP SP+4
          CFI (cfiCond216) CFA_Y Y+1
          CFI Block cfiCond217 Using cfiCommon0
          CFI (cfiCond217) Function main
          CFI (cfiCond217) Conditional ??CrossCallReturnLabel_214
          CFI (cfiCond217) R24 Frame(CFA_Y, -1)
          CFI (cfiCond217) CFA_SP SP+4
          CFI (cfiCond217) CFA_Y Y+1
          CFI Block cfiPicker218 Using cfiCommon2
          CFI (cfiPicker218) NoFunction
          CFI (cfiPicker218) Picker
        LDI     R20, LOW(modegro)
        LDI     R21, (modegro) >> 8
        RJMP    __eeput8_16
          CFI EndBlock cfiCond215
          CFI EndBlock cfiCond216
          CFI EndBlock cfiCond217
          CFI EndBlock cfiPicker218

        RSEG CODE:CODE:NOROOT(1)
?Subroutine13:
          CFI Block cfiCond219 Using cfiCommon0
          CFI Function main
          CFI Conditional ??CrossCallReturnLabel_210
          CFI R24 Frame(CFA_Y, -1)
          CFI CFA_SP SP+4
          CFI CFA_Y Y+1
          CFI Block cfiCond220 Using cfiCommon0
          CFI (cfiCond220) Function main
          CFI (cfiCond220) Conditional ??CrossCallReturnLabel_211
          CFI (cfiCond220) R24 Frame(CFA_Y, -1)
          CFI (cfiCond220) CFA_SP SP+4
          CFI (cfiCond220) CFA_Y Y+1
          CFI Block cfiPicker221 Using cfiCommon2
          CFI (cfiPicker221) NoFunction
          CFI (cfiPicker221) Picker
        LDI     R16, 0
          CFI EndBlock cfiCond219
          CFI EndBlock cfiCond220
          CFI EndBlock cfiPicker221
        REQUIRE ?Subroutine110
        ;               // Fall through to label ?Subroutine110

        RSEG CODE:CODE:NOROOT(1)
?Subroutine110:
          CFI Block cfiCond222 Using cfiCommon0
          CFI Function main
          CFI Conditional ??CrossCallReturnLabel_209
          CFI R24 Frame(CFA_Y, -1)
          CFI CFA_SP SP+4
          CFI CFA_Y Y+1
          CFI Block cfiCond223 Using cfiCommon0
          CFI (cfiCond223) Function main
          CFI (cfiCond223) Conditional ??CrossCallReturnLabel_210
          CFI (cfiCond223) R24 Frame(CFA_Y, -1)
          CFI (cfiCond223) CFA_SP SP+4
          CFI (cfiCond223) CFA_Y Y+1
          CFI Block cfiCond224 Using cfiCommon0
          CFI (cfiCond224) Function main
          CFI (cfiCond224) Conditional ??CrossCallReturnLabel_211
          CFI (cfiCond224) R24 Frame(CFA_Y, -1)
          CFI (cfiCond224) CFA_SP SP+4
          CFI (cfiCond224) CFA_Y Y+1
          CFI Block cfiPicker225 Using cfiCommon2
          CFI (cfiPicker225) NoFunction
          CFI (cfiPicker225) Picker
        LDI     R20, LOW(fmode)
        LDI     R21, (fmode) >> 8
        RJMP    __eeput8_16
          CFI EndBlock cfiCond222
          CFI EndBlock cfiCond223
          CFI EndBlock cfiCond224
          CFI EndBlock cfiPicker225

        RSEG CODE:CODE:NOROOT(1)
?Subroutine10:
          CFI Block cfiCond226 Using cfiCommon0
          CFI Function PEREP
          CFI Conditional ??CrossCallReturnLabel_11
          CFI R24 Frame(CFA_Y, -8)
          CFI R25 Frame(CFA_Y, -7)
          CFI R26 Frame(CFA_Y, -6)
          CFI R27 Frame(CFA_Y, -5)
          CFI R4 Frame(CFA_Y, -4)
          CFI R5 Frame(CFA_Y, -3)
          CFI R6 Frame(CFA_Y, -2)
          CFI R7 Frame(CFA_Y, -1)
          CFI CFA_SP SP+4
          CFI CFA_Y Y+8
          CFI Block cfiCond227 Using cfiCommon0
          CFI (cfiCond227) Function main
          CFI (cfiCond227) Conditional ??CrossCallReturnLabel_10
          CFI (cfiCond227) R24 Frame(CFA_Y, -1)
          CFI (cfiCond227) CFA_SP SP+4
          CFI (cfiCond227) CFA_Y Y+1
          CFI Block cfiPicker228 Using cfiCommon2
          CFI (cfiPicker228) NoFunction
          CFI (cfiPicker228) Picker
        LDI     R16, 0
        LDI     R30, LOW(cod1)
        LDI     R31, (cod1) >> 8
        RCALL   ?Subroutine93
??CrossCallReturnLabel_156:
        LDI     R30, LOW(cod2)
        LDI     R31, (cod2) >> 8
        RCALL   ?Subroutine93
??CrossCallReturnLabel_157:
        LDI     R30, LOW(cod3)
        LDI     R31, (cod3) >> 8
        RJMP    ?Subroutine93
          CFI EndBlock cfiCond226
          CFI EndBlock cfiCond227
          CFI EndBlock cfiPicker228
//  125 //***************************************************************************
//  126 
//  127 
//  128 

        RSEG CODE:CODE:NOROOT(1)
//  129 void main_logic()
main_logic:
          CFI Block cfiBlock229 Using cfiCommon0
          CFI Function main_logic
//  130 {
//  131 
//  132  if ((keyON||pultadr==25 || pultadr==90) && on==1 && zader!=1) { rprintfStr("OFF>adr="); rprintfFloat(9, pultadr ); ent;
        FUNCALL main_logic, rprintfStr
        LOCFRAME CSTACK, 0, STACK
        LOCFRAME RSTACK, 2, STACK
        ARGFRAME RSTACK, 0, STACK
        FUNCALL main_logic, rprintfFloat
        LOCFRAME CSTACK, 0, STACK
        LOCFRAME RSTACK, 2, STACK
        ARGFRAME RSTACK, 0, STACK
        FUNCALL main_logic, USART_SendChar
        LOCFRAME CSTACK, 0, STACK
        LOCFRAME RSTACK, 2, STACK
        ARGFRAME RSTACK, 0, STACK
        FUNCALL main_logic, rprintfStr
        LOCFRAME CSTACK, 0, STACK
        LOCFRAME RSTACK, 2, STACK
        ARGFRAME RSTACK, 0, STACK
        FUNCALL main_logic, rprintfFloat
        LOCFRAME CSTACK, 0, STACK
        LOCFRAME RSTACK, 2, STACK
        ARGFRAME RSTACK, 0, STACK
        FUNCALL main_logic, USART_SendChar
        LOCFRAME CSTACK, 0, STACK
        LOCFRAME RSTACK, 2, STACK
        ARGFRAME RSTACK, 0, STACK
        FUNCALL main_logic, source
        LOCFRAME CSTACK, 0, STACK
        LOCFRAME RSTACK, 2, STACK
        ARGFRAME RSTACK, 0, STACK
        FUNCALL main_logic, resOUT
        LOCFRAME CSTACK, 0, STACK
        LOCFRAME RSTACK, 2, STACK
        ARGFRAME RSTACK, 0, STACK
        FUNCALL main_logic, normal
        LOCFRAME CSTACK, 0, STACK
        LOCFRAME RSTACK, 2, STACK
        ARGFRAME RSTACK, 0, STACK
        SBIC    0x10, 0x05
        RJMP    ??main_logic_0
        SBIS    0x10, 0x00
        RJMP    ??main_logic_0
        SBIC    0x10, 0x01
        RJMP    ??main_logic_1
??main_logic_0:
        RCALL   ?Subroutine72
??CrossCallReturnLabel_103:
        CPI     R16, 25
        BREQ    ??main_logic_1
        CPI     R16, 90
        BRNE    ??CrossCallReturnLabel_361
??main_logic_1:
        LDS     R17, on
        LDS     R18, zader
        LDI     R16, 1
        EOR     R18, R16
        AND     R17, R18
        BREQ    ??CrossCallReturnLabel_361
        LDI     R16, LOW(`?<Constant "OFF>adr=">`)
        LDI     R17, (`?<Constant "OFF>adr=">`) >> 8
        RCALL   ?Subroutine18
//  133                     on=0;onok=0; p5; zader=0;  til=0; gro1=0; gro2=0; pultadr=0;  }//OFF
??CrossCallReturnLabel_22:
        RCALL   ?Subroutine15
??CrossCallReturnLabel_18:
        RCALL   ?Subroutine106
??CrossCallReturnLabel_200:
        RCALL   ?Subroutine68
??CrossCallReturnLabel_91:
        STS     ??gro1, R16
        STS     ??gro2, R16
        RCALL   ?Subroutine124
//  134      if ((keyON||pultadr==25 || pultadr==90) && on==0) {rprintfStr("ON>adr="); rprintfFloat(9, pultadr ); ent;
??CrossCallReturnLabel_361:
        SBIC    0x10, 0x05
        RJMP    ??main_logic_2
        SBIS    0x10, 0x00
        RJMP    ??main_logic_2
        SBIC    0x10, 0x01
        RJMP    ??main_logic_3
??main_logic_2:
        RCALL   ?Subroutine72
??CrossCallReturnLabel_104:
        CPI     R16, 25
        BREQ    ??main_logic_3
        CPI     R16, 90
        BRNE    ??CrossCallReturnLabel_365
??main_logic_3:
        LDS     R16, on
        TST     R16
        BRNE    ??CrossCallReturnLabel_365
        LDI     R16, LOW(`?<Constant "ON>adr=">`)
        LDI     R17, (`?<Constant "ON>adr=">`) >> 8
        RCALL   ?Subroutine18
//  135                     SET(PORTD,4); SET(PORTD,7);p5; on=1; mute=0; zader=1;timerzad=0;source();pultadr=0;  }//ON
??CrossCallReturnLabel_23:
        SBI     0x12, 0x04
        SBI     0x12, 0x07
        RCALL   ?Subroutine119
??CrossCallReturnLabel_352:
        LDI     R16, 1
        RCALL   ??Subroutine140_0
??CrossCallReturnLabel_330:
        LDI     R16, 0
        STS     mute, R16
        RCALL   ?Subroutine3
??CrossCallReturnLabel_9:
        RCALL   ??Subroutine144_0
//  136      
//  137     //выключение
//  138     if (on==0 && onok==0) { on=0; aoff=0; p5; zader=0; regaoff=0; AC_OFF; delay_s(1); tON=acon; 
??CrossCallReturnLabel_365:
        LDS     R16, on
        LDS     R17, onok
        OR      R16, R17
        BRNE    ??main_logic_4
        RCALL   ?Subroutine109
??CrossCallReturnLabel_331:
        RCALL   ?Subroutine16
??CrossCallReturnLabel_249:
        CBI     0x12, 0x06
        RCALL   ?Subroutine70
??CrossCallReturnLabel_97:
        LDI     R16, 32
        LDI     R17, 78
        LDI     R30, LOW(tON)
        LDI     R31, (tON) >> 8
        RCALL   ??Subroutine142_0
//  139     						PORTB=0; RES(PORTD,7);RES(PORTD,4); resOUT(); RES(PORTC,5); RES(PORTC,0);RES(PORTD,3); onok=1;
??CrossCallReturnLabel_341:
        LDI     R16, 0
        OUT     0x18, R16
        CBI     0x12, 0x07
        CBI     0x12, 0x04
        RCALL   resOUT
        CBI     0x15, 0x05
        CBI     0x15, 0x00
        CBI     0x12, 0x03
        LDI     R16, 1
        STS     onok, R16
//  140                           }
//  141                                   
//  142   
//  143     pultadr=0;  if (on==1) normal(rez);
??main_logic_4:
        RCALL   ??Subroutine144_0
??CrossCallReturnLabel_366:
        LDS     R16, on
        TST     R16
        BREQ    ??main_logic_5
        LDS     R16, rez
        RCALL   normal
//  144    
//  145                  
//  146   
//  147 
//  148 }
??main_logic_5:
        RET
          CFI EndBlock cfiBlock229
        REQUIRE _A_PIND
        REQUIRE _A_PORTD
        REQUIRE _A_PORTB
        REQUIRE _A_PORTC

        RSEG CODE:CODE:NOROOT(1)
?Subroutine109:
          CFI Block cfiCond230 Using cfiCommon0
          CFI Function main_logic
          CFI Conditional ??CrossCallReturnLabel_331
          CFI CFA_SP SP+4
          CFI Block cfiCond231 Using cfiCommon0
          CFI (cfiCond231) Function main_logic
          CFI (cfiCond231) Conditional ??CrossCallReturnLabel_332, ??CrossCallReturnLabel_18
          CFI (cfiCond231) CFA_SP SP+6
          CFI Block cfiCond232 Using cfiCommon0
          CFI (cfiCond232) Function normal
          CFI (cfiCond232) Conditional ??CrossCallReturnLabel_332, ??CrossCallReturnLabel_19
          CFI (cfiCond232) R24 Frame(CFA_Y, -1)
          CFI (cfiCond232) CFA_SP SP+6
          CFI (cfiCond232) CFA_Y Y+1
          CFI Block cfiPicker233 Using cfiCommon2
          CFI (cfiPicker233) NoFunction
          CFI (cfiPicker233) Picker
        LDI     R16, 0
          CFI EndBlock cfiCond230
          CFI EndBlock cfiCond231
          CFI EndBlock cfiCond232
          CFI EndBlock cfiPicker233
        REQUIRE ??Subroutine140_0
        ;               // Fall through to label ??Subroutine140_0

        RSEG CODE:CODE:NOROOT(1)
??Subroutine140_0:
          CFI Block cfiCond234 Using cfiCommon0
          CFI Function main
          CFI Conditional ??CrossCallReturnLabel_329
          CFI R24 Frame(CFA_Y, -1)
          CFI CFA_SP SP+4
          CFI CFA_Y Y+1
          CFI Block cfiCond235 Using cfiCommon0
          CFI (cfiCond235) Function main_logic
          CFI (cfiCond235) Conditional ??CrossCallReturnLabel_330
          CFI (cfiCond235) CFA_SP SP+4
          CFI Block cfiCond236 Using cfiCommon0
          CFI (cfiCond236) Function main_logic
          CFI (cfiCond236) Conditional ??CrossCallReturnLabel_331
          CFI (cfiCond236) CFA_SP SP+4
          CFI Block cfiCond237 Using cfiCommon0
          CFI (cfiCond237) Function main_logic
          CFI (cfiCond237) Conditional ??CrossCallReturnLabel_332, ??CrossCallReturnLabel_18
          CFI (cfiCond237) CFA_SP SP+6
          CFI Block cfiCond238 Using cfiCommon0
          CFI (cfiCond238) Function normal
          CFI (cfiCond238) Conditional ??CrossCallReturnLabel_332, ??CrossCallReturnLabel_19
          CFI (cfiCond238) R24 Frame(CFA_Y, -1)
          CFI (cfiCond238) CFA_SP SP+6
          CFI (cfiCond238) CFA_Y Y+1
          CFI Block cfiPicker239 Using cfiCommon2
          CFI (cfiPicker239) NoFunction
          CFI (cfiPicker239) Picker
        STS     on, R16
        RET
          CFI EndBlock cfiCond234
          CFI EndBlock cfiCond235
          CFI EndBlock cfiCond236
          CFI EndBlock cfiCond237
          CFI EndBlock cfiCond238
          CFI EndBlock cfiPicker239

        RSEG CODE:CODE:NOROOT(1)
?Subroutine68:
          CFI Block cfiCond240 Using cfiCommon0
          CFI Function main
          CFI Conditional ??CrossCallReturnLabel_90
          CFI R24 Frame(CFA_Y, -1)
          CFI CFA_SP SP+4
          CFI CFA_Y Y+1
          CFI Block cfiCond241 Using cfiCommon0
          CFI (cfiCond241) Function main_logic
          CFI (cfiCond241) Conditional ??CrossCallReturnLabel_91
          CFI (cfiCond241) CFA_SP SP+4
          CFI Block cfiPicker242 Using cfiCommon2
          CFI (cfiPicker242) NoFunction
          CFI (cfiPicker242) Picker
        RCALL   ?Subroutine113
??CrossCallReturnLabel_220:
        STS     til, R16
        RET
          CFI EndBlock cfiCond240
          CFI EndBlock cfiCond241
          CFI EndBlock cfiPicker242

        RSEG CODE:CODE:NOROOT(1)
?Subroutine25:
          CFI Block cfiCond243 Using cfiCommon0
          CFI Function coding
          CFI Conditional ??CrossCallReturnLabel_346
          CFI R24 Frame(CFA_Y, -10)
          CFI R25 Frame(CFA_Y, -9)
          CFI R26 Frame(CFA_Y, -8)
          CFI R27 Frame(CFA_Y, -7)
          CFI R4 Frame(CFA_Y, -6)
          CFI R5 Frame(CFA_Y, -5)
          CFI R6 Frame(CFA_Y, -4)
          CFI R7 Frame(CFA_Y, -3)
          CFI R8 Frame(CFA_Y, -2)
          CFI R9 Frame(CFA_Y, -1)
          CFI CFA_SP SP+4
          CFI CFA_Y Y+10
          CFI Block cfiCond244 Using cfiCommon0
          CFI (cfiCond244) Function coding
          CFI (cfiCond244) Conditional ??CrossCallReturnLabel_347
          CFI (cfiCond244) R24 Frame(CFA_Y, -10)
          CFI (cfiCond244) R25 Frame(CFA_Y, -9)
          CFI (cfiCond244) R26 Frame(CFA_Y, -8)
          CFI (cfiCond244) R27 Frame(CFA_Y, -7)
          CFI (cfiCond244) R4 Frame(CFA_Y, -6)
          CFI (cfiCond244) R5 Frame(CFA_Y, -5)
          CFI (cfiCond244) R6 Frame(CFA_Y, -4)
          CFI (cfiCond244) R7 Frame(CFA_Y, -3)
          CFI (cfiCond244) R8 Frame(CFA_Y, -2)
          CFI (cfiCond244) R9 Frame(CFA_Y, -1)
          CFI (cfiCond244) CFA_SP SP+4
          CFI (cfiCond244) CFA_Y Y+10
          CFI Block cfiCond245 Using cfiCommon0
          CFI (cfiCond245) Function coding
          CFI (cfiCond245) Conditional ??CrossCallReturnLabel_348
          CFI (cfiCond245) R24 Frame(CFA_Y, -10)
          CFI (cfiCond245) R25 Frame(CFA_Y, -9)
          CFI (cfiCond245) R26 Frame(CFA_Y, -8)
          CFI (cfiCond245) R27 Frame(CFA_Y, -7)
          CFI (cfiCond245) R4 Frame(CFA_Y, -6)
          CFI (cfiCond245) R5 Frame(CFA_Y, -5)
          CFI (cfiCond245) R6 Frame(CFA_Y, -4)
          CFI (cfiCond245) R7 Frame(CFA_Y, -3)
          CFI (cfiCond245) R8 Frame(CFA_Y, -2)
          CFI (cfiCond245) R9 Frame(CFA_Y, -1)
          CFI (cfiCond245) CFA_SP SP+4
          CFI (cfiCond245) CFA_Y Y+10
          CFI Block cfiPicker246 Using cfiCommon2
          CFI (cfiPicker246) NoFunction
          CFI (cfiPicker246) Picker
        RCALL   ?Subroutine99
          CFI EndBlock cfiCond243
          CFI EndBlock cfiCond244
          CFI EndBlock cfiCond245
          CFI EndBlock cfiPicker246
??CrossCallReturnLabel_178:
        REQUIRE ??Subroutine141_0
        ;               // Fall through to label ??Subroutine141_0

        RSEG CODE:CODE:NOROOT(1)
??Subroutine141_0:
          CFI Block cfiCond247 Using cfiCommon0
          CFI Function coding
          CFI Conditional ??CrossCallReturnLabel_344
          CFI R24 Frame(CFA_Y, -10)
          CFI R25 Frame(CFA_Y, -9)
          CFI R26 Frame(CFA_Y, -8)
          CFI R27 Frame(CFA_Y, -7)
          CFI R4 Frame(CFA_Y, -6)
          CFI R5 Frame(CFA_Y, -5)
          CFI R6 Frame(CFA_Y, -4)
          CFI R7 Frame(CFA_Y, -3)
          CFI R8 Frame(CFA_Y, -2)
          CFI R9 Frame(CFA_Y, -1)
          CFI CFA_SP SP+4
          CFI CFA_Y Y+10
          CFI Block cfiCond248 Using cfiCommon0
          CFI (cfiCond248) Function coding
          CFI (cfiCond248) Conditional ??CrossCallReturnLabel_345
          CFI (cfiCond248) R24 Frame(CFA_Y, -10)
          CFI (cfiCond248) R25 Frame(CFA_Y, -9)
          CFI (cfiCond248) R26 Frame(CFA_Y, -8)
          CFI (cfiCond248) R27 Frame(CFA_Y, -7)
          CFI (cfiCond248) R4 Frame(CFA_Y, -6)
          CFI (cfiCond248) R5 Frame(CFA_Y, -5)
          CFI (cfiCond248) R6 Frame(CFA_Y, -4)
          CFI (cfiCond248) R7 Frame(CFA_Y, -3)
          CFI (cfiCond248) R8 Frame(CFA_Y, -2)
          CFI (cfiCond248) R9 Frame(CFA_Y, -1)
          CFI (cfiCond248) CFA_SP SP+4
          CFI (cfiCond248) CFA_Y Y+10
          CFI Block cfiCond249 Using cfiCommon0
          CFI (cfiCond249) Function coding
          CFI (cfiCond249) Conditional ??CrossCallReturnLabel_346
          CFI (cfiCond249) R24 Frame(CFA_Y, -10)
          CFI (cfiCond249) R25 Frame(CFA_Y, -9)
          CFI (cfiCond249) R26 Frame(CFA_Y, -8)
          CFI (cfiCond249) R27 Frame(CFA_Y, -7)
          CFI (cfiCond249) R4 Frame(CFA_Y, -6)
          CFI (cfiCond249) R5 Frame(CFA_Y, -5)
          CFI (cfiCond249) R6 Frame(CFA_Y, -4)
          CFI (cfiCond249) R7 Frame(CFA_Y, -3)
          CFI (cfiCond249) R8 Frame(CFA_Y, -2)
          CFI (cfiCond249) R9 Frame(CFA_Y, -1)
          CFI (cfiCond249) CFA_SP SP+4
          CFI (cfiCond249) CFA_Y Y+10
          CFI Block cfiCond250 Using cfiCommon0
          CFI (cfiCond250) Function coding
          CFI (cfiCond250) Conditional ??CrossCallReturnLabel_347
          CFI (cfiCond250) R24 Frame(CFA_Y, -10)
          CFI (cfiCond250) R25 Frame(CFA_Y, -9)
          CFI (cfiCond250) R26 Frame(CFA_Y, -8)
          CFI (cfiCond250) R27 Frame(CFA_Y, -7)
          CFI (cfiCond250) R4 Frame(CFA_Y, -6)
          CFI (cfiCond250) R5 Frame(CFA_Y, -5)
          CFI (cfiCond250) R6 Frame(CFA_Y, -4)
          CFI (cfiCond250) R7 Frame(CFA_Y, -3)
          CFI (cfiCond250) R8 Frame(CFA_Y, -2)
          CFI (cfiCond250) R9 Frame(CFA_Y, -1)
          CFI (cfiCond250) CFA_SP SP+4
          CFI (cfiCond250) CFA_Y Y+10
          CFI Block cfiCond251 Using cfiCommon0
          CFI (cfiCond251) Function coding
          CFI (cfiCond251) Conditional ??CrossCallReturnLabel_348
          CFI (cfiCond251) R24 Frame(CFA_Y, -10)
          CFI (cfiCond251) R25 Frame(CFA_Y, -9)
          CFI (cfiCond251) R26 Frame(CFA_Y, -8)
          CFI (cfiCond251) R27 Frame(CFA_Y, -7)
          CFI (cfiCond251) R4 Frame(CFA_Y, -6)
          CFI (cfiCond251) R5 Frame(CFA_Y, -5)
          CFI (cfiCond251) R6 Frame(CFA_Y, -4)
          CFI (cfiCond251) R7 Frame(CFA_Y, -3)
          CFI (cfiCond251) R8 Frame(CFA_Y, -2)
          CFI (cfiCond251) R9 Frame(CFA_Y, -1)
          CFI (cfiCond251) CFA_SP SP+4
          CFI (cfiCond251) CFA_Y Y+10
          CFI Block cfiPicker252 Using cfiCommon2
          CFI (cfiPicker252) NoFunction
          CFI (cfiPicker252) Picker
        ADD     R16, R24
        ADC     R17, R25
          CFI EndBlock cfiCond247
          CFI EndBlock cfiCond248
          CFI EndBlock cfiCond249
          CFI EndBlock cfiCond250
          CFI EndBlock cfiCond251
          CFI EndBlock cfiPicker252
        REQUIRE ??Subroutine142_0
        ;               // Fall through to label ??Subroutine142_0

        RSEG CODE:CODE:NOROOT(1)
??Subroutine142_0:
          CFI Block cfiCond253 Using cfiCommon0
          CFI Function analiz_INT
          CFI Conditional ??CrossCallReturnLabel_333
          CFI CFA_SP SP+4
          CFI Block cfiCond254 Using cfiCommon0
          CFI (cfiCond254) Function analiz_INT
          CFI (cfiCond254) Conditional ??CrossCallReturnLabel_334
          CFI (cfiCond254) CFA_SP SP+4
          CFI Block cfiCond255 Using cfiCommon0
          CFI (cfiCond255) Function PEREP
          CFI (cfiCond255) Conditional ??CrossCallReturnLabel_335
          CFI (cfiCond255) R24 Frame(CFA_Y, -8)
          CFI (cfiCond255) R25 Frame(CFA_Y, -7)
          CFI (cfiCond255) R26 Frame(CFA_Y, -6)
          CFI (cfiCond255) R27 Frame(CFA_Y, -5)
          CFI (cfiCond255) R4 Frame(CFA_Y, -4)
          CFI (cfiCond255) R5 Frame(CFA_Y, -3)
          CFI (cfiCond255) R6 Frame(CFA_Y, -2)
          CFI (cfiCond255) R7 Frame(CFA_Y, -1)
          CFI (cfiCond255) CFA_SP SP+4
          CFI (cfiCond255) CFA_Y Y+8
          CFI Block cfiCond256 Using cfiCommon0
          CFI (cfiCond256) Function PEREP
          CFI (cfiCond256) Conditional ??CrossCallReturnLabel_336
          CFI (cfiCond256) R24 Frame(CFA_Y, -8)
          CFI (cfiCond256) R25 Frame(CFA_Y, -7)
          CFI (cfiCond256) R26 Frame(CFA_Y, -6)
          CFI (cfiCond256) R27 Frame(CFA_Y, -5)
          CFI (cfiCond256) R4 Frame(CFA_Y, -4)
          CFI (cfiCond256) R5 Frame(CFA_Y, -3)
          CFI (cfiCond256) R6 Frame(CFA_Y, -2)
          CFI (cfiCond256) R7 Frame(CFA_Y, -1)
          CFI (cfiCond256) CFA_SP SP+4
          CFI (cfiCond256) CFA_Y Y+8
          CFI Block cfiCond257 Using cfiCommon0
          CFI (cfiCond257) Function coding
          CFI (cfiCond257) Conditional ??CrossCallReturnLabel_337
          CFI (cfiCond257) R24 Frame(CFA_Y, -10)
          CFI (cfiCond257) R25 Frame(CFA_Y, -9)
          CFI (cfiCond257) R26 Frame(CFA_Y, -8)
          CFI (cfiCond257) R27 Frame(CFA_Y, -7)
          CFI (cfiCond257) R4 Frame(CFA_Y, -6)
          CFI (cfiCond257) R5 Frame(CFA_Y, -5)
          CFI (cfiCond257) R6 Frame(CFA_Y, -4)
          CFI (cfiCond257) R7 Frame(CFA_Y, -3)
          CFI (cfiCond257) R8 Frame(CFA_Y, -2)
          CFI (cfiCond257) R9 Frame(CFA_Y, -1)
          CFI (cfiCond257) CFA_SP SP+4
          CFI (cfiCond257) CFA_Y Y+10
          CFI Block cfiCond258 Using cfiCommon0
          CFI (cfiCond258) Function coding
          CFI (cfiCond258) Conditional ??CrossCallReturnLabel_338
          CFI (cfiCond258) R24 Frame(CFA_Y, -10)
          CFI (cfiCond258) R25 Frame(CFA_Y, -9)
          CFI (cfiCond258) R26 Frame(CFA_Y, -8)
          CFI (cfiCond258) R27 Frame(CFA_Y, -7)
          CFI (cfiCond258) R4 Frame(CFA_Y, -6)
          CFI (cfiCond258) R5 Frame(CFA_Y, -5)
          CFI (cfiCond258) R6 Frame(CFA_Y, -4)
          CFI (cfiCond258) R7 Frame(CFA_Y, -3)
          CFI (cfiCond258) R8 Frame(CFA_Y, -2)
          CFI (cfiCond258) R9 Frame(CFA_Y, -1)
          CFI (cfiCond258) CFA_SP SP+4
          CFI (cfiCond258) CFA_Y Y+10
          CFI Block cfiCond259 Using cfiCommon0
          CFI (cfiCond259) Function coding
          CFI (cfiCond259) Conditional ??CrossCallReturnLabel_339
          CFI (cfiCond259) R24 Frame(CFA_Y, -10)
          CFI (cfiCond259) R25 Frame(CFA_Y, -9)
          CFI (cfiCond259) R26 Frame(CFA_Y, -8)
          CFI (cfiCond259) R27 Frame(CFA_Y, -7)
          CFI (cfiCond259) R4 Frame(CFA_Y, -6)
          CFI (cfiCond259) R5 Frame(CFA_Y, -5)
          CFI (cfiCond259) R6 Frame(CFA_Y, -4)
          CFI (cfiCond259) R7 Frame(CFA_Y, -3)
          CFI (cfiCond259) R8 Frame(CFA_Y, -2)
          CFI (cfiCond259) R9 Frame(CFA_Y, -1)
          CFI (cfiCond259) CFA_SP SP+4
          CFI (cfiCond259) CFA_Y Y+10
          CFI Block cfiCond260 Using cfiCommon0
          CFI (cfiCond260) Function coding
          CFI (cfiCond260) Conditional ??CrossCallReturnLabel_340
          CFI (cfiCond260) R24 Frame(CFA_Y, -10)
          CFI (cfiCond260) R25 Frame(CFA_Y, -9)
          CFI (cfiCond260) R26 Frame(CFA_Y, -8)
          CFI (cfiCond260) R27 Frame(CFA_Y, -7)
          CFI (cfiCond260) R4 Frame(CFA_Y, -6)
          CFI (cfiCond260) R5 Frame(CFA_Y, -5)
          CFI (cfiCond260) R6 Frame(CFA_Y, -4)
          CFI (cfiCond260) R7 Frame(CFA_Y, -3)
          CFI (cfiCond260) R8 Frame(CFA_Y, -2)
          CFI (cfiCond260) R9 Frame(CFA_Y, -1)
          CFI (cfiCond260) CFA_SP SP+4
          CFI (cfiCond260) CFA_Y Y+10
          CFI Block cfiCond261 Using cfiCommon0
          CFI (cfiCond261) Function main_logic
          CFI (cfiCond261) Conditional ??CrossCallReturnLabel_341
          CFI (cfiCond261) CFA_SP SP+4
          CFI Block cfiCond262 Using cfiCommon0
          CFI (cfiCond262) Function pult
          CFI (cfiCond262) Conditional ??CrossCallReturnLabel_342
          CFI (cfiCond262) CFA_SP SP+4
          CFI Block cfiCond263 Using cfiCommon0
          CFI (cfiCond263) Function normal
          CFI (cfiCond263) Conditional ??CrossCallReturnLabel_343
          CFI (cfiCond263) R24 Frame(CFA_Y, -1)
          CFI (cfiCond263) CFA_SP SP+4
          CFI (cfiCond263) CFA_Y Y+1
          CFI Block cfiCond264 Using cfiCommon0
          CFI (cfiCond264) Function coding
          CFI (cfiCond264) Conditional ??CrossCallReturnLabel_344
          CFI (cfiCond264) R24 Frame(CFA_Y, -10)
          CFI (cfiCond264) R25 Frame(CFA_Y, -9)
          CFI (cfiCond264) R26 Frame(CFA_Y, -8)
          CFI (cfiCond264) R27 Frame(CFA_Y, -7)
          CFI (cfiCond264) R4 Frame(CFA_Y, -6)
          CFI (cfiCond264) R5 Frame(CFA_Y, -5)
          CFI (cfiCond264) R6 Frame(CFA_Y, -4)
          CFI (cfiCond264) R7 Frame(CFA_Y, -3)
          CFI (cfiCond264) R8 Frame(CFA_Y, -2)
          CFI (cfiCond264) R9 Frame(CFA_Y, -1)
          CFI (cfiCond264) CFA_SP SP+4
          CFI (cfiCond264) CFA_Y Y+10
          CFI Block cfiCond265 Using cfiCommon0
          CFI (cfiCond265) Function coding
          CFI (cfiCond265) Conditional ??CrossCallReturnLabel_345
          CFI (cfiCond265) R24 Frame(CFA_Y, -10)
          CFI (cfiCond265) R25 Frame(CFA_Y, -9)
          CFI (cfiCond265) R26 Frame(CFA_Y, -8)
          CFI (cfiCond265) R27 Frame(CFA_Y, -7)
          CFI (cfiCond265) R4 Frame(CFA_Y, -6)
          CFI (cfiCond265) R5 Frame(CFA_Y, -5)
          CFI (cfiCond265) R6 Frame(CFA_Y, -4)
          CFI (cfiCond265) R7 Frame(CFA_Y, -3)
          CFI (cfiCond265) R8 Frame(CFA_Y, -2)
          CFI (cfiCond265) R9 Frame(CFA_Y, -1)
          CFI (cfiCond265) CFA_SP SP+4
          CFI (cfiCond265) CFA_Y Y+10
          CFI Block cfiCond266 Using cfiCommon0
          CFI (cfiCond266) Function coding
          CFI (cfiCond266) Conditional ??CrossCallReturnLabel_346
          CFI (cfiCond266) R24 Frame(CFA_Y, -10)
          CFI (cfiCond266) R25 Frame(CFA_Y, -9)
          CFI (cfiCond266) R26 Frame(CFA_Y, -8)
          CFI (cfiCond266) R27 Frame(CFA_Y, -7)
          CFI (cfiCond266) R4 Frame(CFA_Y, -6)
          CFI (cfiCond266) R5 Frame(CFA_Y, -5)
          CFI (cfiCond266) R6 Frame(CFA_Y, -4)
          CFI (cfiCond266) R7 Frame(CFA_Y, -3)
          CFI (cfiCond266) R8 Frame(CFA_Y, -2)
          CFI (cfiCond266) R9 Frame(CFA_Y, -1)
          CFI (cfiCond266) CFA_SP SP+4
          CFI (cfiCond266) CFA_Y Y+10
          CFI Block cfiCond267 Using cfiCommon0
          CFI (cfiCond267) Function coding
          CFI (cfiCond267) Conditional ??CrossCallReturnLabel_347
          CFI (cfiCond267) R24 Frame(CFA_Y, -10)
          CFI (cfiCond267) R25 Frame(CFA_Y, -9)
          CFI (cfiCond267) R26 Frame(CFA_Y, -8)
          CFI (cfiCond267) R27 Frame(CFA_Y, -7)
          CFI (cfiCond267) R4 Frame(CFA_Y, -6)
          CFI (cfiCond267) R5 Frame(CFA_Y, -5)
          CFI (cfiCond267) R6 Frame(CFA_Y, -4)
          CFI (cfiCond267) R7 Frame(CFA_Y, -3)
          CFI (cfiCond267) R8 Frame(CFA_Y, -2)
          CFI (cfiCond267) R9 Frame(CFA_Y, -1)
          CFI (cfiCond267) CFA_SP SP+4
          CFI (cfiCond267) CFA_Y Y+10
          CFI Block cfiCond268 Using cfiCommon0
          CFI (cfiCond268) Function coding
          CFI (cfiCond268) Conditional ??CrossCallReturnLabel_348
          CFI (cfiCond268) R24 Frame(CFA_Y, -10)
          CFI (cfiCond268) R25 Frame(CFA_Y, -9)
          CFI (cfiCond268) R26 Frame(CFA_Y, -8)
          CFI (cfiCond268) R27 Frame(CFA_Y, -7)
          CFI (cfiCond268) R4 Frame(CFA_Y, -6)
          CFI (cfiCond268) R5 Frame(CFA_Y, -5)
          CFI (cfiCond268) R6 Frame(CFA_Y, -4)
          CFI (cfiCond268) R7 Frame(CFA_Y, -3)
          CFI (cfiCond268) R8 Frame(CFA_Y, -2)
          CFI (cfiCond268) R9 Frame(CFA_Y, -1)
          CFI (cfiCond268) CFA_SP SP+4
          CFI (cfiCond268) CFA_Y Y+10
          CFI Block cfiPicker269 Using cfiCommon2
          CFI (cfiPicker269) NoFunction
          CFI (cfiPicker269) Picker
        ST      Z, R16
        STD     Z+1, R17
        RET
          CFI EndBlock cfiCond253
          CFI EndBlock cfiCond254
          CFI EndBlock cfiCond255
          CFI EndBlock cfiCond256
          CFI EndBlock cfiCond257
          CFI EndBlock cfiCond258
          CFI EndBlock cfiCond259
          CFI EndBlock cfiCond260
          CFI EndBlock cfiCond261
          CFI EndBlock cfiCond262
          CFI EndBlock cfiCond263
          CFI EndBlock cfiCond264
          CFI EndBlock cfiCond265
          CFI EndBlock cfiCond266
          CFI EndBlock cfiCond267
          CFI EndBlock cfiCond268
          CFI EndBlock cfiPicker269

        RSEG CODE:CODE:NOROOT(1)
?Subroutine18:
          CFI Block cfiCond270 Using cfiCommon0
          CFI Function main_logic
          CFI Conditional ??CrossCallReturnLabel_22
          CFI CFA_SP SP+4
          CFI Block cfiCond271 Using cfiCommon0
          CFI (cfiCond271) Function main_logic
          CFI (cfiCond271) Conditional ??CrossCallReturnLabel_23
          CFI (cfiCond271) CFA_SP SP+4
          CFI Block cfiPicker272 Using cfiCommon2
          CFI (cfiPicker272) NoFunction
          CFI (cfiPicker272) Picker
        RCALL   rprintfStr
        LDS     R16, pultadr
        RCALL   ?Subroutine90
??CrossCallReturnLabel_310:
        RJMP    ?Subroutine104
          CFI EndBlock cfiCond270
          CFI EndBlock cfiCond271
          CFI EndBlock cfiPicker272

        RSEG CODE:CODE:NOROOT(1)
?Subroutine9:
          CFI Block cfiCond273 Using cfiCommon0
          CFI Function normal
          CFI Conditional ??CrossCallReturnLabel_358
          CFI R24 Frame(CFA_Y, -1)
          CFI CFA_SP SP+4
          CFI CFA_Y Y+1
          CFI Block cfiCond274 Using cfiCommon0
          CFI (cfiCond274) Function normal
          CFI (cfiCond274) Conditional ??CrossCallReturnLabel_359
          CFI (cfiCond274) R24 Frame(CFA_Y, -1)
          CFI (cfiCond274) CFA_SP SP+4
          CFI (cfiCond274) CFA_Y Y+1
          CFI Block cfiPicker275 Using cfiCommon2
          CFI (cfiPicker275) NoFunction
          CFI (cfiPicker275) Picker
        STS     mute, R16
          CFI EndBlock cfiCond273
          CFI EndBlock cfiCond274
          CFI EndBlock cfiPicker275
        REQUIRE ?Subroutine124
        REQUIRE ??Subroutine143_0
        ;               // Fall through to label ??Subroutine143_0

        RSEG CODE:CODE:NOROOT(1)
??Subroutine143_0:
          CFI Block cfiCond276 Using cfiCommon0
          CFI Function normal
          CFI Conditional ??CrossCallReturnLabel_360
          CFI R24 Frame(CFA_Y, -1)
          CFI CFA_SP SP+4
          CFI CFA_Y Y+1
          CFI Block cfiCond277 Using cfiCommon0
          CFI (cfiCond277) Function normal
          CFI (cfiCond277) Conditional ??CrossCallReturnLabel_358
          CFI (cfiCond277) R24 Frame(CFA_Y, -1)
          CFI (cfiCond277) CFA_SP SP+4
          CFI (cfiCond277) CFA_Y Y+1
          CFI Block cfiCond278 Using cfiCommon0
          CFI (cfiCond278) Function normal
          CFI (cfiCond278) Conditional ??CrossCallReturnLabel_359
          CFI (cfiCond278) R24 Frame(CFA_Y, -1)
          CFI (cfiCond278) CFA_SP SP+4
          CFI (cfiCond278) CFA_Y Y+1
          CFI Block cfiPicker279 Using cfiCommon2
          CFI (cfiPicker279) NoFunction
          CFI (cfiPicker279) Picker
        RCALL   ?Subroutine119
          CFI EndBlock cfiCond276
          CFI EndBlock cfiCond277
          CFI EndBlock cfiCond278
          CFI EndBlock cfiPicker279
??CrossCallReturnLabel_355:
        REQUIRE ?Subroutine124
        REQUIRE ??Subroutine144_0
        ;               // Fall through to label ??Subroutine144_0

        RSEG CODE:CODE:NOROOT(1)
??Subroutine144_0:
          CFI Block cfiCond280 Using cfiCommon0
          CFI Function main
          CFI Conditional ??CrossCallReturnLabel_364
          CFI R24 Frame(CFA_Y, -1)
          CFI CFA_SP SP+4
          CFI CFA_Y Y+1
          CFI Block cfiCond281 Using cfiCommon0
          CFI (cfiCond281) Function main_logic
          CFI (cfiCond281) Conditional ??CrossCallReturnLabel_365
          CFI (cfiCond281) CFA_SP SP+4
          CFI Block cfiCond282 Using cfiCommon0
          CFI (cfiCond282) Function main_logic
          CFI (cfiCond282) Conditional ??CrossCallReturnLabel_366
          CFI (cfiCond282) CFA_SP SP+4
          CFI Block cfiCond283 Using cfiCommon0
          CFI (cfiCond283) Function normal
          CFI (cfiCond283) Conditional ??CrossCallReturnLabel_367
          CFI (cfiCond283) R24 Frame(CFA_Y, -1)
          CFI (cfiCond283) CFA_SP SP+4
          CFI (cfiCond283) CFA_Y Y+1
          CFI Block cfiCond284 Using cfiCommon0
          CFI (cfiCond284) Function normal
          CFI (cfiCond284) Conditional ??CrossCallReturnLabel_368
          CFI (cfiCond284) R24 Frame(CFA_Y, -1)
          CFI (cfiCond284) CFA_SP SP+4
          CFI (cfiCond284) CFA_Y Y+1
          CFI Block cfiCond285 Using cfiCommon0
          CFI (cfiCond285) Function normal
          CFI (cfiCond285) Conditional ??CrossCallReturnLabel_369
          CFI (cfiCond285) R24 Frame(CFA_Y, -1)
          CFI (cfiCond285) CFA_SP SP+4
          CFI (cfiCond285) CFA_Y Y+1
          CFI Block cfiCond286 Using cfiCommon0
          CFI (cfiCond286) Function normal
          CFI (cfiCond286) Conditional ??CrossCallReturnLabel_370
          CFI (cfiCond286) R24 Frame(CFA_Y, -1)
          CFI (cfiCond286) CFA_SP SP+4
          CFI (cfiCond286) CFA_Y Y+1
          CFI Block cfiCond287 Using cfiCommon0
          CFI (cfiCond287) Function normal
          CFI (cfiCond287) Conditional ??CrossCallReturnLabel_371
          CFI (cfiCond287) R24 Frame(CFA_Y, -1)
          CFI (cfiCond287) CFA_SP SP+4
          CFI (cfiCond287) CFA_Y Y+1
          CFI Block cfiCond288 Using cfiCommon0
          CFI (cfiCond288) Function normal
          CFI (cfiCond288) Conditional ??CrossCallReturnLabel_360
          CFI (cfiCond288) R24 Frame(CFA_Y, -1)
          CFI (cfiCond288) CFA_SP SP+4
          CFI (cfiCond288) CFA_Y Y+1
          CFI Block cfiCond289 Using cfiCommon0
          CFI (cfiCond289) Function normal
          CFI (cfiCond289) Conditional ??CrossCallReturnLabel_358
          CFI (cfiCond289) R24 Frame(CFA_Y, -1)
          CFI (cfiCond289) CFA_SP SP+4
          CFI (cfiCond289) CFA_Y Y+1
          CFI Block cfiCond290 Using cfiCommon0
          CFI (cfiCond290) Function normal
          CFI (cfiCond290) Conditional ??CrossCallReturnLabel_359
          CFI (cfiCond290) R24 Frame(CFA_Y, -1)
          CFI (cfiCond290) CFA_SP SP+4
          CFI (cfiCond290) CFA_Y Y+1
          CFI Block cfiPicker291 Using cfiCommon2
          CFI (cfiPicker291) NoFunction
          CFI (cfiPicker291) Picker
        LDI     R16, 0
          CFI EndBlock cfiCond280
          CFI EndBlock cfiCond281
          CFI EndBlock cfiCond282
          CFI EndBlock cfiCond283
          CFI EndBlock cfiCond284
          CFI EndBlock cfiCond285
          CFI EndBlock cfiCond286
          CFI EndBlock cfiCond287
          CFI EndBlock cfiCond288
          CFI EndBlock cfiCond289
          CFI EndBlock cfiCond290
          CFI EndBlock cfiPicker291
        REQUIRE ?Subroutine124
        ;               // Fall through to label ?Subroutine124

        RSEG CODE:CODE:NOROOT(1)
?Subroutine124:
          CFI Block cfiCond292 Using cfiCommon0
          CFI Function normal
          CFI Conditional ??CrossCallReturnLabel_358
          CFI R24 Frame(CFA_Y, -1)
          CFI CFA_SP SP+4
          CFI CFA_Y Y+1
          CFI Block cfiCond293 Using cfiCommon0
          CFI (cfiCond293) Function normal
          CFI (cfiCond293) Conditional ??CrossCallReturnLabel_359
          CFI (cfiCond293) R24 Frame(CFA_Y, -1)
          CFI (cfiCond293) CFA_SP SP+4
          CFI (cfiCond293) CFA_Y Y+1
          CFI Block cfiCond294 Using cfiCommon0
          CFI (cfiCond294) Function normal
          CFI (cfiCond294) Conditional ??CrossCallReturnLabel_360
          CFI (cfiCond294) R24 Frame(CFA_Y, -1)
          CFI (cfiCond294) CFA_SP SP+4
          CFI (cfiCond294) CFA_Y Y+1
          CFI Block cfiCond295 Using cfiCommon0
          CFI (cfiCond295) Function main
          CFI (cfiCond295) Conditional ??CrossCallReturnLabel_364
          CFI (cfiCond295) R24 Frame(CFA_Y, -1)
          CFI (cfiCond295) CFA_SP SP+4
          CFI (cfiCond295) CFA_Y Y+1
          CFI Block cfiCond296 Using cfiCommon0
          CFI (cfiCond296) Function main_logic
          CFI (cfiCond296) Conditional ??CrossCallReturnLabel_365
          CFI (cfiCond296) CFA_SP SP+4
          CFI Block cfiCond297 Using cfiCommon0
          CFI (cfiCond297) Function main_logic
          CFI (cfiCond297) Conditional ??CrossCallReturnLabel_366
          CFI (cfiCond297) CFA_SP SP+4
          CFI Block cfiCond298 Using cfiCommon0
          CFI (cfiCond298) Function normal
          CFI (cfiCond298) Conditional ??CrossCallReturnLabel_367
          CFI (cfiCond298) R24 Frame(CFA_Y, -1)
          CFI (cfiCond298) CFA_SP SP+4
          CFI (cfiCond298) CFA_Y Y+1
          CFI Block cfiCond299 Using cfiCommon0
          CFI (cfiCond299) Function normal
          CFI (cfiCond299) Conditional ??CrossCallReturnLabel_368
          CFI (cfiCond299) R24 Frame(CFA_Y, -1)
          CFI (cfiCond299) CFA_SP SP+4
          CFI (cfiCond299) CFA_Y Y+1
          CFI Block cfiCond300 Using cfiCommon0
          CFI (cfiCond300) Function normal
          CFI (cfiCond300) Conditional ??CrossCallReturnLabel_369
          CFI (cfiCond300) R24 Frame(CFA_Y, -1)
          CFI (cfiCond300) CFA_SP SP+4
          CFI (cfiCond300) CFA_Y Y+1
          CFI Block cfiCond301 Using cfiCommon0
          CFI (cfiCond301) Function normal
          CFI (cfiCond301) Conditional ??CrossCallReturnLabel_370
          CFI (cfiCond301) R24 Frame(CFA_Y, -1)
          CFI (cfiCond301) CFA_SP SP+4
          CFI (cfiCond301) CFA_Y Y+1
          CFI Block cfiCond302 Using cfiCommon0
          CFI (cfiCond302) Function normal
          CFI (cfiCond302) Conditional ??CrossCallReturnLabel_371
          CFI (cfiCond302) R24 Frame(CFA_Y, -1)
          CFI (cfiCond302) CFA_SP SP+4
          CFI (cfiCond302) CFA_Y Y+1
          CFI Block cfiCond303 Using cfiCommon0
          CFI (cfiCond303) Function main
          CFI (cfiCond303) Conditional ??CrossCallReturnLabel_356
          CFI (cfiCond303) R24 Frame(CFA_Y, -1)
          CFI (cfiCond303) CFA_SP SP+4
          CFI (cfiCond303) CFA_Y Y+1
          CFI Block cfiCond304 Using cfiCommon0
          CFI (cfiCond304) Function normal
          CFI (cfiCond304) Conditional ??CrossCallReturnLabel_357
          CFI (cfiCond304) R24 Frame(CFA_Y, -1)
          CFI (cfiCond304) CFA_SP SP+4
          CFI (cfiCond304) CFA_Y Y+1
          CFI Block cfiCond305 Using cfiCommon0
          CFI (cfiCond305) Function main_logic
          CFI (cfiCond305) Conditional ??CrossCallReturnLabel_361
          CFI (cfiCond305) CFA_SP SP+4
          CFI Block cfiCond306 Using cfiCommon0
          CFI (cfiCond306) Function normal
          CFI (cfiCond306) Conditional ??CrossCallReturnLabel_362
          CFI (cfiCond306) R24 Frame(CFA_Y, -1)
          CFI (cfiCond306) CFA_SP SP+4
          CFI (cfiCond306) CFA_Y Y+1
          CFI Block cfiCond307 Using cfiCommon0
          CFI (cfiCond307) Function normal
          CFI (cfiCond307) Conditional ??CrossCallReturnLabel_363
          CFI (cfiCond307) R24 Frame(CFA_Y, -1)
          CFI (cfiCond307) CFA_SP SP+4
          CFI (cfiCond307) CFA_Y Y+1
          CFI Block cfiPicker308 Using cfiCommon2
          CFI (cfiPicker308) NoFunction
          CFI (cfiPicker308) Picker
        STS     pultadr, R16
        RET
          CFI EndBlock cfiCond292
          CFI EndBlock cfiCond293
          CFI EndBlock cfiCond294
          CFI EndBlock cfiCond295
          CFI EndBlock cfiCond296
          CFI EndBlock cfiCond297
          CFI EndBlock cfiCond298
          CFI EndBlock cfiCond299
          CFI EndBlock cfiCond300
          CFI EndBlock cfiCond301
          CFI EndBlock cfiCond302
          CFI EndBlock cfiCond303
          CFI EndBlock cfiCond304
          CFI EndBlock cfiCond305
          CFI EndBlock cfiCond306
          CFI EndBlock cfiCond307
          CFI EndBlock cfiPicker308
//  149 
//  150 
//  151 
//  152 
//  153 
//  154 
//  155 
//  156  
//  157 

        RSEG CODE:CODE:NOROOT(1)
//  158 uchar getadr()//адреса  команд
getadr:
          CFI Block cfiBlock309 Using cfiCommon0
          CFI Function getadr
//  159 {
//  160   uchar adr=0;
        LDI     R16, 0
//  161   if (tekfunc==0) {adr=1; SET(PORTB,0);}//s1
        LDS     R17, tekfunc
        TST     R17
        BRNE    ??getadr_0
        LDI     R16, 1
        RJMP    ??getadr_1
//  162   if (tekfunc==1) {adr=5; SET(PORTB,1);}
??getadr_0:
        CPI     R17, 1
        BRNE    ??getadr_2
        LDI     R16, 5
        RJMP    ??getadr_3
//  163   if (tekfunc==2) {adr=10;SET(PORTB,2);}
??getadr_2:
        CPI     R17, 2
        BRNE    ??getadr_4
        LDI     R16, 10
        RJMP    ??getadr_5
//  164   if (tekfunc==3) {adr=15;SET(PORTB,3);}
??getadr_4:
        CPI     R17, 3
        BRNE    ??getadr_6
        LDI     R16, 15
        RJMP    ??getadr_7
//  165   if (tekfunc==4) {adr=20;SET(PORTB,4);}//s5 или ONтыл
??getadr_6:
        CPI     R17, 4
        BRNE    ??getadr_8
        LDI     R16, 20
        RJMP    ??getadr_9
//  166   if (tekfunc==5) {adr=55;SET(PORTB,0);SET(PORTB,2);SET(PORTB,4);}//command return
??getadr_8:
        CPI     R17, 5
        BRNE    ??getadr_10
        LDI     R16, 55
        RJMP    ??getadr_11
//  167   if (tekfunc==6) {adr=25;SET(PORTD,7);}//on standby
??getadr_10:
        CPI     R17, 6
        BRNE    ??getadr_12
        LDI     R16, 25
        RJMP    ??getadr_13
//  168   if (tekfunc==7) {adr=30;SET(PORTB,5);}//aoff
??getadr_12:
        CPI     R17, 7
        BRNE    ??getadr_14
        LDI     R16, 30
        RJMP    ??getadr_15
//  169   if (tekfunc==8) {adr=35;AC_ON;}//mute
??getadr_14:
        CPI     R17, 8
        BRNE    ??getadr_16
        LDI     R16, 35
        RJMP    ??getadr_17
//  170   if (tekfunc==9) {adr=40; }//select
??getadr_16:
        CPI     R17, 9
        BRNE    ??getadr_18
        LDI     R16, 40
        RET
//  171   if (tekfunc==10) {adr=45; }//громкость увеличить
??getadr_18:
        CPI     R17, 10
        BRNE    ??getadr_19
        LDI     R16, 45
        RET
//  172   if (tekfunc==11) {adr=50; }//громкость уменьшить
??getadr_19:
        CPI     R17, 11
        BRNE    ??getadr_20
        LDI     R16, 50
        RET
//  173   
//  174   //дублирование команд
//  175    if (tekfunc==12) {adr=60; SET(PORTB,0);}//s1
??getadr_20:
        CPI     R17, 12
        BRNE    ??getadr_21
        LDI     R16, 60
??getadr_1:
        SBI     0x18, 0x00
        RET
//  176   if (tekfunc==13) {adr=65; SET(PORTB,1);}
??getadr_21:
        CPI     R17, 13
        BRNE    ??getadr_22
        LDI     R16, 65
??getadr_3:
        SBI     0x18, 0x01
        RET
//  177   if (tekfunc==14) {adr=70;SET(PORTB,2);}
??getadr_22:
        CPI     R17, 14
        BRNE    ??getadr_23
        LDI     R16, 70
??getadr_5:
        SBI     0x18, 0x02
        RET
//  178   if (tekfunc==15) {adr=75;SET(PORTB,3);}
??getadr_23:
        CPI     R17, 15
        BRNE    ??getadr_24
        LDI     R16, 75
??getadr_7:
        RJMP    ?Subroutine129
//  179   if (tekfunc==16) {adr=80;SET(PORTB,4);}//s5 или ONтыл
??getadr_24:
        CPI     R17, 16
        BRNE    ??getadr_25
        LDI     R16, 80
        RJMP    ??getadr_9
//  180   if (tekfunc==17) {adr=85;SET(PORTB,0);SET(PORTB,2);SET(PORTB,4);}//command return
??getadr_25:
        CPI     R17, 17
        BRNE    ??getadr_26
        LDI     R16, 85
??getadr_11:
        SBI     0x18, 0x00
        SBI     0x18, 0x02
??getadr_9:
        SBI     0x18, 0x04
        RET
//  181   if (tekfunc==18) {adr=90;SET(PORTD,7);}//on standby
??getadr_26:
        CPI     R17, 18
        BRNE    ??getadr_27
        LDI     R16, 90
??getadr_13:
        RJMP    ?Subroutine130
//  182   if (tekfunc==19) {adr=95;SET(PORTB,5);}//aoff
??getadr_27:
        CPI     R17, 19
        BRNE    ??getadr_28
        LDI     R16, 95
??getadr_15:
        SBI     0x18, 0x05
        RET
//  183   if (tekfunc==20) {adr=100;AC_ON;}//mute
??getadr_28:
        CPI     R17, 20
        BRNE    ??getadr_29
        LDI     R16, 100
??getadr_17:
        SBI     0x12, 0x06
        RET
//  184   if (tekfunc==21) {adr=105; }//select
??getadr_29:
        CPI     R17, 21
        BRNE    ??getadr_30
        LDI     R16, 105
        RET
//  185   if (tekfunc==22) {adr=110; }//громкость увеличить
??getadr_30:
        CPI     R17, 22
        BRNE    ??getadr_31
        LDI     R16, 110
        RET
//  186   if (tekfunc==23) {adr=115; }//громкость уменьшить
??getadr_31:
        CPI     R17, 23
        BRNE    ??getadr_32
        LDI     R16, 115
//  187   return(adr);
??getadr_32:
        RET
          CFI EndBlock cfiBlock309
        REQUIRE _A_PORTB
        REQUIRE _A_PORTD
//  188 }

        RSEG CODE:CODE:NOROOT(1)
?Subroutine130:
          CFI Block cfiBlock310 Using cfiCommon0
          CFI NoFunction
        SBI     0x12, 0x07
        RET
          CFI EndBlock cfiBlock310
//  189 
//  190 

        RSEG CODE:CODE:NOROOT(1)
//  191 void pult() 
pult:
          CFI Block cfiBlock311 Using cfiCommon0
          CFI Function pult
//  192 {
//  193    tON=1500; zader=1;timerzad=0; source(); p2;   //время включения АС при переключениях
        FUNCALL pult, source
        LOCFRAME CSTACK, 0, STACK
        LOCFRAME RSTACK, 2, STACK
        ARGFRAME RSTACK, 0, STACK
        LDI     R16, 220
        LDI     R17, 5
        LDI     R30, LOW(tON)
        LDI     R31, (tON) >> 8
        RCALL   ??Subroutine142_0
??CrossCallReturnLabel_342:
        RCALL   ?Subroutine3
??CrossCallReturnLabel_8:
        RJMP    ?Subroutine76
          CFI EndBlock cfiBlock311
//  194 }

        RSEG CODE:CODE:NOROOT(1)
?Subroutine3:
          CFI Block cfiCond312 Using cfiCommon0
          CFI Function main_logic
          CFI Conditional ??CrossCallReturnLabel_9
          CFI CFA_SP SP+4
          CFI Block cfiCond313 Using cfiCommon0
          CFI (cfiCond313) Function pult
          CFI (cfiCond313) Conditional ??CrossCallReturnLabel_8
          CFI (cfiCond313) CFA_SP SP+4
          CFI Block cfiPicker314 Using cfiCommon2
          CFI (cfiPicker314) NoFunction
          CFI (cfiPicker314) Picker
        LDI     R16, 1
        RCALL   ?Subroutine113
??CrossCallReturnLabel_218:
        LDI     R16, 0
        LDI     R30, LOW(timerzad)
        LDI     R31, (timerzad) >> 8
        RCALL   ?Subroutine93
??CrossCallReturnLabel_155:
        RJMP    source
          CFI EndBlock cfiCond312
          CFI EndBlock cfiCond313
          CFI EndBlock cfiPicker314
//  195 

        RSEG CODE:CODE:NOROOT(1)
//  196 void normal(uchar rez)//-----------------------главная логика --------------------
normal:
          CFI Block cfiBlock315 Using cfiCommon0
          CFI Function normal
//  197 {   
        FUNCALL normal, migWORK
        LOCFRAME CSTACK, 1, STACK
        LOCFRAME RSTACK, 2, STACK
        ARGFRAME RSTACK, 0, STACK
        FUNCALL normal, analizCOD
        LOCFRAME CSTACK, 1, STACK
        LOCFRAME RSTACK, 2, STACK
        ARGFRAME RSTACK, 0, STACK
        FUNCALL normal, rprintfStr
        LOCFRAME CSTACK, 1, STACK
        LOCFRAME RSTACK, 2, STACK
        ARGFRAME RSTACK, 0, STACK
        FUNCALL normal, USART_SendChar
        LOCFRAME CSTACK, 1, STACK
        LOCFRAME RSTACK, 2, STACK
        ARGFRAME RSTACK, 0, STACK
        FUNCALL normal, rprintfStr
        LOCFRAME CSTACK, 1, STACK
        LOCFRAME RSTACK, 2, STACK
        ARGFRAME RSTACK, 0, STACK
        FUNCALL normal, rprintfFloat
        LOCFRAME CSTACK, 1, STACK
        LOCFRAME RSTACK, 2, STACK
        ARGFRAME RSTACK, 0, STACK
        FUNCALL normal, USART_SendChar
        LOCFRAME CSTACK, 1, STACK
        LOCFRAME RSTACK, 2, STACK
        ARGFRAME RSTACK, 0, STACK
        FUNCALL normal, pult
        LOCFRAME CSTACK, 1, STACK
        LOCFRAME RSTACK, 2, STACK
        ARGFRAME RSTACK, 0, STACK
        FUNCALL normal, migINI
        LOCFRAME CSTACK, 1, STACK
        LOCFRAME RSTACK, 2, STACK
        ARGFRAME RSTACK, 0, STACK
        FUNCALL normal, pult
        LOCFRAME CSTACK, 1, STACK
        LOCFRAME RSTACK, 2, STACK
        ARGFRAME RSTACK, 0, STACK
        FUNCALL normal, migINI
        LOCFRAME CSTACK, 1, STACK
        LOCFRAME RSTACK, 2, STACK
        ARGFRAME RSTACK, 0, STACK
        FUNCALL normal, pult
        LOCFRAME CSTACK, 1, STACK
        LOCFRAME RSTACK, 2, STACK
        ARGFRAME RSTACK, 0, STACK
        FUNCALL normal, migINI
        LOCFRAME CSTACK, 1, STACK
        LOCFRAME RSTACK, 2, STACK
        ARGFRAME RSTACK, 0, STACK
        FUNCALL normal, pult
        LOCFRAME CSTACK, 1, STACK
        LOCFRAME RSTACK, 2, STACK
        ARGFRAME RSTACK, 0, STACK
        FUNCALL normal, migINI
        LOCFRAME CSTACK, 1, STACK
        LOCFRAME RSTACK, 2, STACK
        ARGFRAME RSTACK, 0, STACK
        FUNCALL normal, pult
        LOCFRAME CSTACK, 1, STACK
        LOCFRAME RSTACK, 2, STACK
        ARGFRAME RSTACK, 0, STACK
        FUNCALL normal, migINI
        LOCFRAME CSTACK, 1, STACK
        LOCFRAME RSTACK, 2, STACK
        ARGFRAME RSTACK, 0, STACK
        FUNCALL normal, TimerSet
        LOCFRAME CSTACK, 1, STACK
        LOCFRAME RSTACK, 2, STACK
        ARGFRAME RSTACK, 0, STACK
        FUNCALL normal, TimerSet
        LOCFRAME CSTACK, 1, STACK
        LOCFRAME RSTACK, 2, STACK
        ARGFRAME RSTACK, 0, STACK
        FUNCALL normal, TimerSet
        LOCFRAME CSTACK, 1, STACK
        LOCFRAME RSTACK, 2, STACK
        ARGFRAME RSTACK, 0, STACK
        FUNCALL normal, TimerTick
        LOCFRAME CSTACK, 1, STACK
        LOCFRAME RSTACK, 2, STACK
        ARGFRAME RSTACK, 0, STACK
        FUNCALL normal, pult
        LOCFRAME CSTACK, 1, STACK
        LOCFRAME RSTACK, 2, STACK
        ARGFRAME RSTACK, 0, STACK
        FUNCALL normal, pult
        LOCFRAME CSTACK, 1, STACK
        LOCFRAME RSTACK, 2, STACK
        ARGFRAME RSTACK, 0, STACK
        FUNCALL normal, pult
        LOCFRAME CSTACK, 1, STACK
        LOCFRAME RSTACK, 2, STACK
        ARGFRAME RSTACK, 0, STACK
        FUNCALL normal, gro
        LOCFRAME CSTACK, 1, STACK
        LOCFRAME RSTACK, 2, STACK
        ARGFRAME RSTACK, 0, STACK
        FUNCALL normal, gro
        LOCFRAME CSTACK, 1, STACK
        LOCFRAME RSTACK, 2, STACK
        ARGFRAME RSTACK, 0, STACK
        ST      -Y, R24
          CFI R24 Frame(CFA_Y, -1)
          CFI CFA_Y Y+1
        MOV     R24, R16
//  198    pultadr=0; 
        RCALL   ??Subroutine144_0
//  199   
//  200    migWORK();
??CrossCallReturnLabel_367:
        RCALL   migWORK
//  201    
//  202   
//  203    if (rez)
        TST     R24
        BRNE    $+2+2
        RJMP    ??CrossCallReturnLabel_89
//  204    {//если есть команда с пульта
//  205      
//  206      pultadr=analizCOD();
        RCALL   ?Subroutine74
//  207      
//  208      if (pultadr==0){  RES(PORTD,7); delay_ms(100); SET(PORTD,7);
??CrossCallReturnLabel_357:
        TST     R16
        BRNE    ??normal_0
        CBI     0x12, 0x07
        RCALL   ?Subroutine63
??CrossCallReturnLabel_88:
        SBI     0x12, 0x07
//  209       rprintfStr("normal>no find command ");  ent;}
        LDI     R16, LOW(`?<Constant "normal>no find command ">`)
        LDI     R17, (`?<Constant "normal>no find command ">`) >> 8
        RCALL   rprintfStr
        RJMP    ??CrossCallReturnLabel_312
//  210      else { rprintfStr("normal>command find  adr= ");
??normal_0:
        LDI     R16, LOW(`?<Constant "normal>command find  ...">`)
        LDI     R17, (`?<Constant "normal>command find  ...">`) >> 8
        RCALL   rprintfStr
//  211       rprintfFloat(6, pultadr ); ent;}
        RCALL   ?Subroutine72
??CrossCallReturnLabel_105:
        RCALL   ?Subroutine19
??CrossCallReturnLabel_312:
        RCALL   ?Subroutine120
//  212      
//  213      if (pultadr==1 || pultadr==60) {if (sel!=1)  { AC_OFF; lastsel=sel; sel=1; pult(); } else   migINI(sel-1, 3 ,0); 
??CrossCallReturnLabel_241:
        RCALL   ?Subroutine72
??CrossCallReturnLabel_106:
        CPI     R16, 1
        BREQ    ??normal_1
        CPI     R16, 60
        BRNE    ??normal_2
??normal_1:
        RCALL   ?Subroutine126
??CrossCallReturnLabel_257:
        CPI     R16, 1
        BREQ    ??normal_3
        RCALL   ?Subroutine69
??CrossCallReturnLabel_92:
        LDI     R16, 1
        RCALL   ?Subroutine78
??CrossCallReturnLabel_125:
        RJMP    ??normal_2
??normal_3:
        RCALL   ?Subroutine44
//  214  }
??CrossCallReturnLabel_48:
        LDI     R16, 0
        RCALL   migINI
//  215      if (pultadr==5 || pultadr==65) {if (sel!=2)  {AC_OFF; lastsel=sel;sel=2; pult(); }  else  migINI(sel-1, 3 ,0); 
??normal_2:
        RCALL   ?Subroutine72
??CrossCallReturnLabel_107:
        CPI     R16, 5
        BREQ    ??normal_4
        CPI     R16, 65
        BRNE    ??normal_5
??normal_4:
        RCALL   ?Subroutine126
??CrossCallReturnLabel_258:
        CPI     R16, 2
        BREQ    ??normal_6
        RCALL   ?Subroutine69
??CrossCallReturnLabel_93:
        LDI     R16, 2
        RCALL   ?Subroutine78
??CrossCallReturnLabel_124:
        RJMP    ??normal_5
??normal_6:
        RCALL   ?Subroutine44
//  216 }
??CrossCallReturnLabel_49:
        LDI     R16, 1
        RCALL   migINI
//  217      if (pultadr==10 || pultadr==70) {if (sel!=3) {AC_OFF; lastsel=sel;sel=3; pult(); } else    migINI(sel-1, 3 ,0); 
??normal_5:
        RCALL   ?Subroutine72
??CrossCallReturnLabel_108:
        CPI     R16, 10
        BREQ    ??normal_7
        CPI     R16, 70
        BRNE    ??normal_8
??normal_7:
        RCALL   ?Subroutine126
??CrossCallReturnLabel_259:
        CPI     R16, 3
        BREQ    ??normal_9
        RCALL   ?Subroutine69
??CrossCallReturnLabel_94:
        LDI     R16, 3
        RCALL   ?Subroutine78
??CrossCallReturnLabel_123:
        RJMP    ??normal_8
??normal_9:
        RCALL   ?Subroutine44
//  218 }
??CrossCallReturnLabel_50:
        LDI     R16, 2
        RCALL   migINI
//  219      if (pultadr==15 || pultadr==75) {if (sel!=4) {AC_OFF; lastsel=sel;sel=4; pult(); } else   migINI(sel-1, 3 ,0); 
??normal_8:
        RCALL   ?Subroutine72
??CrossCallReturnLabel_109:
        CPI     R16, 15
        BREQ    ??normal_10
        CPI     R16, 75
        BRNE    ??normal_11
??normal_10:
        RCALL   ?Subroutine126
??CrossCallReturnLabel_260:
        CPI     R16, 4
        BREQ    ??normal_12
        RCALL   ?Subroutine69
??CrossCallReturnLabel_95:
        LDI     R16, 4
        RCALL   ?Subroutine78
??CrossCallReturnLabel_122:
        RJMP    ??normal_11
??normal_12:
        RCALL   ?Subroutine44
//  220  }
??CrossCallReturnLabel_51:
        LDI     R16, 3
        RCALL   migINI
//  221      if ((pultadr==20  || pultadr==80) && mode!=1) { if (sel!=5) {AC_OFF; lastsel=sel;sel=5; pult();}  else  migINI(sel-1, 3 ,0); 
??normal_11:
        RCALL   ?Subroutine72
??CrossCallReturnLabel_110:
        CPI     R16, 20
        BREQ    ??normal_13
        CPI     R16, 80
        BRNE    ??normal_14
??normal_13:
        RCALL   ?Subroutine67
??CrossCallReturnLabel_289:
        BREQ    ??normal_15
        RCALL   ?Subroutine126
??CrossCallReturnLabel_261:
        CPI     R16, 5
        BREQ    ??normal_16
        RCALL   ?Subroutine69
??CrossCallReturnLabel_96:
        LDI     R16, 5
        RCALL   ?Subroutine78
??CrossCallReturnLabel_121:
        RJMP    ??normal_15
??normal_16:
        RCALL   ?Subroutine44
//  222 }
??CrossCallReturnLabel_52:
        LDI     R16, 4
        RCALL   migINI
//  223      
//  224      
//  225      //тыловые  ------------------------------------------------------
//  226      if ((  pultadr==20  || pultadr==80) && mode==1) {  
??normal_15:
        RCALL   ?Subroutine72
??CrossCallReturnLabel_111:
        CPI     R16, 20
        BREQ    ??normal_17
??normal_14:
        RCALL   ?Subroutine72
??CrossCallReturnLabel_112:
        CPI     R16, 80
        BRNE    ??CrossCallReturnLabel_89
??normal_17:
        RCALL   ?Subroutine67
??CrossCallReturnLabel_290:
        BRNE    ??CrossCallReturnLabel_89
//  227          
//  228        if (til==0) { SET(PORTC,5);til=1;  
        LDS     R16, til
        TST     R16
        BRNE    ??normal_18
        SBI     0x15, 0x05
        LDI     R16, 1
        STS     til, R16
//  229                for (uchar i=0; i<2; i++) {SET(PORTB,4);p2;RES(PORTB,4);p2;}  SET(PORTB,4);  pultadr=0;  p1;}
        LDI     R16, 2
??normal_19:
        SBI     0x18, 0x04
        RCALL   ?Subroutine114
??CrossCallReturnLabel_221:
        CBI     0x18, 0x04
        RCALL   ?Subroutine114
??CrossCallReturnLabel_222:
        DEC     R16
        BRNE    ??normal_19
        SBI     0x18, 0x04
        LDI     R16, 0
        RJMP    ??normal_20
//  230        else 
//  231        if (til==1) {   RES(PORTC,5); RES(PORTB,4); til=0; pultadr=0; p1; }
??normal_18:
        CBI     0x15, 0x05
        CBI     0x18, 0x04
        LDI     R16, 0
        STS     til, R16
??normal_20:
        RCALL   ?Subroutine124
??CrossCallReturnLabel_362:
        RCALL   ?Subroutine63
//  232      
//  233                                                      }
//  234    }//если есть команда с пульта
//  235    
//  236   //--------------- mute -------------------
//  237   if (mute==1) AC_OFF; else { if (zader==0) AC_ON; }
??CrossCallReturnLabel_89:
        RCALL   ?Subroutine81
??CrossCallReturnLabel_279:
        BRNE    $+2+2
        RJMP    ??normal_21
        CBI     0x12, 0x06
//  238   if (zader==1) {timerzad++;  if (timerzad> tON)  {zader=0;timerzad=0; if (mute!=1)AC_ON;} }//задержка включения
??normal_22:
        LDS     R16, zader
        TST     R16
        BREQ    ??normal_23
        LDI     R30, LOW(timerzad)
        LDI     R31, (timerzad) >> 8
        RCALL   ?Subroutine99
??CrossCallReturnLabel_172:
        SUBI    R16, 255
        SBCI    R17, 255
        RCALL   ??Subroutine142_0
??CrossCallReturnLabel_343:
        LDI     R30, LOW(tON)
        LDI     R31, (tON) >> 8
        RCALL   ?Subroutine99
??CrossCallReturnLabel_173:
        LDI     R30, LOW(timerzad)
        LDI     R31, (timerzad) >> 8
        RCALL   ?Subroutine123
??CrossCallReturnLabel_245:
        CP      R16, R18
        CPC     R17, R19
        BRCC    ??normal_23
        LDI     R16, 0
        RCALL   ?Subroutine113
??CrossCallReturnLabel_217:
        RCALL   ?Subroutine93
??CrossCallReturnLabel_154:
        RCALL   ?Subroutine81
??CrossCallReturnLabel_280:
        BRNE    ??normal_23
??normal_24:
        SBI     0x12, 0x06
//  239   
//  240    if ((keyMUTE ||pultadr==35 || pultadr==100) && mute==0) { AC_OFF; mute=1; p5; pultadr=0;}
??normal_23:
        SBIC    0x10, 0x01
        RJMP    ??normal_25
        SBIS    0x10, 0x05
        RJMP    ??normal_26
??normal_25:
        RCALL   ?Subroutine72
??CrossCallReturnLabel_113:
        CPI     R16, 35
        BREQ    ??normal_26
        CPI     R16, 100
        BRNE    ??CrossCallReturnLabel_358
??normal_26:
        RCALL   ?Subroutine81
??CrossCallReturnLabel_281:
        BRNE    ??CrossCallReturnLabel_358
        CBI     0x12, 0x06
        LDI     R16, 1
        RCALL   ?Subroutine9
//  241    if ((keyMUTE ||pultadr==35 || pultadr==100) && mute==1) { AC_ON; mute=0; p5; pultadr=0; }   
??CrossCallReturnLabel_358:
        SBIC    0x10, 0x01
        RJMP    ??normal_27
        SBIS    0x10, 0x05
        RJMP    ??normal_28
??normal_27:
        RCALL   ?Subroutine72
??CrossCallReturnLabel_114:
        CPI     R16, 35
        BREQ    ??normal_28
        CPI     R16, 100
        BRNE    ??CrossCallReturnLabel_359
??normal_28:
        RCALL   ?Subroutine81
??CrossCallReturnLabel_282:
        BREQ    ??CrossCallReturnLabel_359
        SBI     0x12, 0x06
        LDI     R16, 0
        RCALL   ?Subroutine9
//  242    
//  243    
//  244   //--------------- aoff --------------------
//  245  
//  246    
//  247    if ((keyAOFF || pultadr==30 || pultadr==95) && aoff==1 && regaoff>=3)  {  RES(PORTB,5);  p5; aoff=0; regaoff=0; pultadr=0;}//отмена aoff 
??CrossCallReturnLabel_359:
        SBIC    0x10, 0x00
        RJMP    ??normal_29
        SBIS    0x10, 0x05
        RJMP    ??normal_30
??normal_29:
        RCALL   ?Subroutine71
??CrossCallReturnLabel_99:
        BREQ    ??normal_30
        CPI     R16, 95
        BRNE    ??CrossCallReturnLabel_363
??normal_30:
        LDS     R16, aoff
        TST     R16
        BREQ    ??CrossCallReturnLabel_363
        RCALL   ?Subroutine83
??CrossCallReturnLabel_134:
        CPI     R16, 3
        BRCS    ??CrossCallReturnLabel_363
        CBI     0x18, 0x05
        RCALL   ?Subroutine106
??CrossCallReturnLabel_201:
        RCALL   ?Subroutine108
??CrossCallReturnLabel_204:
        RCALL   ?Subroutine125
??CrossCallReturnLabel_251:
        RCALL   ?Subroutine124
//  248    
//  249   if ((keyAOFF || pultadr==30 || pultadr==95) && regaoff==0) { aoff=1; regaoff++;  TimerSet(&tm1,60*60*2)/*2 часа*/; pultadr=0;  for (uchar i=0; i<3; i++)  {SET(PORTB,5);p2;RES(PORTB,5);p2;}  SET(PORTB,5); }
??CrossCallReturnLabel_363:
        SBIC    0x10, 0x00
        RJMP    ??normal_31
        SBIS    0x10, 0x05
        RJMP    ??normal_32
??normal_31:
        RCALL   ?Subroutine71
??CrossCallReturnLabel_100:
        BREQ    ??normal_32
        CPI     R16, 95
        BRNE    ??normal_33
??normal_32:
        RCALL   ?Subroutine83
??CrossCallReturnLabel_135:
        TST     R16
        BRNE    ??normal_33
        RCALL   ?Subroutine8
??CrossCallReturnLabel_205:
        RCALL   ?Subroutine125
??CrossCallReturnLabel_252:
        LDI     R18, 32
        LDI     R19, 28
        RCALL   ?Subroutine82
??CrossCallReturnLabel_133:
        RCALL   ??Subroutine144_0
??CrossCallReturnLabel_368:
        LDI     R16, 3
??normal_34:
        RCALL   ?Subroutine17
??CrossCallReturnLabel_20:
        BRNE    ??normal_34
        SBI     0x18, 0x05
//  250   if ((keyAOFF || pultadr==30 || pultadr==95) && regaoff==1) { aoff=1; regaoff++; TimerSet(&tm1,60*60*1)/*1 часа*/; pultadr=0; for (uchar i=0; i<2; i++)  {SET(PORTB,5);p2;RES(PORTB,5);p2;}  SET(PORTB,5); }
??normal_33:
        SBIC    0x10, 0x00
        RJMP    ??normal_35
        SBIS    0x10, 0x05
        RJMP    ??normal_36
??normal_35:
        RCALL   ?Subroutine71
??CrossCallReturnLabel_101:
        BREQ    ??normal_36
        CPI     R16, 95
        BRNE    ??normal_37
??normal_36:
        RCALL   ?Subroutine83
??CrossCallReturnLabel_136:
        CPI     R16, 1
        BRNE    ??normal_37
        RCALL   ?Subroutine8
??CrossCallReturnLabel_206:
        LDI     R16, 2
        RCALL   ?Subroutine125
??CrossCallReturnLabel_253:
        LDI     R18, 16
        LDI     R19, 14
        RCALL   ?Subroutine82
??CrossCallReturnLabel_132:
        RCALL   ??Subroutine144_0
??CrossCallReturnLabel_369:
        LDI     R16, 2
??normal_38:
        RCALL   ?Subroutine17
??CrossCallReturnLabel_21:
        BRNE    ??normal_38
        SBI     0x18, 0x05
//  251   if ((keyAOFF || pultadr==30 || pultadr==95) && regaoff==2) { aoff=1; regaoff++; TimerSet(&tm1,60*60*0.5)/*0.5 часа*/; pultadr=0; for (uchar i=0; i<1; i++)  {SET(PORTB,5);p2;RES(PORTB,5);p2;}  SET(PORTB,5); }
??normal_37:
        SBIC    0x10, 0x00
        RJMP    ??normal_39
        SBIS    0x10, 0x05
        RJMP    ??normal_40
??normal_39:
        RCALL   ?Subroutine71
??CrossCallReturnLabel_102:
        BREQ    ??normal_40
        CPI     R16, 95
        BRNE    ??normal_41
??normal_40:
        RCALL   ?Subroutine83
??CrossCallReturnLabel_137:
        CPI     R16, 2
        BRNE    ??normal_41
        RCALL   ?Subroutine8
??CrossCallReturnLabel_207:
        LDI     R16, 3
        RCALL   ?Subroutine125
??CrossCallReturnLabel_254:
        LDI     R18, 8
        LDI     R19, 7
        RCALL   ?Subroutine82
??CrossCallReturnLabel_131:
        RCALL   ??Subroutine144_0
??CrossCallReturnLabel_370:
        SBI     0x18, 0x05
        RCALL   ?Subroutine76
??CrossCallReturnLabel_117:
        CBI     0x18, 0x05
        RCALL   ?Subroutine76
??CrossCallReturnLabel_118:
        SBI     0x18, 0x05
//  252   
//  253    
//  254  //  if ((keyAOFF || pultadr==30 || pultadr==95) && aoff==0) 
//  255  //     {   aoff=1;  iniT1(60*60*2)/*2 часа*/; pultadr=0;
//  256  //         for (uchar i=0; i<2; i++)  {SET(PORTB,5);p2;RES(PORTB,5);p2;}  SET(PORTB,5);
//  257   //   
//  258   //        
//  259  //         for (uint i=0; i<1000; i++)
//  260  //         {   char rez=du_main(0);  if (rez==1) { pultadr=analizCOD();break; }}
//  261  //         
//  262   //    //если user продолжает удерживать
//  263   //    if ((keyAOFF || pultadr==30 || pultadr==95) ) { iniT1(60*30);/*30 мин*/
//  264  //      for (uchar i=0; i<4; i++)  {SET(PORTB,5);p2;p2;p2;p2;p2;RES(PORTB,5);p2;}  SET(PORTB,5);
//  265   //                                    }
//  266   //    
//  267    //   }
//  268                                                         
//  269    
//  270   
//  271  
//  272   if (aoff==1)  {   TimerTick(&tm1); if (tm1.out) { on=0; onok=0;  aoff=0; p5; zader=0; regaoff=0;}
??normal_41:
        LDS     R16, aoff
        TST     R16
        BREQ    ??CrossCallReturnLabel_250
        LDI     R16, LOW(tm1)
        LDI     R17, (tm1) >> 8
        RCALL   TimerTick
        LDS     R16, (tm1 + 6)
        TST     R16
        BREQ    ??CrossCallReturnLabel_250
        RCALL   ?Subroutine15
??CrossCallReturnLabel_19:
        RCALL   ?Subroutine16
//  273                 } 
//  274                 
//  275  //--------------- select -------------------
//  276                 if ( u!=1) {//что бы во время работы UART не срабатывал
??CrossCallReturnLabel_250:
        LDS     R16, u
        TST     R16
        BRNE    ??normal_42
//  277    uchar kol;  if  (mode==1) kol=4; else kol=5;
        RCALL   ?Subroutine67
??CrossCallReturnLabel_291:
        BRNE    ??normal_43
        LDI     R16, 4
        RJMP    ??normal_44
??normal_21:
        LDS     R16, zader
        TST     R16
        BREQ    $+2+2
        RJMP    ??normal_22
        RJMP    ??normal_24
??normal_43:
        LDI     R16, 5
//  278    if (keySEL ||pultadr==40 || pultadr==105) 
??normal_44:
        SBIC    0x10, 0x01
        RJMP    ??normal_45
        SBIC    0x10, 0x05
        RJMP    ??normal_46
??normal_45:
        LDS     R17, pultadr
        CPI     R17, 40
        BREQ    ??normal_46
        CPI     R17, 105
        BRNE    ??CrossCallReturnLabel_120
//  279                 { 
//  280                         if (sel<=(kol-1)) { AC_OFF; p2; RES(PORTB,(sel-1));lastsel=sel; sel++; pult(); } 
??normal_46:
        DEC     R16
        LDS     R17, ??sel
        CP      R16, R17
        CBI     0x12, 0x06
        BRCS    ??normal_47
        RCALL   ?Subroutine76
??CrossCallReturnLabel_119:
        RCALL   ?Subroutine4
??CrossCallReturnLabel_255:
        STS     ??lastsel, R16
        INC     R16
        RJMP    ??normal_48
//  281                        else { AC_OFF;  RES(PORTB,(sel-1)); sel=1; pult(); }
??normal_47:
        LDS     R20, ??sel
        DEC     R20
        RCALL   ?Subroutine88
??CrossCallReturnLabel_295:
        LDI     R16, 1
//  282               
//  283                 }
??normal_48:
        RCALL   ?Subroutine78
//  284                          
//  285   //--------------- return sel -------------------  возврат в предыдущий source                 
//  286    if ( pultadr==55 || pultadr==85) {
??CrossCallReturnLabel_120:
        RCALL   ?Subroutine72
??CrossCallReturnLabel_115:
        CPI     R16, 55
        BREQ    ??normal_49
        CPI     R16, 85
        BRNE    ??normal_42
//  287      
//  288      if (sel!=lastsel) {
??normal_49:
        RCALL   ?Subroutine126
??CrossCallReturnLabel_262:
        LDS     R17, ??lastsel
        CP      R16, R17
        BREQ    ??normal_42
//  289        AC_OFF;  RES(PORTB,(sel-1)); uchar tmp1=sel; sel=lastsel;  lastsel=tmp1; pultadr=0;  pult();
        CBI     0x12, 0x06
        RCALL   ?Subroutine4
??CrossCallReturnLabel_256:
        LDS     R17, ??lastsel
        STS     ??sel, R17
        STS     ??lastsel, R16
        RCALL   ??Subroutine144_0
??CrossCallReturnLabel_371:
        RCALL   pult
//  290      }
//  291                                       }
//  292               
//  293                           }//что бы во время работы UART не срабатывал
//  294                            
//  295                           
//  296                  
//  297  //--------------- ГРОМКОСТЬ -------------------
//  298    if (pultadr==45 || pultadr==110) { gro(1); p5;  pultadr=0; }  
??normal_42:
        RCALL   ?Subroutine72
??CrossCallReturnLabel_116:
        CPI     R16, 45
        BREQ    ??normal_50
        CPI     R16, 110
        BRNE    ??normal_51
??normal_50:
        LDI     R16, 1
        RJMP    ??normal_52
//  299    if (pultadr==50 || pultadr==115) { gro(2); p5;  pultadr=0; }  
??normal_51:
        CPI     R16, 50
        BREQ    ??normal_53
        CPI     R16, 115
        BRNE    ??CrossCallReturnLabel_360
??normal_53:
        LDI     R16, 2
??normal_52:
        RCALL   gro
        RCALL   ??Subroutine143_0
//  300    
//  301    
//  302                 
//  303  
//  304                           
//  305                           
//  306    
//  307    
//  308 }
??CrossCallReturnLabel_360:
        RJMP    ?Subroutine127
          CFI EndBlock cfiBlock315
        REQUIRE _A_PORTD
        REQUIRE _A_PORTC
        REQUIRE _A_PORTB
        REQUIRE _A_PIND

        RSEG CODE:CODE:NOROOT(1)
?Subroutine113:
          CFI Block cfiCond316 Using cfiCommon0
          CFI Function main
          CFI Conditional ??CrossCallReturnLabel_220, ??CrossCallReturnLabel_90
          CFI R24 Frame(CFA_Y, -1)
          CFI CFA_SP SP+6
          CFI CFA_Y Y+1
          CFI Block cfiCond317 Using cfiCommon0
          CFI (cfiCond317) Function main_logic
          CFI (cfiCond317) Conditional ??CrossCallReturnLabel_220, ??CrossCallReturnLabel_91
          CFI (cfiCond317) CFA_SP SP+6
          CFI Block cfiCond318 Using cfiCommon0
          CFI (cfiCond318) Function main_logic
          CFI (cfiCond318) Conditional ??CrossCallReturnLabel_218, ??CrossCallReturnLabel_9
          CFI (cfiCond318) CFA_SP SP+6
          CFI Block cfiCond319 Using cfiCommon0
          CFI (cfiCond319) Function pult
          CFI (cfiCond319) Conditional ??CrossCallReturnLabel_218, ??CrossCallReturnLabel_8
          CFI (cfiCond319) CFA_SP SP+6
          CFI Block cfiCond320 Using cfiCommon0
          CFI (cfiCond320) Function normal
          CFI (cfiCond320) Conditional ??CrossCallReturnLabel_217
          CFI (cfiCond320) R24 Frame(CFA_Y, -1)
          CFI (cfiCond320) CFA_SP SP+4
          CFI (cfiCond320) CFA_Y Y+1
          CFI Block cfiCond321 Using cfiCommon0
          CFI (cfiCond321) Function main_logic
          CFI (cfiCond321) Conditional ??CrossCallReturnLabel_219, ??CrossCallReturnLabel_249
          CFI (cfiCond321) CFA_SP SP+6
          CFI Block cfiCond322 Using cfiCommon0
          CFI (cfiCond322) Function normal
          CFI (cfiCond322) Conditional ??CrossCallReturnLabel_219, ??CrossCallReturnLabel_250
          CFI (cfiCond322) R24 Frame(CFA_Y, -1)
          CFI (cfiCond322) CFA_SP SP+6
          CFI (cfiCond322) CFA_Y Y+1
          CFI Block cfiPicker323 Using cfiCommon2
          CFI (cfiPicker323) NoFunction
          CFI (cfiPicker323) Picker
        STS     zader, R16
        RET
          CFI EndBlock cfiCond316
          CFI EndBlock cfiCond317
          CFI EndBlock cfiCond318
          CFI EndBlock cfiCond319
          CFI EndBlock cfiCond320
          CFI EndBlock cfiCond321
          CFI EndBlock cfiCond322
          CFI EndBlock cfiPicker323

        RSEG CODE:CODE:NOROOT(1)
?Subroutine83:
          CFI Block cfiCond324 Using cfiCommon0
          CFI Function normal
          CFI Conditional ??CrossCallReturnLabel_134
          CFI R24 Frame(CFA_Y, -1)
          CFI CFA_SP SP+4
          CFI CFA_Y Y+1
          CFI Block cfiCond325 Using cfiCommon0
          CFI (cfiCond325) Function normal
          CFI (cfiCond325) Conditional ??CrossCallReturnLabel_135
          CFI (cfiCond325) R24 Frame(CFA_Y, -1)
          CFI (cfiCond325) CFA_SP SP+4
          CFI (cfiCond325) CFA_Y Y+1
          CFI Block cfiCond326 Using cfiCommon0
          CFI (cfiCond326) Function normal
          CFI (cfiCond326) Conditional ??CrossCallReturnLabel_136
          CFI (cfiCond326) R24 Frame(CFA_Y, -1)
          CFI (cfiCond326) CFA_SP SP+4
          CFI (cfiCond326) CFA_Y Y+1
          CFI Block cfiCond327 Using cfiCommon0
          CFI (cfiCond327) Function normal
          CFI (cfiCond327) Conditional ??CrossCallReturnLabel_137
          CFI (cfiCond327) R24 Frame(CFA_Y, -1)
          CFI (cfiCond327) CFA_SP SP+4
          CFI (cfiCond327) CFA_Y Y+1
          CFI Block cfiPicker328 Using cfiCommon2
          CFI (cfiPicker328) NoFunction
          CFI (cfiPicker328) Picker
        LDS     R16, ??regaoff
        RET
          CFI EndBlock cfiCond324
          CFI EndBlock cfiCond325
          CFI EndBlock cfiCond326
          CFI EndBlock cfiCond327
          CFI EndBlock cfiPicker328

        RSEG CODE:CODE:NOROOT(1)
?Subroutine82:
          CFI Block cfiCond329 Using cfiCommon0
          CFI Function normal
          CFI Conditional ??CrossCallReturnLabel_133
          CFI R24 Frame(CFA_Y, -1)
          CFI CFA_SP SP+4
          CFI CFA_Y Y+1
          CFI Block cfiCond330 Using cfiCommon0
          CFI (cfiCond330) Function normal
          CFI (cfiCond330) Conditional ??CrossCallReturnLabel_132
          CFI (cfiCond330) R24 Frame(CFA_Y, -1)
          CFI (cfiCond330) CFA_SP SP+4
          CFI (cfiCond330) CFA_Y Y+1
          CFI Block cfiCond331 Using cfiCommon0
          CFI (cfiCond331) Function normal
          CFI (cfiCond331) Conditional ??CrossCallReturnLabel_131
          CFI (cfiCond331) R24 Frame(CFA_Y, -1)
          CFI (cfiCond331) CFA_SP SP+4
          CFI (cfiCond331) CFA_Y Y+1
          CFI Block cfiPicker332 Using cfiCommon2
          CFI (cfiPicker332) NoFunction
          CFI (cfiPicker332) Picker
        LDI     R16, LOW(tm1)
        LDI     R17, (tm1) >> 8
        RJMP    TimerSet
          CFI EndBlock cfiCond329
          CFI EndBlock cfiCond330
          CFI EndBlock cfiCond331
          CFI EndBlock cfiPicker332

        RSEG CODE:CODE:NOROOT(1)
?Subroutine81:
          CFI Block cfiCond333 Using cfiCommon0
          CFI Function normal
          CFI Conditional ??CrossCallReturnLabel_279
          CFI R24 Frame(CFA_Y, -1)
          CFI CFA_SP SP+4
          CFI CFA_Y Y+1
          CFI Block cfiCond334 Using cfiCommon0
          CFI (cfiCond334) Function normal
          CFI (cfiCond334) Conditional ??CrossCallReturnLabel_280
          CFI (cfiCond334) R24 Frame(CFA_Y, -1)
          CFI (cfiCond334) CFA_SP SP+4
          CFI (cfiCond334) CFA_Y Y+1
          CFI Block cfiCond335 Using cfiCommon0
          CFI (cfiCond335) Function normal
          CFI (cfiCond335) Conditional ??CrossCallReturnLabel_281
          CFI (cfiCond335) R24 Frame(CFA_Y, -1)
          CFI (cfiCond335) CFA_SP SP+4
          CFI (cfiCond335) CFA_Y Y+1
          CFI Block cfiCond336 Using cfiCommon0
          CFI (cfiCond336) Function normal
          CFI (cfiCond336) Conditional ??CrossCallReturnLabel_282
          CFI (cfiCond336) R24 Frame(CFA_Y, -1)
          CFI (cfiCond336) CFA_SP SP+4
          CFI (cfiCond336) CFA_Y Y+1
          CFI Block cfiPicker337 Using cfiCommon2
          CFI (cfiPicker337) NoFunction
          CFI (cfiPicker337) Picker
        LDS     R16, mute
        RJMP    ?Subroutine128
          CFI EndBlock cfiCond333
          CFI EndBlock cfiCond334
          CFI EndBlock cfiCond335
          CFI EndBlock cfiCond336
          CFI EndBlock cfiPicker337

        RSEG CODE:CODE:NOROOT(1)
?Subroutine114:
          CFI Block cfiCond338 Using cfiCommon0
          CFI Function normal
          CFI Conditional ??CrossCallReturnLabel_221
          CFI R24 Frame(CFA_Y, -1)
          CFI CFA_SP SP+4
          CFI CFA_Y Y+1
          CFI Block cfiCond339 Using cfiCommon0
          CFI (cfiCond339) Function normal
          CFI (cfiCond339) Conditional ??CrossCallReturnLabel_222
          CFI (cfiCond339) R24 Frame(CFA_Y, -1)
          CFI (cfiCond339) CFA_SP SP+4
          CFI (cfiCond339) CFA_Y Y+1
          CFI Block cfiCond340 Using cfiCommon0
          CFI (cfiCond340) Function normal
          CFI (cfiCond340) Conditional ??CrossCallReturnLabel_223, ??CrossCallReturnLabel_20
          CFI (cfiCond340) R24 Frame(CFA_Y, -1)
          CFI (cfiCond340) CFA_SP SP+6
          CFI (cfiCond340) CFA_Y Y+1
          CFI Block cfiCond341 Using cfiCommon0
          CFI (cfiCond341) Function normal
          CFI (cfiCond341) Conditional ??CrossCallReturnLabel_223, ??CrossCallReturnLabel_21
          CFI (cfiCond341) R24 Frame(CFA_Y, -1)
          CFI (cfiCond341) CFA_SP SP+6
          CFI (cfiCond341) CFA_Y Y+1
          CFI Block cfiCond342 Using cfiCommon0
          CFI (cfiCond342) Function normal
          CFI (cfiCond342) Conditional ??CrossCallReturnLabel_224, ??CrossCallReturnLabel_20
          CFI (cfiCond342) R24 Frame(CFA_Y, -1)
          CFI (cfiCond342) CFA_SP SP+6
          CFI (cfiCond342) CFA_Y Y+1
          CFI Block cfiCond343 Using cfiCommon0
          CFI (cfiCond343) Function normal
          CFI (cfiCond343) Conditional ??CrossCallReturnLabel_224, ??CrossCallReturnLabel_21
          CFI (cfiCond343) R24 Frame(CFA_Y, -1)
          CFI (cfiCond343) CFA_SP SP+6
          CFI (cfiCond343) CFA_Y Y+1
          CFI Block cfiPicker344 Using cfiCommon2
          CFI (cfiPicker344) NoFunction
          CFI (cfiPicker344) Picker
        LDI     R20, 255
        LDI     R21, 112
        LDI     R22, 2
        SUBI    R20, 1
        SBCI    R21, 0
        SBCI    R22, 0
        BRNE    $-6
        RJMP    $+2
        NOP
        RET
          CFI EndBlock cfiCond338
          CFI EndBlock cfiCond339
          CFI EndBlock cfiCond340
          CFI EndBlock cfiCond341
          CFI EndBlock cfiCond342
          CFI EndBlock cfiCond343
          CFI EndBlock cfiPicker344

        RSEG CODE:CODE:NOROOT(1)
?Subroutine78:
          CFI Block cfiCond345 Using cfiCommon0
          CFI Function normal
          CFI Conditional ??CrossCallReturnLabel_125
          CFI R24 Frame(CFA_Y, -1)
          CFI CFA_SP SP+4
          CFI CFA_Y Y+1
          CFI Block cfiCond346 Using cfiCommon0
          CFI (cfiCond346) Function normal
          CFI (cfiCond346) Conditional ??CrossCallReturnLabel_124
          CFI (cfiCond346) R24 Frame(CFA_Y, -1)
          CFI (cfiCond346) CFA_SP SP+4
          CFI (cfiCond346) CFA_Y Y+1
          CFI Block cfiCond347 Using cfiCommon0
          CFI (cfiCond347) Function normal
          CFI (cfiCond347) Conditional ??CrossCallReturnLabel_123
          CFI (cfiCond347) R24 Frame(CFA_Y, -1)
          CFI (cfiCond347) CFA_SP SP+4
          CFI (cfiCond347) CFA_Y Y+1
          CFI Block cfiCond348 Using cfiCommon0
          CFI (cfiCond348) Function normal
          CFI (cfiCond348) Conditional ??CrossCallReturnLabel_122
          CFI (cfiCond348) R24 Frame(CFA_Y, -1)
          CFI (cfiCond348) CFA_SP SP+4
          CFI (cfiCond348) CFA_Y Y+1
          CFI Block cfiCond349 Using cfiCommon0
          CFI (cfiCond349) Function normal
          CFI (cfiCond349) Conditional ??CrossCallReturnLabel_121
          CFI (cfiCond349) R24 Frame(CFA_Y, -1)
          CFI (cfiCond349) CFA_SP SP+4
          CFI (cfiCond349) CFA_Y Y+1
          CFI Block cfiCond350 Using cfiCommon0
          CFI (cfiCond350) Function normal
          CFI (cfiCond350) Conditional ??CrossCallReturnLabel_120
          CFI (cfiCond350) R24 Frame(CFA_Y, -1)
          CFI (cfiCond350) CFA_SP SP+4
          CFI (cfiCond350) CFA_Y Y+1
          CFI Block cfiPicker351 Using cfiCommon2
          CFI (cfiPicker351) NoFunction
          CFI (cfiPicker351) Picker
        STS     ??sel, R16
        RJMP    pult
          CFI EndBlock cfiCond345
          CFI EndBlock cfiCond346
          CFI EndBlock cfiCond347
          CFI EndBlock cfiCond348
          CFI EndBlock cfiCond349
          CFI EndBlock cfiCond350
          CFI EndBlock cfiPicker351

        RSEG CODE:CODE:NOROOT(1)
?Subroutine125:
          CFI Block cfiCond352 Using cfiCommon0
          CFI Function normal
          CFI Conditional ??CrossCallReturnLabel_251
          CFI R24 Frame(CFA_Y, -1)
          CFI CFA_SP SP+4
          CFI CFA_Y Y+1
          CFI Block cfiCond353 Using cfiCommon0
          CFI (cfiCond353) Function normal
          CFI (cfiCond353) Conditional ??CrossCallReturnLabel_252
          CFI (cfiCond353) R24 Frame(CFA_Y, -1)
          CFI (cfiCond353) CFA_SP SP+4
          CFI (cfiCond353) CFA_Y Y+1
          CFI Block cfiCond354 Using cfiCommon0
          CFI (cfiCond354) Function normal
          CFI (cfiCond354) Conditional ??CrossCallReturnLabel_253
          CFI (cfiCond354) R24 Frame(CFA_Y, -1)
          CFI (cfiCond354) CFA_SP SP+4
          CFI (cfiCond354) CFA_Y Y+1
          CFI Block cfiCond355 Using cfiCommon0
          CFI (cfiCond355) Function normal
          CFI (cfiCond355) Conditional ??CrossCallReturnLabel_254
          CFI (cfiCond355) R24 Frame(CFA_Y, -1)
          CFI (cfiCond355) CFA_SP SP+4
          CFI (cfiCond355) CFA_Y Y+1
          CFI Block cfiCond356 Using cfiCommon0
          CFI (cfiCond356) Function main_logic
          CFI (cfiCond356) Conditional ??CrossCallReturnLabel_249
          CFI (cfiCond356) CFA_SP SP+4
          CFI Block cfiCond357 Using cfiCommon0
          CFI (cfiCond357) Function normal
          CFI (cfiCond357) Conditional ??CrossCallReturnLabel_250
          CFI (cfiCond357) R24 Frame(CFA_Y, -1)
          CFI (cfiCond357) CFA_SP SP+4
          CFI (cfiCond357) CFA_Y Y+1
          CFI Block cfiPicker358 Using cfiCommon2
          CFI (cfiPicker358) NoFunction
          CFI (cfiPicker358) Picker
        STS     ??regaoff, R16
        RET
          CFI EndBlock cfiCond352
          CFI EndBlock cfiCond353
          CFI EndBlock cfiCond354
          CFI EndBlock cfiCond355
          CFI EndBlock cfiCond356
          CFI EndBlock cfiCond357
          CFI EndBlock cfiPicker358

        RSEG CODE:CODE:NOROOT(1)
?Subroutine74:
          CFI Block cfiCond359 Using cfiCommon0
          CFI Function main
          CFI Conditional ??CrossCallReturnLabel_356
          CFI R24 Frame(CFA_Y, -1)
          CFI CFA_SP SP+4
          CFI CFA_Y Y+1
          CFI Block cfiCond360 Using cfiCommon0
          CFI (cfiCond360) Function normal
          CFI (cfiCond360) Conditional ??CrossCallReturnLabel_357
          CFI (cfiCond360) R24 Frame(CFA_Y, -1)
          CFI (cfiCond360) CFA_SP SP+4
          CFI (cfiCond360) CFA_Y Y+1
          CFI Block cfiPicker361 Using cfiCommon2
          CFI (cfiPicker361) NoFunction
          CFI (cfiPicker361) Picker
        RCALL   analizCOD
        RJMP    ?Subroutine124
          CFI EndBlock cfiCond359
          CFI EndBlock cfiCond360
          CFI EndBlock cfiPicker361

        RSEG CODE:CODE:NOROOT(1)
?Subroutine72:
          CFI Block cfiCond362 Using cfiCommon0
          CFI Function main_logic
          CFI Conditional ??CrossCallReturnLabel_103
          CFI CFA_SP SP+4
          CFI Block cfiCond363 Using cfiCommon0
          CFI (cfiCond363) Function main_logic
          CFI (cfiCond363) Conditional ??CrossCallReturnLabel_104
          CFI (cfiCond363) CFA_SP SP+4
          CFI Block cfiCond364 Using cfiCommon0
          CFI (cfiCond364) Function normal
          CFI (cfiCond364) Conditional ??CrossCallReturnLabel_105
          CFI (cfiCond364) R24 Frame(CFA_Y, -1)
          CFI (cfiCond364) CFA_SP SP+4
          CFI (cfiCond364) CFA_Y Y+1
          CFI Block cfiCond365 Using cfiCommon0
          CFI (cfiCond365) Function normal
          CFI (cfiCond365) Conditional ??CrossCallReturnLabel_106
          CFI (cfiCond365) R24 Frame(CFA_Y, -1)
          CFI (cfiCond365) CFA_SP SP+4
          CFI (cfiCond365) CFA_Y Y+1
          CFI Block cfiCond366 Using cfiCommon0
          CFI (cfiCond366) Function normal
          CFI (cfiCond366) Conditional ??CrossCallReturnLabel_107
          CFI (cfiCond366) R24 Frame(CFA_Y, -1)
          CFI (cfiCond366) CFA_SP SP+4
          CFI (cfiCond366) CFA_Y Y+1
          CFI Block cfiCond367 Using cfiCommon0
          CFI (cfiCond367) Function normal
          CFI (cfiCond367) Conditional ??CrossCallReturnLabel_108
          CFI (cfiCond367) R24 Frame(CFA_Y, -1)
          CFI (cfiCond367) CFA_SP SP+4
          CFI (cfiCond367) CFA_Y Y+1
          CFI Block cfiCond368 Using cfiCommon0
          CFI (cfiCond368) Function normal
          CFI (cfiCond368) Conditional ??CrossCallReturnLabel_109
          CFI (cfiCond368) R24 Frame(CFA_Y, -1)
          CFI (cfiCond368) CFA_SP SP+4
          CFI (cfiCond368) CFA_Y Y+1
          CFI Block cfiCond369 Using cfiCommon0
          CFI (cfiCond369) Function normal
          CFI (cfiCond369) Conditional ??CrossCallReturnLabel_110
          CFI (cfiCond369) R24 Frame(CFA_Y, -1)
          CFI (cfiCond369) CFA_SP SP+4
          CFI (cfiCond369) CFA_Y Y+1
          CFI Block cfiCond370 Using cfiCommon0
          CFI (cfiCond370) Function normal
          CFI (cfiCond370) Conditional ??CrossCallReturnLabel_111
          CFI (cfiCond370) R24 Frame(CFA_Y, -1)
          CFI (cfiCond370) CFA_SP SP+4
          CFI (cfiCond370) CFA_Y Y+1
          CFI Block cfiCond371 Using cfiCommon0
          CFI (cfiCond371) Function normal
          CFI (cfiCond371) Conditional ??CrossCallReturnLabel_112
          CFI (cfiCond371) R24 Frame(CFA_Y, -1)
          CFI (cfiCond371) CFA_SP SP+4
          CFI (cfiCond371) CFA_Y Y+1
          CFI Block cfiCond372 Using cfiCommon0
          CFI (cfiCond372) Function normal
          CFI (cfiCond372) Conditional ??CrossCallReturnLabel_113
          CFI (cfiCond372) R24 Frame(CFA_Y, -1)
          CFI (cfiCond372) CFA_SP SP+4
          CFI (cfiCond372) CFA_Y Y+1
          CFI Block cfiCond373 Using cfiCommon0
          CFI (cfiCond373) Function normal
          CFI (cfiCond373) Conditional ??CrossCallReturnLabel_114
          CFI (cfiCond373) R24 Frame(CFA_Y, -1)
          CFI (cfiCond373) CFA_SP SP+4
          CFI (cfiCond373) CFA_Y Y+1
          CFI Block cfiCond374 Using cfiCommon0
          CFI (cfiCond374) Function normal
          CFI (cfiCond374) Conditional ??CrossCallReturnLabel_115
          CFI (cfiCond374) R24 Frame(CFA_Y, -1)
          CFI (cfiCond374) CFA_SP SP+4
          CFI (cfiCond374) CFA_Y Y+1
          CFI Block cfiCond375 Using cfiCommon0
          CFI (cfiCond375) Function normal
          CFI (cfiCond375) Conditional ??CrossCallReturnLabel_116
          CFI (cfiCond375) R24 Frame(CFA_Y, -1)
          CFI (cfiCond375) CFA_SP SP+4
          CFI (cfiCond375) CFA_Y Y+1
          CFI Block cfiPicker376 Using cfiCommon2
          CFI (cfiPicker376) NoFunction
          CFI (cfiPicker376) Picker
        LDS     R16, pultadr
        RET
          CFI EndBlock cfiCond362
          CFI EndBlock cfiCond363
          CFI EndBlock cfiCond364
          CFI EndBlock cfiCond365
          CFI EndBlock cfiCond366
          CFI EndBlock cfiCond367
          CFI EndBlock cfiCond368
          CFI EndBlock cfiCond369
          CFI EndBlock cfiCond370
          CFI EndBlock cfiCond371
          CFI EndBlock cfiCond372
          CFI EndBlock cfiCond373
          CFI EndBlock cfiCond374
          CFI EndBlock cfiCond375
          CFI EndBlock cfiPicker376

        RSEG CODE:CODE:NOROOT(1)
?Subroutine71:
          CFI Block cfiCond377 Using cfiCommon0
          CFI Function normal
          CFI Conditional ??CrossCallReturnLabel_99
          CFI R24 Frame(CFA_Y, -1)
          CFI CFA_SP SP+4
          CFI CFA_Y Y+1
          CFI Block cfiCond378 Using cfiCommon0
          CFI (cfiCond378) Function normal
          CFI (cfiCond378) Conditional ??CrossCallReturnLabel_100
          CFI (cfiCond378) R24 Frame(CFA_Y, -1)
          CFI (cfiCond378) CFA_SP SP+4
          CFI (cfiCond378) CFA_Y Y+1
          CFI Block cfiCond379 Using cfiCommon0
          CFI (cfiCond379) Function normal
          CFI (cfiCond379) Conditional ??CrossCallReturnLabel_101
          CFI (cfiCond379) R24 Frame(CFA_Y, -1)
          CFI (cfiCond379) CFA_SP SP+4
          CFI (cfiCond379) CFA_Y Y+1
          CFI Block cfiCond380 Using cfiCommon0
          CFI (cfiCond380) Function normal
          CFI (cfiCond380) Conditional ??CrossCallReturnLabel_102
          CFI (cfiCond380) R24 Frame(CFA_Y, -1)
          CFI (cfiCond380) CFA_SP SP+4
          CFI (cfiCond380) CFA_Y Y+1
          CFI Block cfiPicker381 Using cfiCommon2
          CFI (cfiPicker381) NoFunction
          CFI (cfiPicker381) Picker
        LDS     R16, pultadr
        CPI     R16, 30
        RET
          CFI EndBlock cfiCond377
          CFI EndBlock cfiCond378
          CFI EndBlock cfiCond379
          CFI EndBlock cfiCond380
          CFI EndBlock cfiPicker381

        RSEG CODE:CODE:NOROOT(1)
?Subroutine69:
          CFI Block cfiCond382 Using cfiCommon0
          CFI Function normal
          CFI Conditional ??CrossCallReturnLabel_92
          CFI R24 Frame(CFA_Y, -1)
          CFI CFA_SP SP+4
          CFI CFA_Y Y+1
          CFI Block cfiCond383 Using cfiCommon0
          CFI (cfiCond383) Function normal
          CFI (cfiCond383) Conditional ??CrossCallReturnLabel_93
          CFI (cfiCond383) R24 Frame(CFA_Y, -1)
          CFI (cfiCond383) CFA_SP SP+4
          CFI (cfiCond383) CFA_Y Y+1
          CFI Block cfiCond384 Using cfiCommon0
          CFI (cfiCond384) Function normal
          CFI (cfiCond384) Conditional ??CrossCallReturnLabel_94
          CFI (cfiCond384) R24 Frame(CFA_Y, -1)
          CFI (cfiCond384) CFA_SP SP+4
          CFI (cfiCond384) CFA_Y Y+1
          CFI Block cfiCond385 Using cfiCommon0
          CFI (cfiCond385) Function normal
          CFI (cfiCond385) Conditional ??CrossCallReturnLabel_95
          CFI (cfiCond385) R24 Frame(CFA_Y, -1)
          CFI (cfiCond385) CFA_SP SP+4
          CFI (cfiCond385) CFA_Y Y+1
          CFI Block cfiCond386 Using cfiCommon0
          CFI (cfiCond386) Function normal
          CFI (cfiCond386) Conditional ??CrossCallReturnLabel_96
          CFI (cfiCond386) R24 Frame(CFA_Y, -1)
          CFI (cfiCond386) CFA_SP SP+4
          CFI (cfiCond386) CFA_Y Y+1
          CFI Block cfiPicker387 Using cfiCommon2
          CFI (cfiPicker387) NoFunction
          CFI (cfiPicker387) Picker
        CBI     0x12, 0x06
        LDS     R16, ??sel
        STS     ??lastsel, R16
        RET
          CFI EndBlock cfiCond382
          CFI EndBlock cfiCond383
          CFI EndBlock cfiCond384
          CFI EndBlock cfiCond385
          CFI EndBlock cfiCond386
          CFI EndBlock cfiPicker387

        RSEG CODE:CODE:NOROOT(1)
?Subroutine63:
          CFI Block cfiCond388 Using cfiCommon0
          CFI Function main
          CFI Conditional ??CrossCallReturnLabel_87
          CFI R24 Frame(CFA_Y, -1)
          CFI CFA_SP SP+4
          CFI CFA_Y Y+1
          CFI Block cfiCond389 Using cfiCommon0
          CFI (cfiCond389) Function normal
          CFI (cfiCond389) Conditional ??CrossCallReturnLabel_88
          CFI (cfiCond389) R24 Frame(CFA_Y, -1)
          CFI (cfiCond389) CFA_SP SP+4
          CFI (cfiCond389) CFA_Y Y+1
          CFI Block cfiCond390 Using cfiCommon0
          CFI (cfiCond390) Function normal
          CFI (cfiCond390) Conditional ??CrossCallReturnLabel_89
          CFI (cfiCond390) R24 Frame(CFA_Y, -1)
          CFI (cfiCond390) CFA_SP SP+4
          CFI (cfiCond390) CFA_Y Y+1
          CFI Block cfiPicker391 Using cfiCommon2
          CFI (cfiPicker391) NoFunction
          CFI (cfiPicker391) Picker
        LDI     R16, 127
        LDI     R17, 56
        LDI     R18, 1
        SUBI    R16, 1
        SBCI    R17, 0
        SBCI    R18, 0
        BRNE    $-6
        RJMP    $+2
        NOP
        RET
          CFI EndBlock cfiCond388
          CFI EndBlock cfiCond389
          CFI EndBlock cfiCond390
          CFI EndBlock cfiPicker391

        RSEG CODE:CODE:NOROOT(1)
?Subroutine106:
          CFI Block cfiCond392 Using cfiCommon0
          CFI Function main_logic
          CFI Conditional ??CrossCallReturnLabel_200
          CFI CFA_SP SP+4
          CFI Block cfiCond393 Using cfiCommon0
          CFI (cfiCond393) Function normal
          CFI (cfiCond393) Conditional ??CrossCallReturnLabel_201
          CFI (cfiCond393) R24 Frame(CFA_Y, -1)
          CFI (cfiCond393) CFA_SP SP+4
          CFI (cfiCond393) CFA_Y Y+1
          CFI Block cfiCond394 Using cfiCommon0
          CFI (cfiCond394) Function main_logic
          CFI (cfiCond394) Conditional ??CrossCallReturnLabel_202, ??CrossCallReturnLabel_249
          CFI (cfiCond394) CFA_SP SP+6
          CFI Block cfiCond395 Using cfiCommon0
          CFI (cfiCond395) Function normal
          CFI (cfiCond395) Conditional ??CrossCallReturnLabel_202, ??CrossCallReturnLabel_250
          CFI (cfiCond395) R24 Frame(CFA_Y, -1)
          CFI (cfiCond395) CFA_SP SP+6
          CFI (cfiCond395) CFA_Y Y+1
          CFI Block cfiPicker396 Using cfiCommon2
          CFI (cfiPicker396) NoFunction
          CFI (cfiPicker396) Picker
        RCALL   ?Subroutine119
??CrossCallReturnLabel_354:
        LDI     R16, 0
        RET
          CFI EndBlock cfiCond392
          CFI EndBlock cfiCond393
          CFI EndBlock cfiCond394
          CFI EndBlock cfiCond395
          CFI EndBlock cfiPicker396

        RSEG CODE:CODE:NOROOT(1)
?Subroutine123:
          CFI Block cfiCond397 Using cfiCommon0
          CFI Function coding
          CFI Conditional ??CrossCallReturnLabel_243
          CFI R24 Frame(CFA_Y, -10)
          CFI R25 Frame(CFA_Y, -9)
          CFI R26 Frame(CFA_Y, -8)
          CFI R27 Frame(CFA_Y, -7)
          CFI R4 Frame(CFA_Y, -6)
          CFI R5 Frame(CFA_Y, -5)
          CFI R6 Frame(CFA_Y, -4)
          CFI R7 Frame(CFA_Y, -3)
          CFI R8 Frame(CFA_Y, -2)
          CFI R9 Frame(CFA_Y, -1)
          CFI CFA_SP SP+4
          CFI CFA_Y Y+10
          CFI Block cfiCond398 Using cfiCommon0
          CFI (cfiCond398) Function coding
          CFI (cfiCond398) Conditional ??CrossCallReturnLabel_244
          CFI (cfiCond398) R24 Frame(CFA_Y, -10)
          CFI (cfiCond398) R25 Frame(CFA_Y, -9)
          CFI (cfiCond398) R26 Frame(CFA_Y, -8)
          CFI (cfiCond398) R27 Frame(CFA_Y, -7)
          CFI (cfiCond398) R4 Frame(CFA_Y, -6)
          CFI (cfiCond398) R5 Frame(CFA_Y, -5)
          CFI (cfiCond398) R6 Frame(CFA_Y, -4)
          CFI (cfiCond398) R7 Frame(CFA_Y, -3)
          CFI (cfiCond398) R8 Frame(CFA_Y, -2)
          CFI (cfiCond398) R9 Frame(CFA_Y, -1)
          CFI (cfiCond398) CFA_SP SP+4
          CFI (cfiCond398) CFA_Y Y+10
          CFI Block cfiCond399 Using cfiCommon0
          CFI (cfiCond399) Function normal
          CFI (cfiCond399) Conditional ??CrossCallReturnLabel_245
          CFI (cfiCond399) R24 Frame(CFA_Y, -1)
          CFI (cfiCond399) CFA_SP SP+4
          CFI (cfiCond399) CFA_Y Y+1
          CFI Block cfiCond400 Using cfiCommon0
          CFI (cfiCond400) Function TimerTick
          CFI (cfiCond400) Conditional ??CrossCallReturnLabel_246
          CFI (cfiCond400) CFA_SP SP+4
          CFI Block cfiCond401 Using cfiCommon0
          CFI (cfiCond401) Function coding
          CFI (cfiCond401) Conditional ??CrossCallReturnLabel_247
          CFI (cfiCond401) R24 Frame(CFA_Y, -10)
          CFI (cfiCond401) R25 Frame(CFA_Y, -9)
          CFI (cfiCond401) R26 Frame(CFA_Y, -8)
          CFI (cfiCond401) R27 Frame(CFA_Y, -7)
          CFI (cfiCond401) R4 Frame(CFA_Y, -6)
          CFI (cfiCond401) R5 Frame(CFA_Y, -5)
          CFI (cfiCond401) R6 Frame(CFA_Y, -4)
          CFI (cfiCond401) R7 Frame(CFA_Y, -3)
          CFI (cfiCond401) R8 Frame(CFA_Y, -2)
          CFI (cfiCond401) R9 Frame(CFA_Y, -1)
          CFI (cfiCond401) CFA_SP SP+4
          CFI (cfiCond401) CFA_Y Y+10
          CFI Block cfiCond402 Using cfiCommon0
          CFI (cfiCond402) Function analizCOD
          CFI (cfiCond402) Conditional ??CrossCallReturnLabel_248
          CFI (cfiCond402) R24 Frame(CFA_Y, -2)
          CFI (cfiCond402) R25 Frame(CFA_Y, -1)
          CFI (cfiCond402) CFA_SP SP+4
          CFI (cfiCond402) CFA_Y Y+2
          CFI Block cfiPicker403 Using cfiCommon2
          CFI (cfiPicker403) NoFunction
          CFI (cfiPicker403) Picker
        LD      R18, Z
        LDD     R19, Z+1
        RET
          CFI EndBlock cfiCond397
          CFI EndBlock cfiCond398
          CFI EndBlock cfiCond399
          CFI EndBlock cfiCond400
          CFI EndBlock cfiCond401
          CFI EndBlock cfiCond402
          CFI EndBlock cfiPicker403

        RSEG CODE:CODE:NOROOT(1)
?Subroutine44:
          CFI Block cfiCond404 Using cfiCommon0
          CFI Function normal
          CFI Conditional ??CrossCallReturnLabel_48
          CFI R24 Frame(CFA_Y, -1)
          CFI CFA_SP SP+4
          CFI CFA_Y Y+1
          CFI Block cfiCond405 Using cfiCommon0
          CFI (cfiCond405) Function normal
          CFI (cfiCond405) Conditional ??CrossCallReturnLabel_49
          CFI (cfiCond405) R24 Frame(CFA_Y, -1)
          CFI (cfiCond405) CFA_SP SP+4
          CFI (cfiCond405) CFA_Y Y+1
          CFI Block cfiCond406 Using cfiCommon0
          CFI (cfiCond406) Function normal
          CFI (cfiCond406) Conditional ??CrossCallReturnLabel_50
          CFI (cfiCond406) R24 Frame(CFA_Y, -1)
          CFI (cfiCond406) CFA_SP SP+4
          CFI (cfiCond406) CFA_Y Y+1
          CFI Block cfiCond407 Using cfiCommon0
          CFI (cfiCond407) Function normal
          CFI (cfiCond407) Conditional ??CrossCallReturnLabel_51
          CFI (cfiCond407) R24 Frame(CFA_Y, -1)
          CFI (cfiCond407) CFA_SP SP+4
          CFI (cfiCond407) CFA_Y Y+1
          CFI Block cfiCond408 Using cfiCommon0
          CFI (cfiCond408) Function normal
          CFI (cfiCond408) Conditional ??CrossCallReturnLabel_52
          CFI (cfiCond408) R24 Frame(CFA_Y, -1)
          CFI (cfiCond408) CFA_SP SP+4
          CFI (cfiCond408) CFA_Y Y+1
          CFI Block cfiPicker409 Using cfiCommon2
          CFI (cfiPicker409) NoFunction
          CFI (cfiPicker409) Picker
        LDI     R18, 0
        LDI     R17, 3
        RET
          CFI EndBlock cfiCond404
          CFI EndBlock cfiCond405
          CFI EndBlock cfiCond406
          CFI EndBlock cfiCond407
          CFI EndBlock cfiCond408
          CFI EndBlock cfiPicker409

        RSEG CODE:CODE:NOROOT(1)
?Subroutine99:
          CFI Block cfiCond410 Using cfiCommon0
          CFI Function PEREP
          CFI Conditional ??CrossCallReturnLabel_177, ??CrossCallReturnLabel_30
          CFI R24 Frame(CFA_Y, -8)
          CFI R25 Frame(CFA_Y, -7)
          CFI R26 Frame(CFA_Y, -6)
          CFI R27 Frame(CFA_Y, -5)
          CFI R4 Frame(CFA_Y, -4)
          CFI R5 Frame(CFA_Y, -3)
          CFI R6 Frame(CFA_Y, -2)
          CFI R7 Frame(CFA_Y, -1)
          CFI CFA_SP SP+6
          CFI CFA_Y Y+8
          CFI Block cfiCond411 Using cfiCommon0
          CFI (cfiCond411) Function PEREP
          CFI (cfiCond411) Conditional ??CrossCallReturnLabel_177, ??CrossCallReturnLabel_31
          CFI (cfiCond411) R24 Frame(CFA_Y, -8)
          CFI (cfiCond411) R25 Frame(CFA_Y, -7)
          CFI (cfiCond411) R26 Frame(CFA_Y, -6)
          CFI (cfiCond411) R27 Frame(CFA_Y, -5)
          CFI (cfiCond411) R4 Frame(CFA_Y, -4)
          CFI (cfiCond411) R5 Frame(CFA_Y, -3)
          CFI (cfiCond411) R6 Frame(CFA_Y, -2)
          CFI (cfiCond411) R7 Frame(CFA_Y, -1)
          CFI (cfiCond411) CFA_SP SP+6
          CFI (cfiCond411) CFA_Y Y+8
          CFI Block cfiCond412 Using cfiCommon0
          CFI (cfiCond412) Function coding
          CFI (cfiCond412) Conditional ??CrossCallReturnLabel_179, ??CrossCallReturnLabel_192
          CFI (cfiCond412) R24 Frame(CFA_Y, -10)
          CFI (cfiCond412) R25 Frame(CFA_Y, -9)
          CFI (cfiCond412) R26 Frame(CFA_Y, -8)
          CFI (cfiCond412) R27 Frame(CFA_Y, -7)
          CFI (cfiCond412) R4 Frame(CFA_Y, -6)
          CFI (cfiCond412) R5 Frame(CFA_Y, -5)
          CFI (cfiCond412) R6 Frame(CFA_Y, -4)
          CFI (cfiCond412) R7 Frame(CFA_Y, -3)
          CFI (cfiCond412) R8 Frame(CFA_Y, -2)
          CFI (cfiCond412) R9 Frame(CFA_Y, -1)
          CFI (cfiCond412) CFA_SP SP+6
          CFI (cfiCond412) CFA_Y Y+10
          CFI Block cfiCond413 Using cfiCommon0
          CFI (cfiCond413) Function coding
          CFI (cfiCond413) Conditional ??CrossCallReturnLabel_179, ??CrossCallReturnLabel_193
          CFI (cfiCond413) R24 Frame(CFA_Y, -10)
          CFI (cfiCond413) R25 Frame(CFA_Y, -9)
          CFI (cfiCond413) R26 Frame(CFA_Y, -8)
          CFI (cfiCond413) R27 Frame(CFA_Y, -7)
          CFI (cfiCond413) R4 Frame(CFA_Y, -6)
          CFI (cfiCond413) R5 Frame(CFA_Y, -5)
          CFI (cfiCond413) R6 Frame(CFA_Y, -4)
          CFI (cfiCond413) R7 Frame(CFA_Y, -3)
          CFI (cfiCond413) R8 Frame(CFA_Y, -2)
          CFI (cfiCond413) R9 Frame(CFA_Y, -1)
          CFI (cfiCond413) CFA_SP SP+6
          CFI (cfiCond413) CFA_Y Y+10
          CFI Block cfiCond414 Using cfiCommon0
          CFI (cfiCond414) Function coding
          CFI (cfiCond414) Conditional ??CrossCallReturnLabel_178, ??CrossCallReturnLabel_346
          CFI (cfiCond414) R24 Frame(CFA_Y, -10)
          CFI (cfiCond414) R25 Frame(CFA_Y, -9)
          CFI (cfiCond414) R26 Frame(CFA_Y, -8)
          CFI (cfiCond414) R27 Frame(CFA_Y, -7)
          CFI (cfiCond414) R4 Frame(CFA_Y, -6)
          CFI (cfiCond414) R5 Frame(CFA_Y, -5)
          CFI (cfiCond414) R6 Frame(CFA_Y, -4)
          CFI (cfiCond414) R7 Frame(CFA_Y, -3)
          CFI (cfiCond414) R8 Frame(CFA_Y, -2)
          CFI (cfiCond414) R9 Frame(CFA_Y, -1)
          CFI (cfiCond414) CFA_SP SP+6
          CFI (cfiCond414) CFA_Y Y+10
          CFI Block cfiCond415 Using cfiCommon0
          CFI (cfiCond415) Function coding
          CFI (cfiCond415) Conditional ??CrossCallReturnLabel_178, ??CrossCallReturnLabel_347
          CFI (cfiCond415) R24 Frame(CFA_Y, -10)
          CFI (cfiCond415) R25 Frame(CFA_Y, -9)
          CFI (cfiCond415) R26 Frame(CFA_Y, -8)
          CFI (cfiCond415) R27 Frame(CFA_Y, -7)
          CFI (cfiCond415) R4 Frame(CFA_Y, -6)
          CFI (cfiCond415) R5 Frame(CFA_Y, -5)
          CFI (cfiCond415) R6 Frame(CFA_Y, -4)
          CFI (cfiCond415) R7 Frame(CFA_Y, -3)
          CFI (cfiCond415) R8 Frame(CFA_Y, -2)
          CFI (cfiCond415) R9 Frame(CFA_Y, -1)
          CFI (cfiCond415) CFA_SP SP+6
          CFI (cfiCond415) CFA_Y Y+10
          CFI Block cfiCond416 Using cfiCommon0
          CFI (cfiCond416) Function coding
          CFI (cfiCond416) Conditional ??CrossCallReturnLabel_178, ??CrossCallReturnLabel_348
          CFI (cfiCond416) R24 Frame(CFA_Y, -10)
          CFI (cfiCond416) R25 Frame(CFA_Y, -9)
          CFI (cfiCond416) R26 Frame(CFA_Y, -8)
          CFI (cfiCond416) R27 Frame(CFA_Y, -7)
          CFI (cfiCond416) R4 Frame(CFA_Y, -6)
          CFI (cfiCond416) R5 Frame(CFA_Y, -5)
          CFI (cfiCond416) R6 Frame(CFA_Y, -4)
          CFI (cfiCond416) R7 Frame(CFA_Y, -3)
          CFI (cfiCond416) R8 Frame(CFA_Y, -2)
          CFI (cfiCond416) R9 Frame(CFA_Y, -1)
          CFI (cfiCond416) CFA_SP SP+6
          CFI (cfiCond416) CFA_Y Y+10
          CFI Block cfiCond417 Using cfiCommon0
          CFI (cfiCond417) Function coding
          CFI (cfiCond417) Conditional ??CrossCallReturnLabel_170
          CFI (cfiCond417) R24 Frame(CFA_Y, -10)
          CFI (cfiCond417) R25 Frame(CFA_Y, -9)
          CFI (cfiCond417) R26 Frame(CFA_Y, -8)
          CFI (cfiCond417) R27 Frame(CFA_Y, -7)
          CFI (cfiCond417) R4 Frame(CFA_Y, -6)
          CFI (cfiCond417) R5 Frame(CFA_Y, -5)
          CFI (cfiCond417) R6 Frame(CFA_Y, -4)
          CFI (cfiCond417) R7 Frame(CFA_Y, -3)
          CFI (cfiCond417) R8 Frame(CFA_Y, -2)
          CFI (cfiCond417) R9 Frame(CFA_Y, -1)
          CFI (cfiCond417) CFA_SP SP+4
          CFI (cfiCond417) CFA_Y Y+10
          CFI Block cfiCond418 Using cfiCommon0
          CFI (cfiCond418) Function coding
          CFI (cfiCond418) Conditional ??CrossCallReturnLabel_171
          CFI (cfiCond418) R24 Frame(CFA_Y, -10)
          CFI (cfiCond418) R25 Frame(CFA_Y, -9)
          CFI (cfiCond418) R26 Frame(CFA_Y, -8)
          CFI (cfiCond418) R27 Frame(CFA_Y, -7)
          CFI (cfiCond418) R4 Frame(CFA_Y, -6)
          CFI (cfiCond418) R5 Frame(CFA_Y, -5)
          CFI (cfiCond418) R6 Frame(CFA_Y, -4)
          CFI (cfiCond418) R7 Frame(CFA_Y, -3)
          CFI (cfiCond418) R8 Frame(CFA_Y, -2)
          CFI (cfiCond418) R9 Frame(CFA_Y, -1)
          CFI (cfiCond418) CFA_SP SP+4
          CFI (cfiCond418) CFA_Y Y+10
          CFI Block cfiCond419 Using cfiCommon0
          CFI (cfiCond419) Function normal
          CFI (cfiCond419) Conditional ??CrossCallReturnLabel_172
          CFI (cfiCond419) R24 Frame(CFA_Y, -1)
          CFI (cfiCond419) CFA_SP SP+4
          CFI (cfiCond419) CFA_Y Y+1
          CFI Block cfiCond420 Using cfiCommon0
          CFI (cfiCond420) Function normal
          CFI (cfiCond420) Conditional ??CrossCallReturnLabel_173
          CFI (cfiCond420) R24 Frame(CFA_Y, -1)
          CFI (cfiCond420) CFA_SP SP+4
          CFI (cfiCond420) CFA_Y Y+1
          CFI Block cfiCond421 Using cfiCommon0
          CFI (cfiCond421) Function writeCOD
          CFI (cfiCond421) Conditional ??CrossCallReturnLabel_174
          CFI (cfiCond421) R24 Frame(CFA_Y, -1)
          CFI (cfiCond421) CFA_SP SP+4
          CFI (cfiCond421) CFA_Y Y+1
          CFI Block cfiCond422 Using cfiCommon0
          CFI (cfiCond422) Function writeCOD
          CFI (cfiCond422) Conditional ??CrossCallReturnLabel_175
          CFI (cfiCond422) R24 Frame(CFA_Y, -1)
          CFI (cfiCond422) CFA_SP SP+4
          CFI (cfiCond422) CFA_Y Y+1
          CFI Block cfiCond423 Using cfiCommon0
          CFI (cfiCond423) Function writeCOD
          CFI (cfiCond423) Conditional ??CrossCallReturnLabel_176
          CFI (cfiCond423) R24 Frame(CFA_Y, -1)
          CFI (cfiCond423) CFA_SP SP+4
          CFI (cfiCond423) CFA_Y Y+1
          CFI Block cfiPicker424 Using cfiCommon2
          CFI (cfiPicker424) NoFunction
          CFI (cfiPicker424) Picker
        LD      R16, Z
        LDD     R17, Z+1
        RET
          CFI EndBlock cfiCond410
          CFI EndBlock cfiCond411
          CFI EndBlock cfiCond412
          CFI EndBlock cfiCond413
          CFI EndBlock cfiCond414
          CFI EndBlock cfiCond415
          CFI EndBlock cfiCond416
          CFI EndBlock cfiCond417
          CFI EndBlock cfiCond418
          CFI EndBlock cfiCond419
          CFI EndBlock cfiCond420
          CFI EndBlock cfiCond421
          CFI EndBlock cfiCond422
          CFI EndBlock cfiCond423
          CFI EndBlock cfiPicker424

        RSEG CODE:CODE:NOROOT(1)
?Subroutine93:
          CFI Block cfiCond425 Using cfiCommon0
          CFI Function PEREP
          CFI Conditional ??CrossCallReturnLabel_156, ??CrossCallReturnLabel_11
          CFI R24 Frame(CFA_Y, -8)
          CFI R25 Frame(CFA_Y, -7)
          CFI R26 Frame(CFA_Y, -6)
          CFI R27 Frame(CFA_Y, -5)
          CFI R4 Frame(CFA_Y, -4)
          CFI R5 Frame(CFA_Y, -3)
          CFI R6 Frame(CFA_Y, -2)
          CFI R7 Frame(CFA_Y, -1)
          CFI CFA_SP SP+6
          CFI CFA_Y Y+8
          CFI Block cfiCond426 Using cfiCommon0
          CFI (cfiCond426) Function main
          CFI (cfiCond426) Conditional ??CrossCallReturnLabel_156, ??CrossCallReturnLabel_10
          CFI (cfiCond426) R24 Frame(CFA_Y, -1)
          CFI (cfiCond426) CFA_SP SP+6
          CFI (cfiCond426) CFA_Y Y+1
          CFI Block cfiCond427 Using cfiCommon0
          CFI (cfiCond427) Function PEREP
          CFI (cfiCond427) Conditional ??CrossCallReturnLabel_157, ??CrossCallReturnLabel_11
          CFI (cfiCond427) R24 Frame(CFA_Y, -8)
          CFI (cfiCond427) R25 Frame(CFA_Y, -7)
          CFI (cfiCond427) R26 Frame(CFA_Y, -6)
          CFI (cfiCond427) R27 Frame(CFA_Y, -5)
          CFI (cfiCond427) R4 Frame(CFA_Y, -4)
          CFI (cfiCond427) R5 Frame(CFA_Y, -3)
          CFI (cfiCond427) R6 Frame(CFA_Y, -2)
          CFI (cfiCond427) R7 Frame(CFA_Y, -1)
          CFI (cfiCond427) CFA_SP SP+6
          CFI (cfiCond427) CFA_Y Y+8
          CFI Block cfiCond428 Using cfiCommon0
          CFI (cfiCond428) Function main
          CFI (cfiCond428) Conditional ??CrossCallReturnLabel_157, ??CrossCallReturnLabel_10
          CFI (cfiCond428) R24 Frame(CFA_Y, -1)
          CFI (cfiCond428) CFA_SP SP+6
          CFI (cfiCond428) CFA_Y Y+1
          CFI Block cfiCond429 Using cfiCommon0
          CFI (cfiCond429) Function PEREP
          CFI (cfiCond429) Conditional ??CrossCallReturnLabel_11
          CFI (cfiCond429) R24 Frame(CFA_Y, -8)
          CFI (cfiCond429) R25 Frame(CFA_Y, -7)
          CFI (cfiCond429) R26 Frame(CFA_Y, -6)
          CFI (cfiCond429) R27 Frame(CFA_Y, -5)
          CFI (cfiCond429) R4 Frame(CFA_Y, -4)
          CFI (cfiCond429) R5 Frame(CFA_Y, -3)
          CFI (cfiCond429) R6 Frame(CFA_Y, -2)
          CFI (cfiCond429) R7 Frame(CFA_Y, -1)
          CFI (cfiCond429) CFA_SP SP+4
          CFI (cfiCond429) CFA_Y Y+8
          CFI Block cfiCond430 Using cfiCommon0
          CFI (cfiCond430) Function main
          CFI (cfiCond430) Conditional ??CrossCallReturnLabel_10
          CFI (cfiCond430) R24 Frame(CFA_Y, -1)
          CFI (cfiCond430) CFA_SP SP+4
          CFI (cfiCond430) CFA_Y Y+1
          CFI Block cfiCond431 Using cfiCommon0
          CFI (cfiCond431) Function main_logic
          CFI (cfiCond431) Conditional ??CrossCallReturnLabel_155, ??CrossCallReturnLabel_9
          CFI (cfiCond431) CFA_SP SP+6
          CFI Block cfiCond432 Using cfiCommon0
          CFI (cfiCond432) Function pult
          CFI (cfiCond432) Conditional ??CrossCallReturnLabel_155, ??CrossCallReturnLabel_8
          CFI (cfiCond432) CFA_SP SP+6
          CFI Block cfiCond433 Using cfiCommon0
          CFI (cfiCond433) Function PEREP
          CFI (cfiCond433) Conditional ??CrossCallReturnLabel_150
          CFI (cfiCond433) R24 Frame(CFA_Y, -8)
          CFI (cfiCond433) R25 Frame(CFA_Y, -7)
          CFI (cfiCond433) R26 Frame(CFA_Y, -6)
          CFI (cfiCond433) R27 Frame(CFA_Y, -5)
          CFI (cfiCond433) R4 Frame(CFA_Y, -4)
          CFI (cfiCond433) R5 Frame(CFA_Y, -3)
          CFI (cfiCond433) R6 Frame(CFA_Y, -2)
          CFI (cfiCond433) R7 Frame(CFA_Y, -1)
          CFI (cfiCond433) CFA_SP SP+4
          CFI (cfiCond433) CFA_Y Y+8
          CFI Block cfiCond434 Using cfiCommon0
          CFI (cfiCond434) Function PEREP
          CFI (cfiCond434) Conditional ??CrossCallReturnLabel_151
          CFI (cfiCond434) R24 Frame(CFA_Y, -8)
          CFI (cfiCond434) R25 Frame(CFA_Y, -7)
          CFI (cfiCond434) R26 Frame(CFA_Y, -6)
          CFI (cfiCond434) R27 Frame(CFA_Y, -5)
          CFI (cfiCond434) R4 Frame(CFA_Y, -4)
          CFI (cfiCond434) R5 Frame(CFA_Y, -3)
          CFI (cfiCond434) R6 Frame(CFA_Y, -2)
          CFI (cfiCond434) R7 Frame(CFA_Y, -1)
          CFI (cfiCond434) CFA_SP SP+4
          CFI (cfiCond434) CFA_Y Y+8
          CFI Block cfiCond435 Using cfiCommon0
          CFI (cfiCond435) Function PEREP
          CFI (cfiCond435) Conditional ??CrossCallReturnLabel_152
          CFI (cfiCond435) R24 Frame(CFA_Y, -8)
          CFI (cfiCond435) R25 Frame(CFA_Y, -7)
          CFI (cfiCond435) R26 Frame(CFA_Y, -6)
          CFI (cfiCond435) R27 Frame(CFA_Y, -5)
          CFI (cfiCond435) R4 Frame(CFA_Y, -4)
          CFI (cfiCond435) R5 Frame(CFA_Y, -3)
          CFI (cfiCond435) R6 Frame(CFA_Y, -2)
          CFI (cfiCond435) R7 Frame(CFA_Y, -1)
          CFI (cfiCond435) CFA_SP SP+4
          CFI (cfiCond435) CFA_Y Y+8
          CFI Block cfiCond436 Using cfiCommon0
          CFI (cfiCond436) Function PEREP
          CFI (cfiCond436) Conditional ??CrossCallReturnLabel_153
          CFI (cfiCond436) R24 Frame(CFA_Y, -8)
          CFI (cfiCond436) R25 Frame(CFA_Y, -7)
          CFI (cfiCond436) R26 Frame(CFA_Y, -6)
          CFI (cfiCond436) R27 Frame(CFA_Y, -5)
          CFI (cfiCond436) R4 Frame(CFA_Y, -4)
          CFI (cfiCond436) R5 Frame(CFA_Y, -3)
          CFI (cfiCond436) R6 Frame(CFA_Y, -2)
          CFI (cfiCond436) R7 Frame(CFA_Y, -1)
          CFI (cfiCond436) CFA_SP SP+4
          CFI (cfiCond436) CFA_Y Y+8
          CFI Block cfiCond437 Using cfiCommon0
          CFI (cfiCond437) Function normal
          CFI (cfiCond437) Conditional ??CrossCallReturnLabel_154
          CFI (cfiCond437) R24 Frame(CFA_Y, -1)
          CFI (cfiCond437) CFA_SP SP+4
          CFI (cfiCond437) CFA_Y Y+1
          CFI Block cfiPicker438 Using cfiCommon2
          CFI (cfiPicker438) NoFunction
          CFI (cfiPicker438) Picker
        ST      Z, R16
        STD     Z+1, R16
        RET
          CFI EndBlock cfiCond425
          CFI EndBlock cfiCond426
          CFI EndBlock cfiCond427
          CFI EndBlock cfiCond428
          CFI EndBlock cfiCond429
          CFI EndBlock cfiCond430
          CFI EndBlock cfiCond431
          CFI EndBlock cfiCond432
          CFI EndBlock cfiCond433
          CFI EndBlock cfiCond434
          CFI EndBlock cfiCond435
          CFI EndBlock cfiCond436
          CFI EndBlock cfiCond437
          CFI EndBlock cfiPicker438

        RSEG CODE:CODE:NOROOT(1)
?Subroutine19:
          CFI Block cfiCond439 Using cfiCommon0
          CFI Function PEREP
          CFI Conditional ??CrossCallReturnLabel_313
          CFI R24 Frame(CFA_Y, -8)
          CFI R25 Frame(CFA_Y, -7)
          CFI R26 Frame(CFA_Y, -6)
          CFI R27 Frame(CFA_Y, -5)
          CFI R4 Frame(CFA_Y, -4)
          CFI R5 Frame(CFA_Y, -3)
          CFI R6 Frame(CFA_Y, -2)
          CFI R7 Frame(CFA_Y, -1)
          CFI CFA_SP SP+4
          CFI CFA_Y Y+8
          CFI Block cfiCond440 Using cfiCommon0
          CFI (cfiCond440) Function normal
          CFI (cfiCond440) Conditional ??CrossCallReturnLabel_312
          CFI (cfiCond440) R24 Frame(CFA_Y, -1)
          CFI (cfiCond440) CFA_SP SP+4
          CFI (cfiCond440) CFA_Y Y+1
          CFI Block cfiPicker441 Using cfiCommon2
          CFI (cfiPicker441) NoFunction
          CFI (cfiPicker441) Picker
        RCALL   ?Subroutine90
??CrossCallReturnLabel_311:
        RJMP    ?Subroutine134
          CFI EndBlock cfiCond439
          CFI EndBlock cfiCond440
          CFI EndBlock cfiPicker441

        RSEG CODE:CODE:NOROOT(1)
?Subroutine90:
          CFI Block cfiCond442 Using cfiCommon0
          CFI Function main_logic
          CFI Conditional ??CrossCallReturnLabel_310, ??CrossCallReturnLabel_22
          CFI CFA_SP SP+6
          CFI Block cfiCond443 Using cfiCommon0
          CFI (cfiCond443) Function main_logic
          CFI (cfiCond443) Conditional ??CrossCallReturnLabel_310, ??CrossCallReturnLabel_23
          CFI (cfiCond443) CFA_SP SP+6
          CFI Block cfiCond444 Using cfiCommon0
          CFI (cfiCond444) Function PEREP
          CFI (cfiCond444) Conditional ??CrossCallReturnLabel_311, ??CrossCallReturnLabel_313
          CFI (cfiCond444) R24 Frame(CFA_Y, -8)
          CFI (cfiCond444) R25 Frame(CFA_Y, -7)
          CFI (cfiCond444) R26 Frame(CFA_Y, -6)
          CFI (cfiCond444) R27 Frame(CFA_Y, -5)
          CFI (cfiCond444) R4 Frame(CFA_Y, -4)
          CFI (cfiCond444) R5 Frame(CFA_Y, -3)
          CFI (cfiCond444) R6 Frame(CFA_Y, -2)
          CFI (cfiCond444) R7 Frame(CFA_Y, -1)
          CFI (cfiCond444) CFA_SP SP+6
          CFI (cfiCond444) CFA_Y Y+8
          CFI Block cfiCond445 Using cfiCommon0
          CFI (cfiCond445) Function normal
          CFI (cfiCond445) Conditional ??CrossCallReturnLabel_311, ??CrossCallReturnLabel_312
          CFI (cfiCond445) R24 Frame(CFA_Y, -1)
          CFI (cfiCond445) CFA_SP SP+6
          CFI (cfiCond445) CFA_Y Y+1
          CFI Block cfiPicker446 Using cfiCommon2
          CFI (cfiPicker446) NoFunction
          CFI (cfiPicker446) Picker
        LDI     R17, 0
          CFI EndBlock cfiCond442
          CFI EndBlock cfiCond443
          CFI EndBlock cfiCond444
          CFI EndBlock cfiCond445
          CFI EndBlock cfiPicker446
        REQUIRE ?Subroutine118
        ;               // Fall through to label ?Subroutine118

        RSEG CODE:CODE:NOROOT(1)
?Subroutine118:
          CFI Block cfiCond447 Using cfiCommon0
          CFI Function PEREP
          CFI Conditional ??CrossCallReturnLabel_305, ??CrossCallReturnLabel_188
          CFI R24 Frame(CFA_Y, -8)
          CFI R25 Frame(CFA_Y, -7)
          CFI R26 Frame(CFA_Y, -6)
          CFI R27 Frame(CFA_Y, -5)
          CFI R4 Frame(CFA_Y, -4)
          CFI R5 Frame(CFA_Y, -3)
          CFI R6 Frame(CFA_Y, -2)
          CFI R7 Frame(CFA_Y, -1)
          CFI CFA_SP SP+6
          CFI CFA_Y Y+8
          CFI Block cfiCond448 Using cfiCommon0
          CFI (cfiCond448) Function PEREP
          CFI (cfiCond448) Conditional ??CrossCallReturnLabel_305, ??CrossCallReturnLabel_189
          CFI (cfiCond448) R24 Frame(CFA_Y, -8)
          CFI (cfiCond448) R25 Frame(CFA_Y, -7)
          CFI (cfiCond448) R26 Frame(CFA_Y, -6)
          CFI (cfiCond448) R27 Frame(CFA_Y, -5)
          CFI (cfiCond448) R4 Frame(CFA_Y, -4)
          CFI (cfiCond448) R5 Frame(CFA_Y, -3)
          CFI (cfiCond448) R6 Frame(CFA_Y, -2)
          CFI (cfiCond448) R7 Frame(CFA_Y, -1)
          CFI (cfiCond448) CFA_SP SP+6
          CFI (cfiCond448) CFA_Y Y+8
          CFI Block cfiCond449 Using cfiCommon0
          CFI (cfiCond449) Function PEREP
          CFI (cfiCond449) Conditional ??CrossCallReturnLabel_306, ??CrossCallReturnLabel_319
          CFI (cfiCond449) R24 Frame(CFA_Y, -8)
          CFI (cfiCond449) R25 Frame(CFA_Y, -7)
          CFI (cfiCond449) R26 Frame(CFA_Y, -6)
          CFI (cfiCond449) R27 Frame(CFA_Y, -5)
          CFI (cfiCond449) R4 Frame(CFA_Y, -4)
          CFI (cfiCond449) R5 Frame(CFA_Y, -3)
          CFI (cfiCond449) R6 Frame(CFA_Y, -2)
          CFI (cfiCond449) R7 Frame(CFA_Y, -1)
          CFI (cfiCond449) CFA_SP SP+6
          CFI (cfiCond449) CFA_Y Y+8
          CFI Block cfiCond450 Using cfiCommon0
          CFI (cfiCond450) Function coding
          CFI (cfiCond450) Conditional ??CrossCallReturnLabel_306, ??CrossCallReturnLabel_318
          CFI (cfiCond450) R24 Frame(CFA_Y, -10)
          CFI (cfiCond450) R25 Frame(CFA_Y, -9)
          CFI (cfiCond450) R26 Frame(CFA_Y, -8)
          CFI (cfiCond450) R27 Frame(CFA_Y, -7)
          CFI (cfiCond450) R4 Frame(CFA_Y, -6)
          CFI (cfiCond450) R5 Frame(CFA_Y, -5)
          CFI (cfiCond450) R6 Frame(CFA_Y, -4)
          CFI (cfiCond450) R7 Frame(CFA_Y, -3)
          CFI (cfiCond450) R8 Frame(CFA_Y, -2)
          CFI (cfiCond450) R9 Frame(CFA_Y, -1)
          CFI (cfiCond450) CFA_SP SP+6
          CFI (cfiCond450) CFA_Y Y+10
          CFI Block cfiCond451 Using cfiCommon0
          CFI (cfiCond451) Function PEREP
          CFI (cfiCond451) Conditional ??CrossCallReturnLabel_306, ??CrossCallReturnLabel_317
          CFI (cfiCond451) R24 Frame(CFA_Y, -8)
          CFI (cfiCond451) R25 Frame(CFA_Y, -7)
          CFI (cfiCond451) R26 Frame(CFA_Y, -6)
          CFI (cfiCond451) R27 Frame(CFA_Y, -5)
          CFI (cfiCond451) R4 Frame(CFA_Y, -4)
          CFI (cfiCond451) R5 Frame(CFA_Y, -3)
          CFI (cfiCond451) R6 Frame(CFA_Y, -2)
          CFI (cfiCond451) R7 Frame(CFA_Y, -1)
          CFI (cfiCond451) CFA_SP SP+6
          CFI (cfiCond451) CFA_Y Y+8
          CFI Block cfiCond452 Using cfiCommon0
          CFI (cfiCond452) Function PEREP
          CFI (cfiCond452) Conditional ??CrossCallReturnLabel_306, ??CrossCallReturnLabel_316
          CFI (cfiCond452) R24 Frame(CFA_Y, -8)
          CFI (cfiCond452) R25 Frame(CFA_Y, -7)
          CFI (cfiCond452) R26 Frame(CFA_Y, -6)
          CFI (cfiCond452) R27 Frame(CFA_Y, -5)
          CFI (cfiCond452) R4 Frame(CFA_Y, -4)
          CFI (cfiCond452) R5 Frame(CFA_Y, -3)
          CFI (cfiCond452) R6 Frame(CFA_Y, -2)
          CFI (cfiCond452) R7 Frame(CFA_Y, -1)
          CFI (cfiCond452) CFA_SP SP+6
          CFI (cfiCond452) CFA_Y Y+8
          CFI Block cfiCond453 Using cfiCommon0
          CFI (cfiCond453) Function coding
          CFI (cfiCond453) Conditional ??CrossCallReturnLabel_306, ??CrossCallReturnLabel_315
          CFI (cfiCond453) R24 Frame(CFA_Y, -10)
          CFI (cfiCond453) R25 Frame(CFA_Y, -9)
          CFI (cfiCond453) R26 Frame(CFA_Y, -8)
          CFI (cfiCond453) R27 Frame(CFA_Y, -7)
          CFI (cfiCond453) R4 Frame(CFA_Y, -6)
          CFI (cfiCond453) R5 Frame(CFA_Y, -5)
          CFI (cfiCond453) R6 Frame(CFA_Y, -4)
          CFI (cfiCond453) R7 Frame(CFA_Y, -3)
          CFI (cfiCond453) R8 Frame(CFA_Y, -2)
          CFI (cfiCond453) R9 Frame(CFA_Y, -1)
          CFI (cfiCond453) CFA_SP SP+6
          CFI (cfiCond453) CFA_Y Y+10
          CFI Block cfiCond454 Using cfiCommon0
          CFI (cfiCond454) Function coding
          CFI (cfiCond454) Conditional ??CrossCallReturnLabel_306, ??CrossCallReturnLabel_314
          CFI (cfiCond454) R24 Frame(CFA_Y, -10)
          CFI (cfiCond454) R25 Frame(CFA_Y, -9)
          CFI (cfiCond454) R26 Frame(CFA_Y, -8)
          CFI (cfiCond454) R27 Frame(CFA_Y, -7)
          CFI (cfiCond454) R4 Frame(CFA_Y, -6)
          CFI (cfiCond454) R5 Frame(CFA_Y, -5)
          CFI (cfiCond454) R6 Frame(CFA_Y, -4)
          CFI (cfiCond454) R7 Frame(CFA_Y, -3)
          CFI (cfiCond454) R8 Frame(CFA_Y, -2)
          CFI (cfiCond454) R9 Frame(CFA_Y, -1)
          CFI (cfiCond454) CFA_SP SP+6
          CFI (cfiCond454) CFA_Y Y+10
          CFI Block cfiCond455 Using cfiCommon0
          CFI (cfiCond455) Function coding
          CFI (cfiCond455) Conditional ??CrossCallReturnLabel_309, ??CrossCallReturnLabel_195
          CFI (cfiCond455) R24 Frame(CFA_Y, -10)
          CFI (cfiCond455) R25 Frame(CFA_Y, -9)
          CFI (cfiCond455) R26 Frame(CFA_Y, -8)
          CFI (cfiCond455) R27 Frame(CFA_Y, -7)
          CFI (cfiCond455) R4 Frame(CFA_Y, -6)
          CFI (cfiCond455) R5 Frame(CFA_Y, -5)
          CFI (cfiCond455) R6 Frame(CFA_Y, -4)
          CFI (cfiCond455) R7 Frame(CFA_Y, -3)
          CFI (cfiCond455) R8 Frame(CFA_Y, -2)
          CFI (cfiCond455) R9 Frame(CFA_Y, -1)
          CFI (cfiCond455) CFA_SP SP+6
          CFI (cfiCond455) CFA_Y Y+10
          CFI Block cfiCond456 Using cfiCommon0
          CFI (cfiCond456) Function diag
          CFI (cfiCond456) Conditional ??CrossCallReturnLabel_309, ??CrossCallReturnLabel_194
          CFI (cfiCond456) R24 Frame(CFA_Y, -2)
          CFI (cfiCond456) R25 Frame(CFA_Y, -1)
          CFI (cfiCond456) CFA_SP SP+6
          CFI (cfiCond456) CFA_Y Y+2
          CFI Block cfiCond457 Using cfiCommon0
          CFI (cfiCond457) Function main_logic
          CFI (cfiCond457) Conditional ??CrossCallReturnLabel_310, ??CrossCallReturnLabel_22
          CFI (cfiCond457) CFA_SP SP+6
          CFI Block cfiCond458 Using cfiCommon0
          CFI (cfiCond458) Function main_logic
          CFI (cfiCond458) Conditional ??CrossCallReturnLabel_310, ??CrossCallReturnLabel_23
          CFI (cfiCond458) CFA_SP SP+6
          CFI Block cfiCond459 Using cfiCommon0
          CFI (cfiCond459) Function PEREP
          CFI (cfiCond459) Conditional ??CrossCallReturnLabel_311, ??CrossCallReturnLabel_313
          CFI (cfiCond459) R24 Frame(CFA_Y, -8)
          CFI (cfiCond459) R25 Frame(CFA_Y, -7)
          CFI (cfiCond459) R26 Frame(CFA_Y, -6)
          CFI (cfiCond459) R27 Frame(CFA_Y, -5)
          CFI (cfiCond459) R4 Frame(CFA_Y, -4)
          CFI (cfiCond459) R5 Frame(CFA_Y, -3)
          CFI (cfiCond459) R6 Frame(CFA_Y, -2)
          CFI (cfiCond459) R7 Frame(CFA_Y, -1)
          CFI (cfiCond459) CFA_SP SP+6
          CFI (cfiCond459) CFA_Y Y+8
          CFI Block cfiCond460 Using cfiCommon0
          CFI (cfiCond460) Function normal
          CFI (cfiCond460) Conditional ??CrossCallReturnLabel_311, ??CrossCallReturnLabel_312
          CFI (cfiCond460) R24 Frame(CFA_Y, -1)
          CFI (cfiCond460) CFA_SP SP+6
          CFI (cfiCond460) CFA_Y Y+1
          CFI Block cfiPicker461 Using cfiCommon2
          CFI (cfiPicker461) NoFunction
          CFI (cfiPicker461) Picker
        LDI     R18, 0
        LDI     R19, 0
        RCALL   ?UL2F_L04
          CFI EndBlock cfiCond447
          CFI EndBlock cfiCond448
          CFI EndBlock cfiCond449
          CFI EndBlock cfiCond450
          CFI EndBlock cfiCond451
          CFI EndBlock cfiCond452
          CFI EndBlock cfiCond453
          CFI EndBlock cfiCond454
          CFI EndBlock cfiCond455
          CFI EndBlock cfiCond456
          CFI EndBlock cfiCond457
          CFI EndBlock cfiCond458
          CFI EndBlock cfiCond459
          CFI EndBlock cfiCond460
          CFI EndBlock cfiPicker461
        REQUIRE ?Subroutine121
        ;               // Fall through to label ?Subroutine121

        RSEG CODE:CODE:NOROOT(1)
?Subroutine121:
          CFI Block cfiCond462 Using cfiCommon0
          CFI Function coding
          CFI Conditional ??CrossCallReturnLabel_53
          CFI R24 Frame(CFA_Y, -10)
          CFI R25 Frame(CFA_Y, -9)
          CFI R26 Frame(CFA_Y, -8)
          CFI R27 Frame(CFA_Y, -7)
          CFI R4 Frame(CFA_Y, -6)
          CFI R5 Frame(CFA_Y, -5)
          CFI R6 Frame(CFA_Y, -4)
          CFI R7 Frame(CFA_Y, -3)
          CFI R8 Frame(CFA_Y, -2)
          CFI R9 Frame(CFA_Y, -1)
          CFI CFA_SP SP+4
          CFI CFA_Y Y+10
          CFI Block cfiCond463 Using cfiCommon0
          CFI (cfiCond463) Function coding
          CFI (cfiCond463) Conditional ??CrossCallReturnLabel_54
          CFI (cfiCond463) R24 Frame(CFA_Y, -10)
          CFI (cfiCond463) R25 Frame(CFA_Y, -9)
          CFI (cfiCond463) R26 Frame(CFA_Y, -8)
          CFI (cfiCond463) R27 Frame(CFA_Y, -7)
          CFI (cfiCond463) R4 Frame(CFA_Y, -6)
          CFI (cfiCond463) R5 Frame(CFA_Y, -5)
          CFI (cfiCond463) R6 Frame(CFA_Y, -4)
          CFI (cfiCond463) R7 Frame(CFA_Y, -3)
          CFI (cfiCond463) R8 Frame(CFA_Y, -2)
          CFI (cfiCond463) R9 Frame(CFA_Y, -1)
          CFI (cfiCond463) CFA_SP SP+4
          CFI (cfiCond463) CFA_Y Y+10
          CFI Block cfiCond464 Using cfiCommon0
          CFI (cfiCond464) Function PEREP
          CFI (cfiCond464) Conditional ??CrossCallReturnLabel_305, ??CrossCallReturnLabel_188
          CFI (cfiCond464) R24 Frame(CFA_Y, -8)
          CFI (cfiCond464) R25 Frame(CFA_Y, -7)
          CFI (cfiCond464) R26 Frame(CFA_Y, -6)
          CFI (cfiCond464) R27 Frame(CFA_Y, -5)
          CFI (cfiCond464) R4 Frame(CFA_Y, -4)
          CFI (cfiCond464) R5 Frame(CFA_Y, -3)
          CFI (cfiCond464) R6 Frame(CFA_Y, -2)
          CFI (cfiCond464) R7 Frame(CFA_Y, -1)
          CFI (cfiCond464) CFA_SP SP+6
          CFI (cfiCond464) CFA_Y Y+8
          CFI Block cfiCond465 Using cfiCommon0
          CFI (cfiCond465) Function PEREP
          CFI (cfiCond465) Conditional ??CrossCallReturnLabel_305, ??CrossCallReturnLabel_189
          CFI (cfiCond465) R24 Frame(CFA_Y, -8)
          CFI (cfiCond465) R25 Frame(CFA_Y, -7)
          CFI (cfiCond465) R26 Frame(CFA_Y, -6)
          CFI (cfiCond465) R27 Frame(CFA_Y, -5)
          CFI (cfiCond465) R4 Frame(CFA_Y, -4)
          CFI (cfiCond465) R5 Frame(CFA_Y, -3)
          CFI (cfiCond465) R6 Frame(CFA_Y, -2)
          CFI (cfiCond465) R7 Frame(CFA_Y, -1)
          CFI (cfiCond465) CFA_SP SP+6
          CFI (cfiCond465) CFA_Y Y+8
          CFI Block cfiCond466 Using cfiCommon0
          CFI (cfiCond466) Function PEREP
          CFI (cfiCond466) Conditional ??CrossCallReturnLabel_306, ??CrossCallReturnLabel_319
          CFI (cfiCond466) R24 Frame(CFA_Y, -8)
          CFI (cfiCond466) R25 Frame(CFA_Y, -7)
          CFI (cfiCond466) R26 Frame(CFA_Y, -6)
          CFI (cfiCond466) R27 Frame(CFA_Y, -5)
          CFI (cfiCond466) R4 Frame(CFA_Y, -4)
          CFI (cfiCond466) R5 Frame(CFA_Y, -3)
          CFI (cfiCond466) R6 Frame(CFA_Y, -2)
          CFI (cfiCond466) R7 Frame(CFA_Y, -1)
          CFI (cfiCond466) CFA_SP SP+6
          CFI (cfiCond466) CFA_Y Y+8
          CFI Block cfiCond467 Using cfiCommon0
          CFI (cfiCond467) Function coding
          CFI (cfiCond467) Conditional ??CrossCallReturnLabel_306, ??CrossCallReturnLabel_318
          CFI (cfiCond467) R24 Frame(CFA_Y, -10)
          CFI (cfiCond467) R25 Frame(CFA_Y, -9)
          CFI (cfiCond467) R26 Frame(CFA_Y, -8)
          CFI (cfiCond467) R27 Frame(CFA_Y, -7)
          CFI (cfiCond467) R4 Frame(CFA_Y, -6)
          CFI (cfiCond467) R5 Frame(CFA_Y, -5)
          CFI (cfiCond467) R6 Frame(CFA_Y, -4)
          CFI (cfiCond467) R7 Frame(CFA_Y, -3)
          CFI (cfiCond467) R8 Frame(CFA_Y, -2)
          CFI (cfiCond467) R9 Frame(CFA_Y, -1)
          CFI (cfiCond467) CFA_SP SP+6
          CFI (cfiCond467) CFA_Y Y+10
          CFI Block cfiCond468 Using cfiCommon0
          CFI (cfiCond468) Function PEREP
          CFI (cfiCond468) Conditional ??CrossCallReturnLabel_306, ??CrossCallReturnLabel_317
          CFI (cfiCond468) R24 Frame(CFA_Y, -8)
          CFI (cfiCond468) R25 Frame(CFA_Y, -7)
          CFI (cfiCond468) R26 Frame(CFA_Y, -6)
          CFI (cfiCond468) R27 Frame(CFA_Y, -5)
          CFI (cfiCond468) R4 Frame(CFA_Y, -4)
          CFI (cfiCond468) R5 Frame(CFA_Y, -3)
          CFI (cfiCond468) R6 Frame(CFA_Y, -2)
          CFI (cfiCond468) R7 Frame(CFA_Y, -1)
          CFI (cfiCond468) CFA_SP SP+6
          CFI (cfiCond468) CFA_Y Y+8
          CFI Block cfiCond469 Using cfiCommon0
          CFI (cfiCond469) Function PEREP
          CFI (cfiCond469) Conditional ??CrossCallReturnLabel_306, ??CrossCallReturnLabel_316
          CFI (cfiCond469) R24 Frame(CFA_Y, -8)
          CFI (cfiCond469) R25 Frame(CFA_Y, -7)
          CFI (cfiCond469) R26 Frame(CFA_Y, -6)
          CFI (cfiCond469) R27 Frame(CFA_Y, -5)
          CFI (cfiCond469) R4 Frame(CFA_Y, -4)
          CFI (cfiCond469) R5 Frame(CFA_Y, -3)
          CFI (cfiCond469) R6 Frame(CFA_Y, -2)
          CFI (cfiCond469) R7 Frame(CFA_Y, -1)
          CFI (cfiCond469) CFA_SP SP+6
          CFI (cfiCond469) CFA_Y Y+8
          CFI Block cfiCond470 Using cfiCommon0
          CFI (cfiCond470) Function coding
          CFI (cfiCond470) Conditional ??CrossCallReturnLabel_306, ??CrossCallReturnLabel_315
          CFI (cfiCond470) R24 Frame(CFA_Y, -10)
          CFI (cfiCond470) R25 Frame(CFA_Y, -9)
          CFI (cfiCond470) R26 Frame(CFA_Y, -8)
          CFI (cfiCond470) R27 Frame(CFA_Y, -7)
          CFI (cfiCond470) R4 Frame(CFA_Y, -6)
          CFI (cfiCond470) R5 Frame(CFA_Y, -5)
          CFI (cfiCond470) R6 Frame(CFA_Y, -4)
          CFI (cfiCond470) R7 Frame(CFA_Y, -3)
          CFI (cfiCond470) R8 Frame(CFA_Y, -2)
          CFI (cfiCond470) R9 Frame(CFA_Y, -1)
          CFI (cfiCond470) CFA_SP SP+6
          CFI (cfiCond470) CFA_Y Y+10
          CFI Block cfiCond471 Using cfiCommon0
          CFI (cfiCond471) Function coding
          CFI (cfiCond471) Conditional ??CrossCallReturnLabel_306, ??CrossCallReturnLabel_314
          CFI (cfiCond471) R24 Frame(CFA_Y, -10)
          CFI (cfiCond471) R25 Frame(CFA_Y, -9)
          CFI (cfiCond471) R26 Frame(CFA_Y, -8)
          CFI (cfiCond471) R27 Frame(CFA_Y, -7)
          CFI (cfiCond471) R4 Frame(CFA_Y, -6)
          CFI (cfiCond471) R5 Frame(CFA_Y, -5)
          CFI (cfiCond471) R6 Frame(CFA_Y, -4)
          CFI (cfiCond471) R7 Frame(CFA_Y, -3)
          CFI (cfiCond471) R8 Frame(CFA_Y, -2)
          CFI (cfiCond471) R9 Frame(CFA_Y, -1)
          CFI (cfiCond471) CFA_SP SP+6
          CFI (cfiCond471) CFA_Y Y+10
          CFI Block cfiCond472 Using cfiCommon0
          CFI (cfiCond472) Function coding
          CFI (cfiCond472) Conditional ??CrossCallReturnLabel_309, ??CrossCallReturnLabel_195
          CFI (cfiCond472) R24 Frame(CFA_Y, -10)
          CFI (cfiCond472) R25 Frame(CFA_Y, -9)
          CFI (cfiCond472) R26 Frame(CFA_Y, -8)
          CFI (cfiCond472) R27 Frame(CFA_Y, -7)
          CFI (cfiCond472) R4 Frame(CFA_Y, -6)
          CFI (cfiCond472) R5 Frame(CFA_Y, -5)
          CFI (cfiCond472) R6 Frame(CFA_Y, -4)
          CFI (cfiCond472) R7 Frame(CFA_Y, -3)
          CFI (cfiCond472) R8 Frame(CFA_Y, -2)
          CFI (cfiCond472) R9 Frame(CFA_Y, -1)
          CFI (cfiCond472) CFA_SP SP+6
          CFI (cfiCond472) CFA_Y Y+10
          CFI Block cfiCond473 Using cfiCommon0
          CFI (cfiCond473) Function diag
          CFI (cfiCond473) Conditional ??CrossCallReturnLabel_309, ??CrossCallReturnLabel_194
          CFI (cfiCond473) R24 Frame(CFA_Y, -2)
          CFI (cfiCond473) R25 Frame(CFA_Y, -1)
          CFI (cfiCond473) CFA_SP SP+6
          CFI (cfiCond473) CFA_Y Y+2
          CFI Block cfiCond474 Using cfiCommon0
          CFI (cfiCond474) Function main_logic
          CFI (cfiCond474) Conditional ??CrossCallReturnLabel_310, ??CrossCallReturnLabel_22
          CFI (cfiCond474) CFA_SP SP+6
          CFI Block cfiCond475 Using cfiCommon0
          CFI (cfiCond475) Function main_logic
          CFI (cfiCond475) Conditional ??CrossCallReturnLabel_310, ??CrossCallReturnLabel_23
          CFI (cfiCond475) CFA_SP SP+6
          CFI Block cfiCond476 Using cfiCommon0
          CFI (cfiCond476) Function PEREP
          CFI (cfiCond476) Conditional ??CrossCallReturnLabel_311, ??CrossCallReturnLabel_313
          CFI (cfiCond476) R24 Frame(CFA_Y, -8)
          CFI (cfiCond476) R25 Frame(CFA_Y, -7)
          CFI (cfiCond476) R26 Frame(CFA_Y, -6)
          CFI (cfiCond476) R27 Frame(CFA_Y, -5)
          CFI (cfiCond476) R4 Frame(CFA_Y, -4)
          CFI (cfiCond476) R5 Frame(CFA_Y, -3)
          CFI (cfiCond476) R6 Frame(CFA_Y, -2)
          CFI (cfiCond476) R7 Frame(CFA_Y, -1)
          CFI (cfiCond476) CFA_SP SP+6
          CFI (cfiCond476) CFA_Y Y+8
          CFI Block cfiCond477 Using cfiCommon0
          CFI (cfiCond477) Function normal
          CFI (cfiCond477) Conditional ??CrossCallReturnLabel_311, ??CrossCallReturnLabel_312
          CFI (cfiCond477) R24 Frame(CFA_Y, -1)
          CFI (cfiCond477) CFA_SP SP+6
          CFI (cfiCond477) CFA_Y Y+1
          CFI Block cfiCond478 Using cfiCommon0
          CFI (cfiCond478) Function diag
          CFI (cfiCond478) Conditional ??CrossCallReturnLabel_307
          CFI (cfiCond478) R24 Frame(CFA_Y, -2)
          CFI (cfiCond478) R25 Frame(CFA_Y, -1)
          CFI (cfiCond478) CFA_SP SP+4
          CFI (cfiCond478) CFA_Y Y+2
          CFI Block cfiCond479 Using cfiCommon0
          CFI (cfiCond479) Function rprintfFloat
          CFI (cfiCond479) Conditional ??CrossCallReturnLabel_308
          CFI (cfiCond479) R24 Frame(CFA_Y, -12)
          CFI (cfiCond479) R25 Frame(CFA_Y, -11)
          CFI (cfiCond479) R26 Frame(CFA_Y, -10)
          CFI (cfiCond479) R27 Frame(CFA_Y, -9)
          CFI (cfiCond479) R4 Frame(CFA_Y, -8)
          CFI (cfiCond479) R5 Frame(CFA_Y, -7)
          CFI (cfiCond479) R6 Frame(CFA_Y, -6)
          CFI (cfiCond479) R7 Frame(CFA_Y, -5)
          CFI (cfiCond479) R8 Frame(CFA_Y, -4)
          CFI (cfiCond479) R9 Frame(CFA_Y, -3)
          CFI (cfiCond479) R10 Frame(CFA_Y, -2)
          CFI (cfiCond479) R11 Frame(CFA_Y, -1)
          CFI (cfiCond479) CFA_SP SP+4
          CFI (cfiCond479) CFA_Y Y+12
          CFI Block cfiPicker480 Using cfiCommon2
          CFI (cfiPicker480) NoFunction
          CFI (cfiPicker480) Picker
        MOVW    R21:R20, R17:R16
        MOVW    R23:R22, R19:R18
        RET
          CFI EndBlock cfiCond462
          CFI EndBlock cfiCond463
          CFI EndBlock cfiCond464
          CFI EndBlock cfiCond465
          CFI EndBlock cfiCond466
          CFI EndBlock cfiCond467
          CFI EndBlock cfiCond468
          CFI EndBlock cfiCond469
          CFI EndBlock cfiCond470
          CFI EndBlock cfiCond471
          CFI EndBlock cfiCond472
          CFI EndBlock cfiCond473
          CFI EndBlock cfiCond474
          CFI EndBlock cfiCond475
          CFI EndBlock cfiCond476
          CFI EndBlock cfiCond477
          CFI EndBlock cfiCond478
          CFI EndBlock cfiCond479
          CFI EndBlock cfiPicker480

        RSEG CODE:CODE:NOROOT(1)
?Subroutine17:
          CFI Block cfiCond481 Using cfiCommon0
          CFI Function normal
          CFI Conditional ??CrossCallReturnLabel_20
          CFI R24 Frame(CFA_Y, -1)
          CFI CFA_SP SP+4
          CFI CFA_Y Y+1
          CFI Block cfiCond482 Using cfiCommon0
          CFI (cfiCond482) Function normal
          CFI (cfiCond482) Conditional ??CrossCallReturnLabel_21
          CFI (cfiCond482) R24 Frame(CFA_Y, -1)
          CFI (cfiCond482) CFA_SP SP+4
          CFI (cfiCond482) CFA_Y Y+1
          CFI Block cfiPicker483 Using cfiCommon2
          CFI (cfiPicker483) NoFunction
          CFI (cfiPicker483) Picker
        SBI     0x18, 0x05
        RCALL   ?Subroutine114
??CrossCallReturnLabel_223:
        CBI     0x18, 0x05
        RCALL   ?Subroutine114
??CrossCallReturnLabel_224:
        DEC     R16
        RET
          CFI EndBlock cfiCond481
          CFI EndBlock cfiCond482
          CFI EndBlock cfiPicker483

        RSEG CODE:CODE:NOROOT(1)
?Subroutine16:
          CFI Block cfiCond484 Using cfiCommon0
          CFI Function main_logic
          CFI Conditional ??CrossCallReturnLabel_249
          CFI CFA_SP SP+4
          CFI Block cfiCond485 Using cfiCommon0
          CFI (cfiCond485) Function normal
          CFI (cfiCond485) Conditional ??CrossCallReturnLabel_250
          CFI (cfiCond485) R24 Frame(CFA_Y, -1)
          CFI (cfiCond485) CFA_SP SP+4
          CFI (cfiCond485) CFA_Y Y+1
          CFI Block cfiPicker486 Using cfiCommon2
          CFI (cfiPicker486) NoFunction
          CFI (cfiPicker486) Picker
        RCALL   ?Subroutine108
??CrossCallReturnLabel_208:
        RCALL   ?Subroutine106
??CrossCallReturnLabel_202:
        RCALL   ?Subroutine113
??CrossCallReturnLabel_219:
        RJMP    ?Subroutine125
          CFI EndBlock cfiCond484
          CFI EndBlock cfiCond485
          CFI EndBlock cfiPicker486

        RSEG CODE:CODE:NOROOT(1)
?Subroutine15:
          CFI Block cfiCond487 Using cfiCommon0
          CFI Function main_logic
          CFI Conditional ??CrossCallReturnLabel_18
          CFI CFA_SP SP+4
          CFI Block cfiCond488 Using cfiCommon0
          CFI (cfiCond488) Function normal
          CFI (cfiCond488) Conditional ??CrossCallReturnLabel_19
          CFI (cfiCond488) R24 Frame(CFA_Y, -1)
          CFI (cfiCond488) CFA_SP SP+4
          CFI (cfiCond488) CFA_Y Y+1
          CFI Block cfiPicker489 Using cfiCommon2
          CFI (cfiPicker489) NoFunction
          CFI (cfiPicker489) Picker
        RCALL   ?Subroutine109
??CrossCallReturnLabel_332:
        STS     onok, R16
        RET
          CFI EndBlock cfiCond487
          CFI EndBlock cfiCond488
          CFI EndBlock cfiPicker489

        RSEG CODE:CODE:NOROOT(1)
?Subroutine8:
          CFI Block cfiCond490 Using cfiCommon0
          CFI Function normal
          CFI Conditional ??CrossCallReturnLabel_205
          CFI R24 Frame(CFA_Y, -1)
          CFI CFA_SP SP+4
          CFI CFA_Y Y+1
          CFI Block cfiCond491 Using cfiCommon0
          CFI (cfiCond491) Function normal
          CFI (cfiCond491) Conditional ??CrossCallReturnLabel_206
          CFI (cfiCond491) R24 Frame(CFA_Y, -1)
          CFI (cfiCond491) CFA_SP SP+4
          CFI (cfiCond491) CFA_Y Y+1
          CFI Block cfiCond492 Using cfiCommon0
          CFI (cfiCond492) Function normal
          CFI (cfiCond492) Conditional ??CrossCallReturnLabel_207
          CFI (cfiCond492) R24 Frame(CFA_Y, -1)
          CFI (cfiCond492) CFA_SP SP+4
          CFI (cfiCond492) CFA_Y Y+1
          CFI Block cfiPicker493 Using cfiCommon2
          CFI (cfiPicker493) NoFunction
          CFI (cfiPicker493) Picker
        LDI     R16, 1
          CFI EndBlock cfiCond490
          CFI EndBlock cfiCond491
          CFI EndBlock cfiCond492
          CFI EndBlock cfiPicker493
        REQUIRE ?Subroutine108
        ;               // Fall through to label ?Subroutine108

        RSEG CODE:CODE:NOROOT(1)
?Subroutine108:
          CFI Block cfiCond494 Using cfiCommon0
          CFI Function main
          CFI Conditional ??CrossCallReturnLabel_203
          CFI R24 Frame(CFA_Y, -1)
          CFI CFA_SP SP+4
          CFI CFA_Y Y+1
          CFI Block cfiCond495 Using cfiCommon0
          CFI (cfiCond495) Function normal
          CFI (cfiCond495) Conditional ??CrossCallReturnLabel_204
          CFI (cfiCond495) R24 Frame(CFA_Y, -1)
          CFI (cfiCond495) CFA_SP SP+4
          CFI (cfiCond495) CFA_Y Y+1
          CFI Block cfiCond496 Using cfiCommon0
          CFI (cfiCond496) Function main_logic
          CFI (cfiCond496) Conditional ??CrossCallReturnLabel_208, ??CrossCallReturnLabel_249
          CFI (cfiCond496) CFA_SP SP+6
          CFI Block cfiCond497 Using cfiCommon0
          CFI (cfiCond497) Function normal
          CFI (cfiCond497) Conditional ??CrossCallReturnLabel_208, ??CrossCallReturnLabel_250
          CFI (cfiCond497) R24 Frame(CFA_Y, -1)
          CFI (cfiCond497) CFA_SP SP+6
          CFI (cfiCond497) CFA_Y Y+1
          CFI Block cfiCond498 Using cfiCommon0
          CFI (cfiCond498) Function normal
          CFI (cfiCond498) Conditional ??CrossCallReturnLabel_205
          CFI (cfiCond498) R24 Frame(CFA_Y, -1)
          CFI (cfiCond498) CFA_SP SP+4
          CFI (cfiCond498) CFA_Y Y+1
          CFI Block cfiCond499 Using cfiCommon0
          CFI (cfiCond499) Function normal
          CFI (cfiCond499) Conditional ??CrossCallReturnLabel_206
          CFI (cfiCond499) R24 Frame(CFA_Y, -1)
          CFI (cfiCond499) CFA_SP SP+4
          CFI (cfiCond499) CFA_Y Y+1
          CFI Block cfiCond500 Using cfiCommon0
          CFI (cfiCond500) Function normal
          CFI (cfiCond500) Conditional ??CrossCallReturnLabel_207
          CFI (cfiCond500) R24 Frame(CFA_Y, -1)
          CFI (cfiCond500) CFA_SP SP+4
          CFI (cfiCond500) CFA_Y Y+1
          CFI Block cfiPicker501 Using cfiCommon2
          CFI (cfiPicker501) NoFunction
          CFI (cfiPicker501) Picker
        STS     aoff, R16
        RET
          CFI EndBlock cfiCond494
          CFI EndBlock cfiCond495
          CFI EndBlock cfiCond496
          CFI EndBlock cfiCond497
          CFI EndBlock cfiCond498
          CFI EndBlock cfiCond499
          CFI EndBlock cfiCond500
          CFI EndBlock cfiPicker501

        RSEG CODE:CODE:NOROOT(1)
?Subroutine4:
          CFI Block cfiCond502 Using cfiCommon0
          CFI Function normal
          CFI Conditional ??CrossCallReturnLabel_255
          CFI R24 Frame(CFA_Y, -1)
          CFI CFA_SP SP+4
          CFI CFA_Y Y+1
          CFI Block cfiCond503 Using cfiCommon0
          CFI (cfiCond503) Function normal
          CFI (cfiCond503) Conditional ??CrossCallReturnLabel_256
          CFI (cfiCond503) R24 Frame(CFA_Y, -1)
          CFI (cfiCond503) CFA_SP SP+4
          CFI (cfiCond503) CFA_Y Y+1
          CFI Block cfiPicker504 Using cfiCommon2
          CFI (cfiPicker504) NoFunction
          CFI (cfiPicker504) Picker
        LDS     R20, ??sel
        DEC     R20
        RCALL   ?Subroutine88
          CFI EndBlock cfiCond502
          CFI EndBlock cfiCond503
          CFI EndBlock cfiPicker504
??CrossCallReturnLabel_297:
        REQUIRE ?Subroutine126
        ;               // Fall through to label ?Subroutine126

        RSEG CODE:CODE:NOROOT(1)
?Subroutine126:
          CFI Block cfiCond505 Using cfiCommon0
          CFI Function normal
          CFI Conditional ??CrossCallReturnLabel_255
          CFI R24 Frame(CFA_Y, -1)
          CFI CFA_SP SP+4
          CFI CFA_Y Y+1
          CFI Block cfiCond506 Using cfiCommon0
          CFI (cfiCond506) Function normal
          CFI (cfiCond506) Conditional ??CrossCallReturnLabel_256
          CFI (cfiCond506) R24 Frame(CFA_Y, -1)
          CFI (cfiCond506) CFA_SP SP+4
          CFI (cfiCond506) CFA_Y Y+1
          CFI Block cfiCond507 Using cfiCommon0
          CFI (cfiCond507) Function normal
          CFI (cfiCond507) Conditional ??CrossCallReturnLabel_257
          CFI (cfiCond507) R24 Frame(CFA_Y, -1)
          CFI (cfiCond507) CFA_SP SP+4
          CFI (cfiCond507) CFA_Y Y+1
          CFI Block cfiCond508 Using cfiCommon0
          CFI (cfiCond508) Function normal
          CFI (cfiCond508) Conditional ??CrossCallReturnLabel_258
          CFI (cfiCond508) R24 Frame(CFA_Y, -1)
          CFI (cfiCond508) CFA_SP SP+4
          CFI (cfiCond508) CFA_Y Y+1
          CFI Block cfiCond509 Using cfiCommon0
          CFI (cfiCond509) Function normal
          CFI (cfiCond509) Conditional ??CrossCallReturnLabel_259
          CFI (cfiCond509) R24 Frame(CFA_Y, -1)
          CFI (cfiCond509) CFA_SP SP+4
          CFI (cfiCond509) CFA_Y Y+1
          CFI Block cfiCond510 Using cfiCommon0
          CFI (cfiCond510) Function normal
          CFI (cfiCond510) Conditional ??CrossCallReturnLabel_260
          CFI (cfiCond510) R24 Frame(CFA_Y, -1)
          CFI (cfiCond510) CFA_SP SP+4
          CFI (cfiCond510) CFA_Y Y+1
          CFI Block cfiCond511 Using cfiCommon0
          CFI (cfiCond511) Function normal
          CFI (cfiCond511) Conditional ??CrossCallReturnLabel_261
          CFI (cfiCond511) R24 Frame(CFA_Y, -1)
          CFI (cfiCond511) CFA_SP SP+4
          CFI (cfiCond511) CFA_Y Y+1
          CFI Block cfiCond512 Using cfiCommon0
          CFI (cfiCond512) Function normal
          CFI (cfiCond512) Conditional ??CrossCallReturnLabel_262
          CFI (cfiCond512) R24 Frame(CFA_Y, -1)
          CFI (cfiCond512) CFA_SP SP+4
          CFI (cfiCond512) CFA_Y Y+1
          CFI Block cfiCond513 Using cfiCommon0
          CFI (cfiCond513) Function source
          CFI (cfiCond513) Conditional ??CrossCallReturnLabel_263
          CFI (cfiCond513) CFA_SP SP+4
          CFI Block cfiCond514 Using cfiCommon0
          CFI (cfiCond514) Function source
          CFI (cfiCond514) Conditional ??CrossCallReturnLabel_264
          CFI (cfiCond514) CFA_SP SP+4
          CFI Block cfiCond515 Using cfiCommon0
          CFI (cfiCond515) Function source
          CFI (cfiCond515) Conditional ??CrossCallReturnLabel_265
          CFI (cfiCond515) CFA_SP SP+4
          CFI Block cfiCond516 Using cfiCommon0
          CFI (cfiCond516) Function source
          CFI (cfiCond516) Conditional ??CrossCallReturnLabel_266
          CFI (cfiCond516) CFA_SP SP+4
          CFI Block cfiCond517 Using cfiCommon0
          CFI (cfiCond517) Function source
          CFI (cfiCond517) Conditional ??CrossCallReturnLabel_267
          CFI (cfiCond517) CFA_SP SP+4
          CFI Block cfiCond518 Using cfiCommon0
          CFI (cfiCond518) Function source
          CFI (cfiCond518) Conditional ??CrossCallReturnLabel_268
          CFI (cfiCond518) CFA_SP SP+4
          CFI Block cfiPicker519 Using cfiCommon2
          CFI (cfiPicker519) NoFunction
          CFI (cfiPicker519) Picker
        LDS     R16, ??sel
        RET
          CFI EndBlock cfiCond505
          CFI EndBlock cfiCond506
          CFI EndBlock cfiCond507
          CFI EndBlock cfiCond508
          CFI EndBlock cfiCond509
          CFI EndBlock cfiCond510
          CFI EndBlock cfiCond511
          CFI EndBlock cfiCond512
          CFI EndBlock cfiCond513
          CFI EndBlock cfiCond514
          CFI EndBlock cfiCond515
          CFI EndBlock cfiCond516
          CFI EndBlock cfiCond517
          CFI EndBlock cfiCond518
          CFI EndBlock cfiPicker519
//  309  //------------------------------------------

        RSEG CODE:CODE:NOROOT(1)
//  310 void source()
source:
          CFI Block cfiBlock520 Using cfiCommon0
          CFI Function source
//  311 {  
//  312  
//  313   
//  314    
//  315   if (sel==1){ resOUT(); resled(); SET(PORTC,1);}
        FUNCALL source, resOUT
        LOCFRAME CSTACK, 0, STACK
        LOCFRAME RSTACK, 2, STACK
        ARGFRAME RSTACK, 0, STACK
        FUNCALL source, resled
        LOCFRAME CSTACK, 0, STACK
        LOCFRAME RSTACK, 2, STACK
        ARGFRAME RSTACK, 0, STACK
        FUNCALL source, resOUT
        LOCFRAME CSTACK, 0, STACK
        LOCFRAME RSTACK, 2, STACK
        ARGFRAME RSTACK, 0, STACK
        FUNCALL source, resled
        LOCFRAME CSTACK, 0, STACK
        LOCFRAME RSTACK, 2, STACK
        ARGFRAME RSTACK, 0, STACK
        FUNCALL source, resOUT
        LOCFRAME CSTACK, 0, STACK
        LOCFRAME RSTACK, 2, STACK
        ARGFRAME RSTACK, 0, STACK
        FUNCALL source, resled
        LOCFRAME CSTACK, 0, STACK
        LOCFRAME RSTACK, 2, STACK
        ARGFRAME RSTACK, 0, STACK
        FUNCALL source, resOUT
        LOCFRAME CSTACK, 0, STACK
        LOCFRAME RSTACK, 2, STACK
        ARGFRAME RSTACK, 0, STACK
        FUNCALL source, resled
        LOCFRAME CSTACK, 0, STACK
        LOCFRAME RSTACK, 2, STACK
        ARGFRAME RSTACK, 0, STACK
        FUNCALL source, resOUT
        LOCFRAME CSTACK, 0, STACK
        LOCFRAME RSTACK, 2, STACK
        ARGFRAME RSTACK, 0, STACK
        FUNCALL source, resled
        LOCFRAME CSTACK, 0, STACK
        LOCFRAME RSTACK, 2, STACK
        ARGFRAME RSTACK, 0, STACK
        FUNCALL source, migINI
        LOCFRAME CSTACK, 0, STACK
        LOCFRAME RSTACK, 2, STACK
        ARGFRAME RSTACK, 0, STACK
        RCALL   ?Subroutine126
??CrossCallReturnLabel_263:
        CPI     R16, 1
        BRNE    ??source_0
        RCALL   ?Subroutine79
??CrossCallReturnLabel_130:
        SBI     0x15, 0x01
//  316   if (sel==2){ resOUT(); resled(); SET(PORTC,2);}
??source_0:
        RCALL   ?Subroutine126
??CrossCallReturnLabel_264:
        CPI     R16, 2
        BRNE    ??source_1
        RCALL   ?Subroutine79
??CrossCallReturnLabel_129:
        SBI     0x15, 0x02
//  317   if (sel==3){ resOUT(); resled(); SET(PORTC,3);}
??source_1:
        RCALL   ?Subroutine126
??CrossCallReturnLabel_265:
        CPI     R16, 3
        BRNE    ??source_2
        RCALL   ?Subroutine79
??CrossCallReturnLabel_128:
        SBI     0x15, 0x03
//  318   if (sel==4){ resOUT(); resled();SET(PORTC,4);}
??source_2:
        RCALL   ?Subroutine126
??CrossCallReturnLabel_266:
        CPI     R16, 4
        BRNE    ??source_3
        RCALL   ?Subroutine79
??CrossCallReturnLabel_127:
        SBI     0x15, 0x04
//  319   if (sel==5 && mode==0 ){  resOUT(); resled();SET(PORTC,5);}
??source_3:
        RCALL   ?Subroutine126
??CrossCallReturnLabel_267:
        CPI     R16, 5
        BRNE    ??source_4
        RCALL   ?Subroutine66
??CrossCallReturnLabel_273:
        BRNE    ??source_4
        RCALL   ?Subroutine79
??CrossCallReturnLabel_126:
        SBI     0x15, 0x05
//  320   
//  321   if (mute!=1 ) if (zader==0) AC_ON;//вкл АС
??source_4:
        LDS     R16, mute
        LDS     R17, zader
        OR      R16, R17
        BRNE    ??source_5
        SBI     0x12, 0x06
//  322  
//  323    migINI(sel-1, 5 ,0); 
??source_5:
        LDI     R18, 0
        LDI     R17, 5
        RCALL   ?Subroutine126
??CrossCallReturnLabel_268:
        DEC     R16
        RJMP    migINI
          CFI EndBlock cfiBlock520
        REQUIRE _A_PORTC
        REQUIRE _A_PORTD
//  324  
//  325 }

        RSEG CODE:CODE:NOROOT(1)
?Subroutine79:
          CFI Block cfiCond521 Using cfiCommon0
          CFI Function source
          CFI Conditional ??CrossCallReturnLabel_130
          CFI CFA_SP SP+4
          CFI Block cfiCond522 Using cfiCommon0
          CFI (cfiCond522) Function source
          CFI (cfiCond522) Conditional ??CrossCallReturnLabel_129
          CFI (cfiCond522) CFA_SP SP+4
          CFI Block cfiCond523 Using cfiCommon0
          CFI (cfiCond523) Function source
          CFI (cfiCond523) Conditional ??CrossCallReturnLabel_128
          CFI (cfiCond523) CFA_SP SP+4
          CFI Block cfiCond524 Using cfiCommon0
          CFI (cfiCond524) Function source
          CFI (cfiCond524) Conditional ??CrossCallReturnLabel_127
          CFI (cfiCond524) CFA_SP SP+4
          CFI Block cfiCond525 Using cfiCommon0
          CFI (cfiCond525) Function source
          CFI (cfiCond525) Conditional ??CrossCallReturnLabel_126
          CFI (cfiCond525) CFA_SP SP+4
          CFI Block cfiPicker526 Using cfiCommon2
          CFI (cfiPicker526) NoFunction
          CFI (cfiPicker526) Picker
        RCALL   resOUT
        RJMP    resled
          CFI EndBlock cfiCond521
          CFI EndBlock cfiCond522
          CFI EndBlock cfiCond523
          CFI EndBlock cfiCond524
          CFI EndBlock cfiCond525
          CFI EndBlock cfiPicker526
//  326 
//  327 
//  328 
//  329 
//  330 
//  331 
//  332 
//  333 
//  334 
//  335 
//  336 
//  337 
//  338 
//  339 
//  340 
//  341 

        RSEG CODE:CODE:NOROOT(1)
//  342 void programming (uchar rez)
programming:
          CFI Block cfiBlock527 Using cfiCommon0
          CFI Function programming
//  343 {  
        FUNCALL programming, getadr
        LOCFRAME CSTACK, 1, STACK
        LOCFRAME RSTACK, 2, STACK
        ARGFRAME RSTACK, 0, STACK
        FUNCALL programming, writeCOD
        LOCFRAME CSTACK, 1, STACK
        LOCFRAME RSTACK, 2, STACK
        ARGFRAME RSTACK, 0, STACK
        FUNCALL programming, led_all
        LOCFRAME CSTACK, 1, STACK
        LOCFRAME RSTACK, 2, STACK
        ARGFRAME RSTACK, 0, STACK
        FUNCALL programming, led_all
        LOCFRAME CSTACK, 1, STACK
        LOCFRAME RSTACK, 2, STACK
        ARGFRAME RSTACK, 0, STACK
        FUNCALL programming, led_all
        LOCFRAME CSTACK, 1, STACK
        LOCFRAME RSTACK, 2, STACK
        ARGFRAME RSTACK, 0, STACK
        FUNCALL programming, led_all
        LOCFRAME CSTACK, 1, STACK
        LOCFRAME RSTACK, 2, STACK
        ARGFRAME RSTACK, 0, STACK
        FUNCALL programming, led_all
        LOCFRAME CSTACK, 1, STACK
        LOCFRAME RSTACK, 2, STACK
        ARGFRAME RSTACK, 0, STACK
        FUNCALL programming, led_all
        LOCFRAME CSTACK, 1, STACK
        LOCFRAME RSTACK, 2, STACK
        ARGFRAME RSTACK, 0, STACK
        FUNCALL programming, led_all
        LOCFRAME CSTACK, 1, STACK
        LOCFRAME RSTACK, 2, STACK
        ARGFRAME RSTACK, 0, STACK
        FUNCALL programming, led_all
        LOCFRAME CSTACK, 1, STACK
        LOCFRAME RSTACK, 2, STACK
        ARGFRAME RSTACK, 0, STACK
        ST      -Y, R24
          CFI R24 Frame(CFA_Y, -1)
          CFI CFA_Y Y+1
        MOV     R24, R16
//  344    if (tekfunc==255) return;
        RCALL   ?Subroutine116
??CrossCallReturnLabel_227:
        CPI     R16, 255
        BREQ    ??CrossCallReturnLabel_377
//  345    if (!get)  { getadr(); get=1; }//получаем адрес и зажигаем программируемую функцию
        LDS     R16, ??get
        TST     R16
        BRNE    ??programming_0
        RCALL   getadr
        LDI     R16, 1
        STS     ??get, R16
//  346    if (rez==1)
??programming_0:
        CPI     R24, 1
        BRNE    ??CrossCallReturnLabel_378
//  347    {
//  348      writeCOD();
        RCALL   writeCOD
//  349      tekfunc++;  get=0;
        RCALL   ?Subroutine11
//  350     if (tekfunc==12) {  for (uchar i=0; i<10;i++) 
??CrossCallReturnLabel_12:
        BRNE    ??programming_1
        LDI     R24, 10
//  351                            {led_all(1); p4; led_all(0);p4; }
??programming_2:
        RCALL   ?Subroutine0
??CrossCallReturnLabel_0:
        BRNE    ??programming_2
//  352                       }
//  353      if (tekfunc>MAXFUNC) {tekfunc=255;led_all(1);}
??programming_1:
        RCALL   ?Subroutine116
??CrossCallReturnLabel_228:
        CPI     R16, 24
        BRCS    ??CrossCallReturnLabel_378
        RCALL   ?Subroutine5
//  354 
//  355    }
//  356    
//  357    
//  358    if (keyONsm) { 
??CrossCallReturnLabel_378:
        SBIC    0x10, 0x05
        RJMP    ??CrossCallReturnLabel_377
//  359                 led_all(1); delay_s(1); 
        RCALL   ??Subroutine145_0
??CrossCallReturnLabel_373:
        RCALL   ?Subroutine70
//  360                 led_all(0); 
??CrossCallReturnLabel_98:
        RCALL   ?Subroutine12
//  361                 tekfunc++;  get=0;
??CrossCallReturnLabel_15:
        RCALL   ?Subroutine11
//  362                    if (tekfunc==12) {  for (uchar i=0; i<10;i++) 
??CrossCallReturnLabel_13:
        BRNE    ??programming_3
        LDI     R24, 10
//  363                            {led_all(1); p4; led_all(0);p4; }
??programming_4:
        RCALL   ?Subroutine0
??CrossCallReturnLabel_1:
        BRNE    ??programming_4
//  364                       }
//  365                 if (tekfunc>MAXFUNC) {tekfunc=255;led_all(1);}
??programming_3:
        RCALL   ?Subroutine116
??CrossCallReturnLabel_229:
        CPI     R16, 24
        BRCS    ??CrossCallReturnLabel_377
        RCALL   ?Subroutine5
          CFI EndBlock cfiBlock527
//  366                
//  367                  }
//  368      
//  369 }
??CrossCallReturnLabel_377:
        REQUIRE ?Subroutine127
        REQUIRE _A_PIND
        ;               // Fall through to label ?Subroutine127

        RSEG CODE:CODE:NOROOT(1)
?Subroutine127:
          CFI Block cfiBlock528 Using cfiCommon0
          CFI NoFunction
          CFI CFA_Y Y+1
          CFI R24 Frame(CFA_Y, -1)
        LD      R24, Y+
          CFI CFA_Y Y+0
          CFI R24 SameValue
        RET
          CFI EndBlock cfiBlock528

        RSEG CODE:CODE:NOROOT(1)
?Subroutine70:
          CFI Block cfiCond529 Using cfiCommon0
          CFI Function main_logic
          CFI Conditional ??CrossCallReturnLabel_97
          CFI CFA_SP SP+4
          CFI Block cfiCond530 Using cfiCommon0
          CFI (cfiCond530) Function programming
          CFI (cfiCond530) Conditional ??CrossCallReturnLabel_98
          CFI (cfiCond530) R24 Frame(CFA_Y, -1)
          CFI (cfiCond530) CFA_SP SP+4
          CFI (cfiCond530) CFA_Y Y+1
          CFI Block cfiPicker531 Using cfiCommon2
          CFI (cfiPicker531) NoFunction
          CFI (cfiPicker531) Picker
        LDI     R16, 255
        LDI     R17, 52
        LDI     R18, 12
        SUBI    R16, 1
        SBCI    R17, 0
        SBCI    R18, 0
        BRNE    $-6
        RJMP    $+2
        NOP
        RET
          CFI EndBlock cfiCond529
          CFI EndBlock cfiCond530
          CFI EndBlock cfiPicker531

        RSEG CODE:CODE:NOROOT(1)
?Subroutine12:
          CFI Block cfiCond532 Using cfiCommon0
          CFI Function led_test
          CFI Conditional ??CrossCallReturnLabel_17
          CFI R24 Frame(CFA_Y, -1)
          CFI CFA_SP SP+4
          CFI CFA_Y Y+1
          CFI Block cfiCond533 Using cfiCommon0
          CFI (cfiCond533) Function main
          CFI (cfiCond533) Conditional ??CrossCallReturnLabel_16
          CFI (cfiCond533) R24 Frame(CFA_Y, -1)
          CFI (cfiCond533) CFA_SP SP+4
          CFI (cfiCond533) CFA_Y Y+1
          CFI Block cfiCond534 Using cfiCommon0
          CFI (cfiCond534) Function programming
          CFI (cfiCond534) Conditional ??CrossCallReturnLabel_15
          CFI (cfiCond534) R24 Frame(CFA_Y, -1)
          CFI (cfiCond534) CFA_SP SP+4
          CFI (cfiCond534) CFA_Y Y+1
          CFI Block cfiCond535 Using cfiCommon0
          CFI (cfiCond535) Function writeCOD
          CFI (cfiCond535) Conditional ??CrossCallReturnLabel_14
          CFI (cfiCond535) R24 Frame(CFA_Y, -1)
          CFI (cfiCond535) CFA_SP SP+4
          CFI (cfiCond535) CFA_Y Y+1
          CFI Block cfiPicker536 Using cfiCommon2
          CFI (cfiPicker536) NoFunction
          CFI (cfiPicker536) Picker
        LDI     R16, 0
        RJMP    led_all
          CFI EndBlock cfiCond532
          CFI EndBlock cfiCond533
          CFI EndBlock cfiCond534
          CFI EndBlock cfiCond535
          CFI EndBlock cfiPicker536

        RSEG CODE:CODE:NOROOT(1)
?Subroutine11:
          CFI Block cfiCond537 Using cfiCommon0
          CFI Function programming
          CFI Conditional ??CrossCallReturnLabel_12
          CFI R24 Frame(CFA_Y, -1)
          CFI CFA_SP SP+4
          CFI CFA_Y Y+1
          CFI Block cfiCond538 Using cfiCommon0
          CFI (cfiCond538) Function programming
          CFI (cfiCond538) Conditional ??CrossCallReturnLabel_13
          CFI (cfiCond538) R24 Frame(CFA_Y, -1)
          CFI (cfiCond538) CFA_SP SP+4
          CFI (cfiCond538) CFA_Y Y+1
          CFI Block cfiPicker539 Using cfiCommon2
          CFI (cfiPicker539) NoFunction
          CFI (cfiPicker539) Picker
        LDI     R30, LOW(tekfunc)
        LDI     R31, (tekfunc) >> 8
        RCALL   ?Subroutine96
??CrossCallReturnLabel_327:
        LDI     R16, 0
        STS     ??get, R16
        RCALL   ?Subroutine116
??CrossCallReturnLabel_230:
        CPI     R16, 12
        RET
          CFI EndBlock cfiCond537
          CFI EndBlock cfiCond538
          CFI EndBlock cfiPicker539

        RSEG CODE:CODE:NOROOT(1)
?Subroutine116:
          CFI Block cfiCond540 Using cfiCommon0
          CFI Function programming
          CFI Conditional ??CrossCallReturnLabel_227
          CFI R24 Frame(CFA_Y, -1)
          CFI CFA_SP SP+4
          CFI CFA_Y Y+1
          CFI Block cfiCond541 Using cfiCommon0
          CFI (cfiCond541) Function programming
          CFI (cfiCond541) Conditional ??CrossCallReturnLabel_228
          CFI (cfiCond541) R24 Frame(CFA_Y, -1)
          CFI (cfiCond541) CFA_SP SP+4
          CFI (cfiCond541) CFA_Y Y+1
          CFI Block cfiCond542 Using cfiCommon0
          CFI (cfiCond542) Function programming
          CFI (cfiCond542) Conditional ??CrossCallReturnLabel_229
          CFI (cfiCond542) R24 Frame(CFA_Y, -1)
          CFI (cfiCond542) CFA_SP SP+4
          CFI (cfiCond542) CFA_Y Y+1
          CFI Block cfiCond543 Using cfiCommon0
          CFI (cfiCond543) Function programming
          CFI (cfiCond543) Conditional ??CrossCallReturnLabel_230, ??CrossCallReturnLabel_12
          CFI (cfiCond543) R24 Frame(CFA_Y, -1)
          CFI (cfiCond543) CFA_SP SP+6
          CFI (cfiCond543) CFA_Y Y+1
          CFI Block cfiCond544 Using cfiCommon0
          CFI (cfiCond544) Function programming
          CFI (cfiCond544) Conditional ??CrossCallReturnLabel_230, ??CrossCallReturnLabel_13
          CFI (cfiCond544) R24 Frame(CFA_Y, -1)
          CFI (cfiCond544) CFA_SP SP+6
          CFI (cfiCond544) CFA_Y Y+1
          CFI Block cfiPicker545 Using cfiCommon2
          CFI (cfiPicker545) NoFunction
          CFI (cfiPicker545) Picker
        LDS     R16, tekfunc
        RET
          CFI EndBlock cfiCond540
          CFI EndBlock cfiCond541
          CFI EndBlock cfiCond542
          CFI EndBlock cfiCond543
          CFI EndBlock cfiCond544
          CFI EndBlock cfiPicker545

        RSEG CODE:CODE:NOROOT(1)
?Subroutine5:
          CFI Block cfiCond546 Using cfiCommon0
          CFI Function programming
          CFI Conditional ??CrossCallReturnLabel_378
          CFI R24 Frame(CFA_Y, -1)
          CFI CFA_SP SP+4
          CFI CFA_Y Y+1
          CFI Block cfiCond547 Using cfiCommon0
          CFI (cfiCond547) Function programming
          CFI (cfiCond547) Conditional ??CrossCallReturnLabel_377
          CFI (cfiCond547) R24 Frame(CFA_Y, -1)
          CFI (cfiCond547) CFA_SP SP+4
          CFI (cfiCond547) CFA_Y Y+1
          CFI Block cfiPicker548 Using cfiCommon2
          CFI (cfiPicker548) NoFunction
          CFI (cfiPicker548) Picker
        LDI     R16, 255
        STS     tekfunc, R16
          CFI EndBlock cfiCond546
          CFI EndBlock cfiCond547
          CFI EndBlock cfiPicker548
        REQUIRE ??Subroutine145_0
        ;               // Fall through to label ??Subroutine145_0

        RSEG CODE:CODE:NOROOT(1)
??Subroutine145_0:
          CFI Block cfiCond549 Using cfiCommon0
          CFI Function led_test
          CFI Conditional ??CrossCallReturnLabel_376
          CFI R24 Frame(CFA_Y, -1)
          CFI CFA_SP SP+4
          CFI CFA_Y Y+1
          CFI Block cfiCond550 Using cfiCommon0
          CFI (cfiCond550) Function main
          CFI (cfiCond550) Conditional ??CrossCallReturnLabel_375
          CFI (cfiCond550) R24 Frame(CFA_Y, -1)
          CFI (cfiCond550) CFA_SP SP+4
          CFI (cfiCond550) CFA_Y Y+1
          CFI Block cfiCond551 Using cfiCommon0
          CFI (cfiCond551) Function main
          CFI (cfiCond551) Conditional ??CrossCallReturnLabel_374
          CFI (cfiCond551) R24 Frame(CFA_Y, -1)
          CFI (cfiCond551) CFA_SP SP+4
          CFI (cfiCond551) CFA_Y Y+1
          CFI Block cfiCond552 Using cfiCommon0
          CFI (cfiCond552) Function programming
          CFI (cfiCond552) Conditional ??CrossCallReturnLabel_373
          CFI (cfiCond552) R24 Frame(CFA_Y, -1)
          CFI (cfiCond552) CFA_SP SP+4
          CFI (cfiCond552) CFA_Y Y+1
          CFI Block cfiCond553 Using cfiCommon0
          CFI (cfiCond553) Function writeCOD
          CFI (cfiCond553) Conditional ??CrossCallReturnLabel_372
          CFI (cfiCond553) R24 Frame(CFA_Y, -1)
          CFI (cfiCond553) CFA_SP SP+4
          CFI (cfiCond553) CFA_Y Y+1
          CFI Block cfiCond554 Using cfiCommon0
          CFI (cfiCond554) Function programming
          CFI (cfiCond554) Conditional ??CrossCallReturnLabel_378
          CFI (cfiCond554) R24 Frame(CFA_Y, -1)
          CFI (cfiCond554) CFA_SP SP+4
          CFI (cfiCond554) CFA_Y Y+1
          CFI Block cfiCond555 Using cfiCommon0
          CFI (cfiCond555) Function programming
          CFI (cfiCond555) Conditional ??CrossCallReturnLabel_377
          CFI (cfiCond555) R24 Frame(CFA_Y, -1)
          CFI (cfiCond555) CFA_SP SP+4
          CFI (cfiCond555) CFA_Y Y+1
          CFI Block cfiPicker556 Using cfiCommon2
          CFI (cfiPicker556) NoFunction
          CFI (cfiPicker556) Picker
        LDI     R16, 1
        RJMP    led_all
          CFI EndBlock cfiCond549
          CFI EndBlock cfiCond550
          CFI EndBlock cfiCond551
          CFI EndBlock cfiCond552
          CFI EndBlock cfiCond553
          CFI EndBlock cfiCond554
          CFI EndBlock cfiCond555
          CFI EndBlock cfiPicker556

        RSEG CODE:CODE:NOROOT(1)
?Subroutine0:
          CFI Block cfiCond557 Using cfiCommon0
          CFI Function programming
          CFI Conditional ??CrossCallReturnLabel_0
          CFI R24 Frame(CFA_Y, -1)
          CFI CFA_SP SP+4
          CFI CFA_Y Y+1
          CFI Block cfiCond558 Using cfiCommon0
          CFI (cfiCond558) Function programming
          CFI (cfiCond558) Conditional ??CrossCallReturnLabel_1
          CFI (cfiCond558) R24 Frame(CFA_Y, -1)
          CFI (cfiCond558) CFA_SP SP+4
          CFI (cfiCond558) CFA_Y Y+1
          CFI Block cfiPicker559 Using cfiCommon2
          CFI (cfiPicker559) NoFunction
          CFI (cfiPicker559) Picker
        LDI     R16, 1
        RCALL   ?Subroutine115
??CrossCallReturnLabel_225:
        LDI     R16, 0
        RCALL   ?Subroutine115
??CrossCallReturnLabel_226:
        DEC     R24
        RET
          CFI EndBlock cfiCond557
          CFI EndBlock cfiCond558
          CFI EndBlock cfiPicker559

        RSEG CODE:CODE:NOROOT(1)
?Subroutine115:
          CFI Block cfiCond560 Using cfiCommon0
          CFI Function programming
          CFI Conditional ??CrossCallReturnLabel_225, ??CrossCallReturnLabel_0
          CFI R24 Frame(CFA_Y, -1)
          CFI CFA_SP SP+6
          CFI CFA_Y Y+1
          CFI Block cfiCond561 Using cfiCommon0
          CFI (cfiCond561) Function programming
          CFI (cfiCond561) Conditional ??CrossCallReturnLabel_225, ??CrossCallReturnLabel_1
          CFI (cfiCond561) R24 Frame(CFA_Y, -1)
          CFI (cfiCond561) CFA_SP SP+6
          CFI (cfiCond561) CFA_Y Y+1
          CFI Block cfiCond562 Using cfiCommon0
          CFI (cfiCond562) Function programming
          CFI (cfiCond562) Conditional ??CrossCallReturnLabel_226, ??CrossCallReturnLabel_0
          CFI (cfiCond562) R24 Frame(CFA_Y, -1)
          CFI (cfiCond562) CFA_SP SP+6
          CFI (cfiCond562) CFA_Y Y+1
          CFI Block cfiCond563 Using cfiCommon0
          CFI (cfiCond563) Function programming
          CFI (cfiCond563) Conditional ??CrossCallReturnLabel_226, ??CrossCallReturnLabel_1
          CFI (cfiCond563) R24 Frame(CFA_Y, -1)
          CFI (cfiCond563) CFA_SP SP+6
          CFI (cfiCond563) CFA_Y Y+1
          CFI Block cfiPicker564 Using cfiCommon2
          CFI (cfiPicker564) NoFunction
          CFI (cfiPicker564) Picker
        RCALL   led_all
        LDI     R16, 255
        LDI     R17, 225
        LDI     R18, 4
        SUBI    R16, 1
        SBCI    R17, 0
        SBCI    R18, 0
        BRNE    $-6
        RJMP    $+2
        NOP
        RET
          CFI EndBlock cfiCond560
          CFI EndBlock cfiCond561
          CFI EndBlock cfiCond562
          CFI EndBlock cfiCond563
          CFI EndBlock cfiPicker564
//  370 //--------------------------------------------------------------------
//  371 

        RSEG CODE:CODE:NOROOT(1)
//  372 void writeCOD()
writeCOD:
          CFI Block cfiBlock565 Using cfiCommon0
          CFI Function writeCOD
//  373 {
        FUNCALL writeCOD, rprintfStr
        LOCFRAME CSTACK, 1, STACK
        LOCFRAME RSTACK, 2, STACK
        ARGFRAME RSTACK, 0, STACK
        FUNCALL writeCOD, led_all
        LOCFRAME CSTACK, 1, STACK
        LOCFRAME RSTACK, 2, STACK
        ARGFRAME RSTACK, 0, STACK
        FUNCALL writeCOD, getadr
        LOCFRAME CSTACK, 1, STACK
        LOCFRAME RSTACK, 2, STACK
        ARGFRAME RSTACK, 0, STACK
        FUNCALL writeCOD, led_all
        LOCFRAME CSTACK, 1, STACK
        LOCFRAME RSTACK, 2, STACK
        ARGFRAME RSTACK, 0, STACK
        FUNCALL writeCOD, rprintfStr
        LOCFRAME CSTACK, 1, STACK
        LOCFRAME RSTACK, 2, STACK
        ARGFRAME RSTACK, 0, STACK
        FUNCALL writeCOD, USART_SendChar
        LOCFRAME CSTACK, 1, STACK
        LOCFRAME RSTACK, 2, STACK
        ARGFRAME RSTACK, 0, STACK
        ST      -Y, R24
          CFI R24 Frame(CFA_Y, -1)
          CFI CFA_Y Y+1
//  374   rprintfStr("write ..");
        LDI     R16, LOW(`?<Constant "write ..">`)
        LDI     R17, (`?<Constant "write ..">`) >> 8
        RCALL   rprintfStr
//  375   led_all(1);delay_s(3);
        RCALL   ??Subroutine145_0
??CrossCallReturnLabel_372:
        LDI     R16, 255
        LDI     R17, 158
        LDI     R18, 36
        SUBI    R16, 1
        SBCI    R17, 0
        SBCI    R18, 0
        BRNE    $-6
        RJMP    $+2
        NOP
//  376   uchar adr=getadr();
        RCALL   getadr
        MOV     R24, R16
//  377   led_all(0);
        RCALL   ?Subroutine12
//  378   
//  379        
//  380        k[adr]=cod1; delay_ms(30);
??CrossCallReturnLabel_14:
        RCALL   ?Subroutine97
??CrossCallReturnLabel_163:
        LDI     R18, LOW(k)
        LDI     R19, (k) >> 8
        ADD     R18, R0
        ADC     R19, R1
        RCALL   ?Subroutine34
??CrossCallReturnLabel_44:
        RCALL   ?Subroutine99
??CrossCallReturnLabel_174:
        RCALL   ?Subroutine84
//  381        k[adr+1]=cod2; delay_ms(30);
??CrossCallReturnLabel_379:
        RCALL   ??Subroutine148_0
??CrossCallReturnLabel_396:
        RCALL   ?Subroutine99
??CrossCallReturnLabel_175:
        MOVW    R21:R20, R19:R18
        SUBI    R20, 254
        SBCI    R21, 255
        RCALL   ??Subroutine146_0
//  382        k[adr+2]=cod3; delay_ms(30);
??CrossCallReturnLabel_381:
        RCALL   ??Subroutine147_0
??CrossCallReturnLabel_387:
        RCALL   ?Subroutine99
??CrossCallReturnLabel_176:
        SUBI    R18, 252
        SBCI    R19, 255
        RCALL   ?Subroutine84
//  383        
//  384        rprintfStr("OK !   "); ent;
??CrossCallReturnLabel_380:
        LDI     R16, LOW(`?<Constant "OK !   ">`)
        LDI     R17, (`?<Constant "OK !   ">`) >> 8
        RCALL   ?Subroutine42
//  385    
//  386 }
??CrossCallReturnLabel_236:
        RJMP    ?Subroutine127
          CFI EndBlock cfiBlock565

        RSEG CODE:CODE:NOROOT(1)
?Subroutine97:
          CFI Block cfiCond566 Using cfiCommon0
          CFI Function PEREP
          CFI Conditional ??CrossCallReturnLabel_162
          CFI R24 Frame(CFA_Y, -8)
          CFI R25 Frame(CFA_Y, -7)
          CFI R26 Frame(CFA_Y, -6)
          CFI R27 Frame(CFA_Y, -5)
          CFI R4 Frame(CFA_Y, -4)
          CFI R5 Frame(CFA_Y, -3)
          CFI R6 Frame(CFA_Y, -2)
          CFI R7 Frame(CFA_Y, -1)
          CFI CFA_SP SP+4
          CFI CFA_Y Y+8
          CFI Block cfiCond567 Using cfiCommon0
          CFI (cfiCond567) Function PEREP
          CFI (cfiCond567) Conditional ??CrossCallReturnLabel_165, ??CrossCallReturnLabel_30
          CFI (cfiCond567) R24 Frame(CFA_Y, -8)
          CFI (cfiCond567) R25 Frame(CFA_Y, -7)
          CFI (cfiCond567) R26 Frame(CFA_Y, -6)
          CFI (cfiCond567) R27 Frame(CFA_Y, -5)
          CFI (cfiCond567) R4 Frame(CFA_Y, -4)
          CFI (cfiCond567) R5 Frame(CFA_Y, -3)
          CFI (cfiCond567) R6 Frame(CFA_Y, -2)
          CFI (cfiCond567) R7 Frame(CFA_Y, -1)
          CFI (cfiCond567) CFA_SP SP+6
          CFI (cfiCond567) CFA_Y Y+8
          CFI Block cfiCond568 Using cfiCommon0
          CFI (cfiCond568) Function PEREP
          CFI (cfiCond568) Conditional ??CrossCallReturnLabel_165, ??CrossCallReturnLabel_31
          CFI (cfiCond568) R24 Frame(CFA_Y, -8)
          CFI (cfiCond568) R25 Frame(CFA_Y, -7)
          CFI (cfiCond568) R26 Frame(CFA_Y, -6)
          CFI (cfiCond568) R27 Frame(CFA_Y, -5)
          CFI (cfiCond568) R4 Frame(CFA_Y, -4)
          CFI (cfiCond568) R5 Frame(CFA_Y, -3)
          CFI (cfiCond568) R6 Frame(CFA_Y, -2)
          CFI (cfiCond568) R7 Frame(CFA_Y, -1)
          CFI (cfiCond568) CFA_SP SP+6
          CFI (cfiCond568) CFA_Y Y+8
          CFI Block cfiCond569 Using cfiCommon0
          CFI (cfiCond569) Function writeCOD
          CFI (cfiCond569) Conditional ??CrossCallReturnLabel_163
          CFI (cfiCond569) R24 Frame(CFA_Y, -1)
          CFI (cfiCond569) CFA_SP SP+4
          CFI (cfiCond569) CFA_Y Y+1
          CFI Block cfiCond570 Using cfiCommon0
          CFI (cfiCond570) Function diag
          CFI (cfiCond570) Conditional ??CrossCallReturnLabel_164
          CFI (cfiCond570) R24 Frame(CFA_Y, -2)
          CFI (cfiCond570) R25 Frame(CFA_Y, -1)
          CFI (cfiCond570) CFA_SP SP+4
          CFI (cfiCond570) CFA_Y Y+2
          CFI Block cfiPicker571 Using cfiCommon2
          CFI (cfiPicker571) NoFunction
          CFI (cfiPicker571) Picker
        LDI     R16, 2
        MUL     R24, R16
        RET
          CFI EndBlock cfiCond566
          CFI EndBlock cfiCond567
          CFI EndBlock cfiCond568
          CFI EndBlock cfiCond569
          CFI EndBlock cfiCond570
          CFI EndBlock cfiPicker571

        RSEG CODE:CODE:NOROOT(1)
?Subroutine84:
          CFI Block cfiCond572 Using cfiCommon0
          CFI Function writeCOD
          CFI Conditional ??CrossCallReturnLabel_379
          CFI R24 Frame(CFA_Y, -1)
          CFI CFA_SP SP+4
          CFI CFA_Y Y+1
          CFI Block cfiCond573 Using cfiCommon0
          CFI (cfiCond573) Function writeCOD
          CFI (cfiCond573) Conditional ??CrossCallReturnLabel_380
          CFI (cfiCond573) R24 Frame(CFA_Y, -1)
          CFI (cfiCond573) CFA_SP SP+4
          CFI (cfiCond573) CFA_Y Y+1
          CFI Block cfiPicker574 Using cfiCommon2
          CFI (cfiPicker574) NoFunction
          CFI (cfiPicker574) Picker
        MOVW    R21:R20, R19:R18
          CFI EndBlock cfiCond572
          CFI EndBlock cfiCond573
          CFI EndBlock cfiPicker574
        REQUIRE ??Subroutine146_0
        ;               // Fall through to label ??Subroutine146_0

        RSEG CODE:CODE:NOROOT(1)
??Subroutine146_0:
          CFI Block cfiCond575 Using cfiCommon0
          CFI Function writeCOD
          CFI Conditional ??CrossCallReturnLabel_381
          CFI R24 Frame(CFA_Y, -1)
          CFI CFA_SP SP+4
          CFI CFA_Y Y+1
          CFI Block cfiCond576 Using cfiCommon0
          CFI (cfiCond576) Function writeCOD
          CFI (cfiCond576) Conditional ??CrossCallReturnLabel_379
          CFI (cfiCond576) R24 Frame(CFA_Y, -1)
          CFI (cfiCond576) CFA_SP SP+4
          CFI (cfiCond576) CFA_Y Y+1
          CFI Block cfiCond577 Using cfiCommon0
          CFI (cfiCond577) Function writeCOD
          CFI (cfiCond577) Conditional ??CrossCallReturnLabel_380
          CFI (cfiCond577) R24 Frame(CFA_Y, -1)
          CFI (cfiCond577) CFA_SP SP+4
          CFI (cfiCond577) CFA_Y Y+1
          CFI Block cfiPicker578 Using cfiCommon2
          CFI (cfiPicker578) NoFunction
          CFI (cfiPicker578) Picker
        RCALL   __eeput16_16
        LDI     R16, 47
        LDI     R17, 117
        SUBI    R16, 1
        SBCI    R17, 0
        BRNE    $-4
        RJMP    $+2
        NOP
        RET
          CFI EndBlock cfiCond575
          CFI EndBlock cfiCond576
          CFI EndBlock cfiCond577
          CFI EndBlock cfiPicker578

        RSEG CODE:CODE:NOROOT(1)
?Subroutine40:
          CFI Block cfiCond579 Using cfiCommon0
          CFI Function PEREP
          CFI Conditional ??CrossCallReturnLabel_382
          CFI R24 Frame(CFA_Y, -8)
          CFI R25 Frame(CFA_Y, -7)
          CFI R26 Frame(CFA_Y, -6)
          CFI R27 Frame(CFA_Y, -5)
          CFI R4 Frame(CFA_Y, -4)
          CFI R5 Frame(CFA_Y, -3)
          CFI R6 Frame(CFA_Y, -2)
          CFI R7 Frame(CFA_Y, -1)
          CFI CFA_SP SP+4
          CFI CFA_Y Y+8
          CFI Block cfiCond580 Using cfiCommon0
          CFI (cfiCond580) Function coding
          CFI (cfiCond580) Conditional ??CrossCallReturnLabel_383
          CFI (cfiCond580) R24 Frame(CFA_Y, -10)
          CFI (cfiCond580) R25 Frame(CFA_Y, -9)
          CFI (cfiCond580) R26 Frame(CFA_Y, -8)
          CFI (cfiCond580) R27 Frame(CFA_Y, -7)
          CFI (cfiCond580) R4 Frame(CFA_Y, -6)
          CFI (cfiCond580) R5 Frame(CFA_Y, -5)
          CFI (cfiCond580) R6 Frame(CFA_Y, -4)
          CFI (cfiCond580) R7 Frame(CFA_Y, -3)
          CFI (cfiCond580) R8 Frame(CFA_Y, -2)
          CFI (cfiCond580) R9 Frame(CFA_Y, -1)
          CFI (cfiCond580) CFA_SP SP+4
          CFI (cfiCond580) CFA_Y Y+10
          CFI Block cfiPicker581 Using cfiCommon2
          CFI (cfiPicker581) NoFunction
          CFI (cfiPicker581) Picker
        RCALL   rprintfStr
          CFI EndBlock cfiCond579
          CFI EndBlock cfiCond580
          CFI EndBlock cfiPicker581
        REQUIRE ??Subroutine147_0
        ;               // Fall through to label ??Subroutine147_0

        RSEG CODE:CODE:NOROOT(1)
??Subroutine147_0:
          CFI Block cfiCond582 Using cfiCommon0
          CFI Function coding
          CFI Conditional ??CrossCallReturnLabel_384
          CFI R24 Frame(CFA_Y, -10)
          CFI R25 Frame(CFA_Y, -9)
          CFI R26 Frame(CFA_Y, -8)
          CFI R27 Frame(CFA_Y, -7)
          CFI R4 Frame(CFA_Y, -6)
          CFI R5 Frame(CFA_Y, -5)
          CFI R6 Frame(CFA_Y, -4)
          CFI R7 Frame(CFA_Y, -3)
          CFI R8 Frame(CFA_Y, -2)
          CFI R9 Frame(CFA_Y, -1)
          CFI CFA_SP SP+4
          CFI CFA_Y Y+10
          CFI Block cfiCond583 Using cfiCommon0
          CFI (cfiCond583) Function coding
          CFI (cfiCond583) Conditional ??CrossCallReturnLabel_385
          CFI (cfiCond583) R24 Frame(CFA_Y, -10)
          CFI (cfiCond583) R25 Frame(CFA_Y, -9)
          CFI (cfiCond583) R26 Frame(CFA_Y, -8)
          CFI (cfiCond583) R27 Frame(CFA_Y, -7)
          CFI (cfiCond583) R4 Frame(CFA_Y, -6)
          CFI (cfiCond583) R5 Frame(CFA_Y, -5)
          CFI (cfiCond583) R6 Frame(CFA_Y, -4)
          CFI (cfiCond583) R7 Frame(CFA_Y, -3)
          CFI (cfiCond583) R8 Frame(CFA_Y, -2)
          CFI (cfiCond583) R9 Frame(CFA_Y, -1)
          CFI (cfiCond583) CFA_SP SP+4
          CFI (cfiCond583) CFA_Y Y+10
          CFI Block cfiCond584 Using cfiCommon0
          CFI (cfiCond584) Function coding
          CFI (cfiCond584) Conditional ??CrossCallReturnLabel_386
          CFI (cfiCond584) R24 Frame(CFA_Y, -10)
          CFI (cfiCond584) R25 Frame(CFA_Y, -9)
          CFI (cfiCond584) R26 Frame(CFA_Y, -8)
          CFI (cfiCond584) R27 Frame(CFA_Y, -7)
          CFI (cfiCond584) R4 Frame(CFA_Y, -6)
          CFI (cfiCond584) R5 Frame(CFA_Y, -5)
          CFI (cfiCond584) R6 Frame(CFA_Y, -4)
          CFI (cfiCond584) R7 Frame(CFA_Y, -3)
          CFI (cfiCond584) R8 Frame(CFA_Y, -2)
          CFI (cfiCond584) R9 Frame(CFA_Y, -1)
          CFI (cfiCond584) CFA_SP SP+4
          CFI (cfiCond584) CFA_Y Y+10
          CFI Block cfiCond585 Using cfiCommon0
          CFI (cfiCond585) Function writeCOD
          CFI (cfiCond585) Conditional ??CrossCallReturnLabel_387
          CFI (cfiCond585) R24 Frame(CFA_Y, -1)
          CFI (cfiCond585) CFA_SP SP+4
          CFI (cfiCond585) CFA_Y Y+1
          CFI Block cfiCond586 Using cfiCommon0
          CFI (cfiCond586) Function PEREP
          CFI (cfiCond586) Conditional ??CrossCallReturnLabel_382
          CFI (cfiCond586) R24 Frame(CFA_Y, -8)
          CFI (cfiCond586) R25 Frame(CFA_Y, -7)
          CFI (cfiCond586) R26 Frame(CFA_Y, -6)
          CFI (cfiCond586) R27 Frame(CFA_Y, -5)
          CFI (cfiCond586) R4 Frame(CFA_Y, -4)
          CFI (cfiCond586) R5 Frame(CFA_Y, -3)
          CFI (cfiCond586) R6 Frame(CFA_Y, -2)
          CFI (cfiCond586) R7 Frame(CFA_Y, -1)
          CFI (cfiCond586) CFA_SP SP+4
          CFI (cfiCond586) CFA_Y Y+8
          CFI Block cfiCond587 Using cfiCommon0
          CFI (cfiCond587) Function coding
          CFI (cfiCond587) Conditional ??CrossCallReturnLabel_383
          CFI (cfiCond587) R24 Frame(CFA_Y, -10)
          CFI (cfiCond587) R25 Frame(CFA_Y, -9)
          CFI (cfiCond587) R26 Frame(CFA_Y, -8)
          CFI (cfiCond587) R27 Frame(CFA_Y, -7)
          CFI (cfiCond587) R4 Frame(CFA_Y, -6)
          CFI (cfiCond587) R5 Frame(CFA_Y, -5)
          CFI (cfiCond587) R6 Frame(CFA_Y, -4)
          CFI (cfiCond587) R7 Frame(CFA_Y, -3)
          CFI (cfiCond587) R8 Frame(CFA_Y, -2)
          CFI (cfiCond587) R9 Frame(CFA_Y, -1)
          CFI (cfiCond587) CFA_SP SP+4
          CFI (cfiCond587) CFA_Y Y+10
          CFI Block cfiPicker588 Using cfiCommon2
          CFI (cfiPicker588) NoFunction
          CFI (cfiPicker588) Picker
        LDI     R30, LOW(cod3)
        LDI     R31, (cod3) >> 8
        RET
          CFI EndBlock cfiCond582
          CFI EndBlock cfiCond583
          CFI EndBlock cfiCond584
          CFI EndBlock cfiCond585
          CFI EndBlock cfiCond586
          CFI EndBlock cfiCond587
          CFI EndBlock cfiPicker588

        RSEG CODE:CODE:NOROOT(1)
?Subroutine34:
          CFI Block cfiCond589 Using cfiCommon0
          CFI Function coding
          CFI Conditional ??CrossCallReturnLabel_38
          CFI R24 Frame(CFA_Y, -10)
          CFI R25 Frame(CFA_Y, -9)
          CFI R26 Frame(CFA_Y, -8)
          CFI R27 Frame(CFA_Y, -7)
          CFI R4 Frame(CFA_Y, -6)
          CFI R5 Frame(CFA_Y, -5)
          CFI R6 Frame(CFA_Y, -4)
          CFI R7 Frame(CFA_Y, -3)
          CFI R8 Frame(CFA_Y, -2)
          CFI R9 Frame(CFA_Y, -1)
          CFI CFA_SP SP+4
          CFI CFA_Y Y+10
          CFI Block cfiCond590 Using cfiCommon0
          CFI (cfiCond590) Function coding
          CFI (cfiCond590) Conditional ??CrossCallReturnLabel_39
          CFI (cfiCond590) R24 Frame(CFA_Y, -10)
          CFI (cfiCond590) R25 Frame(CFA_Y, -9)
          CFI (cfiCond590) R26 Frame(CFA_Y, -8)
          CFI (cfiCond590) R27 Frame(CFA_Y, -7)
          CFI (cfiCond590) R4 Frame(CFA_Y, -6)
          CFI (cfiCond590) R5 Frame(CFA_Y, -5)
          CFI (cfiCond590) R6 Frame(CFA_Y, -4)
          CFI (cfiCond590) R7 Frame(CFA_Y, -3)
          CFI (cfiCond590) R8 Frame(CFA_Y, -2)
          CFI (cfiCond590) R9 Frame(CFA_Y, -1)
          CFI (cfiCond590) CFA_SP SP+4
          CFI (cfiCond590) CFA_Y Y+10
          CFI Block cfiCond591 Using cfiCommon0
          CFI (cfiCond591) Function coding
          CFI (cfiCond591) Conditional ??CrossCallReturnLabel_40
          CFI (cfiCond591) R24 Frame(CFA_Y, -10)
          CFI (cfiCond591) R25 Frame(CFA_Y, -9)
          CFI (cfiCond591) R26 Frame(CFA_Y, -8)
          CFI (cfiCond591) R27 Frame(CFA_Y, -7)
          CFI (cfiCond591) R4 Frame(CFA_Y, -6)
          CFI (cfiCond591) R5 Frame(CFA_Y, -5)
          CFI (cfiCond591) R6 Frame(CFA_Y, -4)
          CFI (cfiCond591) R7 Frame(CFA_Y, -3)
          CFI (cfiCond591) R8 Frame(CFA_Y, -2)
          CFI (cfiCond591) R9 Frame(CFA_Y, -1)
          CFI (cfiCond591) CFA_SP SP+4
          CFI (cfiCond591) CFA_Y Y+10
          CFI Block cfiCond592 Using cfiCommon0
          CFI (cfiCond592) Function coding
          CFI (cfiCond592) Conditional ??CrossCallReturnLabel_41
          CFI (cfiCond592) R24 Frame(CFA_Y, -10)
          CFI (cfiCond592) R25 Frame(CFA_Y, -9)
          CFI (cfiCond592) R26 Frame(CFA_Y, -8)
          CFI (cfiCond592) R27 Frame(CFA_Y, -7)
          CFI (cfiCond592) R4 Frame(CFA_Y, -6)
          CFI (cfiCond592) R5 Frame(CFA_Y, -5)
          CFI (cfiCond592) R6 Frame(CFA_Y, -4)
          CFI (cfiCond592) R7 Frame(CFA_Y, -3)
          CFI (cfiCond592) R8 Frame(CFA_Y, -2)
          CFI (cfiCond592) R9 Frame(CFA_Y, -1)
          CFI (cfiCond592) CFA_SP SP+4
          CFI (cfiCond592) CFA_Y Y+10
          CFI Block cfiCond593 Using cfiCommon0
          CFI (cfiCond593) Function coding
          CFI (cfiCond593) Conditional ??CrossCallReturnLabel_42
          CFI (cfiCond593) R24 Frame(CFA_Y, -10)
          CFI (cfiCond593) R25 Frame(CFA_Y, -9)
          CFI (cfiCond593) R26 Frame(CFA_Y, -8)
          CFI (cfiCond593) R27 Frame(CFA_Y, -7)
          CFI (cfiCond593) R4 Frame(CFA_Y, -6)
          CFI (cfiCond593) R5 Frame(CFA_Y, -5)
          CFI (cfiCond593) R6 Frame(CFA_Y, -4)
          CFI (cfiCond593) R7 Frame(CFA_Y, -3)
          CFI (cfiCond593) R8 Frame(CFA_Y, -2)
          CFI (cfiCond593) R9 Frame(CFA_Y, -1)
          CFI (cfiCond593) CFA_SP SP+4
          CFI (cfiCond593) CFA_Y Y+10
          CFI Block cfiCond594 Using cfiCommon0
          CFI (cfiCond594) Function coding
          CFI (cfiCond594) Conditional ??CrossCallReturnLabel_43
          CFI (cfiCond594) R24 Frame(CFA_Y, -10)
          CFI (cfiCond594) R25 Frame(CFA_Y, -9)
          CFI (cfiCond594) R26 Frame(CFA_Y, -8)
          CFI (cfiCond594) R27 Frame(CFA_Y, -7)
          CFI (cfiCond594) R4 Frame(CFA_Y, -6)
          CFI (cfiCond594) R5 Frame(CFA_Y, -5)
          CFI (cfiCond594) R6 Frame(CFA_Y, -4)
          CFI (cfiCond594) R7 Frame(CFA_Y, -3)
          CFI (cfiCond594) R8 Frame(CFA_Y, -2)
          CFI (cfiCond594) R9 Frame(CFA_Y, -1)
          CFI (cfiCond594) CFA_SP SP+4
          CFI (cfiCond594) CFA_Y Y+10
          CFI Block cfiCond595 Using cfiCommon0
          CFI (cfiCond595) Function writeCOD
          CFI (cfiCond595) Conditional ??CrossCallReturnLabel_44
          CFI (cfiCond595) R24 Frame(CFA_Y, -1)
          CFI (cfiCond595) CFA_SP SP+4
          CFI (cfiCond595) CFA_Y Y+1
          CFI Block cfiCond596 Using cfiCommon0
          CFI (cfiCond596) Function analizCOD
          CFI (cfiCond596) Conditional ??CrossCallReturnLabel_45
          CFI (cfiCond596) R24 Frame(CFA_Y, -2)
          CFI (cfiCond596) R25 Frame(CFA_Y, -1)
          CFI (cfiCond596) CFA_SP SP+4
          CFI (cfiCond596) CFA_Y Y+2
          CFI Block cfiPicker597 Using cfiCommon2
          CFI (cfiPicker597) NoFunction
          CFI (cfiPicker597) Picker
        LDI     R30, LOW(cod1)
        LDI     R31, (cod1) >> 8
        RET
          CFI EndBlock cfiCond589
          CFI EndBlock cfiCond590
          CFI EndBlock cfiCond591
          CFI EndBlock cfiCond592
          CFI EndBlock cfiCond593
          CFI EndBlock cfiCond594
          CFI EndBlock cfiCond595
          CFI EndBlock cfiCond596
          CFI EndBlock cfiPicker597
//  387 
//  388 
//  389 
//  390  

        RSEG CODE:CODE:NOROOT(1)
//  391 uchar analizCOD ()
analizCOD:
          CFI Block cfiBlock598 Using cfiCommon0
          CFI Function analizCOD
//  392 {
        RCALL   ?PROLOGUE2_L09
          CFI R25 Frame(CFA_Y, -1)
          CFI R24 Frame(CFA_Y, -2)
          CFI CFA_Y Y+2
//  393  uint i;
//  394   for (i=0; i<MAXEEP-4; i++) 
        LDI     R24, 0
        LDI     R25, 0
//  395   {
//  396    // if ((kbuf[i])==cod1)  if ((kbuf[i+1])==cod2) if ((kbuf[i+2])==cod3) return(i);
//  397     if ((k[i])==cod1)  if ((k[i+1])==cod2) if ((k[i+2])==cod3) return(i);   
??analizCOD_0:
        MOVW    R17:R16, R25:R24
        LSL     R16
        ROL     R17
        LDI     R18, LOW(k)
        LDI     R19, (k) >> 8
        ADD     R18, R16
        ADC     R19, R17
        MOVW    R21:R20, R19:R18
        RCALL   __eeget16_16
        RCALL   ?Subroutine34
??CrossCallReturnLabel_45:
        RCALL   ?Subroutine85
??CrossCallReturnLabel_138:
        BRNE    ??analizCOD_1
        MOVW    R21:R20, R19:R18
        SUBI    R20, 254
        SBCI    R21, 255
        RCALL   __eeget16_16
        RCALL   ??Subroutine148_0
??CrossCallReturnLabel_397:
        RCALL   ?Subroutine85
??CrossCallReturnLabel_139:
        BRNE    ??analizCOD_1
        SUBI    R18, 252
        SBCI    R19, 255
        MOVW    R21:R20, R19:R18
        RCALL   __eeget16_16
        RCALL   ?Subroutine39
??CrossCallReturnLabel_248:
        CP      R16, R18
        CPC     R17, R19
        BRNE    ??analizCOD_1
        MOV     R16, R24
        RJMP    ??analizCOD_2
//  398   }
??analizCOD_1:
        ADIW    R25:R24, 1
        CPI     R24, 116
        LDI     R16, 0
        CPC     R25, R16
        BRCS    ??analizCOD_0
          CFI EndBlock cfiBlock598
//  399 
//  400 return(0);
??analizCOD_2:
        REQUIRE ?Subroutine135
        ;               // Fall through to label ?Subroutine135
//  401 }

        RSEG CODE:CODE:NOROOT(1)
?Subroutine135:
          CFI Block cfiBlock599 Using cfiCommon0
          CFI NoFunction
          CFI CFA_Y Y+2
          CFI R24 Frame(CFA_Y, -2)
          CFI R25 Frame(CFA_Y, -1)
        LDI     R30, 2
        RJMP    ?EPILOGUE_B2_L09
          CFI EndBlock cfiBlock599

        RSEG CODE:CODE:NOROOT(1)
?Subroutine85:
          CFI Block cfiCond600 Using cfiCommon0
          CFI Function analizCOD
          CFI Conditional ??CrossCallReturnLabel_138
          CFI R24 Frame(CFA_Y, -2)
          CFI R25 Frame(CFA_Y, -1)
          CFI CFA_SP SP+4
          CFI CFA_Y Y+2
          CFI Block cfiCond601 Using cfiCommon0
          CFI (cfiCond601) Function analizCOD
          CFI (cfiCond601) Conditional ??CrossCallReturnLabel_139
          CFI (cfiCond601) R24 Frame(CFA_Y, -2)
          CFI (cfiCond601) R25 Frame(CFA_Y, -1)
          CFI (cfiCond601) CFA_SP SP+4
          CFI (cfiCond601) CFA_Y Y+2
          CFI Block cfiPicker602 Using cfiCommon2
          CFI (cfiPicker602) NoFunction
          CFI (cfiPicker602) Picker
        LD      R20, Z
        LDD     R21, Z+1
        CP      R16, R20
        CPC     R17, R21
        RET
          CFI EndBlock cfiCond600
          CFI EndBlock cfiCond601
          CFI EndBlock cfiPicker602

        RSEG CODE:CODE:NOROOT(1)
?Subroutine39:
          CFI Block cfiCond603 Using cfiCommon0
          CFI Function coding
          CFI Conditional ??CrossCallReturnLabel_247
          CFI R24 Frame(CFA_Y, -10)
          CFI R25 Frame(CFA_Y, -9)
          CFI R26 Frame(CFA_Y, -8)
          CFI R27 Frame(CFA_Y, -7)
          CFI R4 Frame(CFA_Y, -6)
          CFI R5 Frame(CFA_Y, -5)
          CFI R6 Frame(CFA_Y, -4)
          CFI R7 Frame(CFA_Y, -3)
          CFI R8 Frame(CFA_Y, -2)
          CFI R9 Frame(CFA_Y, -1)
          CFI CFA_SP SP+4
          CFI CFA_Y Y+10
          CFI Block cfiCond604 Using cfiCommon0
          CFI (cfiCond604) Function analizCOD
          CFI (cfiCond604) Conditional ??CrossCallReturnLabel_248
          CFI (cfiCond604) R24 Frame(CFA_Y, -2)
          CFI (cfiCond604) R25 Frame(CFA_Y, -1)
          CFI (cfiCond604) CFA_SP SP+4
          CFI (cfiCond604) CFA_Y Y+2
          CFI Block cfiPicker605 Using cfiCommon2
          CFI (cfiPicker605) NoFunction
          CFI (cfiPicker605) Picker
        LDI     R30, LOW(cod3)
        LDI     R31, (cod3) >> 8
        RJMP    ?Subroutine123
          CFI EndBlock cfiCond603
          CFI EndBlock cfiCond604
          CFI EndBlock cfiPicker605

        RSEG CODE:CODE:NOROOT(1)
?Subroutine38:
          CFI Block cfiCond606 Using cfiCommon0
          CFI Function PEREP
          CFI Conditional ??CrossCallReturnLabel_388
          CFI R24 Frame(CFA_Y, -8)
          CFI R25 Frame(CFA_Y, -7)
          CFI R26 Frame(CFA_Y, -6)
          CFI R27 Frame(CFA_Y, -5)
          CFI R4 Frame(CFA_Y, -4)
          CFI R5 Frame(CFA_Y, -3)
          CFI R6 Frame(CFA_Y, -2)
          CFI R7 Frame(CFA_Y, -1)
          CFI CFA_SP SP+4
          CFI CFA_Y Y+8
          CFI Block cfiCond607 Using cfiCommon0
          CFI (cfiCond607) Function coding
          CFI (cfiCond607) Conditional ??CrossCallReturnLabel_389
          CFI (cfiCond607) R24 Frame(CFA_Y, -10)
          CFI (cfiCond607) R25 Frame(CFA_Y, -9)
          CFI (cfiCond607) R26 Frame(CFA_Y, -8)
          CFI (cfiCond607) R27 Frame(CFA_Y, -7)
          CFI (cfiCond607) R4 Frame(CFA_Y, -6)
          CFI (cfiCond607) R5 Frame(CFA_Y, -5)
          CFI (cfiCond607) R6 Frame(CFA_Y, -4)
          CFI (cfiCond607) R7 Frame(CFA_Y, -3)
          CFI (cfiCond607) R8 Frame(CFA_Y, -2)
          CFI (cfiCond607) R9 Frame(CFA_Y, -1)
          CFI (cfiCond607) CFA_SP SP+4
          CFI (cfiCond607) CFA_Y Y+10
          CFI Block cfiPicker608 Using cfiCommon2
          CFI (cfiPicker608) NoFunction
          CFI (cfiPicker608) Picker
        RCALL   rprintfStr
          CFI EndBlock cfiCond606
          CFI EndBlock cfiCond607
          CFI EndBlock cfiPicker608
        REQUIRE ??Subroutine148_0
        ;               // Fall through to label ??Subroutine148_0

        RSEG CODE:CODE:NOROOT(1)
??Subroutine148_0:
          CFI Block cfiCond609 Using cfiCommon0
          CFI Function coding
          CFI Conditional ??CrossCallReturnLabel_390
          CFI R24 Frame(CFA_Y, -10)
          CFI R25 Frame(CFA_Y, -9)
          CFI R26 Frame(CFA_Y, -8)
          CFI R27 Frame(CFA_Y, -7)
          CFI R4 Frame(CFA_Y, -6)
          CFI R5 Frame(CFA_Y, -5)
          CFI R6 Frame(CFA_Y, -4)
          CFI R7 Frame(CFA_Y, -3)
          CFI R8 Frame(CFA_Y, -2)
          CFI R9 Frame(CFA_Y, -1)
          CFI CFA_SP SP+4
          CFI CFA_Y Y+10
          CFI Block cfiCond610 Using cfiCommon0
          CFI (cfiCond610) Function coding
          CFI (cfiCond610) Conditional ??CrossCallReturnLabel_391
          CFI (cfiCond610) R24 Frame(CFA_Y, -10)
          CFI (cfiCond610) R25 Frame(CFA_Y, -9)
          CFI (cfiCond610) R26 Frame(CFA_Y, -8)
          CFI (cfiCond610) R27 Frame(CFA_Y, -7)
          CFI (cfiCond610) R4 Frame(CFA_Y, -6)
          CFI (cfiCond610) R5 Frame(CFA_Y, -5)
          CFI (cfiCond610) R6 Frame(CFA_Y, -4)
          CFI (cfiCond610) R7 Frame(CFA_Y, -3)
          CFI (cfiCond610) R8 Frame(CFA_Y, -2)
          CFI (cfiCond610) R9 Frame(CFA_Y, -1)
          CFI (cfiCond610) CFA_SP SP+4
          CFI (cfiCond610) CFA_Y Y+10
          CFI Block cfiCond611 Using cfiCommon0
          CFI (cfiCond611) Function coding
          CFI (cfiCond611) Conditional ??CrossCallReturnLabel_392
          CFI (cfiCond611) R24 Frame(CFA_Y, -10)
          CFI (cfiCond611) R25 Frame(CFA_Y, -9)
          CFI (cfiCond611) R26 Frame(CFA_Y, -8)
          CFI (cfiCond611) R27 Frame(CFA_Y, -7)
          CFI (cfiCond611) R4 Frame(CFA_Y, -6)
          CFI (cfiCond611) R5 Frame(CFA_Y, -5)
          CFI (cfiCond611) R6 Frame(CFA_Y, -4)
          CFI (cfiCond611) R7 Frame(CFA_Y, -3)
          CFI (cfiCond611) R8 Frame(CFA_Y, -2)
          CFI (cfiCond611) R9 Frame(CFA_Y, -1)
          CFI (cfiCond611) CFA_SP SP+4
          CFI (cfiCond611) CFA_Y Y+10
          CFI Block cfiCond612 Using cfiCommon0
          CFI (cfiCond612) Function coding
          CFI (cfiCond612) Conditional ??CrossCallReturnLabel_393
          CFI (cfiCond612) R24 Frame(CFA_Y, -10)
          CFI (cfiCond612) R25 Frame(CFA_Y, -9)
          CFI (cfiCond612) R26 Frame(CFA_Y, -8)
          CFI (cfiCond612) R27 Frame(CFA_Y, -7)
          CFI (cfiCond612) R4 Frame(CFA_Y, -6)
          CFI (cfiCond612) R5 Frame(CFA_Y, -5)
          CFI (cfiCond612) R6 Frame(CFA_Y, -4)
          CFI (cfiCond612) R7 Frame(CFA_Y, -3)
          CFI (cfiCond612) R8 Frame(CFA_Y, -2)
          CFI (cfiCond612) R9 Frame(CFA_Y, -1)
          CFI (cfiCond612) CFA_SP SP+4
          CFI (cfiCond612) CFA_Y Y+10
          CFI Block cfiCond613 Using cfiCommon0
          CFI (cfiCond613) Function coding
          CFI (cfiCond613) Conditional ??CrossCallReturnLabel_394
          CFI (cfiCond613) R24 Frame(CFA_Y, -10)
          CFI (cfiCond613) R25 Frame(CFA_Y, -9)
          CFI (cfiCond613) R26 Frame(CFA_Y, -8)
          CFI (cfiCond613) R27 Frame(CFA_Y, -7)
          CFI (cfiCond613) R4 Frame(CFA_Y, -6)
          CFI (cfiCond613) R5 Frame(CFA_Y, -5)
          CFI (cfiCond613) R6 Frame(CFA_Y, -4)
          CFI (cfiCond613) R7 Frame(CFA_Y, -3)
          CFI (cfiCond613) R8 Frame(CFA_Y, -2)
          CFI (cfiCond613) R9 Frame(CFA_Y, -1)
          CFI (cfiCond613) CFA_SP SP+4
          CFI (cfiCond613) CFA_Y Y+10
          CFI Block cfiCond614 Using cfiCommon0
          CFI (cfiCond614) Function coding
          CFI (cfiCond614) Conditional ??CrossCallReturnLabel_395
          CFI (cfiCond614) R24 Frame(CFA_Y, -10)
          CFI (cfiCond614) R25 Frame(CFA_Y, -9)
          CFI (cfiCond614) R26 Frame(CFA_Y, -8)
          CFI (cfiCond614) R27 Frame(CFA_Y, -7)
          CFI (cfiCond614) R4 Frame(CFA_Y, -6)
          CFI (cfiCond614) R5 Frame(CFA_Y, -5)
          CFI (cfiCond614) R6 Frame(CFA_Y, -4)
          CFI (cfiCond614) R7 Frame(CFA_Y, -3)
          CFI (cfiCond614) R8 Frame(CFA_Y, -2)
          CFI (cfiCond614) R9 Frame(CFA_Y, -1)
          CFI (cfiCond614) CFA_SP SP+4
          CFI (cfiCond614) CFA_Y Y+10
          CFI Block cfiCond615 Using cfiCommon0
          CFI (cfiCond615) Function writeCOD
          CFI (cfiCond615) Conditional ??CrossCallReturnLabel_396
          CFI (cfiCond615) R24 Frame(CFA_Y, -1)
          CFI (cfiCond615) CFA_SP SP+4
          CFI (cfiCond615) CFA_Y Y+1
          CFI Block cfiCond616 Using cfiCommon0
          CFI (cfiCond616) Function analizCOD
          CFI (cfiCond616) Conditional ??CrossCallReturnLabel_397
          CFI (cfiCond616) R24 Frame(CFA_Y, -2)
          CFI (cfiCond616) R25 Frame(CFA_Y, -1)
          CFI (cfiCond616) CFA_SP SP+4
          CFI (cfiCond616) CFA_Y Y+2
          CFI Block cfiCond617 Using cfiCommon0
          CFI (cfiCond617) Function PEREP
          CFI (cfiCond617) Conditional ??CrossCallReturnLabel_388
          CFI (cfiCond617) R24 Frame(CFA_Y, -8)
          CFI (cfiCond617) R25 Frame(CFA_Y, -7)
          CFI (cfiCond617) R26 Frame(CFA_Y, -6)
          CFI (cfiCond617) R27 Frame(CFA_Y, -5)
          CFI (cfiCond617) R4 Frame(CFA_Y, -4)
          CFI (cfiCond617) R5 Frame(CFA_Y, -3)
          CFI (cfiCond617) R6 Frame(CFA_Y, -2)
          CFI (cfiCond617) R7 Frame(CFA_Y, -1)
          CFI (cfiCond617) CFA_SP SP+4
          CFI (cfiCond617) CFA_Y Y+8
          CFI Block cfiCond618 Using cfiCommon0
          CFI (cfiCond618) Function coding
          CFI (cfiCond618) Conditional ??CrossCallReturnLabel_389
          CFI (cfiCond618) R24 Frame(CFA_Y, -10)
          CFI (cfiCond618) R25 Frame(CFA_Y, -9)
          CFI (cfiCond618) R26 Frame(CFA_Y, -8)
          CFI (cfiCond618) R27 Frame(CFA_Y, -7)
          CFI (cfiCond618) R4 Frame(CFA_Y, -6)
          CFI (cfiCond618) R5 Frame(CFA_Y, -5)
          CFI (cfiCond618) R6 Frame(CFA_Y, -4)
          CFI (cfiCond618) R7 Frame(CFA_Y, -3)
          CFI (cfiCond618) R8 Frame(CFA_Y, -2)
          CFI (cfiCond618) R9 Frame(CFA_Y, -1)
          CFI (cfiCond618) CFA_SP SP+4
          CFI (cfiCond618) CFA_Y Y+10
          CFI Block cfiPicker619 Using cfiCommon2
          CFI (cfiPicker619) NoFunction
          CFI (cfiPicker619) Picker
        LDI     R30, LOW(cod2)
        LDI     R31, (cod2) >> 8
        RET
          CFI EndBlock cfiCond609
          CFI EndBlock cfiCond610
          CFI EndBlock cfiCond611
          CFI EndBlock cfiCond612
          CFI EndBlock cfiCond613
          CFI EndBlock cfiCond614
          CFI EndBlock cfiCond615
          CFI EndBlock cfiCond616
          CFI EndBlock cfiCond617
          CFI EndBlock cfiCond618
          CFI EndBlock cfiPicker619
//  402 
//  403 
//  404 

        RSEG CODE:CODE:NOROOT(1)
//  405 void resled(void)
resled:
          CFI Block cfiBlock620 Using cfiCommon0
          CFI Function resled
//  406 {
//  407   RES(PORTB,0);RES(PORTB,1);RES(PORTB,2);RES(PORTB,3); if (mode==0)RES(PORTB,4);
        RCALL   ?Subroutine86
??CrossCallReturnLabel_140:
        RCALL   ?Subroutine66
??CrossCallReturnLabel_274:
        BRNE    ??resled_0
        CBI     0x18, 0x04
//  408 }
??resled_0:
        RET
          CFI EndBlock cfiBlock620
        REQUIRE _A_PORTB

        RSEG CODE:CODE:NOROOT(1)
?Subroutine66:
          CFI Block cfiCond621 Using cfiCommon0
          CFI Function main
          CFI Conditional ??CrossCallReturnLabel_272
          CFI R24 Frame(CFA_Y, -1)
          CFI CFA_SP SP+4
          CFI CFA_Y Y+1
          CFI Block cfiCond622 Using cfiCommon0
          CFI (cfiCond622) Function source
          CFI (cfiCond622) Conditional ??CrossCallReturnLabel_273
          CFI (cfiCond622) CFA_SP SP+4
          CFI Block cfiCond623 Using cfiCommon0
          CFI (cfiCond623) Function resled
          CFI (cfiCond623) Conditional ??CrossCallReturnLabel_274
          CFI (cfiCond623) CFA_SP SP+4
          CFI Block cfiCond624 Using cfiCommon0
          CFI (cfiCond624) Function resOUT
          CFI (cfiCond624) Conditional ??CrossCallReturnLabel_275
          CFI (cfiCond624) CFA_SP SP+4
          CFI Block cfiPicker625 Using cfiCommon2
          CFI (cfiPicker625) NoFunction
          CFI (cfiPicker625) Picker
        LDS     R16, mode
          CFI EndBlock cfiCond621
          CFI EndBlock cfiCond622
          CFI EndBlock cfiCond623
          CFI EndBlock cfiCond624
          CFI EndBlock cfiPicker625
        REQUIRE ?Subroutine128
        ;               // Fall through to label ?Subroutine128

        RSEG CODE:CODE:NOROOT(1)
?Subroutine128:
          CFI Block cfiCond626 Using cfiCommon0
          CFI Function main
          CFI Conditional ??CrossCallReturnLabel_269
          CFI R24 Frame(CFA_Y, -1)
          CFI CFA_SP SP+4
          CFI CFA_Y Y+1
          CFI Block cfiCond627 Using cfiCommon0
          CFI (cfiCond627) Function main
          CFI (cfiCond627) Conditional ??CrossCallReturnLabel_270
          CFI (cfiCond627) R24 Frame(CFA_Y, -1)
          CFI (cfiCond627) CFA_SP SP+4
          CFI (cfiCond627) CFA_Y Y+1
          CFI Block cfiCond628 Using cfiCommon0
          CFI (cfiCond628) Function main
          CFI (cfiCond628) Conditional ??CrossCallReturnLabel_271
          CFI (cfiCond628) R24 Frame(CFA_Y, -1)
          CFI (cfiCond628) CFA_SP SP+4
          CFI (cfiCond628) CFA_Y Y+1
          CFI Block cfiCond629 Using cfiCommon0
          CFI (cfiCond629) Function normal
          CFI (cfiCond629) Conditional ??CrossCallReturnLabel_279
          CFI (cfiCond629) R24 Frame(CFA_Y, -1)
          CFI (cfiCond629) CFA_SP SP+4
          CFI (cfiCond629) CFA_Y Y+1
          CFI Block cfiCond630 Using cfiCommon0
          CFI (cfiCond630) Function normal
          CFI (cfiCond630) Conditional ??CrossCallReturnLabel_280
          CFI (cfiCond630) R24 Frame(CFA_Y, -1)
          CFI (cfiCond630) CFA_SP SP+4
          CFI (cfiCond630) CFA_Y Y+1
          CFI Block cfiCond631 Using cfiCommon0
          CFI (cfiCond631) Function normal
          CFI (cfiCond631) Conditional ??CrossCallReturnLabel_281
          CFI (cfiCond631) R24 Frame(CFA_Y, -1)
          CFI (cfiCond631) CFA_SP SP+4
          CFI (cfiCond631) CFA_Y Y+1
          CFI Block cfiCond632 Using cfiCommon0
          CFI (cfiCond632) Function normal
          CFI (cfiCond632) Conditional ??CrossCallReturnLabel_282
          CFI (cfiCond632) R24 Frame(CFA_Y, -1)
          CFI (cfiCond632) CFA_SP SP+4
          CFI (cfiCond632) CFA_Y Y+1
          CFI Block cfiCond633 Using cfiCommon0
          CFI (cfiCond633) Function main
          CFI (cfiCond633) Conditional ??CrossCallReturnLabel_272
          CFI (cfiCond633) R24 Frame(CFA_Y, -1)
          CFI (cfiCond633) CFA_SP SP+4
          CFI (cfiCond633) CFA_Y Y+1
          CFI Block cfiCond634 Using cfiCommon0
          CFI (cfiCond634) Function source
          CFI (cfiCond634) Conditional ??CrossCallReturnLabel_273
          CFI (cfiCond634) CFA_SP SP+4
          CFI Block cfiCond635 Using cfiCommon0
          CFI (cfiCond635) Function resled
          CFI (cfiCond635) Conditional ??CrossCallReturnLabel_274
          CFI (cfiCond635) CFA_SP SP+4
          CFI Block cfiCond636 Using cfiCommon0
          CFI (cfiCond636) Function resOUT
          CFI (cfiCond636) Conditional ??CrossCallReturnLabel_275
          CFI (cfiCond636) CFA_SP SP+4
          CFI Block cfiCond637 Using cfiCommon0
          CFI (cfiCond637) Function main
          CFI (cfiCond637) Conditional ??CrossCallReturnLabel_276
          CFI (cfiCond637) R24 Frame(CFA_Y, -1)
          CFI (cfiCond637) CFA_SP SP+4
          CFI (cfiCond637) CFA_Y Y+1
          CFI Block cfiCond638 Using cfiCommon0
          CFI (cfiCond638) Function main
          CFI (cfiCond638) Conditional ??CrossCallReturnLabel_277
          CFI (cfiCond638) R24 Frame(CFA_Y, -1)
          CFI (cfiCond638) CFA_SP SP+4
          CFI (cfiCond638) CFA_Y Y+1
          CFI Block cfiCond639 Using cfiCommon0
          CFI (cfiCond639) Function diag
          CFI (cfiCond639) Conditional ??CrossCallReturnLabel_278
          CFI (cfiCond639) R24 Frame(CFA_Y, -2)
          CFI (cfiCond639) R25 Frame(CFA_Y, -1)
          CFI (cfiCond639) CFA_SP SP+4
          CFI (cfiCond639) CFA_Y Y+2
          CFI Block cfiPicker640 Using cfiCommon2
          CFI (cfiPicker640) NoFunction
          CFI (cfiPicker640) Picker
        TST     R16
        RET
          CFI EndBlock cfiCond626
          CFI EndBlock cfiCond627
          CFI EndBlock cfiCond628
          CFI EndBlock cfiCond629
          CFI EndBlock cfiCond630
          CFI EndBlock cfiCond631
          CFI EndBlock cfiCond632
          CFI EndBlock cfiCond633
          CFI EndBlock cfiCond634
          CFI EndBlock cfiCond635
          CFI EndBlock cfiCond636
          CFI EndBlock cfiCond637
          CFI EndBlock cfiCond638
          CFI EndBlock cfiCond639
          CFI EndBlock cfiPicker640
//  409 
//  410 

        RSEG CODE:CODE:NOROOT(1)
//  411 void resOUT(void)
resOUT:
          CFI Block cfiBlock641 Using cfiCommon0
          CFI Function resOUT
//  412 {
//  413   RES(PORTC,1);RES(PORTC,2);RES(PORTC,3);RES(PORTC,4); if (mode==0)RES(PORTC,5);
        CBI     0x15, 0x01
        CBI     0x15, 0x02
        CBI     0x15, 0x03
        CBI     0x15, 0x04
        RCALL   ?Subroutine66
??CrossCallReturnLabel_275:
        BRNE    ??resOUT_0
        CBI     0x15, 0x05
          CFI EndBlock cfiBlock641
//  414   p2;//что бы не было перекрытия источников
??resOUT_0:
        REQUIRE ?Subroutine76
        REQUIRE _A_PORTC
        ;               // Fall through to label ?Subroutine76
//  415 }

        RSEG CODE:CODE:NOROOT(1)
?Subroutine76:
          CFI Block cfiCond642 Using cfiCommon0
          CFI Function normal
          CFI Conditional ??CrossCallReturnLabel_117
          CFI R24 Frame(CFA_Y, -1)
          CFI CFA_SP SP+4
          CFI CFA_Y Y+1
          CFI Block cfiCond643 Using cfiCommon0
          CFI (cfiCond643) Function normal
          CFI (cfiCond643) Conditional ??CrossCallReturnLabel_118
          CFI (cfiCond643) R24 Frame(CFA_Y, -1)
          CFI (cfiCond643) CFA_SP SP+4
          CFI (cfiCond643) CFA_Y Y+1
          CFI Block cfiCond644 Using cfiCommon0
          CFI (cfiCond644) Function normal
          CFI (cfiCond644) Conditional ??CrossCallReturnLabel_119
          CFI (cfiCond644) R24 Frame(CFA_Y, -1)
          CFI (cfiCond644) CFA_SP SP+4
          CFI (cfiCond644) CFA_Y Y+1
          CFI Block cfiBlock645 Using cfiCommon0
          CFI (cfiBlock645) NoFunction
          CFI Block cfiPicker646 Using cfiCommon2
          CFI (cfiPicker646) NoFunction
          CFI (cfiPicker646) Picker
        LDI     R16, 255
        LDI     R17, 112
        LDI     R18, 2
        SUBI    R16, 1
        SBCI    R17, 0
        SBCI    R18, 0
        BRNE    $-6
        RJMP    $+2
        NOP
        RET
          CFI EndBlock cfiCond642
          CFI EndBlock cfiCond643
          CFI EndBlock cfiCond644
          CFI EndBlock cfiBlock645
          CFI EndBlock cfiPicker646
//  416 
//  417 
//  418  

        RSEG CODE:CODE:NOROOT(1)
//  419 void led_all(bool a)
led_all:
          CFI Block cfiBlock647 Using cfiCommon0
          CFI Function led_all
//  420 {
//  421  if (a)
        TST     R16
        BREQ    ??led_all_0
//  422  {
//  423    SET(PORTB,0);SET(PORTB,1);SET(PORTB,2);SET(PORTB,3);SET(PORTB,4);SET(PORTB,5);
        SBI     0x18, 0x00
        SBI     0x18, 0x01
        SBI     0x18, 0x02
        SBI     0x18, 0x03
        SBI     0x18, 0x04
        SBI     0x18, 0x05
//  424    /*AC_ON; */SET(PORTD,7);
        RJMP    ?Subroutine130
//  425  }
//  426  else
//  427   {
//  428    RES(PORTB,0);RES(PORTB,1);RES(PORTB,2);RES(PORTB,3);RES(PORTB,4);RES(PORTB,5);
??led_all_0:
        RCALL   ?Subroutine86
??CrossCallReturnLabel_141:
        CBI     0x18, 0x04
        CBI     0x18, 0x05
//  429    AC_OFF; RES(PORTD,7);
        CBI     0x12, 0x06
        CBI     0x12, 0x07
//  430  } 
//  431 }
        RET
          CFI EndBlock cfiBlock647
        REQUIRE _A_PORTB
        REQUIRE _A_PORTD

        RSEG CODE:CODE:NOROOT(1)
?Subroutine86:
          CFI Block cfiCond648 Using cfiCommon0
          CFI Function resled
          CFI Conditional ??CrossCallReturnLabel_140
          CFI CFA_SP SP+4
          CFI Block cfiCond649 Using cfiCommon0
          CFI (cfiCond649) Function led_all
          CFI (cfiCond649) Conditional ??CrossCallReturnLabel_141
          CFI (cfiCond649) CFA_SP SP+4
          CFI Block cfiPicker650 Using cfiCommon2
          CFI (cfiPicker650) NoFunction
          CFI (cfiPicker650) Picker
        CBI     0x18, 0x00
        CBI     0x18, 0x01
        CBI     0x18, 0x02
        CBI     0x18, 0x03
        RET
          CFI EndBlock cfiCond648
          CFI EndBlock cfiCond649
          CFI EndBlock cfiPicker650
//  432 
//  433 

        RSEG CODE:CODE:NOROOT(1)
//  434 void gro(uchar a)
gro:
          CFI Block cfiBlock651 Using cfiCommon0
          CFI Function gro
//  435 {
        MOV     R17, R16
//  436   if (modegro!=1) {
        RCALL   ?Subroutine64
??CrossCallReturnLabel_288:
        BREQ    ??gro_0
//  437   if (a==1) {SET(PORTC,0); delay_us(100);RES(PORTC,0);}
        CPI     R17, 1
        BRNE    ??gro_1
        SBI     0x15, 0x00
        RCALL   ?Subroutine87
??CrossCallReturnLabel_142:
        RJMP    ??gro_2
//  438   if (a==2) {SET(PORTD,3); delay_us(100);RES(PORTD,3);}  
??gro_1:
        CPI     R17, 2
        BRNE    ??gro_3
        SBI     0x12, 0x03
        RCALL   ?Subroutine87
??CrossCallReturnLabel_143:
        RJMP    ??gro_4
//  439                   }
//  440   else  { 
//  441     if (a==1) { if (gro1)  { gro1=0; RES(PORTC,0);  } else { gro1=1; SET(PORTC,0);  } }
??gro_0:
        CPI     R17, 1
        BRNE    ??gro_5
        LDS     R16, ??gro1
        TST     R16
        BREQ    ??gro_6
        LDI     R16, 0
        STS     ??gro1, R16
??gro_2:
        CBI     0x15, 0x00
        RET
??gro_6:
        LDI     R16, 1
        STS     ??gro1, R16
        SBI     0x15, 0x00
        RET
//  442     if (a==2) { if (gro2)  { gro2=0; RES(PORTD,3);  } else { gro2=1; SET(PORTD,3);  } }
??gro_5:
        CPI     R17, 2
        BRNE    ??gro_3
        LDS     R16, ??gro2
        TST     R16
        BREQ    ??gro_7
        LDI     R16, 0
        STS     ??gro2, R16
??gro_4:
        CBI     0x12, 0x03
        RET
??gro_7:
        LDI     R16, 1
        STS     ??gro2, R16
        SBI     0x12, 0x03
//  443         }
//  444 }
??gro_3:
        RET
          CFI EndBlock cfiBlock651
        REQUIRE _A_PORTC
        REQUIRE _A_PORTD

        RSEG CODE:CODE:NOROOT(1)
?Subroutine87:
          CFI Block cfiCond652 Using cfiCommon0
          CFI Function gro
          CFI Conditional ??CrossCallReturnLabel_142
          CFI CFA_SP SP+4
          CFI Block cfiCond653 Using cfiCommon0
          CFI (cfiCond653) Function gro
          CFI (cfiCond653) Conditional ??CrossCallReturnLabel_143
          CFI (cfiCond653) CFA_SP SP+4
          CFI Block cfiPicker654 Using cfiCommon2
          CFI (cfiPicker654) NoFunction
          CFI (cfiPicker654) Picker
        LDI     R16, 133
        DEC     R16
        BRNE    $-2
        NOP
        RET
          CFI EndBlock cfiCond652
          CFI EndBlock cfiCond653
          CFI EndBlock cfiPicker654

        RSEG CODE:CODE:NOROOT(1)
?Subroutine64:
          CFI Block cfiCond655 Using cfiCommon0
          CFI Function main
          CFI Conditional ??CrossCallReturnLabel_285
          CFI R24 Frame(CFA_Y, -1)
          CFI CFA_SP SP+4
          CFI CFA_Y Y+1
          CFI Block cfiCond656 Using cfiCommon0
          CFI (cfiCond656) Function main
          CFI (cfiCond656) Conditional ??CrossCallReturnLabel_286
          CFI (cfiCond656) R24 Frame(CFA_Y, -1)
          CFI (cfiCond656) CFA_SP SP+4
          CFI (cfiCond656) CFA_Y Y+1
          CFI Block cfiCond657 Using cfiCommon0
          CFI (cfiCond657) Function main
          CFI (cfiCond657) Conditional ??CrossCallReturnLabel_287
          CFI (cfiCond657) R24 Frame(CFA_Y, -1)
          CFI (cfiCond657) CFA_SP SP+4
          CFI (cfiCond657) CFA_Y Y+1
          CFI Block cfiCond658 Using cfiCommon0
          CFI (cfiCond658) Function gro
          CFI (cfiCond658) Conditional ??CrossCallReturnLabel_288
          CFI (cfiCond658) CFA_SP SP+4
          CFI Block cfiPicker659 Using cfiCommon2
          CFI (cfiPicker659) NoFunction
          CFI (cfiPicker659) Picker
        RCALL   ?Subroutine112
          CFI EndBlock cfiCond655
          CFI EndBlock cfiCond656
          CFI EndBlock cfiCond657
          CFI EndBlock cfiCond658
          CFI EndBlock cfiPicker659
??CrossCallReturnLabel_215:
        REQUIRE ?Subroutine131
        ;               // Fall through to label ?Subroutine131

        RSEG CODE:CODE:NOROOT(1)
?Subroutine131:
          CFI Block cfiCond660 Using cfiCommon0
          CFI Function main
          CFI Conditional ??CrossCallReturnLabel_285
          CFI R24 Frame(CFA_Y, -1)
          CFI CFA_SP SP+4
          CFI CFA_Y Y+1
          CFI Block cfiCond661 Using cfiCommon0
          CFI (cfiCond661) Function main
          CFI (cfiCond661) Conditional ??CrossCallReturnLabel_286
          CFI (cfiCond661) R24 Frame(CFA_Y, -1)
          CFI (cfiCond661) CFA_SP SP+4
          CFI (cfiCond661) CFA_Y Y+1
          CFI Block cfiCond662 Using cfiCommon0
          CFI (cfiCond662) Function main
          CFI (cfiCond662) Conditional ??CrossCallReturnLabel_287
          CFI (cfiCond662) R24 Frame(CFA_Y, -1)
          CFI (cfiCond662) CFA_SP SP+4
          CFI (cfiCond662) CFA_Y Y+1
          CFI Block cfiCond663 Using cfiCommon0
          CFI (cfiCond663) Function gro
          CFI (cfiCond663) Conditional ??CrossCallReturnLabel_288
          CFI (cfiCond663) CFA_SP SP+4
          CFI Block cfiCond664 Using cfiCommon0
          CFI (cfiCond664) Function normal
          CFI (cfiCond664) Conditional ??CrossCallReturnLabel_289
          CFI (cfiCond664) R24 Frame(CFA_Y, -1)
          CFI (cfiCond664) CFA_SP SP+4
          CFI (cfiCond664) CFA_Y Y+1
          CFI Block cfiCond665 Using cfiCommon0
          CFI (cfiCond665) Function normal
          CFI (cfiCond665) Conditional ??CrossCallReturnLabel_290
          CFI (cfiCond665) R24 Frame(CFA_Y, -1)
          CFI (cfiCond665) CFA_SP SP+4
          CFI (cfiCond665) CFA_Y Y+1
          CFI Block cfiCond666 Using cfiCommon0
          CFI (cfiCond666) Function normal
          CFI (cfiCond666) Conditional ??CrossCallReturnLabel_291
          CFI (cfiCond666) R24 Frame(CFA_Y, -1)
          CFI (cfiCond666) CFA_SP SP+4
          CFI (cfiCond666) CFA_Y Y+1
          CFI Block cfiCond667 Using cfiCommon0
          CFI (cfiCond667) Function diag
          CFI (cfiCond667) Conditional ??CrossCallReturnLabel_292
          CFI (cfiCond667) R24 Frame(CFA_Y, -2)
          CFI (cfiCond667) R25 Frame(CFA_Y, -1)
          CFI (cfiCond667) CFA_SP SP+4
          CFI (cfiCond667) CFA_Y Y+2
          CFI Block cfiPicker668 Using cfiCommon2
          CFI (cfiPicker668) NoFunction
          CFI (cfiPicker668) Picker
        CPI     R16, 1
        RET
          CFI EndBlock cfiCond660
          CFI EndBlock cfiCond661
          CFI EndBlock cfiCond662
          CFI EndBlock cfiCond663
          CFI EndBlock cfiCond664
          CFI EndBlock cfiCond665
          CFI EndBlock cfiCond666
          CFI EndBlock cfiCond667
          CFI EndBlock cfiPicker668

        RSEG CODE:CODE:NOROOT(1)
?Subroutine112:
          CFI Block cfiCond669 Using cfiCommon0
          CFI Function main
          CFI Conditional ??CrossCallReturnLabel_216, ??CrossCallReturnLabel_269
          CFI R24 Frame(CFA_Y, -1)
          CFI CFA_SP SP+6
          CFI CFA_Y Y+1
          CFI Block cfiCond670 Using cfiCommon0
          CFI (cfiCond670) Function main
          CFI (cfiCond670) Conditional ??CrossCallReturnLabel_216, ??CrossCallReturnLabel_270
          CFI (cfiCond670) R24 Frame(CFA_Y, -1)
          CFI (cfiCond670) CFA_SP SP+6
          CFI (cfiCond670) CFA_Y Y+1
          CFI Block cfiCond671 Using cfiCommon0
          CFI (cfiCond671) Function main
          CFI (cfiCond671) Conditional ??CrossCallReturnLabel_216, ??CrossCallReturnLabel_271
          CFI (cfiCond671) R24 Frame(CFA_Y, -1)
          CFI (cfiCond671) CFA_SP SP+6
          CFI (cfiCond671) CFA_Y Y+1
          CFI Block cfiCond672 Using cfiCommon0
          CFI (cfiCond672) Function main
          CFI (cfiCond672) Conditional ??CrossCallReturnLabel_215, ??CrossCallReturnLabel_285
          CFI (cfiCond672) R24 Frame(CFA_Y, -1)
          CFI (cfiCond672) CFA_SP SP+6
          CFI (cfiCond672) CFA_Y Y+1
          CFI Block cfiCond673 Using cfiCommon0
          CFI (cfiCond673) Function main
          CFI (cfiCond673) Conditional ??CrossCallReturnLabel_215, ??CrossCallReturnLabel_286
          CFI (cfiCond673) R24 Frame(CFA_Y, -1)
          CFI (cfiCond673) CFA_SP SP+6
          CFI (cfiCond673) CFA_Y Y+1
          CFI Block cfiCond674 Using cfiCommon0
          CFI (cfiCond674) Function main
          CFI (cfiCond674) Conditional ??CrossCallReturnLabel_215, ??CrossCallReturnLabel_287
          CFI (cfiCond674) R24 Frame(CFA_Y, -1)
          CFI (cfiCond674) CFA_SP SP+6
          CFI (cfiCond674) CFA_Y Y+1
          CFI Block cfiCond675 Using cfiCommon0
          CFI (cfiCond675) Function gro
          CFI (cfiCond675) Conditional ??CrossCallReturnLabel_215, ??CrossCallReturnLabel_288
          CFI (cfiCond675) CFA_SP SP+6
          CFI Block cfiPicker676 Using cfiCommon2
          CFI (cfiPicker676) NoFunction
          CFI (cfiPicker676) Picker
        LDI     R20, LOW(modegro)
        LDI     R21, (modegro) >> 8
        RJMP    __eeget8_16
          CFI EndBlock cfiCond669
          CFI EndBlock cfiCond670
          CFI EndBlock cfiCond671
          CFI EndBlock cfiCond672
          CFI EndBlock cfiCond673
          CFI EndBlock cfiCond674
          CFI EndBlock cfiCond675
          CFI EndBlock cfiPicker676
//  445 
//  446 
//  447 
//  448 
//  449 
//  450 
//  451 //инициализация портов

        RSEG CODE:CODE:NOROOT(1)
//  452 void iniPORTS()
iniPORTS:
          CFI Block cfiBlock677 Using cfiCommon0
          CFI Function iniPORTS
//  453 {
//  454   
//  455  
//  456   //DDRx=0 - ВХОДЫ   PORTx = 0xFF; //подключаем нагрузочные резисторы
//  457  //---------------------------------------------------------------
//  458  //DDRx=0xFF - ВЫХОДЫ    PORTx = 0; //устанавливаем 0 на выходе
//  459  
//  460   
//  461  DDRD = b(11011000);// 0xD8;  //PD3 4 6 7 ВЫХОДЫ  b11011000
        LDI     R16, 216
        OUT     0x11, R16
//  462  PORTD = (uchar)~(b(11011000)); 
        LDI     R16, 39
        OUT     0x12, R16
//  463 
//  464  
//  465  DDRB = 0x3F; //порт B - выход    6,7-кварц
        LDI     R16, 63
        OUT     0x17, R16
//  466  PORTB = 0x00; 
        LDI     R16, 0
        OUT     0x18, R16
//  467   
//  468   
//  469   DDRC =0xFF; 
        LDI     R16, 255
        OUT     0x14, R16
//  470   PORTC = 0x00; //устанавливаем 0 на выходе
        LDI     R16, 0
        OUT     0x15, R16
//  471   
//  472  
//  473 // Timer(s)/Counter(s) Interrupt(s) initialization
//  474 TIMSK=0x00;  
        OUT     0x39, R16
//  475 TCNT0=0x00;
        OUT     0x32, R16
//  476 OCR1A=0x00;
        LDI     R17, 0
        OUT     0x2B, R16
        OUT     0x2A, R16
//  477 OCR1B=0x00;
        OUT     0x29, R16
        OUT     0x28, R16
//  478 TCCR1A=0x00;
        OUT     0x2F, R16
//  479   SET(TIMSK,TOIE1);//разреш прерывание при переполнении
        IN      R16, 0x39
        ORI     R16, 0x04
        OUT     0x39, R16
//  480    TCCR1B=0; TIFR = 0xFF;  
        OUT     0x2E, R17
        LDI     R16, 255
        OUT     0x38, R16
//  481 TCNT1H=0x00;
        OUT     0x2D, R17
//  482 TCNT1L=0x00;
        OUT     0x2C, R17
//  483 ICR1H=0x00;
        OUT     0x27, R17
//  484 ICR1L=0x00;
        OUT     0x26, R17
//  485 OCR1AH=0;
        OUT     0x2B, R17
//  486 OCR1AL=0x00;
        OUT     0x2A, R17
//  487 OCR1BH=0x00;
        OUT     0x29, R17
//  488 OCR1BL=0x00;
        OUT     0x28, R17
//  489 
//  490 
//  491 // External Interrupt(s) initialization
//  492 // INT0: Off
//  493 // INT1: Off
//  494 // Interrupt on any change on pins PCINT0-7: Off
//  495 //GIMSK=0x00;
//  496 //MCUCR=0x00;
//  497 
//  498 SET(MCUCR,0); RES(MCUCR,1);//ПРЕРЫВАНИЕ ПО ИЗМЕНЕНИЮ УРОВНЯ INT0
        IN      R16, 0x35
        ORI     R16, 0x01
        OUT     0x35, R16
        IN      R16, 0x35
        ANDI    R16, 0xFD
        OUT     0x35, R16
//  499 SET(GICR,6);//РАЗРЕШАЕМ ПРЕРЫВАНИЕ INT0
        IN      R16, 0x3B
        ORI     R16, 0x40
        OUT     0x3B, R16
//  500 
//  501 
//  502 
//  503 
//  504 // Analog Comparator initialization
//  505 // Analog Comparator: Off
//  506 // Analog Comparator Input Capture by Timer/Counter 1: Off
//  507 ACSR=0x80;
        LDI     R16, 128
        OUT     0x08, R16
//  508 //DIDR=0x00;
//  509 
//  510 } 
        RET
          CFI EndBlock cfiBlock677
        REQUIRE _A_DDRD
        REQUIRE _A_PORTD
        REQUIRE _A_DDRB
        REQUIRE _A_PORTB
        REQUIRE _A_DDRC
        REQUIRE _A_PORTC
        REQUIRE _A_TIMSK
        REQUIRE _A_TCNT0
        REQUIRE _A_OCR1A
        REQUIRE _A_OCR1B
        REQUIRE _A_TCCR1A
        REQUIRE _A_TCCR1B
        REQUIRE _A_TIFR
        REQUIRE _A_TCNT1
        REQUIRE _A_ICR1
        REQUIRE _A_MCUCR
        REQUIRE _A_GICR
        REQUIRE _A_ACSR
//  511 //************************************************************************
//  512  
//  513 

        RSEG CODE:CODE:NOROOT(1)
//  514 void diag()
diag:
          CFI Block cfiBlock678 Using cfiCommon0
          CFI Function diag
//  515 {
        FUNCALL diag, USART_GetChar
        LOCFRAME CSTACK, 2, STACK
        LOCFRAME RSTACK, 2, STACK
        ARGFRAME RSTACK, 0, STACK
        FUNCALL diag, rprintfStr
        LOCFRAME CSTACK, 2, STACK
        LOCFRAME RSTACK, 2, STACK
        ARGFRAME RSTACK, 0, STACK
        FUNCALL diag, USART_SendChar
        LOCFRAME CSTACK, 2, STACK
        LOCFRAME RSTACK, 2, STACK
        ARGFRAME RSTACK, 0, STACK
        FUNCALL diag, USART_SendChar
        LOCFRAME CSTACK, 2, STACK
        LOCFRAME RSTACK, 2, STACK
        ARGFRAME RSTACK, 0, STACK
        FUNCALL diag, rprintfStr
        LOCFRAME CSTACK, 2, STACK
        LOCFRAME RSTACK, 2, STACK
        ARGFRAME RSTACK, 0, STACK
        FUNCALL diag, USART_SendChar
        LOCFRAME CSTACK, 2, STACK
        LOCFRAME RSTACK, 2, STACK
        ARGFRAME RSTACK, 0, STACK
        FUNCALL diag, rprintfFloat
        LOCFRAME CSTACK, 2, STACK
        LOCFRAME RSTACK, 2, STACK
        ARGFRAME RSTACK, 0, STACK
        FUNCALL diag, rprintfStr
        LOCFRAME CSTACK, 2, STACK
        LOCFRAME RSTACK, 2, STACK
        ARGFRAME RSTACK, 0, STACK
        FUNCALL diag, rprintfFloat
        LOCFRAME CSTACK, 2, STACK
        LOCFRAME RSTACK, 2, STACK
        ARGFRAME RSTACK, 0, STACK
        FUNCALL diag, USART_SendChar
        LOCFRAME CSTACK, 2, STACK
        LOCFRAME RSTACK, 2, STACK
        ARGFRAME RSTACK, 0, STACK
        FUNCALL diag, rprintfStr
        LOCFRAME CSTACK, 2, STACK
        LOCFRAME RSTACK, 2, STACK
        ARGFRAME RSTACK, 0, STACK
        FUNCALL diag, USART_SendChar
        LOCFRAME CSTACK, 2, STACK
        LOCFRAME RSTACK, 2, STACK
        ARGFRAME RSTACK, 0, STACK
        FUNCALL diag, rprintfStr
        LOCFRAME CSTACK, 2, STACK
        LOCFRAME RSTACK, 2, STACK
        ARGFRAME RSTACK, 0, STACK
        FUNCALL diag, rprintfStr
        LOCFRAME CSTACK, 2, STACK
        LOCFRAME RSTACK, 2, STACK
        ARGFRAME RSTACK, 0, STACK
        FUNCALL diag, rprintfStr
        LOCFRAME CSTACK, 2, STACK
        LOCFRAME RSTACK, 2, STACK
        ARGFRAME RSTACK, 0, STACK
        FUNCALL diag, USART_SendChar
        LOCFRAME CSTACK, 2, STACK
        LOCFRAME RSTACK, 2, STACK
        ARGFRAME RSTACK, 0, STACK
        RCALL   ?PROLOGUE2_L09
          CFI R25 Frame(CFA_Y, -1)
          CFI R24 Frame(CFA_Y, -2)
          CFI CFA_Y Y+2
//  516   
//  517   uchar sym = USART_GetChar(); //читаем буфер
        RCALL   USART_GetChar
        MOV     R25, R16
//  518   if (sym=='0') { pr=1;  rprintfStr("- vkluchen kratkiy viviod -");  ent;   }
        CPI     R16, 48
        BRNE    ??diag_0
        LDI     R16, 1
        STS     pr, R16
        LDI     R16, LOW(`?<Constant "- vkluchen kratkiy vi...">`)
        LDI     R17, (`?<Constant "- vkluchen kratkiy vi...">`) >> 8
        RCALL   ?Subroutine42
??CrossCallReturnLabel_237:
        RJMP    ??diag_1
//  519 
//  520   if (sym=='e') {
??diag_0:
        CPI     R16, 101
        BRNE    ??diag_2
//  521     ent;rprintfStr(" ==  EEPROM read == ");ent;
        RCALL   ?Subroutine120
??CrossCallReturnLabel_242:
        LDI     R16, LOW(`?<Constant " ==  EEPROM read == ">`)
        LDI     R17, (`?<Constant " ==  EEPROM read == ">`) >> 8
        RCALL   ?Subroutine42
//  522     for (uchar i=0; i<MAXEEP-1; i++) { 
??CrossCallReturnLabel_238:
        LDI     R24, 0
//  523       rprintfFloat(4, i );   rprintfStr(" > ");
??diag_3:
        MOV     R16, R24
        RCALL   ?Subroutine21
??CrossCallReturnLabel_182:
        RCALL   ?Subroutine121
??CrossCallReturnLabel_307:
        LDI     R16, 4
        RCALL   rprintfFloat
        LDI     R16, LOW(`?<Constant " > ">`)
        LDI     R17, (`?<Constant " > ">`) >> 8
        RCALL   rprintfStr
//  524        rprintfFloat(9, k[i] ); ent;
        RCALL   ?Subroutine97
//  525                                       }
??CrossCallReturnLabel_164:
        LDI     R20, LOW(k)
        LDI     R21, (k) >> 8
        ADD     R20, R0
        ADC     R21, R1
        RCALL   __eeget16_16
        RCALL   ?Subroutine41
??CrossCallReturnLabel_194:
        INC     R24
        CPI     R24, 119
        BRCC    ??diag_1
        RJMP    ??diag_3
//  526                 }
//  527   
//  528   if (sym) 
??diag_2:
        TST     R16
        BREQ    ??CrossCallReturnLabel_239
//  529   {             //если что-то приняли, то 
//  530       rprintfStr(" get: ");
??diag_1:
        LDI     R16, LOW(`?<Constant " get: ">`)
        LDI     R17, (`?<Constant " get: ">`) >> 8
        RCALL   rprintfStr
//  531       USART_SendChar(sym); 
        MOV     R16, R25
        RCALL   USART_SendChar
//  532 
//  533       if (mode==1) rprintfStr("  regim  no source5 >");  
        RCALL   ?Subroutine67
??CrossCallReturnLabel_292:
        BRNE    ??diag_4
        LDI     R16, LOW(`?<Constant "  regim  no source5 >">`)
        LDI     R17, (`?<Constant "  regim  no source5 >">`) >> 8
        RCALL   rprintfStr
//  534       if (mode_programming==1) rprintfStr("  regim  PROGRAMMING !!  READY >");  
??diag_4:
        RCALL   ?Subroutine73
??CrossCallReturnLabel_278:
        BREQ    ??diag_5
        LDI     R16, LOW(`?<Constant "  regim  PROGRAMMING ...">`)
        LDI     R17, (`?<Constant "  regim  PROGRAMMING ...">`) >> 8
        RJMP    ??diag_6
//  535       else rprintfStr("  regim  normal  READY >");  
??diag_5:
        LDI     R16, LOW(`?<Constant "  regim  normal  READY >">`)
        LDI     R17, (`?<Constant "  regim  normal  READY >">`) >> 8
//  536        ent;   
//  537   }
??diag_6:
        RCALL   ?Subroutine42
//  538 }
??CrossCallReturnLabel_239:
        RJMP    ?Subroutine135
          CFI EndBlock cfiBlock678

        RSEG CODE:CODE:NOROOT(1)
?Subroutine73:
          CFI Block cfiCond679 Using cfiCommon0
          CFI Function main
          CFI Conditional ??CrossCallReturnLabel_276
          CFI R24 Frame(CFA_Y, -1)
          CFI CFA_SP SP+4
          CFI CFA_Y Y+1
          CFI Block cfiCond680 Using cfiCommon0
          CFI (cfiCond680) Function main
          CFI (cfiCond680) Conditional ??CrossCallReturnLabel_277
          CFI (cfiCond680) R24 Frame(CFA_Y, -1)
          CFI (cfiCond680) CFA_SP SP+4
          CFI (cfiCond680) CFA_Y Y+1
          CFI Block cfiCond681 Using cfiCommon0
          CFI (cfiCond681) Function diag
          CFI (cfiCond681) Conditional ??CrossCallReturnLabel_278
          CFI (cfiCond681) R24 Frame(CFA_Y, -2)
          CFI (cfiCond681) R25 Frame(CFA_Y, -1)
          CFI (cfiCond681) CFA_SP SP+4
          CFI (cfiCond681) CFA_Y Y+2
          CFI Block cfiPicker682 Using cfiCommon2
          CFI (cfiPicker682) NoFunction
          CFI (cfiPicker682) Picker
        LDS     R16, mode_programming
        RJMP    ?Subroutine128
          CFI EndBlock cfiCond679
          CFI EndBlock cfiCond680
          CFI EndBlock cfiCond681
          CFI EndBlock cfiPicker682

        RSEG CODE:CODE:NOROOT(1)
?Subroutine67:
          CFI Block cfiCond683 Using cfiCommon0
          CFI Function normal
          CFI Conditional ??CrossCallReturnLabel_289
          CFI R24 Frame(CFA_Y, -1)
          CFI CFA_SP SP+4
          CFI CFA_Y Y+1
          CFI Block cfiCond684 Using cfiCommon0
          CFI (cfiCond684) Function normal
          CFI (cfiCond684) Conditional ??CrossCallReturnLabel_290
          CFI (cfiCond684) R24 Frame(CFA_Y, -1)
          CFI (cfiCond684) CFA_SP SP+4
          CFI (cfiCond684) CFA_Y Y+1
          CFI Block cfiCond685 Using cfiCommon0
          CFI (cfiCond685) Function normal
          CFI (cfiCond685) Conditional ??CrossCallReturnLabel_291
          CFI (cfiCond685) R24 Frame(CFA_Y, -1)
          CFI (cfiCond685) CFA_SP SP+4
          CFI (cfiCond685) CFA_Y Y+1
          CFI Block cfiCond686 Using cfiCommon0
          CFI (cfiCond686) Function diag
          CFI (cfiCond686) Conditional ??CrossCallReturnLabel_292
          CFI (cfiCond686) R24 Frame(CFA_Y, -2)
          CFI (cfiCond686) R25 Frame(CFA_Y, -1)
          CFI (cfiCond686) CFA_SP SP+4
          CFI (cfiCond686) CFA_Y Y+2
          CFI Block cfiPicker687 Using cfiCommon2
          CFI (cfiPicker687) NoFunction
          CFI (cfiPicker687) Picker
        LDS     R16, mode
        RJMP    ?Subroutine131
          CFI EndBlock cfiCond683
          CFI EndBlock cfiCond684
          CFI EndBlock cfiCond685
          CFI EndBlock cfiCond686
          CFI EndBlock cfiPicker687

        RSEG CODE:CODE:NOROOT(1)
?Subroutine42:
          CFI Block cfiCond688 Using cfiCommon0
          CFI Function writeCOD
          CFI Conditional ??CrossCallReturnLabel_236
          CFI R24 Frame(CFA_Y, -1)
          CFI CFA_SP SP+4
          CFI CFA_Y Y+1
          CFI Block cfiCond689 Using cfiCommon0
          CFI (cfiCond689) Function diag
          CFI (cfiCond689) Conditional ??CrossCallReturnLabel_237
          CFI (cfiCond689) R24 Frame(CFA_Y, -2)
          CFI (cfiCond689) R25 Frame(CFA_Y, -1)
          CFI (cfiCond689) CFA_SP SP+4
          CFI (cfiCond689) CFA_Y Y+2
          CFI Block cfiCond690 Using cfiCommon0
          CFI (cfiCond690) Function diag
          CFI (cfiCond690) Conditional ??CrossCallReturnLabel_238
          CFI (cfiCond690) R24 Frame(CFA_Y, -2)
          CFI (cfiCond690) R25 Frame(CFA_Y, -1)
          CFI (cfiCond690) CFA_SP SP+4
          CFI (cfiCond690) CFA_Y Y+2
          CFI Block cfiCond691 Using cfiCommon0
          CFI (cfiCond691) Function diag
          CFI (cfiCond691) Conditional ??CrossCallReturnLabel_239
          CFI (cfiCond691) R24 Frame(CFA_Y, -2)
          CFI (cfiCond691) R25 Frame(CFA_Y, -1)
          CFI (cfiCond691) CFA_SP SP+4
          CFI (cfiCond691) CFA_Y Y+2
          CFI Block cfiPicker692 Using cfiCommon2
          CFI (cfiPicker692) NoFunction
          CFI (cfiPicker692) Picker
        RCALL   rprintfStr
          CFI EndBlock cfiCond688
          CFI EndBlock cfiCond689
          CFI EndBlock cfiCond690
          CFI EndBlock cfiCond691
          CFI EndBlock cfiPicker692
        REQUIRE ?Subroutine120
        ;               // Fall through to label ?Subroutine120

        RSEG CODE:CODE:NOROOT(1)
?Subroutine120:
          CFI Block cfiCond693 Using cfiCommon0
          CFI Function PEREP
          CFI Conditional ??CrossCallReturnLabel_240
          CFI R24 Frame(CFA_Y, -8)
          CFI R25 Frame(CFA_Y, -7)
          CFI R26 Frame(CFA_Y, -6)
          CFI R27 Frame(CFA_Y, -5)
          CFI R4 Frame(CFA_Y, -4)
          CFI R5 Frame(CFA_Y, -3)
          CFI R6 Frame(CFA_Y, -2)
          CFI R7 Frame(CFA_Y, -1)
          CFI CFA_SP SP+4
          CFI CFA_Y Y+8
          CFI Block cfiCond694 Using cfiCommon0
          CFI (cfiCond694) Function normal
          CFI (cfiCond694) Conditional ??CrossCallReturnLabel_241
          CFI (cfiCond694) R24 Frame(CFA_Y, -1)
          CFI (cfiCond694) CFA_SP SP+4
          CFI (cfiCond694) CFA_Y Y+1
          CFI Block cfiCond695 Using cfiCommon0
          CFI (cfiCond695) Function diag
          CFI (cfiCond695) Conditional ??CrossCallReturnLabel_242
          CFI (cfiCond695) R24 Frame(CFA_Y, -2)
          CFI (cfiCond695) R25 Frame(CFA_Y, -1)
          CFI (cfiCond695) CFA_SP SP+4
          CFI (cfiCond695) CFA_Y Y+2
          CFI Block cfiCond696 Using cfiCommon0
          CFI (cfiCond696) Function writeCOD
          CFI (cfiCond696) Conditional ??CrossCallReturnLabel_236
          CFI (cfiCond696) R24 Frame(CFA_Y, -1)
          CFI (cfiCond696) CFA_SP SP+4
          CFI (cfiCond696) CFA_Y Y+1
          CFI Block cfiCond697 Using cfiCommon0
          CFI (cfiCond697) Function diag
          CFI (cfiCond697) Conditional ??CrossCallReturnLabel_237
          CFI (cfiCond697) R24 Frame(CFA_Y, -2)
          CFI (cfiCond697) R25 Frame(CFA_Y, -1)
          CFI (cfiCond697) CFA_SP SP+4
          CFI (cfiCond697) CFA_Y Y+2
          CFI Block cfiCond698 Using cfiCommon0
          CFI (cfiCond698) Function diag
          CFI (cfiCond698) Conditional ??CrossCallReturnLabel_238
          CFI (cfiCond698) R24 Frame(CFA_Y, -2)
          CFI (cfiCond698) R25 Frame(CFA_Y, -1)
          CFI (cfiCond698) CFA_SP SP+4
          CFI (cfiCond698) CFA_Y Y+2
          CFI Block cfiCond699 Using cfiCommon0
          CFI (cfiCond699) Function diag
          CFI (cfiCond699) Conditional ??CrossCallReturnLabel_239
          CFI (cfiCond699) R24 Frame(CFA_Y, -2)
          CFI (cfiCond699) R25 Frame(CFA_Y, -1)
          CFI (cfiCond699) CFA_SP SP+4
          CFI (cfiCond699) CFA_Y Y+2
          CFI Block cfiCond700 Using cfiCommon0
          CFI (cfiCond700) Function main_logic
          CFI (cfiCond700) Conditional ??CrossCallReturnLabel_22
          CFI (cfiCond700) CFA_SP SP+4
          CFI Block cfiCond701 Using cfiCommon0
          CFI (cfiCond701) Function main_logic
          CFI (cfiCond701) Conditional ??CrossCallReturnLabel_23
          CFI (cfiCond701) CFA_SP SP+4
          CFI Block cfiCond702 Using cfiCommon0
          CFI (cfiCond702) Function coding
          CFI (cfiCond702) Conditional ??CrossCallReturnLabel_195
          CFI (cfiCond702) R24 Frame(CFA_Y, -10)
          CFI (cfiCond702) R25 Frame(CFA_Y, -9)
          CFI (cfiCond702) R26 Frame(CFA_Y, -8)
          CFI (cfiCond702) R27 Frame(CFA_Y, -7)
          CFI (cfiCond702) R4 Frame(CFA_Y, -6)
          CFI (cfiCond702) R5 Frame(CFA_Y, -5)
          CFI (cfiCond702) R6 Frame(CFA_Y, -4)
          CFI (cfiCond702) R7 Frame(CFA_Y, -3)
          CFI (cfiCond702) R8 Frame(CFA_Y, -2)
          CFI (cfiCond702) R9 Frame(CFA_Y, -1)
          CFI (cfiCond702) CFA_SP SP+4
          CFI (cfiCond702) CFA_Y Y+10
          CFI Block cfiCond703 Using cfiCommon0
          CFI (cfiCond703) Function diag
          CFI (cfiCond703) Conditional ??CrossCallReturnLabel_194
          CFI (cfiCond703) R24 Frame(CFA_Y, -2)
          CFI (cfiCond703) R25 Frame(CFA_Y, -1)
          CFI (cfiCond703) CFA_SP SP+4
          CFI (cfiCond703) CFA_Y Y+2
          CFI Block cfiPicker704 Using cfiCommon2
          CFI (cfiPicker704) NoFunction
          CFI (cfiPicker704) Picker
        LDI     R16, 13
        RJMP    USART_SendChar
          CFI EndBlock cfiCond693
          CFI EndBlock cfiCond694
          CFI EndBlock cfiCond695
          CFI EndBlock cfiCond696
          CFI EndBlock cfiCond697
          CFI EndBlock cfiCond698
          CFI EndBlock cfiCond699
          CFI EndBlock cfiCond700
          CFI EndBlock cfiCond701
          CFI EndBlock cfiCond702
          CFI EndBlock cfiCond703
          CFI EndBlock cfiPicker704

        RSEG CODE:CODE:NOROOT(1)
?Subroutine41:
          CFI Block cfiCond705 Using cfiCommon0
          CFI Function coding
          CFI Conditional ??CrossCallReturnLabel_195
          CFI R24 Frame(CFA_Y, -10)
          CFI R25 Frame(CFA_Y, -9)
          CFI R26 Frame(CFA_Y, -8)
          CFI R27 Frame(CFA_Y, -7)
          CFI R4 Frame(CFA_Y, -6)
          CFI R5 Frame(CFA_Y, -5)
          CFI R6 Frame(CFA_Y, -4)
          CFI R7 Frame(CFA_Y, -3)
          CFI R8 Frame(CFA_Y, -2)
          CFI R9 Frame(CFA_Y, -1)
          CFI CFA_SP SP+4
          CFI CFA_Y Y+10
          CFI Block cfiCond706 Using cfiCommon0
          CFI (cfiCond706) Function diag
          CFI (cfiCond706) Conditional ??CrossCallReturnLabel_194
          CFI (cfiCond706) R24 Frame(CFA_Y, -2)
          CFI (cfiCond706) R25 Frame(CFA_Y, -1)
          CFI (cfiCond706) CFA_SP SP+4
          CFI (cfiCond706) CFA_Y Y+2
          CFI Block cfiPicker707 Using cfiCommon2
          CFI (cfiPicker707) NoFunction
          CFI (cfiPicker707) Picker
        RCALL   ?Subroutine118
          CFI EndBlock cfiCond705
          CFI EndBlock cfiCond706
          CFI EndBlock cfiPicker707
??CrossCallReturnLabel_309:
        REQUIRE ?Subroutine104
        ;               // Fall through to label ?Subroutine104

        RSEG CODE:CODE:NOROOT(1)
?Subroutine104:
          CFI Block cfiCond708 Using cfiCommon0
          CFI Function main_logic
          CFI Conditional ??CrossCallReturnLabel_22
          CFI CFA_SP SP+4
          CFI Block cfiCond709 Using cfiCommon0
          CFI (cfiCond709) Function main_logic
          CFI (cfiCond709) Conditional ??CrossCallReturnLabel_23
          CFI (cfiCond709) CFA_SP SP+4
          CFI Block cfiCond710 Using cfiCommon0
          CFI (cfiCond710) Function coding
          CFI (cfiCond710) Conditional ??CrossCallReturnLabel_195
          CFI (cfiCond710) R24 Frame(CFA_Y, -10)
          CFI (cfiCond710) R25 Frame(CFA_Y, -9)
          CFI (cfiCond710) R26 Frame(CFA_Y, -8)
          CFI (cfiCond710) R27 Frame(CFA_Y, -7)
          CFI (cfiCond710) R4 Frame(CFA_Y, -6)
          CFI (cfiCond710) R5 Frame(CFA_Y, -5)
          CFI (cfiCond710) R6 Frame(CFA_Y, -4)
          CFI (cfiCond710) R7 Frame(CFA_Y, -3)
          CFI (cfiCond710) R8 Frame(CFA_Y, -2)
          CFI (cfiCond710) R9 Frame(CFA_Y, -1)
          CFI (cfiCond710) CFA_SP SP+4
          CFI (cfiCond710) CFA_Y Y+10
          CFI Block cfiCond711 Using cfiCommon0
          CFI (cfiCond711) Function diag
          CFI (cfiCond711) Conditional ??CrossCallReturnLabel_194
          CFI (cfiCond711) R24 Frame(CFA_Y, -2)
          CFI (cfiCond711) R25 Frame(CFA_Y, -1)
          CFI (cfiCond711) CFA_SP SP+4
          CFI (cfiCond711) CFA_Y Y+2
          CFI Block cfiPicker712 Using cfiCommon2
          CFI (cfiPicker712) NoFunction
          CFI (cfiPicker712) Picker
        LDI     R16, 9
        RCALL   rprintfFloat
        RJMP    ?Subroutine120
          CFI EndBlock cfiCond708
          CFI EndBlock cfiCond709
          CFI EndBlock cfiCond710
          CFI EndBlock cfiCond711
          CFI EndBlock cfiPicker712
//  539 
// F:\Dulov\remoteamp\SoftTimers.c
//    1 
//    2 #include <stdbool.h>//поддержка bool
//    3 #include "iom8.h"//<ioavr.h>
//    4 #include <inavr.h>
//    5 #include <intrinsics.h>
//    6 #include "init.h"
//    7 #include "SoftTimers.h"

        RSEG NEAR_I:DATA:NOROOT(0)
        REQUIRE `?<Segment init: NEAR_I>`
// static unsigned char port
??port:
        DS8 1
        REQUIRE `?<Initializer for port>`
//    8 
//    9 //***************************************************************************
//   10 //
//   11 //***************************************************************************

        RSEG NEAR_Z:DATA:NOROOT(0)
        REQUIRE `?<Segment init: NEAR_Z>`
//   12 timers tm1,tm2;
tm1:
        DS8 7

        RSEG NEAR_Z:DATA:NOROOT(0)
        REQUIRE `?<Segment init: NEAR_Z>`
tm2:
        DS8 7

        RSEG NEAR_Z:DATA:NOROOT(0)
        REQUIRE `?<Segment init: NEAR_Z>`
//   13 static uchar raz;
??raz:
        DS8 1
//   14 static uchar port;

        RSEG NEAR_Z:DATA:NOROOT(0)
        REQUIRE `?<Segment init: NEAR_Z>`
//   15 static uchar razct;
??razct:
        DS8 1
//   16 
//   17 /*
//   18 #pragma vector = TIMER0_OVF_vect 
//   19 __interrupt void funTIMER0_OVF_vect(void)
//   20 {
//   21    
//   22  
//   23 }
//   24 */
//   25 

        RSEG CODE:CODE:NOROOT(1)
//   26 void TimerSet(timers *t, uint tm)
TimerSet:
          CFI Block cfiBlock713 Using cfiCommon0
          CFI Function TimerSet
//   27 {
//   28   t->out=0;
        LDI     R20, 0
        MOVW    R31:R30, R17:R16
        STD     Z+6, R20
//   29   t->ct=0;
        STD     Z+2, R20
        STD     Z+3, R20
//   30   t->time=tm;
        STD     Z+4, R18
        STD     Z+5, R19
//   31   t->x=0;
        ST      Z, R20
        STD     Z+1, R20
//   32 }
        RET
          CFI EndBlock cfiBlock713
//   33 

        RSEG CODE:CODE:NOROOT(1)
//   34 void TimerTick( timers *t)
TimerTick:
          CFI Block cfiBlock714 Using cfiCommon0
          CFI Function TimerTick
//   35 {
//   36   if (t->out) return;
        MOVW    R31:R30, R17:R16
        LDD     R18, Z+6
        TST     R18
        BRNE    ??TimerTick_0
//   37   t->x++;
        RCALL   ?Subroutine123
??CrossCallReturnLabel_246:
        SUBI    R18, 255
        SBCI    R19, 255
        ST      Z, R18
        STD     Z+1, R19
//   38   if (t->x>=CALIBR) { t->x=0; t->ct++;}
        CPI     R18, 124
        SBCI    R19, 21
        BRCS    ??TimerTick_1
        LDI     R18, 0
        ST      Z, R18
        STD     Z+1, R18
        LDD     R18, Z+2
        LDD     R19, Z+3
        SUBI    R18, 255
        SBCI    R19, 255
        STD     Z+2, R18
        STD     Z+3, R19
//   39   if (t->ct >t->time ) t->out=1;
??TimerTick_1:
        LDD     R18, Z+4
        LDD     R19, Z+5
        LDD     R20, Z+2
        LDD     R21, Z+3
        CP      R18, R20
        CPC     R19, R21
        BRCC    ??TimerTick_0
        LDI     R18, 1
        STD     Z+6, R18
//   40 }
??TimerTick_0:
        RET
          CFI EndBlock cfiBlock714
//   41 //**************************************************************
//   42 //**************************************************************
//   43 //void ResetT1(void)/
//   44 //{
//   45 //  T1=0;T1x=0;  T1out=0;
//   46 //}
//   47   
//   48 
//   49 //void iniT1(ulong max)
//   50 //{
//   51  //инициализация таймера Т0 - прерывания каждую ms
//   52  // TIMSK = (1<<OCIE0);
//   53  // TCCR0 = (1<<WGM01)|(0<<WGM00)|(0<<COM01)|(0<<COM00)|(0<<CS02)|(1<<CS01)|(1<<CS00);
//   54  // TCNT0 = 0;
//   55  // OCR0 = 0x7d;
//   56 
//   57   //T1max=max; ResetT1();
//   58 //}
//   59 
//   60 
//   61 //void WorkT1(void)
//   62 //{
//   63 //  if (T1out) return;
//   64 //  T1x++; if (T1x>=CALIBR) { T1x=0; T1++; }
//   65 //  if (T1>=T1max) T1out=1;
//   66 //}
//   67 
//   68 //**************************************************************
//   69 //**************************************************************
//   70 /*
//   71 //void ResetT2(void)/
//   72 {
//   73   T2=0;T2x=0;  T2out=0;
//   74 }
//   75   
//   76 
//   77 void iniT2(ulong max)
//   78 {
//   79  //инициализация таймера Т0 - прерывания каждую ms
//   80  // TIMSK = (1<<OCIE0);
//   81  // TCCR0 = (1<<WGM01)|(0<<WGM00)|(0<<COM01)|(0<<COM00)|(0<<CS02)|(1<<CS01)|(1<<CS00);
//   82  // TCNT0 = 0;
//   83  // OCR0 = 0x7d;
//   84 
//   85   T2max=max; ResetT2();
//   86 }
//   87 
//   88 
//   89 void WorkT2(void)
//   90 {
//   91   if (T2out) return;
//   92   T2x++; if (T2x>=(CALIBR/1000)) { T2x=0; T2++; }
//   93   if (T2>=T2max) T2out=1;
//   94 }
//   95 
//   96 
//   97 |*/
//   98 
//   99 
//  100 
//  101 
//  102 
//  103 
//  104 

        RSEG CODE:CODE:NOROOT(1)
//  105 void migINI(uchar sel,  uchar razp, bool prton)//мигание sel - кол-во раз
migINI:
          CFI Block cfiBlock715 Using cfiCommon0
          CFI Function migINI
//  106 {
        FUNCALL migINI, TimerSet
        LOCFRAME CSTACK, 0, STACK
        LOCFRAME RSTACK, 2, STACK
        ARGFRAME RSTACK, 0, STACK
        MOV     R19, R16
        MOVW    R21:R20, R17:R16
//  107   SET(PORTB,sel);//вкл-ем для ускорения индикации
        RCALL   ?Subroutine7
//  108   
//  109   
//  110   if (port!=255) {  //если все еще мигает
??CrossCallReturnLabel_293:
        LDS     R16, ??port
        CPI     R16, 255
        BREQ    ??migINI_0
//  111      
//  112     if (prton)SET(PORTB,port); //фиксируем чтобы горел
        LDS     R20, ??port
        RCALL   ?Subroutine117
??CrossCallReturnLabel_231:
        TST     R18
        BREQ    ??migINI_1
        IN      R17, 0x18
        OR      R17, R16
        RJMP    ??migINI_2
//  113     else RES(PORTB,port);
??migINI_1:
        COM     R16
        IN      R17, 0x18
        AND     R17, R16
??migINI_2:
        OUT     0x18, R17
//  114                 }
//  115   
//  116   
//  117   raz=razp;  port=sel; razct=0;
??migINI_0:
        STS     ??raz, R21
        STS     ??port, R19
        LDI     R16, 0
        STS     ??razct, R16
//  118   
//  119   
//  120   TimerSet(&tm2,5);
        LDI     R18, 5
        RCALL   ?Subroutine100
//  121   tm2.out=1;
??CrossCallReturnLabel_181:
        LDI     R16, 1
        STS     (tm2 + 6), R16
//  122   //iniT2(5);
//  123   //T2out=1;
//  124   
//  125 }
        RET
          CFI EndBlock cfiBlock715
        REQUIRE _A_PORTB

        RSEG CODE:CODE:NOROOT(1)
?Subroutine117:
          CFI Block cfiCond716 Using cfiCommon0
          CFI Function coding
          CFI Conditional ??CrossCallReturnLabel_233, ??CrossCallReturnLabel_5
          CFI R24 Frame(CFA_Y, -10)
          CFI R25 Frame(CFA_Y, -9)
          CFI R26 Frame(CFA_Y, -8)
          CFI R27 Frame(CFA_Y, -7)
          CFI R4 Frame(CFA_Y, -6)
          CFI R5 Frame(CFA_Y, -5)
          CFI R6 Frame(CFA_Y, -4)
          CFI R7 Frame(CFA_Y, -3)
          CFI R8 Frame(CFA_Y, -2)
          CFI R9 Frame(CFA_Y, -1)
          CFI CFA_SP SP+6
          CFI CFA_Y Y+10
          CFI Block cfiCond717 Using cfiCommon0
          CFI (cfiCond717) Function coding
          CFI (cfiCond717) Conditional ??CrossCallReturnLabel_233, ??CrossCallReturnLabel_6
          CFI (cfiCond717) R24 Frame(CFA_Y, -10)
          CFI (cfiCond717) R25 Frame(CFA_Y, -9)
          CFI (cfiCond717) R26 Frame(CFA_Y, -8)
          CFI (cfiCond717) R27 Frame(CFA_Y, -7)
          CFI (cfiCond717) R4 Frame(CFA_Y, -6)
          CFI (cfiCond717) R5 Frame(CFA_Y, -5)
          CFI (cfiCond717) R6 Frame(CFA_Y, -4)
          CFI (cfiCond717) R7 Frame(CFA_Y, -3)
          CFI (cfiCond717) R8 Frame(CFA_Y, -2)
          CFI (cfiCond717) R9 Frame(CFA_Y, -1)
          CFI (cfiCond717) CFA_SP SP+6
          CFI (cfiCond717) CFA_Y Y+10
          CFI Block cfiCond718 Using cfiCommon0
          CFI (cfiCond718) Function coding
          CFI (cfiCond718) Conditional ??CrossCallReturnLabel_233, ??CrossCallReturnLabel_7
          CFI (cfiCond718) R24 Frame(CFA_Y, -10)
          CFI (cfiCond718) R25 Frame(CFA_Y, -9)
          CFI (cfiCond718) R26 Frame(CFA_Y, -8)
          CFI (cfiCond718) R27 Frame(CFA_Y, -7)
          CFI (cfiCond718) R4 Frame(CFA_Y, -6)
          CFI (cfiCond718) R5 Frame(CFA_Y, -5)
          CFI (cfiCond718) R6 Frame(CFA_Y, -4)
          CFI (cfiCond718) R7 Frame(CFA_Y, -3)
          CFI (cfiCond718) R8 Frame(CFA_Y, -2)
          CFI (cfiCond718) R9 Frame(CFA_Y, -1)
          CFI (cfiCond718) CFA_SP SP+6
          CFI (cfiCond718) CFA_Y Y+10
          CFI Block cfiCond719 Using cfiCommon0
          CFI (cfiCond719) Function coding
          CFI (cfiCond719) Conditional ??CrossCallReturnLabel_232, ??CrossCallReturnLabel_2
          CFI (cfiCond719) R24 Frame(CFA_Y, -10)
          CFI (cfiCond719) R25 Frame(CFA_Y, -9)
          CFI (cfiCond719) R26 Frame(CFA_Y, -8)
          CFI (cfiCond719) R27 Frame(CFA_Y, -7)
          CFI (cfiCond719) R4 Frame(CFA_Y, -6)
          CFI (cfiCond719) R5 Frame(CFA_Y, -5)
          CFI (cfiCond719) R6 Frame(CFA_Y, -4)
          CFI (cfiCond719) R7 Frame(CFA_Y, -3)
          CFI (cfiCond719) R8 Frame(CFA_Y, -2)
          CFI (cfiCond719) R9 Frame(CFA_Y, -1)
          CFI (cfiCond719) CFA_SP SP+6
          CFI (cfiCond719) CFA_Y Y+10
          CFI Block cfiCond720 Using cfiCommon0
          CFI (cfiCond720) Function coding
          CFI (cfiCond720) Conditional ??CrossCallReturnLabel_232, ??CrossCallReturnLabel_3
          CFI (cfiCond720) R24 Frame(CFA_Y, -10)
          CFI (cfiCond720) R25 Frame(CFA_Y, -9)
          CFI (cfiCond720) R26 Frame(CFA_Y, -8)
          CFI (cfiCond720) R27 Frame(CFA_Y, -7)
          CFI (cfiCond720) R4 Frame(CFA_Y, -6)
          CFI (cfiCond720) R5 Frame(CFA_Y, -5)
          CFI (cfiCond720) R6 Frame(CFA_Y, -4)
          CFI (cfiCond720) R7 Frame(CFA_Y, -3)
          CFI (cfiCond720) R8 Frame(CFA_Y, -2)
          CFI (cfiCond720) R9 Frame(CFA_Y, -1)
          CFI (cfiCond720) CFA_SP SP+6
          CFI (cfiCond720) CFA_Y Y+10
          CFI Block cfiCond721 Using cfiCommon0
          CFI (cfiCond721) Function coding
          CFI (cfiCond721) Conditional ??CrossCallReturnLabel_232, ??CrossCallReturnLabel_4
          CFI (cfiCond721) R24 Frame(CFA_Y, -10)
          CFI (cfiCond721) R25 Frame(CFA_Y, -9)
          CFI (cfiCond721) R26 Frame(CFA_Y, -8)
          CFI (cfiCond721) R27 Frame(CFA_Y, -7)
          CFI (cfiCond721) R4 Frame(CFA_Y, -6)
          CFI (cfiCond721) R5 Frame(CFA_Y, -5)
          CFI (cfiCond721) R6 Frame(CFA_Y, -4)
          CFI (cfiCond721) R7 Frame(CFA_Y, -3)
          CFI (cfiCond721) R8 Frame(CFA_Y, -2)
          CFI (cfiCond721) R9 Frame(CFA_Y, -1)
          CFI (cfiCond721) CFA_SP SP+6
          CFI (cfiCond721) CFA_Y Y+10
          CFI Block cfiCond722 Using cfiCommon0
          CFI (cfiCond722) Function migINI
          CFI (cfiCond722) Conditional ??CrossCallReturnLabel_231
          CFI (cfiCond722) CFA_SP SP+4
          CFI Block cfiCond723 Using cfiCommon0
          CFI (cfiCond723) Function migINI
          CFI (cfiCond723) Conditional ??CrossCallReturnLabel_234, ??CrossCallReturnLabel_293
          CFI (cfiCond723) CFA_SP SP+6
          CFI Block cfiCond724 Using cfiCommon0
          CFI (cfiCond724) Function migWORK
          CFI (cfiCond724) Conditional ??CrossCallReturnLabel_234, ??CrossCallReturnLabel_294
          CFI (cfiCond724) CFA_SP SP+6
          CFI Block cfiCond725 Using cfiCommon0
          CFI (cfiCond725) Function normal
          CFI (cfiCond725) Conditional ??CrossCallReturnLabel_235, ??CrossCallReturnLabel_297, ??CrossCallReturnLabel_255
          CFI (cfiCond725) R24 Frame(CFA_Y, -1)
          CFI (cfiCond725) CFA_SP SP+8
          CFI (cfiCond725) CFA_Y Y+1
          CFI Block cfiCond726 Using cfiCommon0
          CFI (cfiCond726) Function normal
          CFI (cfiCond726) Conditional ??CrossCallReturnLabel_235, ??CrossCallReturnLabel_297, ??CrossCallReturnLabel_256
          CFI (cfiCond726) R24 Frame(CFA_Y, -1)
          CFI (cfiCond726) CFA_SP SP+8
          CFI (cfiCond726) CFA_Y Y+1
          CFI Block cfiCond727 Using cfiCommon0
          CFI (cfiCond727) Function normal
          CFI (cfiCond727) Conditional ??CrossCallReturnLabel_235, ??CrossCallReturnLabel_295
          CFI (cfiCond727) R24 Frame(CFA_Y, -1)
          CFI (cfiCond727) CFA_SP SP+6
          CFI (cfiCond727) CFA_Y Y+1
          CFI Block cfiCond728 Using cfiCommon0
          CFI (cfiCond728) Function migWORK
          CFI (cfiCond728) Conditional ??CrossCallReturnLabel_235, ??CrossCallReturnLabel_296
          CFI (cfiCond728) CFA_SP SP+6
          CFI Block cfiPicker729 Using cfiCommon2
          CFI (cfiPicker729) NoFunction
          CFI (cfiPicker729) Picker
        LDI     R16, 1
        LDI     R17, 0
        RJMP    ?S_SHL_L02
          CFI EndBlock cfiCond716
          CFI EndBlock cfiCond717
          CFI EndBlock cfiCond718
          CFI EndBlock cfiCond719
          CFI EndBlock cfiCond720
          CFI EndBlock cfiCond721
          CFI EndBlock cfiCond722
          CFI EndBlock cfiCond723
          CFI EndBlock cfiCond724
          CFI EndBlock cfiCond725
          CFI EndBlock cfiCond726
          CFI EndBlock cfiCond727
          CFI EndBlock cfiCond728
          CFI EndBlock cfiPicker729
//  126 

        RSEG CODE:CODE:NOROOT(1)
//  127 void migWORK(void)//мигание 
migWORK:
          CFI Block cfiBlock730 Using cfiCommon0
          CFI Function migWORK
//  128 {
//  129   static bool sost=0;
//  130   TimerTick(&tm2); // WorkT2();
        FUNCALL migWORK, TimerTick
        LOCFRAME CSTACK, 0, STACK
        LOCFRAME RSTACK, 2, STACK
        ARGFRAME RSTACK, 0, STACK
        FUNCALL migWORK, TimerSet
        LOCFRAME CSTACK, 0, STACK
        LOCFRAME RSTACK, 2, STACK
        ARGFRAME RSTACK, 0, STACK
        FUNCALL migWORK, TimerSet
        LOCFRAME CSTACK, 0, STACK
        LOCFRAME RSTACK, 2, STACK
        ARGFRAME RSTACK, 0, STACK
        LDI     R16, LOW(tm2)
        LDI     R17, (tm2) >> 8
        RCALL   TimerTick
//  131   if (tm2.out==1 && port!=255)  {
        LDS     R16, (tm2 + 6)
        TST     R16
        BREQ    ??CrossCallReturnLabel_296
        LDS     R16, ??port
        CPI     R16, 255
        BREQ    ??CrossCallReturnLabel_296
//  132        if (sost!=1)  {sost=1; TimerSet(&tm2,200); SET(PORTB,port); razct++;}
        LDS     R16, ??sost
        TST     R16
        BRNE    ??migWORK_0
        LDI     R16, 1
        RCALL   ?Subroutine43
??CrossCallReturnLabel_46:
        RCALL   ?Subroutine7
??CrossCallReturnLabel_294:
        LDI     R30, LOW(??razct)
        LDI     R31, (??razct) >> 8
        RCALL   ?Subroutine96
??CrossCallReturnLabel_326:
        RJMP    ??CrossCallReturnLabel_296
//  133   else if (sost!=0)  {sost=0; TimerSet(&tm2,200); RES(PORTB,port);}
??migWORK_0:
        LDI     R16, 0
        RCALL   ?Subroutine43
//  134                               }
??CrossCallReturnLabel_47:
        RCALL   ?Subroutine88
//  135   if (razct>=raz) {  tm2.out=1; port=255;}
??CrossCallReturnLabel_296:
        LDS     R16, ??razct
        LDS     R17, ??raz
        CP      R16, R17
        BRCS    ??migWORK_1
        LDI     R16, 1
        STS     (tm2 + 6), R16
        LDI     R16, 255
        STS     ??port, R16
//  136 }
??migWORK_1:
        RET
          CFI EndBlock cfiBlock730
        REQUIRE _A_PORTB

        RSEG CODE:CODE:NOROOT(1)
?Subroutine43:
          CFI Block cfiCond731 Using cfiCommon0
          CFI Function migWORK
          CFI Conditional ??CrossCallReturnLabel_46
          CFI CFA_SP SP+4
          CFI Block cfiCond732 Using cfiCommon0
          CFI (cfiCond732) Function migWORK
          CFI (cfiCond732) Conditional ??CrossCallReturnLabel_47
          CFI (cfiCond732) CFA_SP SP+4
          CFI Block cfiPicker733 Using cfiCommon2
          CFI (cfiPicker733) NoFunction
          CFI (cfiPicker733) Picker
        STS     ??sost, R16
        LDI     R18, 200
        RCALL   ?Subroutine100
??CrossCallReturnLabel_180:
        LDS     R20, ??port
        RET
          CFI EndBlock cfiCond731
          CFI EndBlock cfiCond732
          CFI EndBlock cfiPicker733

        RSEG CODE:CODE:NOROOT(1)
?Subroutine100:
          CFI Block cfiCond734 Using cfiCommon0
          CFI Function migINI
          CFI Conditional ??CrossCallReturnLabel_181
          CFI CFA_SP SP+4
          CFI Block cfiCond735 Using cfiCommon0
          CFI (cfiCond735) Function migWORK
          CFI (cfiCond735) Conditional ??CrossCallReturnLabel_180, ??CrossCallReturnLabel_46
          CFI (cfiCond735) CFA_SP SP+6
          CFI Block cfiCond736 Using cfiCommon0
          CFI (cfiCond736) Function migWORK
          CFI (cfiCond736) Conditional ??CrossCallReturnLabel_180, ??CrossCallReturnLabel_47
          CFI (cfiCond736) CFA_SP SP+6
          CFI Block cfiPicker737 Using cfiCommon2
          CFI (cfiPicker737) NoFunction
          CFI (cfiPicker737) Picker
        LDI     R19, 0
        LDI     R16, LOW(tm2)
        LDI     R17, (tm2) >> 8
        RJMP    TimerSet
          CFI EndBlock cfiCond734
          CFI EndBlock cfiCond735
          CFI EndBlock cfiCond736
          CFI EndBlock cfiPicker737

        RSEG CODE:CODE:NOROOT(1)
?Subroutine7:
          CFI Block cfiCond738 Using cfiCommon0
          CFI Function migINI
          CFI Conditional ??CrossCallReturnLabel_293
          CFI CFA_SP SP+4
          CFI Block cfiCond739 Using cfiCommon0
          CFI (cfiCond739) Function migWORK
          CFI (cfiCond739) Conditional ??CrossCallReturnLabel_294
          CFI (cfiCond739) CFA_SP SP+4
          CFI Block cfiPicker740 Using cfiCommon2
          CFI (cfiPicker740) NoFunction
          CFI (cfiPicker740) Picker
        RCALL   ?Subroutine117
??CrossCallReturnLabel_234:
        IN      R17, 0x18
        OR      R17, R16
          CFI EndBlock cfiCond738
          CFI EndBlock cfiCond739
          CFI EndBlock cfiPicker740
        REQUIRE ?Subroutine132
        ;               // Fall through to label ?Subroutine132

        RSEG CODE:CODE:NOROOT(1)
?Subroutine132:
          CFI Block cfiCond741 Using cfiCommon0
          CFI Function migINI
          CFI Conditional ??CrossCallReturnLabel_293
          CFI CFA_SP SP+4
          CFI Block cfiCond742 Using cfiCommon0
          CFI (cfiCond742) Function migWORK
          CFI (cfiCond742) Conditional ??CrossCallReturnLabel_294
          CFI (cfiCond742) CFA_SP SP+4
          CFI Block cfiCond743 Using cfiCommon0
          CFI (cfiCond743) Function normal
          CFI (cfiCond743) Conditional ??CrossCallReturnLabel_297, ??CrossCallReturnLabel_255
          CFI (cfiCond743) R24 Frame(CFA_Y, -1)
          CFI (cfiCond743) CFA_SP SP+6
          CFI (cfiCond743) CFA_Y Y+1
          CFI Block cfiCond744 Using cfiCommon0
          CFI (cfiCond744) Function normal
          CFI (cfiCond744) Conditional ??CrossCallReturnLabel_297, ??CrossCallReturnLabel_256
          CFI (cfiCond744) R24 Frame(CFA_Y, -1)
          CFI (cfiCond744) CFA_SP SP+6
          CFI (cfiCond744) CFA_Y Y+1
          CFI Block cfiCond745 Using cfiCommon0
          CFI (cfiCond745) Function normal
          CFI (cfiCond745) Conditional ??CrossCallReturnLabel_295
          CFI (cfiCond745) R24 Frame(CFA_Y, -1)
          CFI (cfiCond745) CFA_SP SP+4
          CFI (cfiCond745) CFA_Y Y+1
          CFI Block cfiCond746 Using cfiCommon0
          CFI (cfiCond746) Function migWORK
          CFI (cfiCond746) Conditional ??CrossCallReturnLabel_296
          CFI (cfiCond746) CFA_SP SP+4
          CFI Block cfiPicker747 Using cfiCommon2
          CFI (cfiPicker747) NoFunction
          CFI (cfiPicker747) Picker
        OUT     0x18, R17
        RET
          CFI EndBlock cfiCond741
          CFI EndBlock cfiCond742
          CFI EndBlock cfiCond743
          CFI EndBlock cfiCond744
          CFI EndBlock cfiCond745
          CFI EndBlock cfiCond746
          CFI EndBlock cfiPicker747

        RSEG CODE:CODE:NOROOT(1)
?Subroutine88:
          CFI Block cfiCond748 Using cfiCommon0
          CFI Function normal
          CFI Conditional ??CrossCallReturnLabel_297, ??CrossCallReturnLabel_255
          CFI R24 Frame(CFA_Y, -1)
          CFI CFA_SP SP+6
          CFI CFA_Y Y+1
          CFI Block cfiCond749 Using cfiCommon0
          CFI (cfiCond749) Function normal
          CFI (cfiCond749) Conditional ??CrossCallReturnLabel_297, ??CrossCallReturnLabel_256
          CFI (cfiCond749) R24 Frame(CFA_Y, -1)
          CFI (cfiCond749) CFA_SP SP+6
          CFI (cfiCond749) CFA_Y Y+1
          CFI Block cfiCond750 Using cfiCommon0
          CFI (cfiCond750) Function normal
          CFI (cfiCond750) Conditional ??CrossCallReturnLabel_295
          CFI (cfiCond750) R24 Frame(CFA_Y, -1)
          CFI (cfiCond750) CFA_SP SP+4
          CFI (cfiCond750) CFA_Y Y+1
          CFI Block cfiCond751 Using cfiCommon0
          CFI (cfiCond751) Function migWORK
          CFI (cfiCond751) Conditional ??CrossCallReturnLabel_296
          CFI (cfiCond751) CFA_SP SP+4
          CFI Block cfiPicker752 Using cfiCommon2
          CFI (cfiPicker752) NoFunction
          CFI (cfiPicker752) Picker
        RCALL   ?Subroutine117
??CrossCallReturnLabel_235:
        COM     R16
        IN      R17, 0x18
        AND     R17, R16
        RJMP    ?Subroutine132
          CFI EndBlock cfiCond748
          CFI EndBlock cfiCond749
          CFI EndBlock cfiCond750
          CFI EndBlock cfiCond751
          CFI EndBlock cfiPicker752

        RSEG NEAR_Z:DATA:NOROOT(0)
        REQUIRE `?<Segment init: NEAR_Z>`
??sost:
        DS8 1
//  137 //uchar migSEL(void){ return(port);} //возвращает текущий мигающий порт
//  138 //**************************************************************
//  139 //**************************************************************
// F:\Dulov\remoteamp\usart.c
//    1 #include "usart.h"
//    2 //#include <math.h>
//    3 //#include <intrinsics.h>
//    4 
//    5 #include "init.h"
//    6 
//    7 //однобайтный буфер

        RSEG NEAR_Z:DATA:NOROOT(0)
        REQUIRE `?<Segment init: NEAR_Z>`
//    8 volatile unsigned char usartRxBuf = 0;
usartRxBuf:
        DS8 1

        RSEG NEAR_Z:DATA:NOROOT(0)
        REQUIRE `?<Segment init: NEAR_Z>`
//    9 volatile static bool usarton;
??usarton:
        DS8 1
//   10 
//   11 //инициализация usart`a

        RSEG CODE:CODE:NOROOT(1)
//   12 void USART_Init()
USART_Init:
          CFI Block cfiBlock753 Using cfiCommon0
          CFI Function USART_Init
//   13 {
//   14   UBRRH = 0;
        LDI     R16, 0
        OUT     0x20, R16
//   15   UBRRL = ((F_CPU/9600UL)-1)/16;//    26;//78; //скорость обмена 9600 бод
        LDI     R16, 25
        OUT     0x09, R16
//   16   UCSRB = (1<<RXCIE)|(1<<RXEN)|(1<<TXEN); //разр. прерыв при приеме, разр приема, разр передачи.
        LDI     R16, 152
        OUT     0x0A, R16
//   17   UCSRC = (1<<URSEL)|(1<<UCSZ1)|(1<<UCSZ0); //размер слова 8 разрядов
        LDI     R16, 134
        OUT     0x20, R16
//   18 }
        RET
          CFI EndBlock cfiBlock753
        REQUIRE _A_UBRRH
        REQUIRE _A_UBRRL
        REQUIRE _A_UCSRB
//   19 
//   20 //отправка символа по usart`у

        RSEG CODE:CODE:NOROOT(1)
//   21 void USART_SendChar(unsigned char sym)
USART_SendChar:
          CFI Block cfiBlock754 Using cfiCommon0
          CFI Function USART_SendChar
//   22 {
//   23   if (!usarton) return;
        LDS     R17, ??usarton
        TST     R17
        BREQ    ??USART_SendChar_0
//   24   while(!(UCSRA & (1<<UDRE)));
??USART_SendChar_1:
        SBIS    0x0B, 0x05
        RJMP    ??USART_SendChar_1
//   25   UDR = sym;
        OUT     0x0C, R16
//   26 }
??USART_SendChar_0:
        RET
          CFI EndBlock cfiBlock754
        REQUIRE _A_UCSRA
        REQUIRE _A_UDR
//   27 
//   28 //чтение буфера

        RSEG CODE:CODE:NOROOT(1)
//   29 __monitor unsigned char USART_GetChar(void)
USART_GetChar:
          CFI Block cfiBlock755 Using cfiCommon0
          CFI Function USART_GetChar
//   30 {
        IN      R18, 0x3F
        CLI
//   31   unsigned char tmp = usartRxBuf;
        LDS     R16, usartRxBuf
//   32   usartRxBuf = 0;
        LDI     R17, 0
        STS     usartRxBuf, R17
//   33   return tmp;  
        OUT     0x3F, R18
        RET
          CFI EndBlock cfiBlock755
//   34 }
//   35 
//   36 //прием символа по usart`у в буфер
//   37 #pragma vector=USART_RXC_vect

        RSEG CODE:CODE:NOROOT(1)
//   38 __interrupt void usart_rxc_my(void) 
usart_rxc_my:
          CFI Block cfiBlock756 Using cfiCommon1
          CFI Function usart_rxc_my
//   39 {
        ST      -Y, R16
          CFI R16 Frame(CFA_Y, -1)
          CFI CFA_Y Y+1
//   40   usartRxBuf = UDR; 
        IN      R16, 0x0C
        STS     usartRxBuf, R16
//   41 } 
        RJMP    ?Subroutine133
          CFI EndBlock cfiBlock756
        REQUIRE _A_UDR
//   42 
//   43 // *** rprintfStr ***
//   44 // prints a null-terminated string stored in RAM

        RSEG CODE:CODE:NOROOT(1)
//   45 void rprintfStr(char str[])
rprintfStr:
          CFI Block cfiBlock757 Using cfiCommon0
          CFI Function rprintfStr
//   46 {        
        FUNCALL rprintfStr, USART_SendChar
        LOCFRAME CSTACK, 4, STACK
        LOCFRAME RSTACK, 2, STACK
        ARGFRAME RSTACK, 0, STACK
        RCALL   ?PROLOGUE4_L09
          CFI R27 Frame(CFA_Y, -1)
          CFI R26 Frame(CFA_Y, -2)
          CFI R25 Frame(CFA_Y, -3)
          CFI R24 Frame(CFA_Y, -4)
          CFI CFA_Y Y+4
        MOVW    R27:R26, R17:R16
//   47     if (!usarton) return;
        LDS     R16, ??usarton
        TST     R16
        BREQ    ??rprintfStr_0
//   48 	// send a string stored in RAM
//   49 	// check to make sure we have a good pointer
//   50 	if (!str) return;
        MOV     R16, R26
        OR      R16, R17
        BRNE    ??rprintfStr_1
        RJMP    ??rprintfStr_0
//   51 
//   52 	// print the string until a null-terminator
//   53 	while (*str)
//   54 		USART_SendChar(*str++);
??rprintfStr_2:
        RCALL   USART_SendChar
??rprintfStr_1:
        LD      R16, X+
        TST     R16
        BRNE    ??rprintfStr_2
//   55 }
??rprintfStr_0:
        LDI     R30, 4
        RJMP    ?EPILOGUE_B4_L09
          CFI EndBlock cfiBlock757
//   56 
//   57 // *** rprintfFloat ***Pascal Stang - Copyright (C) 2000-2002
//   58 // floating-point print

        RSEG CODE:CODE:NOROOT(1)
//   59 void rprintfFloat(char numDigits, double x)
rprintfFloat:
          CFI Block cfiBlock758 Using cfiCommon0
          CFI Function rprintfFloat
//   60 {
        FUNCALL rprintfFloat, USART_SendChar
        LOCFRAME CSTACK, 12, STACK
        LOCFRAME RSTACK, 2, STACK
        ARGFRAME RSTACK, 0, STACK
        FUNCALL rprintfFloat, USART_SendChar
        LOCFRAME CSTACK, 12, STACK
        LOCFRAME RSTACK, 2, STACK
        ARGFRAME RSTACK, 0, STACK
        FUNCALL rprintfFloat, USART_SendChar
        LOCFRAME CSTACK, 12, STACK
        LOCFRAME RSTACK, 2, STACK
        ARGFRAME RSTACK, 0, STACK
        FUNCALL rprintfFloat, USART_SendChar
        LOCFRAME CSTACK, 12, STACK
        LOCFRAME RSTACK, 2, STACK
        ARGFRAME RSTACK, 0, STACK
        FUNCALL rprintfFloat, USART_SendChar
        LOCFRAME CSTACK, 12, STACK
        LOCFRAME RSTACK, 2, STACK
        ARGFRAME RSTACK, 0, STACK
        RCALL   ?PROLOGUE12_L09
          CFI R11 Frame(CFA_Y, -1)
          CFI R10 Frame(CFA_Y, -2)
          CFI R9 Frame(CFA_Y, -3)
          CFI R8 Frame(CFA_Y, -4)
          CFI R7 Frame(CFA_Y, -5)
          CFI R6 Frame(CFA_Y, -6)
          CFI R5 Frame(CFA_Y, -7)
          CFI R4 Frame(CFA_Y, -8)
          CFI R27 Frame(CFA_Y, -9)
          CFI R26 Frame(CFA_Y, -10)
          CFI R25 Frame(CFA_Y, -11)
          CFI R24 Frame(CFA_Y, -12)
          CFI CFA_Y Y+12
        REQUIRE ?Register_R4_is_cg_reg
        REQUIRE ?Register_R5_is_cg_reg
        REQUIRE ?Register_R6_is_cg_reg
        REQUIRE ?Register_R7_is_cg_reg
        REQUIRE ?Register_R8_is_cg_reg
        REQUIRE ?Register_R9_is_cg_reg
        REQUIRE ?Register_R10_is_cg_reg
        REQUIRE ?Register_R11_is_cg_reg
        MOV     R11, R16
        MOVW    R5:R4, R21:R20
        MOVW    R7:R6, R23:R22
//   61     if (!usarton) return;
        LDS     R16, ??usarton
        TST     R16
        BRNE    $+2+2
        RJMP    ??rprintfFloat_0
//   62 	unsigned char firstplace = 0;
        CLR     R10
//   63 	unsigned char negative;
//   64 	unsigned char i, digit;
//   65 	double place = 1.0;
        LDI     R24, 0
        LDI     R25, 0
        LDI     R26, 128
        LDI     R27, 63
//   66 	
//   67 	// save sign
//   68 	negative = (x<0);
        RCALL   ?Subroutine52
??CrossCallReturnLabel_72:
        RCALL   ?Subroutine102
??CrossCallReturnLabel_186:
        RCALL   ?F_CMP_LT_L04
        CLR     R8
        BRCC    ??rprintfFloat_1
        INC     R8
//   69 	// convert to absolute value
//   70 	x = (x>0)?(x):(-x);
??rprintfFloat_1:
        LDI     R20, 1
        RCALL   ?F_CMP_GE_L04
        BRCS    ??rprintfFloat_2
        EOR     R7, R26
//   71 	
//   72 	// find starting digit place
//   73 	for(i=0; i<15; i++)
??rprintfFloat_2:
        LDI     R16, 15
        MOV     R9, R16
//   74 	{
//   75 		if((x/place) < 10.0)
??rprintfFloat_3:
        RCALL   ?Subroutine48
??CrossCallReturnLabel_60:
        RCALL   ?Subroutine53
??CrossCallReturnLabel_73:
        RCALL   ?F_CMP_LT_L04
        BRCS    ??rprintfFloat_4
//   76 			break;
//   77 		else
//   78 			place *= 10.0;
        MOVW    R17:R16, R25:R24
        MOVW    R19:R18, R27:R26
        RCALL   ?F_MUL_L04
        MOVW    R25:R24, R17:R16
        MOVW    R27:R26, R19:R18
//   79 	}
        DEC     R9
        BRNE    ??rprintfFloat_3
//   80 	// print polarity character
//   81 	if(negative)
??rprintfFloat_4:
        BST     R8, 0
        BRTC    ??rprintfFloat_5
//   82 		USART_SendChar('-');
        LDI     R16, 45
        RJMP    ??rprintfFloat_6
//   83 	else
//   84 		USART_SendChar('+');
??rprintfFloat_5:
        LDI     R16, 43
??rprintfFloat_6:
        RCALL   USART_SendChar
//   85 
//   86 	// print digits
//   87 	for(i=0; i<numDigits; i++)
        CLR     R9
        RJMP    ??rprintfFloat_7
//   88 	{
//   89 		digit = (unsigned char)(x/place);
//   90 
//   91 		if(digit | firstplace | (place == 1.0))
//   92 		{
//   93 			firstplace = 1;
//   94 			USART_SendChar(digit+0x30);
//   95 		}
//   96 		else
//   97 			USART_SendChar(' ');
??rprintfFloat_8:
        LDI     R16, 32
??rprintfFloat_9:
        RCALL   USART_SendChar
//   98 		
//   99 		if(place == 1.0)
        RCALL   ?Subroutine46
??CrossCallReturnLabel_55:
        BRNE    ??rprintfFloat_10
//  100 		{
//  101 			USART_SendChar('.');
        LDI     R16, 46
        RCALL   USART_SendChar
//  102 		}
//  103 		
//  104 		x -= (digit*place);
??rprintfFloat_10:
        MOV     R16, R8
        RCALL   ?Subroutine21
??CrossCallReturnLabel_183:
        MOVW    R21:R20, R25:R24
        MOVW    R23:R22, R27:R26
        RCALL   ?F_MUL_L04
        RCALL   ?Subroutine121
??CrossCallReturnLabel_308:
        RCALL   ?Subroutine102
??CrossCallReturnLabel_187:
        RCALL   ?F_SUB_L04
        MOVW    R5:R4, R17:R16
        MOVW    R7:R6, R19:R18
//  105 		place /= 10.0;
        RCALL   ?Subroutine53
??CrossCallReturnLabel_74:
        MOVW    R17:R16, R25:R24
        MOVW    R19:R18, R27:R26
        RCALL   ?F_DIV_L04
        MOVW    R25:R24, R17:R16
        MOVW    R27:R26, R19:R18
        INC     R9
??rprintfFloat_7:
        CP      R9, R11
        BRCC    ??rprintfFloat_0
        RCALL   ?Subroutine48
??CrossCallReturnLabel_61:
        RCALL   ?F2SL_L04
        MOV     R8, R16
        RCALL   ?Subroutine46
??CrossCallReturnLabel_56:
        BRNE    ??rprintfFloat_11
        LDI     R16, 1
        RJMP    ??rprintfFloat_12
??rprintfFloat_11:
        LDI     R16, 0
??rprintfFloat_12:
        MOV     R17, R8
        OR      R17, R10
        OR      R17, R16
        BREQ    ??rprintfFloat_8
        CLR     R10
        INC     R10
        MOV     R16, R8
        SUBI    R16, 208
        RJMP    ??rprintfFloat_9
//  106 	}
//  107 }
??rprintfFloat_0:
        LDI     R30, 12
        RJMP    ?EPILOGUE_B12_L09
          CFI EndBlock cfiBlock758

        RSEG CODE:CODE:NOROOT(1)
?Subroutine53:
          CFI Block cfiCond759 Using cfiCommon0
          CFI Function rprintfFloat
          CFI Conditional ??CrossCallReturnLabel_73
          CFI R24 Frame(CFA_Y, -12)
          CFI R25 Frame(CFA_Y, -11)
          CFI R26 Frame(CFA_Y, -10)
          CFI R27 Frame(CFA_Y, -9)
          CFI R4 Frame(CFA_Y, -8)
          CFI R5 Frame(CFA_Y, -7)
          CFI R6 Frame(CFA_Y, -6)
          CFI R7 Frame(CFA_Y, -5)
          CFI R8 Frame(CFA_Y, -4)
          CFI R9 Frame(CFA_Y, -3)
          CFI R10 Frame(CFA_Y, -2)
          CFI R11 Frame(CFA_Y, -1)
          CFI CFA_SP SP+4
          CFI CFA_Y Y+12
          CFI Block cfiCond760 Using cfiCommon0
          CFI (cfiCond760) Function rprintfFloat
          CFI (cfiCond760) Conditional ??CrossCallReturnLabel_74
          CFI (cfiCond760) R24 Frame(CFA_Y, -12)
          CFI (cfiCond760) R25 Frame(CFA_Y, -11)
          CFI (cfiCond760) R26 Frame(CFA_Y, -10)
          CFI (cfiCond760) R27 Frame(CFA_Y, -9)
          CFI (cfiCond760) R4 Frame(CFA_Y, -8)
          CFI (cfiCond760) R5 Frame(CFA_Y, -7)
          CFI (cfiCond760) R6 Frame(CFA_Y, -6)
          CFI (cfiCond760) R7 Frame(CFA_Y, -5)
          CFI (cfiCond760) R8 Frame(CFA_Y, -4)
          CFI (cfiCond760) R9 Frame(CFA_Y, -3)
          CFI (cfiCond760) R10 Frame(CFA_Y, -2)
          CFI (cfiCond760) R11 Frame(CFA_Y, -1)
          CFI (cfiCond760) CFA_SP SP+4
          CFI (cfiCond760) CFA_Y Y+12
          CFI Block cfiPicker761 Using cfiCommon2
          CFI (cfiPicker761) NoFunction
          CFI (cfiPicker761) Picker
        RCALL   ?Subroutine105
??CrossCallReturnLabel_199:
        LDI     R22, 32
        LDI     R23, 65
        RET
          CFI EndBlock cfiCond759
          CFI EndBlock cfiCond760
          CFI EndBlock cfiPicker761

        RSEG CODE:CODE:NOROOT(1)
?Subroutine52:
          CFI Block cfiCond762 Using cfiCommon0
          CFI Function PEREP
          CFI Conditional ??CrossCallReturnLabel_71
          CFI R24 Frame(CFA_Y, -8)
          CFI R25 Frame(CFA_Y, -7)
          CFI R26 Frame(CFA_Y, -6)
          CFI R27 Frame(CFA_Y, -5)
          CFI R4 Frame(CFA_Y, -4)
          CFI R5 Frame(CFA_Y, -3)
          CFI R6 Frame(CFA_Y, -2)
          CFI R7 Frame(CFA_Y, -1)
          CFI CFA_SP SP+4
          CFI CFA_Y Y+8
          CFI Block cfiCond763 Using cfiCommon0
          CFI (cfiCond763) Function rprintfFloat
          CFI (cfiCond763) Conditional ??CrossCallReturnLabel_72
          CFI (cfiCond763) R24 Frame(CFA_Y, -12)
          CFI (cfiCond763) R25 Frame(CFA_Y, -11)
          CFI (cfiCond763) R26 Frame(CFA_Y, -10)
          CFI (cfiCond763) R27 Frame(CFA_Y, -9)
          CFI (cfiCond763) R4 Frame(CFA_Y, -8)
          CFI (cfiCond763) R5 Frame(CFA_Y, -7)
          CFI (cfiCond763) R6 Frame(CFA_Y, -6)
          CFI (cfiCond763) R7 Frame(CFA_Y, -5)
          CFI (cfiCond763) R8 Frame(CFA_Y, -4)
          CFI (cfiCond763) R9 Frame(CFA_Y, -3)
          CFI (cfiCond763) R10 Frame(CFA_Y, -2)
          CFI (cfiCond763) R11 Frame(CFA_Y, -1)
          CFI (cfiCond763) CFA_SP SP+4
          CFI (cfiCond763) CFA_Y Y+12
          CFI Block cfiPicker764 Using cfiCommon2
          CFI (cfiPicker764) NoFunction
          CFI (cfiPicker764) Picker
        RCALL   ?Subroutine105
??CrossCallReturnLabel_198:
        LDI     R22, 0
        LDI     R23, 0
        RET
          CFI EndBlock cfiCond762
          CFI EndBlock cfiCond763
          CFI EndBlock cfiPicker764

        RSEG CODE:CODE:NOROOT(1)
?Subroutine105:
          CFI Block cfiCond765 Using cfiCommon0
          CFI Function coding
          CFI Conditional ??CrossCallReturnLabel_196, ??CrossCallReturnLabel_2
          CFI R24 Frame(CFA_Y, -10)
          CFI R25 Frame(CFA_Y, -9)
          CFI R26 Frame(CFA_Y, -8)
          CFI R27 Frame(CFA_Y, -7)
          CFI R4 Frame(CFA_Y, -6)
          CFI R5 Frame(CFA_Y, -5)
          CFI R6 Frame(CFA_Y, -4)
          CFI R7 Frame(CFA_Y, -3)
          CFI R8 Frame(CFA_Y, -2)
          CFI R9 Frame(CFA_Y, -1)
          CFI CFA_SP SP+6
          CFI CFA_Y Y+10
          CFI Block cfiCond766 Using cfiCommon0
          CFI (cfiCond766) Function coding
          CFI (cfiCond766) Conditional ??CrossCallReturnLabel_196, ??CrossCallReturnLabel_3
          CFI (cfiCond766) R24 Frame(CFA_Y, -10)
          CFI (cfiCond766) R25 Frame(CFA_Y, -9)
          CFI (cfiCond766) R26 Frame(CFA_Y, -8)
          CFI (cfiCond766) R27 Frame(CFA_Y, -7)
          CFI (cfiCond766) R4 Frame(CFA_Y, -6)
          CFI (cfiCond766) R5 Frame(CFA_Y, -5)
          CFI (cfiCond766) R6 Frame(CFA_Y, -4)
          CFI (cfiCond766) R7 Frame(CFA_Y, -3)
          CFI (cfiCond766) R8 Frame(CFA_Y, -2)
          CFI (cfiCond766) R9 Frame(CFA_Y, -1)
          CFI (cfiCond766) CFA_SP SP+6
          CFI (cfiCond766) CFA_Y Y+10
          CFI Block cfiCond767 Using cfiCommon0
          CFI (cfiCond767) Function coding
          CFI (cfiCond767) Conditional ??CrossCallReturnLabel_196, ??CrossCallReturnLabel_4
          CFI (cfiCond767) R24 Frame(CFA_Y, -10)
          CFI (cfiCond767) R25 Frame(CFA_Y, -9)
          CFI (cfiCond767) R26 Frame(CFA_Y, -8)
          CFI (cfiCond767) R27 Frame(CFA_Y, -7)
          CFI (cfiCond767) R4 Frame(CFA_Y, -6)
          CFI (cfiCond767) R5 Frame(CFA_Y, -5)
          CFI (cfiCond767) R6 Frame(CFA_Y, -4)
          CFI (cfiCond767) R7 Frame(CFA_Y, -3)
          CFI (cfiCond767) R8 Frame(CFA_Y, -2)
          CFI (cfiCond767) R9 Frame(CFA_Y, -1)
          CFI (cfiCond767) CFA_SP SP+6
          CFI (cfiCond767) CFA_Y Y+10
          CFI Block cfiCond768 Using cfiCommon0
          CFI (cfiCond768) Function rprintfFloat
          CFI (cfiCond768) Conditional ??CrossCallReturnLabel_199, ??CrossCallReturnLabel_73
          CFI (cfiCond768) R24 Frame(CFA_Y, -12)
          CFI (cfiCond768) R25 Frame(CFA_Y, -11)
          CFI (cfiCond768) R26 Frame(CFA_Y, -10)
          CFI (cfiCond768) R27 Frame(CFA_Y, -9)
          CFI (cfiCond768) R4 Frame(CFA_Y, -8)
          CFI (cfiCond768) R5 Frame(CFA_Y, -7)
          CFI (cfiCond768) R6 Frame(CFA_Y, -6)
          CFI (cfiCond768) R7 Frame(CFA_Y, -5)
          CFI (cfiCond768) R8 Frame(CFA_Y, -4)
          CFI (cfiCond768) R9 Frame(CFA_Y, -3)
          CFI (cfiCond768) R10 Frame(CFA_Y, -2)
          CFI (cfiCond768) R11 Frame(CFA_Y, -1)
          CFI (cfiCond768) CFA_SP SP+6
          CFI (cfiCond768) CFA_Y Y+12
          CFI Block cfiCond769 Using cfiCommon0
          CFI (cfiCond769) Function rprintfFloat
          CFI (cfiCond769) Conditional ??CrossCallReturnLabel_199, ??CrossCallReturnLabel_74
          CFI (cfiCond769) R24 Frame(CFA_Y, -12)
          CFI (cfiCond769) R25 Frame(CFA_Y, -11)
          CFI (cfiCond769) R26 Frame(CFA_Y, -10)
          CFI (cfiCond769) R27 Frame(CFA_Y, -9)
          CFI (cfiCond769) R4 Frame(CFA_Y, -8)
          CFI (cfiCond769) R5 Frame(CFA_Y, -7)
          CFI (cfiCond769) R6 Frame(CFA_Y, -6)
          CFI (cfiCond769) R7 Frame(CFA_Y, -5)
          CFI (cfiCond769) R8 Frame(CFA_Y, -4)
          CFI (cfiCond769) R9 Frame(CFA_Y, -3)
          CFI (cfiCond769) R10 Frame(CFA_Y, -2)
          CFI (cfiCond769) R11 Frame(CFA_Y, -1)
          CFI (cfiCond769) CFA_SP SP+6
          CFI (cfiCond769) CFA_Y Y+12
          CFI Block cfiCond770 Using cfiCommon0
          CFI (cfiCond770) Function PEREP
          CFI (cfiCond770) Conditional ??CrossCallReturnLabel_198, ??CrossCallReturnLabel_71
          CFI (cfiCond770) R24 Frame(CFA_Y, -8)
          CFI (cfiCond770) R25 Frame(CFA_Y, -7)
          CFI (cfiCond770) R26 Frame(CFA_Y, -6)
          CFI (cfiCond770) R27 Frame(CFA_Y, -5)
          CFI (cfiCond770) R4 Frame(CFA_Y, -4)
          CFI (cfiCond770) R5 Frame(CFA_Y, -3)
          CFI (cfiCond770) R6 Frame(CFA_Y, -2)
          CFI (cfiCond770) R7 Frame(CFA_Y, -1)
          CFI (cfiCond770) CFA_SP SP+6
          CFI (cfiCond770) CFA_Y Y+8
          CFI Block cfiCond771 Using cfiCommon0
          CFI (cfiCond771) Function rprintfFloat
          CFI (cfiCond771) Conditional ??CrossCallReturnLabel_198, ??CrossCallReturnLabel_72
          CFI (cfiCond771) R24 Frame(CFA_Y, -12)
          CFI (cfiCond771) R25 Frame(CFA_Y, -11)
          CFI (cfiCond771) R26 Frame(CFA_Y, -10)
          CFI (cfiCond771) R27 Frame(CFA_Y, -9)
          CFI (cfiCond771) R4 Frame(CFA_Y, -8)
          CFI (cfiCond771) R5 Frame(CFA_Y, -7)
          CFI (cfiCond771) R6 Frame(CFA_Y, -6)
          CFI (cfiCond771) R7 Frame(CFA_Y, -5)
          CFI (cfiCond771) R8 Frame(CFA_Y, -4)
          CFI (cfiCond771) R9 Frame(CFA_Y, -3)
          CFI (cfiCond771) R10 Frame(CFA_Y, -2)
          CFI (cfiCond771) R11 Frame(CFA_Y, -1)
          CFI (cfiCond771) CFA_SP SP+6
          CFI (cfiCond771) CFA_Y Y+12
          CFI Block cfiCond772 Using cfiCommon0
          CFI (cfiCond772) Function rprintfFloat
          CFI (cfiCond772) Conditional ??CrossCallReturnLabel_197, ??CrossCallReturnLabel_55
          CFI (cfiCond772) R24 Frame(CFA_Y, -12)
          CFI (cfiCond772) R25 Frame(CFA_Y, -11)
          CFI (cfiCond772) R26 Frame(CFA_Y, -10)
          CFI (cfiCond772) R27 Frame(CFA_Y, -9)
          CFI (cfiCond772) R4 Frame(CFA_Y, -8)
          CFI (cfiCond772) R5 Frame(CFA_Y, -7)
          CFI (cfiCond772) R6 Frame(CFA_Y, -6)
          CFI (cfiCond772) R7 Frame(CFA_Y, -5)
          CFI (cfiCond772) R8 Frame(CFA_Y, -4)
          CFI (cfiCond772) R9 Frame(CFA_Y, -3)
          CFI (cfiCond772) R10 Frame(CFA_Y, -2)
          CFI (cfiCond772) R11 Frame(CFA_Y, -1)
          CFI (cfiCond772) CFA_SP SP+6
          CFI (cfiCond772) CFA_Y Y+12
          CFI Block cfiCond773 Using cfiCommon0
          CFI (cfiCond773) Function rprintfFloat
          CFI (cfiCond773) Conditional ??CrossCallReturnLabel_197, ??CrossCallReturnLabel_56
          CFI (cfiCond773) R24 Frame(CFA_Y, -12)
          CFI (cfiCond773) R25 Frame(CFA_Y, -11)
          CFI (cfiCond773) R26 Frame(CFA_Y, -10)
          CFI (cfiCond773) R27 Frame(CFA_Y, -9)
          CFI (cfiCond773) R4 Frame(CFA_Y, -8)
          CFI (cfiCond773) R5 Frame(CFA_Y, -7)
          CFI (cfiCond773) R6 Frame(CFA_Y, -6)
          CFI (cfiCond773) R7 Frame(CFA_Y, -5)
          CFI (cfiCond773) R8 Frame(CFA_Y, -4)
          CFI (cfiCond773) R9 Frame(CFA_Y, -3)
          CFI (cfiCond773) R10 Frame(CFA_Y, -2)
          CFI (cfiCond773) R11 Frame(CFA_Y, -1)
          CFI (cfiCond773) CFA_SP SP+6
          CFI (cfiCond773) CFA_Y Y+12
          CFI Block cfiPicker774 Using cfiCommon2
          CFI (cfiPicker774) NoFunction
          CFI (cfiPicker774) Picker
        LDI     R20, 0
        LDI     R21, 0
        RET
          CFI EndBlock cfiCond765
          CFI EndBlock cfiCond766
          CFI EndBlock cfiCond767
          CFI EndBlock cfiCond768
          CFI EndBlock cfiCond769
          CFI EndBlock cfiCond770
          CFI EndBlock cfiCond771
          CFI EndBlock cfiCond772
          CFI EndBlock cfiCond773
          CFI EndBlock cfiPicker774

        RSEG CODE:CODE:NOROOT(1)
?Subroutine48:
          CFI Block cfiCond775 Using cfiCommon0
          CFI Function rprintfFloat
          CFI Conditional ??CrossCallReturnLabel_60
          CFI R24 Frame(CFA_Y, -12)
          CFI R25 Frame(CFA_Y, -11)
          CFI R26 Frame(CFA_Y, -10)
          CFI R27 Frame(CFA_Y, -9)
          CFI R4 Frame(CFA_Y, -8)
          CFI R5 Frame(CFA_Y, -7)
          CFI R6 Frame(CFA_Y, -6)
          CFI R7 Frame(CFA_Y, -5)
          CFI R8 Frame(CFA_Y, -4)
          CFI R9 Frame(CFA_Y, -3)
          CFI R10 Frame(CFA_Y, -2)
          CFI R11 Frame(CFA_Y, -1)
          CFI CFA_SP SP+4
          CFI CFA_Y Y+12
          CFI Block cfiCond776 Using cfiCommon0
          CFI (cfiCond776) Function rprintfFloat
          CFI (cfiCond776) Conditional ??CrossCallReturnLabel_61
          CFI (cfiCond776) R24 Frame(CFA_Y, -12)
          CFI (cfiCond776) R25 Frame(CFA_Y, -11)
          CFI (cfiCond776) R26 Frame(CFA_Y, -10)
          CFI (cfiCond776) R27 Frame(CFA_Y, -9)
          CFI (cfiCond776) R4 Frame(CFA_Y, -8)
          CFI (cfiCond776) R5 Frame(CFA_Y, -7)
          CFI (cfiCond776) R6 Frame(CFA_Y, -6)
          CFI (cfiCond776) R7 Frame(CFA_Y, -5)
          CFI (cfiCond776) R8 Frame(CFA_Y, -4)
          CFI (cfiCond776) R9 Frame(CFA_Y, -3)
          CFI (cfiCond776) R10 Frame(CFA_Y, -2)
          CFI (cfiCond776) R11 Frame(CFA_Y, -1)
          CFI (cfiCond776) CFA_SP SP+4
          CFI (cfiCond776) CFA_Y Y+12
          CFI Block cfiPicker777 Using cfiCommon2
          CFI (cfiPicker777) NoFunction
          CFI (cfiPicker777) Picker
        MOVW    R21:R20, R25:R24
        MOVW    R23:R22, R27:R26
        RCALL   ?Subroutine102
??CrossCallReturnLabel_190:
        RJMP    ?F_DIV_L04
          CFI EndBlock cfiCond775
          CFI EndBlock cfiCond776
          CFI EndBlock cfiPicker777

        RSEG CODE:CODE:NOROOT(1)
?Subroutine46:
          CFI Block cfiCond778 Using cfiCommon0
          CFI Function rprintfFloat
          CFI Conditional ??CrossCallReturnLabel_55
          CFI R24 Frame(CFA_Y, -12)
          CFI R25 Frame(CFA_Y, -11)
          CFI R26 Frame(CFA_Y, -10)
          CFI R27 Frame(CFA_Y, -9)
          CFI R4 Frame(CFA_Y, -8)
          CFI R5 Frame(CFA_Y, -7)
          CFI R6 Frame(CFA_Y, -6)
          CFI R7 Frame(CFA_Y, -5)
          CFI R8 Frame(CFA_Y, -4)
          CFI R9 Frame(CFA_Y, -3)
          CFI R10 Frame(CFA_Y, -2)
          CFI R11 Frame(CFA_Y, -1)
          CFI CFA_SP SP+4
          CFI CFA_Y Y+12
          CFI Block cfiCond779 Using cfiCommon0
          CFI (cfiCond779) Function rprintfFloat
          CFI (cfiCond779) Conditional ??CrossCallReturnLabel_56
          CFI (cfiCond779) R24 Frame(CFA_Y, -12)
          CFI (cfiCond779) R25 Frame(CFA_Y, -11)
          CFI (cfiCond779) R26 Frame(CFA_Y, -10)
          CFI (cfiCond779) R27 Frame(CFA_Y, -9)
          CFI (cfiCond779) R4 Frame(CFA_Y, -8)
          CFI (cfiCond779) R5 Frame(CFA_Y, -7)
          CFI (cfiCond779) R6 Frame(CFA_Y, -6)
          CFI (cfiCond779) R7 Frame(CFA_Y, -5)
          CFI (cfiCond779) R8 Frame(CFA_Y, -4)
          CFI (cfiCond779) R9 Frame(CFA_Y, -3)
          CFI (cfiCond779) R10 Frame(CFA_Y, -2)
          CFI (cfiCond779) R11 Frame(CFA_Y, -1)
          CFI (cfiCond779) CFA_SP SP+4
          CFI (cfiCond779) CFA_Y Y+12
          CFI Block cfiPicker780 Using cfiCommon2
          CFI (cfiPicker780) NoFunction
          CFI (cfiPicker780) Picker
        RCALL   ?Subroutine105
??CrossCallReturnLabel_197:
        LDI     R22, 128
        LDI     R23, 63
        MOVW    R17:R16, R25:R24
        MOVW    R19:R18, R27:R26
        RJMP    ?F_CMP_EQ_L04
          CFI EndBlock cfiCond778
          CFI EndBlock cfiCond779
          CFI EndBlock cfiPicker780

        RSEG CODE:CODE:NOROOT(1)
?Subroutine21:
          CFI Block cfiCond781 Using cfiCommon0
          CFI Function diag
          CFI Conditional ??CrossCallReturnLabel_182
          CFI R24 Frame(CFA_Y, -2)
          CFI R25 Frame(CFA_Y, -1)
          CFI CFA_SP SP+4
          CFI CFA_Y Y+2
          CFI Block cfiCond782 Using cfiCommon0
          CFI (cfiCond782) Function rprintfFloat
          CFI (cfiCond782) Conditional ??CrossCallReturnLabel_183
          CFI (cfiCond782) R24 Frame(CFA_Y, -12)
          CFI (cfiCond782) R25 Frame(CFA_Y, -11)
          CFI (cfiCond782) R26 Frame(CFA_Y, -10)
          CFI (cfiCond782) R27 Frame(CFA_Y, -9)
          CFI (cfiCond782) R4 Frame(CFA_Y, -8)
          CFI (cfiCond782) R5 Frame(CFA_Y, -7)
          CFI (cfiCond782) R6 Frame(CFA_Y, -6)
          CFI (cfiCond782) R7 Frame(CFA_Y, -5)
          CFI (cfiCond782) R8 Frame(CFA_Y, -4)
          CFI (cfiCond782) R9 Frame(CFA_Y, -3)
          CFI (cfiCond782) R10 Frame(CFA_Y, -2)
          CFI (cfiCond782) R11 Frame(CFA_Y, -1)
          CFI (cfiCond782) CFA_SP SP+4
          CFI (cfiCond782) CFA_Y Y+12
          CFI Block cfiPicker783 Using cfiCommon2
          CFI (cfiPicker783) NoFunction
          CFI (cfiPicker783) Picker
        LDI     R17, 0
        LDI     R18, 0
          CFI EndBlock cfiCond781
          CFI EndBlock cfiCond782
          CFI EndBlock cfiPicker783
        REQUIRE ?Subroutine101
        ;               // Fall through to label ?Subroutine101

        RSEG CODE:CODE:NOROOT(1)
?Subroutine101:
          CFI Block cfiCond784 Using cfiCommon0
          CFI Function PEREP
          CFI Conditional ??CrossCallReturnLabel_184, ??CrossCallReturnLabel_30
          CFI R24 Frame(CFA_Y, -8)
          CFI R25 Frame(CFA_Y, -7)
          CFI R26 Frame(CFA_Y, -6)
          CFI R27 Frame(CFA_Y, -5)
          CFI R4 Frame(CFA_Y, -4)
          CFI R5 Frame(CFA_Y, -3)
          CFI R6 Frame(CFA_Y, -2)
          CFI R7 Frame(CFA_Y, -1)
          CFI CFA_SP SP+6
          CFI CFA_Y Y+8
          CFI Block cfiCond785 Using cfiCommon0
          CFI (cfiCond785) Function PEREP
          CFI (cfiCond785) Conditional ??CrossCallReturnLabel_184, ??CrossCallReturnLabel_31
          CFI (cfiCond785) R24 Frame(CFA_Y, -8)
          CFI (cfiCond785) R25 Frame(CFA_Y, -7)
          CFI (cfiCond785) R26 Frame(CFA_Y, -6)
          CFI (cfiCond785) R27 Frame(CFA_Y, -5)
          CFI (cfiCond785) R4 Frame(CFA_Y, -4)
          CFI (cfiCond785) R5 Frame(CFA_Y, -3)
          CFI (cfiCond785) R6 Frame(CFA_Y, -2)
          CFI (cfiCond785) R7 Frame(CFA_Y, -1)
          CFI (cfiCond785) CFA_SP SP+6
          CFI (cfiCond785) CFA_Y Y+8
          CFI Block cfiCond786 Using cfiCommon0
          CFI (cfiCond786) Function coding
          CFI (cfiCond786) Conditional ??CrossCallReturnLabel_185, ??CrossCallReturnLabel_53
          CFI (cfiCond786) R24 Frame(CFA_Y, -10)
          CFI (cfiCond786) R25 Frame(CFA_Y, -9)
          CFI (cfiCond786) R26 Frame(CFA_Y, -8)
          CFI (cfiCond786) R27 Frame(CFA_Y, -7)
          CFI (cfiCond786) R4 Frame(CFA_Y, -6)
          CFI (cfiCond786) R5 Frame(CFA_Y, -5)
          CFI (cfiCond786) R6 Frame(CFA_Y, -4)
          CFI (cfiCond786) R7 Frame(CFA_Y, -3)
          CFI (cfiCond786) R8 Frame(CFA_Y, -2)
          CFI (cfiCond786) R9 Frame(CFA_Y, -1)
          CFI (cfiCond786) CFA_SP SP+6
          CFI (cfiCond786) CFA_Y Y+10
          CFI Block cfiCond787 Using cfiCommon0
          CFI (cfiCond787) Function coding
          CFI (cfiCond787) Conditional ??CrossCallReturnLabel_185, ??CrossCallReturnLabel_54
          CFI (cfiCond787) R24 Frame(CFA_Y, -10)
          CFI (cfiCond787) R25 Frame(CFA_Y, -9)
          CFI (cfiCond787) R26 Frame(CFA_Y, -8)
          CFI (cfiCond787) R27 Frame(CFA_Y, -7)
          CFI (cfiCond787) R4 Frame(CFA_Y, -6)
          CFI (cfiCond787) R5 Frame(CFA_Y, -5)
          CFI (cfiCond787) R6 Frame(CFA_Y, -4)
          CFI (cfiCond787) R7 Frame(CFA_Y, -3)
          CFI (cfiCond787) R8 Frame(CFA_Y, -2)
          CFI (cfiCond787) R9 Frame(CFA_Y, -1)
          CFI (cfiCond787) CFA_SP SP+6
          CFI (cfiCond787) CFA_Y Y+10
          CFI Block cfiCond788 Using cfiCommon0
          CFI (cfiCond788) Function diag
          CFI (cfiCond788) Conditional ??CrossCallReturnLabel_182
          CFI (cfiCond788) R24 Frame(CFA_Y, -2)
          CFI (cfiCond788) R25 Frame(CFA_Y, -1)
          CFI (cfiCond788) CFA_SP SP+4
          CFI (cfiCond788) CFA_Y Y+2
          CFI Block cfiCond789 Using cfiCommon0
          CFI (cfiCond789) Function rprintfFloat
          CFI (cfiCond789) Conditional ??CrossCallReturnLabel_183
          CFI (cfiCond789) R24 Frame(CFA_Y, -12)
          CFI (cfiCond789) R25 Frame(CFA_Y, -11)
          CFI (cfiCond789) R26 Frame(CFA_Y, -10)
          CFI (cfiCond789) R27 Frame(CFA_Y, -9)
          CFI (cfiCond789) R4 Frame(CFA_Y, -8)
          CFI (cfiCond789) R5 Frame(CFA_Y, -7)
          CFI (cfiCond789) R6 Frame(CFA_Y, -6)
          CFI (cfiCond789) R7 Frame(CFA_Y, -5)
          CFI (cfiCond789) R8 Frame(CFA_Y, -4)
          CFI (cfiCond789) R9 Frame(CFA_Y, -3)
          CFI (cfiCond789) R10 Frame(CFA_Y, -2)
          CFI (cfiCond789) R11 Frame(CFA_Y, -1)
          CFI (cfiCond789) CFA_SP SP+4
          CFI (cfiCond789) CFA_Y Y+12
          CFI Block cfiPicker790 Using cfiCommon2
          CFI (cfiPicker790) NoFunction
          CFI (cfiPicker790) Picker
        LDI     R19, 0
        RJMP    ?UL2F_L04
          CFI EndBlock cfiCond784
          CFI EndBlock cfiCond785
          CFI EndBlock cfiCond786
          CFI EndBlock cfiCond787
          CFI EndBlock cfiCond788
          CFI EndBlock cfiCond789
          CFI EndBlock cfiPicker790

        ASEGN ABSOLUTE:DATA:NOROOT,01cH
__?EECR:

        ASEGN ABSOLUTE:DATA:NOROOT,01dH
__?EEDR:

        ASEGN ABSOLUTE:DATA:NOROOT,01eH
__?EEARL:

        ASEGN ABSOLUTE:DATA:NOROOT,01fH
__?EEARH:

        COMMON INTVEC:CODE:ROOT(1)
        ORG 2
`??funINT0_vect??INTVEC 2`:
        RJMP    funINT0_vect

        COMMON INTVEC:CODE:ROOT(1)
        ORG 16
`??funTIMER1_OVF_vect??INTVEC 16`:
        RJMP    funTIMER1_OVF_vect

        COMMON INTVEC:CODE:ROOT(1)
        ORG 22
`??usart_rxc_my??INTVEC 22`:
        RJMP    usart_rxc_my

        RSEG NEAR_ID:CODE:NOROOT(0)
`?<Initializer for <Constant " error ct big =">`:
        DC8 " error ct big ="

        RSEG INITTAB:CODE:NOROOT(0)
`?<Segment init: NEAR_I>`:
        DC16    SFE(NEAR_I) - SFB(NEAR_I)
        DC16    SFB(NEAR_I)
        DC16    SFB(NEAR_ID)
        REQUIRE ?need_segment_init

        RSEG NEAR_ID:CODE:NOROOT(0)
`?<Initializer for <Constant "  /   cod1= ">>`:
        DC8 "  /   cod1= "

        RSEG NEAR_ID:CODE:NOROOT(0)
`?<Initializer for <Constant "/   cod2= ">>`:
        DC8 "/   cod2= "

        RSEG NEAR_ID:CODE:NOROOT(0)
`?<Initializer for <Constant "/   cod3= ">>`:
        DC8 "/   cod3= "

        RSEG NEAR_ID:CODE:NOROOT(0)
`?<Initializer for <Constant "  / abslen= ">>`:
        DC8 "  / abslen= "

        RSEG NEAR_ID:CODE:NOROOT(0)
`?<Initializer for <Constant "  / len= ">>`:
        DC8 "  / len= "

        RSEG NEAR_ID:CODE:NOROOT(0)
`?<Initializer for <Constant "  ">>`:
        DC8 "  "

        RSEG NEAR_ID:CODE:NOROOT(0)
`?<Initializer for <Constant "  / cod1= ">>`:
        DC8 "  / cod1= "

        RSEG NEAR_ID:CODE:NOROOT(0)
`?<Initializer for <Constant " / cod2= ">>`:
        DC8 " / cod2= "

        RSEG NEAR_ID:CODE:NOROOT(0)
`?<Initializer for <Constant " / cod3= ">>`:
        DC8 " / cod3= "

        RSEG NEAR_ID:CODE:NOROOT(0)
`?<Initializer for <Constant "/ minlen=">>`:
        DC8 "/ minlen="

        RSEG NEAR_ID:CODE:NOROOT(0)
`?<Initializer for <Constant "OFF>adr=">>`:
        DC8 "OFF>adr="

        RSEG NEAR_ID:CODE:NOROOT(0)
`?<Initializer for <Constant "ON>adr=">>`:
        DC8 "ON>adr="

        RSEG NEAR_ID:CODE:NOROOT(0)
`?<Initializer for <Constant "normal>no find co`:
        DC8 "normal>no find command "

        RSEG NEAR_ID:CODE:NOROOT(0)
`?<Initializer for <Constant "normal>command fi`:
        DC8 "normal>command find  adr= "

        RSEG NEAR_ID:CODE:NOROOT(0)
`?<Initializer for <Constant "write ..">>`:
        DC8 "write .."

        RSEG NEAR_ID:CODE:NOROOT(0)
`?<Initializer for <Constant "OK !   ">>`:
        DC8 "OK !   "

        RSEG NEAR_ID:CODE:NOROOT(0)
`?<Initializer for <Constant "- vkluchen kratki`:
        DC8 "- vkluchen kratkiy viviod -"

        RSEG NEAR_ID:CODE:NOROOT(0)
`?<Initializer for <Constant " ==  EEPROM read `:
        DC8 " ==  EEPROM read == "

        RSEG NEAR_ID:CODE:NOROOT(0)
`?<Initializer for <Constant " > ">>`:
        DC8 " > "

        RSEG NEAR_ID:CODE:NOROOT(0)
`?<Initializer for <Constant " get: ">>`:
        DC8 " get: "

        RSEG NEAR_ID:CODE:NOROOT(0)
`?<Initializer for <Constant "  regim  no sourc`:
        DC8 "  regim  no source5 >"

        RSEG NEAR_ID:CODE:NOROOT(0)
`?<Initializer for <Constant "  regim  PROGRAMM`:
        DC8 "  regim  PROGRAMMING !!  READY >"

        RSEG NEAR_ID:CODE:NOROOT(0)
`?<Initializer for <Constant "  regim  normal  `:
        DC8 "  regim  normal  READY >"

        RSEG INITTAB:CODE:NOROOT(0)
`?<Segment init: NEAR_Z>`:
        DC16    SFE(NEAR_Z) - SFB(NEAR_Z)
        DC16    SFB(NEAR_Z)
        DC16    0
        REQUIRE ?need_segment_init

        RSEG NEAR_ID:CODE:NOROOT(0)
`?<Initializer for ind>`:
        DC8 1

        RSEG NEAR_ID:CODE:NOROOT(0)
`?<Initializer for tON>`:
        DC16 20000

        RSEG NEAR_ID:CODE:NOROOT(0)
`?<Initializer for lastsel>`:
        DC8 1

        RSEG NEAR_ID:CODE:NOROOT(0)
`?<Initializer for sel>`:
        DC8 1

        RSEG NEAR_ID:CODE:NOROOT(0)
`?<Initializer for port>`:
        DC8 255

        END
// 
//    28 bytes in segment ABSOLUTE
// 4 522 bytes in segment CODE
//   242 bytes in segment EEPROM_N
//    12 bytes in segment INITTAB
//     6 bytes in segment INTVEC
//   349 bytes in segment NEAR_I
//   349 bytes in segment NEAR_ID
//   461 bytes in segment NEAR_Z
// 
// 4 871 bytes of CODE  memory (+ 18 bytes shared)
//   810 bytes of DATA  memory (+ 28 bytes shared)
//   242 bytes of XDATA memory
//
//Errors: none
//Warnings: none
