///////////////////////////////////////////////////////////////////////////////
//
// IAR C/C++ Compiler V6.40.1.741 for Atmel AVR           11/Feb/2017  12:46:55
// Copyright 1996-2014 IAR Systems AB.
//
//    Source file  =  F:\Dulov\RemoteAmp\du.c
//    Command line =  
//        F:\Dulov\RemoteAmp\du.c --cpu=m8 -ms -o
//        F:\Dulov\RemoteAmp\Release\Obj\ -D NDEBUG -lC
//        F:\Dulov\RemoteAmp\Release\List\ -lA F:\Dulov\RemoteAmp\Release\List\
//        --initializers_in_flash --no_clustering -DENABLE_BIT_DEFINITIONS -e
//        --eeprom_size 512 --dlib --dlib_config "C:\Program Files\IAR
//        Systems\Embedded Workbench 6.5\avr\LIB\DLIB\dlAVR-1s-ec_mul-n.h" -Ohz
//        --mfc F:\Dulov\RemoteAmp\main.c F:\Dulov\RemoteAmp\SoftTimers.c
//        F:\Dulov\remoteamp\usart.c
//    List file    =  F:\Dulov\RemoteAmp\Release\List\du.s90
//
///////////////////////////////////////////////////////////////////////////////

        NAME du

        RTMODEL "__64bit_doubles", "disabled"
        RTMODEL "__SystemLibrary", "DLib"
        RTMODEL "__cpu", "1"
        RTMODEL "__cpu_name", "ATmega8"
        RTMODEL "__enhanced_core", "enabled"
        RTMODEL "__has_elpm", "false"
        RTMODEL "__memory_model", "2"
        RTMODEL "__rt_version", "3"

        RSEG CSTACK:DATA:NOROOT(0)
        RSEG RSTACK:DATA:NOROOT(0)

        EXTERN ?EPILOGUE_B10_L09
        EXTERN ?EPILOGUE_B12_L09
        EXTERN ?EPILOGUE_B2_L09
        EXTERN ?EPILOGUE_B4_L09
        EXTERN ?EPILOGUE_B8_L09
        EXTERN ?F2SL_L04
        EXTERN ?F_CMP_EQ_L04
        EXTERN ?F_CMP_GE_L04
        EXTERN ?F_CMP_LT_L04
        EXTERN ?F_DIV_L04
        EXTERN ?F_MUL_L04
        EXTERN ?F_SUB_L04
        EXTERN ?PROLOGUE10_L09
        EXTERN ?PROLOGUE12_L09
        EXTERN ?PROLOGUE2_L09
        EXTERN ?PROLOGUE4_L09
        EXTERN ?PROLOGUE8_L09
        EXTERN ?Register_R10_is_cg_reg
        EXTERN ?Register_R11_is_cg_reg
        EXTERN ?Register_R4_is_cg_reg
        EXTERN ?Register_R5_is_cg_reg
        EXTERN ?Register_R6_is_cg_reg
        EXTERN ?Register_R7_is_cg_reg
        EXTERN ?Register_R8_is_cg_reg
        EXTERN ?Register_R9_is_cg_reg
        EXTERN ?S_SHL_L02
        EXTERN ?UL2F_L04
        EXTERN ?need_segment_init
        EXTERN __eeget16_16
        EXTERN __eeget8_16
        EXTERN __eeput16_16
        EXTERN __eeput8_16

        PUBWEAK `?<Segment init: NEAR_I>`
        PUBWEAK `?<Segment init: NEAR_Z>`
        PUBWEAK `??funINT0_vect??INTVEC 2`
        PUBWEAK `??funTIMER1_OVF_vect??INTVEC 16`
        PUBWEAK `??usart_rxc_my??INTVEC 22`
        PUBLIC PEREP
        FUNCTION PEREP,021201H
        ARGFRAME RSTACK, 0, STACK
        LOCFRAME CSTACK, 8, STACK
        LOCFRAME RSTACK, 4, STACK
        PUBLIC TimerSet
        FUNCTION TimerSet,0203H
        ARGFRAME RSTACK, 0, STACK
        LOCFRAME RSTACK, 2, STACK
        PUBLIC TimerTick
        FUNCTION TimerTick,0203H
        ARGFRAME RSTACK, 0, STACK
        LOCFRAME RSTACK, 2, STACK
        PUBLIC USART_GetChar
        FUNCTION USART_GetChar,0203H
        ARGFRAME RSTACK, 0, STACK
        LOCFRAME RSTACK, 2, STACK
        PUBLIC USART_Init
        FUNCTION USART_Init,0201H
        ARGFRAME RSTACK, 0, STACK
        LOCFRAME RSTACK, 2, STACK
        PUBLIC USART_SendChar
        FUNCTION USART_SendChar,0203H
        ARGFRAME RSTACK, 0, STACK
        LOCFRAME RSTACK, 2, STACK
        PUBWEAK _A_ACSR
        PUBWEAK _A_DDRB
        PUBWEAK _A_DDRC
        PUBWEAK _A_DDRD
        PUBWEAK _A_GICR
        PUBWEAK _A_ICR1
        PUBWEAK _A_MCUCR
        PUBWEAK _A_OCR1A
        PUBWEAK _A_OCR1B
        PUBWEAK _A_PIND
        PUBWEAK _A_PORTB
        PUBWEAK _A_PORTC
        PUBWEAK _A_PORTD
        PUBWEAK _A_TCCR1A
        PUBWEAK _A_TCCR1B
        PUBWEAK _A_TCNT0
        PUBWEAK _A_TCNT1
        PUBWEAK _A_TIFR
        PUBWEAK _A_TIMSK
        PUBWEAK _A_UBRRH
        PUBWEAK _A_UBRRL
        PUBWEAK _A_UCSRA
        PUBWEAK _A_UCSRB
        PUBWEAK _A_UDR
        PUBWEAK __?EEARH
        PUBWEAK __?EEARL
        PUBWEAK __?EECR
        PUBWEAK __?EEDR
        PUBLIC analizCOD
        FUNCTION analizCOD,0203H
        ARGFRAME RSTACK, 0, STACK
        LOCFRAME CSTACK, 2, STACK
        LOCFRAME RSTACK, 4, STACK
        PUBLIC analiz_INT
        FUNCTION analiz_INT,0201H
        ARGFRAME RSTACK, 0, STACK
        LOCFRAME RSTACK, 2, STACK
        PUBLIC aoff
        PUBLIC c1
        PUBLIC c2
        PUBLIC c3
        PUBLIC cod1
        PUBLIC cod2
        PUBLIC cod3
        PUBLIC cod4
        PUBLIC cod_ok
        PUBLIC coding
        FUNCTION coding,021203H
        ARGFRAME RSTACK, 0, STACK
        LOCFRAME CSTACK, 10, STACK
        LOCFRAME RSTACK, 4, STACK
        PUBLIC ct
        PUBLIC diag
        FUNCTION diag,021203H
        ARGFRAME RSTACK, 0, STACK
        LOCFRAME CSTACK, 2, STACK
        LOCFRAME RSTACK, 4, STACK
        PUBLIC dim1
        PUBLIC dim2
        PUBLIC du_init
        FUNCTION du_init,0203H
        ARGFRAME RSTACK, 0, STACK
        LOCFRAME RSTACK, 2, STACK
        PUBLIC fmode
        PUBLIC funINT0_vect
        FUNCTION funINT0_vect,0233H
        ARGFRAME CSTACK, 0, STACK
        LOCFRAME CSTACK, 2, STACK
        LOCFRAME RSTACK, 2, STACK
        PUBLIC funTIMER1_OVF_vect
        FUNCTION funTIMER1_OVF_vect,0233H
        ARGFRAME CSTACK, 0, STACK
        LOCFRAME CSTACK, 2, STACK
        LOCFRAME RSTACK, 2, STACK
        PUBLIC getadr
        FUNCTION getadr,0203H
        ARGFRAME RSTACK, 0, STACK
        LOCFRAME RSTACK, 2, STACK
        PUBLIC gro
        FUNCTION gro,0203H
        ARGFRAME RSTACK, 0, STACK
        LOCFRAME RSTACK, 4, STACK
        PUBLIC ind
        PUBLIC iniPORTS
        FUNCTION iniPORTS,0203H
        ARGFRAME RSTACK, 0, STACK
        LOCFRAME RSTACK, 2, STACK
        PUBLIC k
        PUBLIC led_all
        FUNCTION led_all,0203H
        ARGFRAME RSTACK, 0, STACK
        LOCFRAME RSTACK, 2, STACK
        PUBLIC led_test
        FUNCTION led_test,021201H
        ARGFRAME RSTACK, 0, STACK
        LOCFRAME CSTACK, 1, STACK
        LOCFRAME RSTACK, 2, STACK
        PUBLIC len
        PUBLIC main
        FUNCTION main,021a03H
        ARGFRAME CSTACK, 0, STACK
        LOCFRAME CSTACK, 1, STACK
        LOCFRAME RSTACK, 4, STACK
        PUBLIC main_logic
        FUNCTION main_logic,021203H
        ARGFRAME RSTACK, 0, STACK
        LOCFRAME RSTACK, 4, STACK
        PUBLIC main_power
        FUNCTION main_power,021203H
        ARGFRAME RSTACK, 0, STACK
        LOCFRAME RSTACK, 4, STACK
        PUBLIC migINI
        FUNCTION migINI,021203H
        ARGFRAME RSTACK, 0, STACK
        LOCFRAME RSTACK, 4, STACK
        PUBLIC migWORK
        FUNCTION migWORK,021203H
        ARGFRAME RSTACK, 0, STACK
        LOCFRAME RSTACK, 4, STACK
        PUBLIC minimallen
        PUBLIC modegro
        PUBLIC mute
        PUBLIC on
        PUBLIC onok
        PUBLIC pr
        PUBLIC programming
        FUNCTION programming,021203H
        ARGFRAME RSTACK, 0, STACK
        LOCFRAME CSTACK, 1, STACK
        LOCFRAME RSTACK, 2, STACK
        PUBLIC proverka
        FUNCTION proverka,0203H
        ARGFRAME RSTACK, 0, STACK
        LOCFRAME RSTACK, 4, STACK
        PUBLIC pult
        FUNCTION pult,021201H
        ARGFRAME RSTACK, 0, STACK
        LOCFRAME RSTACK, 2, STACK
        PUBLIC pultadr
        PUBLIC remote_main
        FUNCTION remote_main,021201H
        ARGFRAME RSTACK, 0, STACK
        LOCFRAME RSTACK, 2, STACK
        PUBLIC resOUT
        FUNCTION resOUT,0203H
        ARGFRAME RSTACK, 0, STACK
        LOCFRAME RSTACK, 2, STACK
        PUBLIC resled
        FUNCTION resled,0203H
        ARGFRAME RSTACK, 0, STACK
        LOCFRAME RSTACK, 2, STACK
        PUBLIC rprintfFloat
        FUNCTION rprintfFloat,021203H
        ARGFRAME RSTACK, 0, STACK
        LOCFRAME CSTACK, 12, STACK
        LOCFRAME RSTACK, 4, STACK
        PUBLIC rprintfStr
        FUNCTION rprintfStr,021203H
        ARGFRAME RSTACK, 0, STACK
        LOCFRAME CSTACK, 4, STACK
        LOCFRAME RSTACK, 2, STACK
        PUBLIC source
        FUNCTION source,021203H
        ARGFRAME RSTACK, 0, STACK
        LOCFRAME RSTACK, 2, STACK
        PUBLIC tON
        PUBLIC timerzad
        PUBLIC tm1
        PUBLIC tm2
        PUBLIC usartRxBuf
        PUBLIC usart_rxc_my
        FUNCTION usart_rxc_my,0233H
        ARGFRAME CSTACK, 0, STACK
        LOCFRAME CSTACK, 2, STACK
        LOCFRAME RSTACK, 2, STACK
        PUBLIC writeCOD
        FUNCTION writeCOD,021203H
        ARGFRAME RSTACK, 0, STACK
        LOCFRAME CSTACK, 1, STACK
        LOCFRAME RSTACK, 4, STACK
        PUBLIC zader
        
          CFI Names cfiNames0
          CFI StackFrame CFA_Y Y DATA
          CFI StackFrame CFA_SP SP DATA
          CFI VirtualResource ?RetPad:1, ?RetHigh:8, ?RetLow:8, ?Ret:17
          CFI Resource R0:8, R1:8, R2:8, R3:8, R4:8, R5:8, R6:8, R7:8, R8:8, R9:8
          CFI Resource R10:8, R11:8, R12:8, R13:8, R14:8, R15:8, R16:8, R17:8
          CFI Resource R18:8, R19:8, R20:8, R21:8, R22:8, R23:8, R24:8, R25:8
          CFI Resource R26:8, R27:8, R28:8, R29:8, R30:8, R31:8
          CFI Resource ?RetHighByteMask:8, SP:16, SPH:8, SPL:8, Y:16
          CFI ResourceParts ?Ret ?RetHigh, ?RetLow, ?RetPad
          CFI ResourceParts SP SPH, SPL
          CFI ResourceParts Y R29, R28
          CFI EndNames cfiNames0
        
          CFI Common cfiCommon0 Using cfiNames0
          CFI CodeAlign 1
          CFI DataAlign 1
          CFI ReturnAddress ?Ret CODE
          CFI CFA_Y Y+0
          CFI CFA_SP SP+2
          CFI ?RetPad 0
          CFI ?RetHigh and(load(1, DATA, sub(CFA_SP, 1)), ?RetHighByteMask)
          CFI ?RetLow Frame(CFA_SP, 0)
          CFI ?Ret Concat
          CFI R0 Undefined
          CFI R1 Undefined
          CFI R2 Undefined
          CFI R3 Undefined
          CFI R4 SameValue
          CFI R5 SameValue
          CFI R6 SameValue
          CFI R7 SameValue
          CFI R8 SameValue
          CFI R9 SameValue
          CFI R10 SameValue
          CFI R11 SameValue
          CFI R12 SameValue
          CFI R13 SameValue
          CFI R14 SameValue
          CFI R15 SameValue
          CFI R16 Undefined
          CFI R17 Undefined
          CFI R18 Undefined
          CFI R19 Undefined
          CFI R20 Undefined
          CFI R21 Undefined
          CFI R22 Undefined
          CFI R23 Undefined
          CFI R24 SameValue
          CFI R25 SameValue
          CFI R26 SameValue
          CFI R27 SameValue
          CFI R28 Undefined
          CFI R29 Undefined
          CFI R30 Undefined
          CFI R31 Undefined
          CFI ?RetHighByteMask SameValue
          CFI SPH Undefined
          CFI SPL Undefined
          CFI EndCommon cfiCommon0
        
        
          CFI Common cfiCommon1 Using cfiNames0
          CFI CodeAlign 1
          CFI DataAlign 1
          CFI ReturnAddress ?Ret CODE
          CFI CFA_Y Y+0
          CFI CFA_SP SP+2
          CFI ?RetPad 0
          CFI ?RetHigh and(load(1, DATA, sub(CFA_SP, 1)), ?RetHighByteMask)
          CFI ?RetLow Frame(CFA_SP, 0)
          CFI ?Ret Concat
          CFI R0 SameValue
          CFI R1 SameValue
          CFI R2 SameValue
          CFI R3 SameValue
          CFI R4 SameValue
          CFI R5 SameValue
          CFI R6 SameValue
          CFI R7 SameValue
          CFI R8 SameValue
          CFI R9 SameValue
          CFI R10 SameValue
          CFI R11 SameValue
          CFI R12 SameValue
          CFI R13 SameValue
          CFI R14 SameValue
          CFI R15 SameValue
          CFI R16 SameValue
          CFI R17 SameValue
          CFI R18 SameValue
          CFI R19 SameValue
          CFI R20 SameValue
          CFI R21 SameValue
          CFI R22 SameValue
          CFI R23 SameValue
          CFI R24 SameValue
          CFI R25 SameValue
          CFI R26 SameValue
          CFI R27 SameValue
          CFI R28 Undefined
          CFI R29 Undefined
          CFI R30 SameValue
          CFI R31 SameValue
          CFI ?RetHighByteMask SameValue
          CFI SPH Undefined
          CFI SPL Undefined
          CFI EndCommon cfiCommon1
        
        
          CFI Common cfiCommon2 Using cfiNames0
          CFI CodeAlign 1
          CFI DataAlign 1
          CFI ReturnAddress ?Ret CODE
          CFI CFA_Y Notused
          CFI CFA_SP SP+2
          CFI ?RetPad 0
          CFI ?RetHigh and(load(1, DATA, sub(CFA_SP, 1)), ?RetHighByteMask)
          CFI ?RetLow Frame(CFA_SP, 0)
          CFI ?Ret Concat
          CFI R0 SameValue
          CFI R1 SameValue
          CFI R2 SameValue
          CFI R3 SameValue
          CFI R4 SameValue
          CFI R5 SameValue
          CFI R6 SameValue
          CFI R7 SameValue
          CFI R8 SameValue
          CFI R9 SameValue
          CFI R10 SameValue
          CFI R11 SameValue
          CFI R12 SameValue
          CFI R13 SameValue
          CFI R14 SameValue
          CFI R15 SameValue
          CFI R16 SameValue
          CFI R17 SameValue
          CFI R18 SameValue
          CFI R19 SameValue
          CFI R20 SameValue
          CFI R21 SameValue
          CFI R22 SameValue
          CFI R23 SameValue
          CFI R24 SameValue
          CFI R25 SameValue
          CFI R26 SameValue
          CFI R27 SameValue
          CFI R28 Undefined
          CFI R29 Undefined
          CFI R30 SameValue
          CFI R31 SameValue
          CFI ?RetHighByteMask SameValue
          CFI SPH Undefined
          CFI SPL Undefined
          CFI Y SameValue
          CFI EndCommon cfiCommon2
        
funINT0_vect        SYMBOL "funINT0_vect"
`??funINT0_vect??INTVEC 2` SYMBOL "??INTVEC 2", funINT0_vect
funTIMER1_OVF_vect  SYMBOL "funTIMER1_OVF_vect"
`??funTIMER1_OVF_vect??INTVEC 16` SYMBOL "??INTVEC 16", funTIMER1_OVF_vect
usart_rxc_my        SYMBOL "usart_rxc_my"
`??usart_rxc_my??INTVEC 22` SYMBOL "??INTVEC 22", usart_rxc_my

// F:\Dulov\RemoteAmp\du.c
//    1 //***************************************************************************
//    2 //
//    3 //  Author(s)...: dav COBRA 
//    4 //
//    5 //  Target(s)...: ATMega8
//    6 //
//    7 //  Compiler....: 6 40
//    8 //
//    9 //  Description.: Универсальный ДЕКОДЕР ДУ v1.25
//   10 //
//   11 //  Data........: 2014
//   12 //
//   13 //***************************************************************************
//   14 #include <stdbool.h>//поддержка bool
//   15 #include "iom8.h"//<ioavr.h>

        ASEGN ABSOLUTE:DATA:NOROOT,028H
// union <unnamed> volatile __io _A_ACSR
_A_ACSR:
        DS8 1

        ASEGN ABSOLUTE:DATA:NOROOT,029H
// union <unnamed> volatile __io _A_UBRRL
_A_UBRRL:
        DS8 1

        ASEGN ABSOLUTE:DATA:NOROOT,02aH
// union <unnamed> volatile __io _A_UCSRB
_A_UCSRB:
        DS8 1

        ASEGN ABSOLUTE:DATA:NOROOT,02bH
// union <unnamed> volatile __io _A_UCSRA
_A_UCSRA:
        DS8 1

        ASEGN ABSOLUTE:DATA:NOROOT,02cH
// union <unnamed> volatile __io _A_UDR
_A_UDR:
        DS8 1

        ASEGN ABSOLUTE:DATA:NOROOT,030H
// union <unnamed> volatile __io _A_PIND
_A_PIND:
        DS8 1

        ASEGN ABSOLUTE:DATA:NOROOT,031H
// union <unnamed> volatile __io _A_DDRD
_A_DDRD:
        DS8 1

        ASEGN ABSOLUTE:DATA:NOROOT,032H
// union <unnamed> volatile __io _A_PORTD
_A_PORTD:
        DS8 1

        ASEGN ABSOLUTE:DATA:NOROOT,034H
// union <unnamed> volatile __io _A_DDRC
_A_DDRC:
        DS8 1

        ASEGN ABSOLUTE:DATA:NOROOT,035H
// union <unnamed> volatile __io _A_PORTC
_A_PORTC:
        DS8 1

        ASEGN ABSOLUTE:DATA:NOROOT,037H
// union <unnamed> volatile __io _A_DDRB
_A_DDRB:
        DS8 1

        ASEGN ABSOLUTE:DATA:NOROOT,038H
// union <unnamed> volatile __io _A_PORTB
_A_PORTB:
        DS8 1

        ASEGN ABSOLUTE:DATA:NOROOT,040H
// union <unnamed> volatile __io _A_UBRRH
_A_UBRRH:
        DS8 1

        ASEGN ABSOLUTE:DATA:NOROOT,046H
// union <unnamed> volatile __io _A_ICR1
_A_ICR1:
        DS8 2

        ASEGN ABSOLUTE:DATA:NOROOT,048H
// union <unnamed> volatile __io _A_OCR1B
_A_OCR1B:
        DS8 2

        ASEGN ABSOLUTE:DATA:NOROOT,04aH
// union <unnamed> volatile __io _A_OCR1A
_A_OCR1A:
        DS8 2

        ASEGN ABSOLUTE:DATA:NOROOT,04cH
// union <unnamed> volatile __io _A_TCNT1
_A_TCNT1:
        DS8 2

        ASEGN ABSOLUTE:DATA:NOROOT,04eH
// union <unnamed> volatile __io _A_TCCR1B
_A_TCCR1B:
        DS8 1

        ASEGN ABSOLUTE:DATA:NOROOT,04fH
// union <unnamed> volatile __io _A_TCCR1A
_A_TCCR1A:
        DS8 1

        ASEGN ABSOLUTE:DATA:NOROOT,052H
// union <unnamed> volatile __io _A_TCNT0
_A_TCNT0:
        DS8 1

        ASEGN ABSOLUTE:DATA:NOROOT,055H
// union <unnamed> volatile __io _A_MCUCR
_A_MCUCR:
        DS8 1

        ASEGN ABSOLUTE:DATA:NOROOT,058H
// union <unnamed> volatile __io _A_TIFR
_A_TIFR:
        DS8 1

        ASEGN ABSOLUTE:DATA:NOROOT,059H
// union <unnamed> volatile __io _A_TIMSK
_A_TIMSK:
        DS8 1

        ASEGN ABSOLUTE:DATA:NOROOT,05bH
// union <unnamed> volatile __io _A_GICR
_A_GICR:
        DS8 1
//   16 #include <inavr.h>
//   17 #include <intrinsics.h> 
//   18 #include "init.h"
//   19 #include "usart.h"
//   20 #include "main.h"
//   21 #include "eeprom.h"

        RSEG EEPROM_N:XDATA:NOROOT(0)
// unsigned int __eeprom k[120]
k:
        DS8 240

        RSEG EEPROM_N:XDATA:NOROOT(0)
// unsigned char __eeprom fmode
fmode:
        DS8 1

        RSEG EEPROM_N:XDATA:NOROOT(0)
// unsigned char __eeprom modegro
modegro:
        DS8 1

        RSEG NEAR_Z:DATA:NOROOT(0)
        REQUIRE `?<Segment init: NEAR_Z>`
// unsigned int cod1
cod1:
        DS8 2

        RSEG NEAR_Z:DATA:NOROOT(0)
        REQUIRE `?<Segment init: NEAR_Z>`
// unsigned int cod2
cod2:
        DS8 2

        RSEG NEAR_Z:DATA:NOROOT(0)
        REQUIRE `?<Segment init: NEAR_Z>`
// unsigned int cod3
cod3:
        DS8 2

        RSEG NEAR_Z:DATA:NOROOT(0)
        REQUIRE `?<Segment init: NEAR_Z>`
// unsigned int cod4
cod4:
        DS8 2
//   22 #include "du.h"
//   23 

        RSEG NEAR_Z:DATA:NOROOT(0)
        REQUIRE `?<Segment init: NEAR_Z>`
//   24   static uchar  perepoln=0;//кол-во переполнений счетчика
??perepoln:
        DS8 1

        RSEG NEAR_Z:DATA:NOROOT(0)
        REQUIRE `?<Segment init: NEAR_Z>`
//   25   static uchar t1=0,t2=0;
??t1:
        DS8 1

        RSEG NEAR_Z:DATA:NOROOT(0)
        REQUIRE `?<Segment init: NEAR_Z>`
??t2:
        DS8 1

        RSEG NEAR_Z:DATA:NOROOT(0)
        REQUIRE `?<Segment init: NEAR_Z>`
//   26   static bool ini; 
??ini:
        DS8 1

        RSEG NEAR_Z:DATA:NOROOT(0)
        REQUIRE `?<Segment init: NEAR_Z>`
//   27   uint dim1[MAX],dim2[MAX];
dim1:
        DS8 100

        RSEG NEAR_Z:DATA:NOROOT(0)
        REQUIRE `?<Segment init: NEAR_Z>`
dim2:
        DS8 100

        RSEG NEAR_Z:DATA:NOROOT(0)
        REQUIRE `?<Segment init: NEAR_Z>`
//   28   char ct=0;
ct:
        DS8 1

        RSEG NEAR_Z:DATA:NOROOT(0)
        REQUIRE `?<Segment init: NEAR_Z>`
//   29   uint minimallen;    
minimallen:
        DS8 2

        RSEG NEAR_Z:DATA:NOROOT(0)
        REQUIRE `?<Segment init: NEAR_Z>`
//   30   float len[MAX];
len:
        DS8 200

        RSEG NEAR_Z:DATA:NOROOT(0)
        REQUIRE `?<Segment init: NEAR_Z>`
//   31   static bool intok,big;
??intok:
        DS8 1

        RSEG NEAR_Z:DATA:NOROOT(0)
        REQUIRE `?<Segment init: NEAR_Z>`
??big:
        DS8 1
//   32  

        RSEG NEAR_Z:DATA:NOROOT(0)
        REQUIRE `?<Segment init: NEAR_Z>`
//   33   bool cod_ok=0;
cod_ok:
        DS8 1

        RSEG NEAR_Z:DATA:NOROOT(0)
        REQUIRE `?<Segment init: NEAR_Z>`
//   34   uchar c1,c2,c3;
c1:
        DS8 1

        RSEG NEAR_Z:DATA:NOROOT(0)
        REQUIRE `?<Segment init: NEAR_Z>`
c2:
        DS8 1

        RSEG NEAR_Z:DATA:NOROOT(0)
        REQUIRE `?<Segment init: NEAR_Z>`
c3:
        DS8 1

        RSEG NEAR_I:DATA:NOROOT(0)
        REQUIRE `?<Segment init: NEAR_I>`
`?<Constant " error ct big =">`:
        DS8 16
        REQUIRE `?<Initializer for <Constant " error ct big =">`

        RSEG NEAR_I:DATA:NOROOT(0)
        REQUIRE `?<Segment init: NEAR_I>`
`?<Constant "  /   cod1= ">`:
        DS8 13
        REQUIRE `?<Initializer for <Constant "  /   cod1= ">>`

        RSEG NEAR_I:DATA:NOROOT(0)
        REQUIRE `?<Segment init: NEAR_I>`
`?<Constant "/   cod2= ">`:
        DS8 11
        REQUIRE `?<Initializer for <Constant "/   cod2= ">>`

        RSEG NEAR_I:DATA:NOROOT(0)
        REQUIRE `?<Segment init: NEAR_I>`
`?<Constant "/   cod3= ">`:
        DS8 11
        REQUIRE `?<Initializer for <Constant "/   cod3= ">>`

        RSEG NEAR_I:DATA:NOROOT(0)
        REQUIRE `?<Segment init: NEAR_I>`
`?<Constant "  / abslen= ">`:
        DS8 13
        REQUIRE `?<Initializer for <Constant "  / abslen= ">>`

        RSEG NEAR_I:DATA:NOROOT(0)
        REQUIRE `?<Segment init: NEAR_I>`
`?<Constant "  / len= ">`:
        DS8 10
        REQUIRE `?<Initializer for <Constant "  / len= ">>`

        RSEG NEAR_I:DATA:NOROOT(0)
        REQUIRE `?<Segment init: NEAR_I>`
`?<Constant "  ">`:
        DS8 3
        REQUIRE `?<Initializer for <Constant "  ">>`

        RSEG NEAR_I:DATA:NOROOT(0)
        REQUIRE `?<Segment init: NEAR_I>`
`?<Constant "  / cod1= ">`:
        DS8 11
        REQUIRE `?<Initializer for <Constant "  / cod1= ">>`

        RSEG NEAR_I:DATA:NOROOT(0)
        REQUIRE `?<Segment init: NEAR_I>`
`?<Constant " / cod2= ">`:
        DS8 10
        REQUIRE `?<Initializer for <Constant " / cod2= ">>`

        RSEG NEAR_I:DATA:NOROOT(0)
        REQUIRE `?<Segment init: NEAR_I>`
`?<Constant " / cod3= ">`:
        DS8 10
        REQUIRE `?<Initializer for <Constant " / cod3= ">>`

        RSEG NEAR_I:DATA:NOROOT(0)
        REQUIRE `?<Segment init: NEAR_I>`
`?<Constant "/ minlen=">`:
        DS8 10
        REQUIRE `?<Initializer for <Constant "/ minlen=">>`

        RSEG NEAR_I:DATA:NOROOT(0)
        REQUIRE `?<Segment init: NEAR_I>`
`?<Constant "OFF>adr=">`:
        DS8 9
        REQUIRE `?<Initializer for <Constant "OFF>adr=">>`

        RSEG NEAR_I:DATA:NOROOT(0)
        REQUIRE `?<Segment init: NEAR_I>`
`?<Constant "ON>adr=">`:
        DS8 8
        REQUIRE `?<Initializer for <Constant "ON>adr=">>`

        RSEG NEAR_I:DATA:NOROOT(0)
        REQUIRE `?<Segment init: NEAR_I>`
`?<Constant "normal>command find  ...">`:
        DS8 26
        REQUIRE `?<Initializer for <Constant "normal>command fi`

        RSEG NEAR_I:DATA:NOROOT(0)
        REQUIRE `?<Segment init: NEAR_I>`
`?<Constant "write ..">`:
        DS8 9
        REQUIRE `?<Initializer for <Constant "write ..">>`

        RSEG NEAR_I:DATA:NOROOT(0)
        REQUIRE `?<Segment init: NEAR_I>`
`?<Constant "OK !   ">`:
        DS8 8
        REQUIRE `?<Initializer for <Constant "OK !   ">>`

        RSEG NEAR_I:DATA:NOROOT(0)
        REQUIRE `?<Segment init: NEAR_I>`
`?<Constant "- vkluchen kratkiy vi...">`:
        DS8 28
        REQUIRE `?<Initializer for <Constant "- vkluchen kratki`

        RSEG NEAR_I:DATA:NOROOT(0)
        REQUIRE `?<Segment init: NEAR_I>`
`?<Constant " ==  EEPROM read == ">`:
        DS8 21
        REQUIRE `?<Initializer for <Constant " ==  EEPROM read `

        RSEG NEAR_I:DATA:NOROOT(0)
        REQUIRE `?<Segment init: NEAR_I>`
`?<Constant " > ">`:
        DS8 4
        REQUIRE `?<Initializer for <Constant " > ">>`

        RSEG NEAR_I:DATA:NOROOT(0)
        REQUIRE `?<Segment init: NEAR_I>`
`?<Constant " get: ">`:
        DS8 7
        REQUIRE `?<Initializer for <Constant " get: ">>`

        RSEG NEAR_I:DATA:NOROOT(0)
        REQUIRE `?<Segment init: NEAR_I>`
`?<Constant "  regim  no source5 >">`:
        DS8 22
        REQUIRE `?<Initializer for <Constant "  regim  no sourc`

        RSEG NEAR_I:DATA:NOROOT(0)
        REQUIRE `?<Segment init: NEAR_I>`
`?<Constant "  regim  PROGRAMMING ...">`:
        DS8 33
        REQUIRE `?<Initializer for <Constant "  regim  PROGRAMM`

        RSEG NEAR_I:DATA:NOROOT(0)
        REQUIRE `?<Segment init: NEAR_I>`
`?<Constant "  regim  normal  READY >">`:
        DS8 25
        REQUIRE `?<Initializer for <Constant "  regim  normal  `

        RSEG NEAR_I:DATA:NOROOT(0)
        REQUIRE `?<Segment init: NEAR_I>`
//   35   char ind=1;
ind:
        DS8 1
        REQUIRE `?<Initializer for ind>`
//   36 
//   37  //*****************************************************************
//   38  // init
//   39  //*****************************************************************

        RSEG CODE:CODE:NOROOT(1)
//   40    void du_init(void)
du_init:
          CFI Block cfiBlock0 Using cfiCommon0
          CFI Function du_init
//   41    {
//   42      ini=1;  intok=0;
        LDI     R16, 1
        STS     ??ini, R16
        LDI     R16, 0
        STS     ??intok, R16
//   43      //TCCR1B = (0<<CS02)|(1<<CS01)|(1<<CS00); //пуск таймера
//   44      TCCR1B = (0<<CS02)|(0<<CS01)|(1<<CS00); //пуск таймера
        LDI     R16, 1
        OUT     0x2E, R16
//   45      ct=0;
        LDI     R16, 0
        STS     ct, R16
//   46    }
        RET
          CFI EndBlock cfiBlock0
        REQUIRE _A_TCCR1B
//   47  //*****************************************************************
//   48  //  INT
//   49  //*****************************************************************
//   50 //прерывание при изменении сигнала на ноге
//   51 #pragma vector = INT0_vect

        RSEG CODE:CODE:NOROOT(1)
//   52 __interrupt void funINT0_vect(void)
funINT0_vect:
          CFI Block cfiBlock1 Using cfiCommon1
          CFI Function funINT0_vect
//   53 {
        ST      -Y, R17
          CFI R17 Frame(CFA_Y, -1)
          CFI CFA_Y Y+1
        ST      -Y, R16
          CFI R16 Frame(CFA_Y, -2)
          CFI CFA_Y Y+2
        IN      R17, 0x3F
//   54   intok=1; 
        LDI     R16, 1
        STS     ??intok, R16
//   55   //if (readint!=0){  last=TCNT1L;   readint=0; }
//   56   t1 = TCNT1L;  t2 = TCNT1H; 
        IN      R16, 0x2C
        STS     ??t1, R16
        IN      R16, 0x2D
        STS     ??t2, R16
//   57   if (t1!=0) { TCNT1H=0;TCNT1L=0;}
        LDS     R16, ??t1
        TST     R16
        BREQ    ??funINT0_vect_0
        LDI     R16, 0
        OUT     0x2D, R16
        OUT     0x2C, R16
//   58      
//   59 }
??funINT0_vect_0:
        OUT     0x3F, R17
        LD      R16, Y+
          CFI R16 SameValue
          CFI CFA_Y Y+1
        LD      R17, Y+
          CFI R17 SameValue
          CFI CFA_Y Y+0
        RETI
          CFI EndBlock cfiBlock1
        REQUIRE _A_TCNT1
//   60 //*****************************************************************
//   61 //  Анализ прерывания
//   62 //*****************************************************************

        RSEG CODE:CODE:NOROOT(1)
//   63 void analiz_INT()
analiz_INT:
          CFI Block cfiBlock2 Using cfiCommon0
          CFI Function analiz_INT
//   64 {
//   65    static bool state;
//   66        if (state==1) {RES(PORTB,5); state=0; }   else {SET(PORTB,5); state=1;}
        LDS     R16, ??state
        TST     R16
        BREQ    ??analiz_INT_0
        CBI     0x18, 0x05
        LDI     R16, 0
        RJMP    ??analiz_INT_1
??analiz_INT_0:
        SBI     0x18, 0x05
        LDI     R16, 1
??analiz_INT_1:
        STS     ??state, R16
//   67 
//   68         dim1[ct]=t1;  dim2[ct]=t2; ct++;
        RCALL   ?Subroutine20
??CrossCallReturnLabel_33:
        LDI     R17, 2
        MUL     R16, R17
        LDS     R16, ??t1
        LDI     R17, 0
        RCALL   ?Subroutine87
??CrossCallReturnLabel_152:
        RCALL   ??Subroutine129_0
??CrossCallReturnLabel_312:
        LDS     R16, ??t2
        RCALL   ?Subroutine88
??CrossCallReturnLabel_155:
        RCALL   ??Subroutine129_0
??CrossCallReturnLabel_313:
        LDI     R30, LOW(ct)
        LDI     R31, (ct) >> 8
        RCALL   ?Subroutine92
//   69         if (ct>=MAX-1) ct--;  //слишком длинная посылка переписываем каждый раз последний
??CrossCallReturnLabel_307:
        CPI     R16, 49
        BRCS    ??analiz_INT_2
        DEC     R16
        ST      Z, R16
//   70         intok=0;
??analiz_INT_2:
        STS     ??intok, R17
//   71 
//   72 
//   73 }
        RET
          CFI EndBlock cfiBlock2
        REQUIRE _A_PORTB

        RSEG NEAR_Z:DATA:NOROOT(0)
        REQUIRE `?<Segment init: NEAR_Z>`
??state:
        DS8 1
//   74 //*****************************************************************
//   75 //  Конец кода на приемнике
//   76 //*****************************************************************

        RSEG CODE:CODE:NOROOT(1)
//   77 void PEREP()
PEREP:
          CFI Block cfiBlock3 Using cfiCommon0
          CFI Function PEREP
//   78 {
        FUNCALL PEREP, rprintfStr
        LOCFRAME CSTACK, 8, STACK
        LOCFRAME RSTACK, 2, STACK
        ARGFRAME RSTACK, 0, STACK
        FUNCALL PEREP, rprintfFloat
        LOCFRAME CSTACK, 8, STACK
        LOCFRAME RSTACK, 2, STACK
        ARGFRAME RSTACK, 0, STACK
        FUNCALL PEREP, coding
        LOCFRAME CSTACK, 8, STACK
        LOCFRAME RSTACK, 2, STACK
        ARGFRAME RSTACK, 0, STACK
        FUNCALL PEREP, rprintfStr
        LOCFRAME CSTACK, 8, STACK
        LOCFRAME RSTACK, 2, STACK
        ARGFRAME RSTACK, 0, STACK
        FUNCALL PEREP, rprintfFloat
        LOCFRAME CSTACK, 8, STACK
        LOCFRAME RSTACK, 2, STACK
        ARGFRAME RSTACK, 0, STACK
        FUNCALL PEREP, rprintfStr
        LOCFRAME CSTACK, 8, STACK
        LOCFRAME RSTACK, 2, STACK
        ARGFRAME RSTACK, 0, STACK
        FUNCALL PEREP, rprintfFloat
        LOCFRAME CSTACK, 8, STACK
        LOCFRAME RSTACK, 2, STACK
        ARGFRAME RSTACK, 0, STACK
        FUNCALL PEREP, rprintfStr
        LOCFRAME CSTACK, 8, STACK
        LOCFRAME RSTACK, 2, STACK
        ARGFRAME RSTACK, 0, STACK
        FUNCALL PEREP, rprintfFloat
        LOCFRAME CSTACK, 8, STACK
        LOCFRAME RSTACK, 2, STACK
        ARGFRAME RSTACK, 0, STACK
        FUNCALL PEREP, USART_SendChar
        LOCFRAME CSTACK, 8, STACK
        LOCFRAME RSTACK, 2, STACK
        ARGFRAME RSTACK, 0, STACK
        RCALL   ?PROLOGUE8_L09
          CFI R7 Frame(CFA_Y, -1)
          CFI R6 Frame(CFA_Y, -2)
          CFI R5 Frame(CFA_Y, -3)
          CFI R4 Frame(CFA_Y, -4)
          CFI R27 Frame(CFA_Y, -5)
          CFI R26 Frame(CFA_Y, -6)
          CFI R25 Frame(CFA_Y, -7)
          CFI R24 Frame(CFA_Y, -8)
          CFI CFA_Y Y+8
        REQUIRE ?Register_R4_is_cg_reg
        REQUIRE ?Register_R5_is_cg_reg
        REQUIRE ?Register_R6_is_cg_reg
        REQUIRE ?Register_R7_is_cg_reg
//   79  static bool state2;
//   80  uchar i;
//   81  
//   82   if (state2==1) {RES(PORTB,2); state2=0; }   else {SET(PORTB,2); state2=1;}
        LDS     R16, ??state2
        TST     R16
        BREQ    ??PEREP_0
        CBI     0x18, 0x02
        LDI     R16, 0
        RJMP    ??PEREP_1
??PEREP_0:
        SBI     0x18, 0x02
        LDI     R16, 1
??PEREP_1:
        STS     ??state2, R16
//   83        
//   84       cod1=0;cod2=0;cod3=0; 
        RCALL   ?Subroutine10
//   85       c1=0; c2=0; c3=0;  //sst=0;
??CrossCallReturnLabel_14:
        STS     c1, R16
        STS     c2, R16
        STS     c3, R16
//   86       minimallen=65535;   
        LDI     R16, 255
        RCALL   ?Subroutine90
??CrossCallReturnLabel_166:
        RCALL   ?Subroutine89
//   87      
//   88       if (ct>(MAX-1)) {  rprintfStr(" error ct big ="); rprintfFloat(6,  ct); }
??CrossCallReturnLabel_158:
        RCALL   ?Subroutine20
??CrossCallReturnLabel_34:
        CPI     R16, 50
        BRCS    ??CrossCallReturnLabel_296
        LDI     R16, LOW(`?<Constant " error ct big =">`)
        LDI     R17, (`?<Constant " error ct big =">`) >> 8
        RCALL   rprintfStr
        RCALL   ?Subroutine20
??CrossCallReturnLabel_35:
        RCALL   ?Subroutine19
//   89                 
//   90       if ((ct>5 && big==0)|| big==1) 
??CrossCallReturnLabel_296:
        RCALL   ?Subroutine20
??CrossCallReturnLabel_36:
        CPI     R16, 6
        BRCS    ??PEREP_2
        LDS     R16, ??big
        TST     R16
        BREQ    ??PEREP_3
??PEREP_2:
        LDS     R16, ??big
        TST     R16
        BREQ    ??PEREP_4
//   91       {//от 5 посылок анализируем остальное шум
//   92         
//   93           for (i=1; i<ct; i++) //ищем миимальную длину
??PEREP_3:
        LDI     R24, 1
        RJMP    ??PEREP_5
//   94           {  
//   95                 len[i]=( dim1[i]+ (256*dim2[i])  );           
??PEREP_6:
        RCALL   ?Subroutine22
??CrossCallReturnLabel_39:
        LDI     R16, 4
        MUL     R24, R16
        RCALL   ??Subroutine124_0
??CrossCallReturnLabel_281:
        ST      Z, R4
        STD     Z+1, R17
        STD     Z+2, R18
        STD     Z+3, R19
//   96                 if (len[i]>900  && len[i]<(float)minimallen)  minimallen=(uint)len[i];
        LDI     R20, 1
        LDI     R21, 0
        LDI     R22, 97
        LDI     R23, 68
        MOV     R16, R4
        RCALL   ?F_CMP_GE_L04
        BRCC    ??CrossCallReturnLabel_314
        RCALL   ?Subroutine30
??CrossCallReturnLabel_196:
        RCALL   ?F_CMP_LT_L04
        BRCC    ??CrossCallReturnLabel_314
        RCALL   ?F2SL_L04
        RCALL   ?Subroutine90
//   97           }
??CrossCallReturnLabel_167:
        RCALL   ??Subroutine129_0
??CrossCallReturnLabel_314:
        INC     R24
??PEREP_5:
        RCALL   ?Subroutine20
??CrossCallReturnLabel_37:
        CP      R24, R16
        BRCS    ??PEREP_6
//   98      
//   99            for (i=1; i<ct; i++) 
        LDI     R24, 1
        RJMP    ??PEREP_7
//  100            { //for 
//  101              uint tr;
//  102              tr=( dim1[i]+ (256*dim2[i]));
//  103              len[i]=(float)tr/minimallen;       
??PEREP_8:
        RCALL   ?Subroutine22
??CrossCallReturnLabel_40:
        RCALL   ?Subroutine30
??CrossCallReturnLabel_197:
        RCALL   ?F_DIV_L04
        LDI     R20, 4
        RCALL   ?Subroutine26
??CrossCallReturnLabel_282:
        RCALL   ??Subroutine129_0
??CrossCallReturnLabel_315:
        STD     Z+2, R18
        STD     Z+3, R19
//  104              if (len[i]!=0)   coding(i, pr);
        RCALL   ?Subroutine54
??CrossCallReturnLabel_76:
        RCALL   ?F_CMP_EQ_L04
        BREQ    ??PEREP_9
        LDS     R18, pr
        MOV     R16, R24
        LDI     R17, 0
        RCALL   coding
//  105            }//for
??PEREP_9:
        INC     R24
??PEREP_7:
        RCALL   ?Subroutine20
//  106       }//от 5 посылок анализируем 
??CrossCallReturnLabel_38:
        CP      R24, R16
        BRCS    ??PEREP_8
//  107       
//  108       //очистка
//  109        for (i=0; i<MAX; i++) {dim1[i]=0;dim2[i]=0;len[i]=0;}
??PEREP_4:
        LDI     R24, 0
        LDI     R20, 4
??PEREP_10:
        RCALL   ?Subroutine93
??CrossCallReturnLabel_170:
        LDI     R16, 0
        RCALL   ?Subroutine87
??CrossCallReturnLabel_153:
        RCALL   ?Subroutine89
??CrossCallReturnLabel_159:
        RCALL   ?Subroutine88
??CrossCallReturnLabel_156:
        RCALL   ?Subroutine89
??CrossCallReturnLabel_160:
        RCALL   ?Subroutine26
??CrossCallReturnLabel_283:
        RCALL   ?Subroutine89
??CrossCallReturnLabel_161:
        STD     Z+2, R16
        STD     Z+3, R16
        INC     R24
        CPI     R24, 50
        BRCS    ??PEREP_10
//  110        perepoln=0;  t1=0; t2=0; ct=0; big=0;     
        STS     ??perepoln, R16
        STS     ??t1, R16
        STS     ??t2, R16
        STS     ct, R16
        STS     ??big, R16
//  111        
//  112     if (pr==1 && cod_ok!=0)     
        LDS     R16, pr
        CPI     R16, 1
        BRNE    ??CrossCallReturnLabel_240
        LDS     R16, cod_ok
        TST     R16
        BREQ    ??CrossCallReturnLabel_240
//  113      {//diag
//  114               rprintfStr("  /   cod1= ");
        LDI     R16, LOW(`?<Constant "  /   cod1= ">`)
        LDI     R17, (`?<Constant "  /   cod1= ">`) >> 8
        RCALL   ?Subroutine28
//  115               rprintfFloat(6,  cod1);
//  116               rprintfStr("/   cod2= ");
??CrossCallReturnLabel_302:
        LDI     R16, LOW(`?<Constant "/   cod2= ">`)
        LDI     R17, (`?<Constant "/   cod2= ">`) >> 8
        RCALL   ?Subroutine40
//  117               rprintfFloat(6,  cod2);
??CrossCallReturnLabel_363:
        RCALL   ??Subroutine126_0
//  118               rprintfStr("/   cod3= ");
??CrossCallReturnLabel_300:
        LDI     R16, LOW(`?<Constant "/   cod3= ">`)
        LDI     R17, (`?<Constant "/   cod3= ">`) >> 8
        RCALL   ?Subroutine42
//  119               rprintfFloat(6,  cod3);
??CrossCallReturnLabel_356:
        RCALL   ??Subroutine126_0
//  120               ent;
??CrossCallReturnLabel_299:
        RCALL   ?Subroutine112
//  121                                 
//  122      }//diag
//  123  
//  124 }
??CrossCallReturnLabel_240:
        LDI     R30, 8
        RJMP    ?EPILOGUE_B8_L09
          CFI EndBlock cfiBlock3
        REQUIRE _A_PORTB

        RSEG CODE:CODE:NOROOT(1)
?Subroutine88:
          CFI Block cfiCond4 Using cfiCommon0
          CFI Function analiz_INT
          CFI Conditional ??CrossCallReturnLabel_155
          CFI CFA_SP SP+4
          CFI Block cfiCond5 Using cfiCommon0
          CFI (cfiCond5) Function PEREP
          CFI (cfiCond5) Conditional ??CrossCallReturnLabel_156
          CFI (cfiCond5) R24 Frame(CFA_Y, -8)
          CFI (cfiCond5) R25 Frame(CFA_Y, -7)
          CFI (cfiCond5) R26 Frame(CFA_Y, -6)
          CFI (cfiCond5) R27 Frame(CFA_Y, -5)
          CFI (cfiCond5) R4 Frame(CFA_Y, -4)
          CFI (cfiCond5) R5 Frame(CFA_Y, -3)
          CFI (cfiCond5) R6 Frame(CFA_Y, -2)
          CFI (cfiCond5) R7 Frame(CFA_Y, -1)
          CFI (cfiCond5) CFA_SP SP+4
          CFI (cfiCond5) CFA_Y Y+8
          CFI Block cfiCond6 Using cfiCommon0
          CFI (cfiCond6) Function PEREP
          CFI (cfiCond6) Conditional ??CrossCallReturnLabel_157, ??CrossCallReturnLabel_39
          CFI (cfiCond6) R24 Frame(CFA_Y, -8)
          CFI (cfiCond6) R25 Frame(CFA_Y, -7)
          CFI (cfiCond6) R26 Frame(CFA_Y, -6)
          CFI (cfiCond6) R27 Frame(CFA_Y, -5)
          CFI (cfiCond6) R4 Frame(CFA_Y, -4)
          CFI (cfiCond6) R5 Frame(CFA_Y, -3)
          CFI (cfiCond6) R6 Frame(CFA_Y, -2)
          CFI (cfiCond6) R7 Frame(CFA_Y, -1)
          CFI (cfiCond6) CFA_SP SP+6
          CFI (cfiCond6) CFA_Y Y+8
          CFI Block cfiCond7 Using cfiCommon0
          CFI (cfiCond7) Function PEREP
          CFI (cfiCond7) Conditional ??CrossCallReturnLabel_157, ??CrossCallReturnLabel_40
          CFI (cfiCond7) R24 Frame(CFA_Y, -8)
          CFI (cfiCond7) R25 Frame(CFA_Y, -7)
          CFI (cfiCond7) R26 Frame(CFA_Y, -6)
          CFI (cfiCond7) R27 Frame(CFA_Y, -5)
          CFI (cfiCond7) R4 Frame(CFA_Y, -4)
          CFI (cfiCond7) R5 Frame(CFA_Y, -3)
          CFI (cfiCond7) R6 Frame(CFA_Y, -2)
          CFI (cfiCond7) R7 Frame(CFA_Y, -1)
          CFI (cfiCond7) CFA_SP SP+6
          CFI (cfiCond7) CFA_Y Y+8
          CFI Block cfiPicker8 Using cfiCommon2
          CFI (cfiPicker8) NoFunction
          CFI (cfiPicker8) Picker
        MOVW    R31:R30, R1:R0
        SUBI    R30, LOW((-(dim2) & 0xFFFF))
        SBCI    R31, (-(dim2) & 0xFFFF) >> 8
        RET
          CFI EndBlock cfiCond4
          CFI EndBlock cfiCond5
          CFI EndBlock cfiCond6
          CFI EndBlock cfiCond7
          CFI EndBlock cfiPicker8

        RSEG CODE:CODE:NOROOT(1)
?Subroutine87:
          CFI Block cfiCond9 Using cfiCommon0
          CFI Function analiz_INT
          CFI Conditional ??CrossCallReturnLabel_152
          CFI CFA_SP SP+4
          CFI Block cfiCond10 Using cfiCommon0
          CFI (cfiCond10) Function PEREP
          CFI (cfiCond10) Conditional ??CrossCallReturnLabel_153
          CFI (cfiCond10) R24 Frame(CFA_Y, -8)
          CFI (cfiCond10) R25 Frame(CFA_Y, -7)
          CFI (cfiCond10) R26 Frame(CFA_Y, -6)
          CFI (cfiCond10) R27 Frame(CFA_Y, -5)
          CFI (cfiCond10) R4 Frame(CFA_Y, -4)
          CFI (cfiCond10) R5 Frame(CFA_Y, -3)
          CFI (cfiCond10) R6 Frame(CFA_Y, -2)
          CFI (cfiCond10) R7 Frame(CFA_Y, -1)
          CFI (cfiCond10) CFA_SP SP+4
          CFI (cfiCond10) CFA_Y Y+8
          CFI Block cfiCond11 Using cfiCommon0
          CFI (cfiCond11) Function PEREP
          CFI (cfiCond11) Conditional ??CrossCallReturnLabel_154, ??CrossCallReturnLabel_39
          CFI (cfiCond11) R24 Frame(CFA_Y, -8)
          CFI (cfiCond11) R25 Frame(CFA_Y, -7)
          CFI (cfiCond11) R26 Frame(CFA_Y, -6)
          CFI (cfiCond11) R27 Frame(CFA_Y, -5)
          CFI (cfiCond11) R4 Frame(CFA_Y, -4)
          CFI (cfiCond11) R5 Frame(CFA_Y, -3)
          CFI (cfiCond11) R6 Frame(CFA_Y, -2)
          CFI (cfiCond11) R7 Frame(CFA_Y, -1)
          CFI (cfiCond11) CFA_SP SP+6
          CFI (cfiCond11) CFA_Y Y+8
          CFI Block cfiCond12 Using cfiCommon0
          CFI (cfiCond12) Function PEREP
          CFI (cfiCond12) Conditional ??CrossCallReturnLabel_154, ??CrossCallReturnLabel_40
          CFI (cfiCond12) R24 Frame(CFA_Y, -8)
          CFI (cfiCond12) R25 Frame(CFA_Y, -7)
          CFI (cfiCond12) R26 Frame(CFA_Y, -6)
          CFI (cfiCond12) R27 Frame(CFA_Y, -5)
          CFI (cfiCond12) R4 Frame(CFA_Y, -4)
          CFI (cfiCond12) R5 Frame(CFA_Y, -3)
          CFI (cfiCond12) R6 Frame(CFA_Y, -2)
          CFI (cfiCond12) R7 Frame(CFA_Y, -1)
          CFI (cfiCond12) CFA_SP SP+6
          CFI (cfiCond12) CFA_Y Y+8
          CFI Block cfiPicker13 Using cfiCommon2
          CFI (cfiPicker13) NoFunction
          CFI (cfiPicker13) Picker
        MOVW    R31:R30, R1:R0
        SUBI    R30, LOW((-(dim1) & 0xFFFF))
        SBCI    R31, (-(dim1) & 0xFFFF) >> 8
        RET
          CFI EndBlock cfiCond9
          CFI EndBlock cfiCond10
          CFI EndBlock cfiCond11
          CFI EndBlock cfiCond12
          CFI EndBlock cfiPicker13

        RSEG CODE:CODE:NOROOT(1)
?Subroutine30:
          CFI Block cfiCond14 Using cfiCommon0
          CFI Function PEREP
          CFI Conditional ??CrossCallReturnLabel_196
          CFI R24 Frame(CFA_Y, -8)
          CFI R25 Frame(CFA_Y, -7)
          CFI R26 Frame(CFA_Y, -6)
          CFI R27 Frame(CFA_Y, -5)
          CFI R4 Frame(CFA_Y, -4)
          CFI R5 Frame(CFA_Y, -3)
          CFI R6 Frame(CFA_Y, -2)
          CFI R7 Frame(CFA_Y, -1)
          CFI CFA_SP SP+4
          CFI CFA_Y Y+8
          CFI Block cfiCond15 Using cfiCommon0
          CFI (cfiCond15) Function PEREP
          CFI (cfiCond15) Conditional ??CrossCallReturnLabel_197
          CFI (cfiCond15) R24 Frame(CFA_Y, -8)
          CFI (cfiCond15) R25 Frame(CFA_Y, -7)
          CFI (cfiCond15) R26 Frame(CFA_Y, -6)
          CFI (cfiCond15) R27 Frame(CFA_Y, -5)
          CFI (cfiCond15) R4 Frame(CFA_Y, -4)
          CFI (cfiCond15) R5 Frame(CFA_Y, -3)
          CFI (cfiCond15) R6 Frame(CFA_Y, -2)
          CFI (cfiCond15) R7 Frame(CFA_Y, -1)
          CFI (cfiCond15) CFA_SP SP+4
          CFI (cfiCond15) CFA_Y Y+8
          CFI Block cfiPicker16 Using cfiCommon2
          CFI (cfiPicker16) NoFunction
          CFI (cfiPicker16) Picker
        RCALL   ?Subroutine90
??CrossCallReturnLabel_169:
        RCALL   ?Subroutine91
          CFI EndBlock cfiCond14
          CFI EndBlock cfiCond15
          CFI EndBlock cfiPicker16
??CrossCallReturnLabel_288:
        REQUIRE ?Subroutine98
        ;               // Fall through to label ?Subroutine98

        RSEG CODE:CODE:NOROOT(1)
?Subroutine98:
          CFI Block cfiCond17 Using cfiCommon0
          CFI Function PEREP
          CFI Conditional ??CrossCallReturnLabel_196
          CFI R24 Frame(CFA_Y, -8)
          CFI R25 Frame(CFA_Y, -7)
          CFI R26 Frame(CFA_Y, -6)
          CFI R27 Frame(CFA_Y, -5)
          CFI R4 Frame(CFA_Y, -4)
          CFI R5 Frame(CFA_Y, -3)
          CFI R6 Frame(CFA_Y, -2)
          CFI R7 Frame(CFA_Y, -1)
          CFI CFA_SP SP+4
          CFI CFA_Y Y+8
          CFI Block cfiCond18 Using cfiCommon0
          CFI (cfiCond18) Function PEREP
          CFI (cfiCond18) Conditional ??CrossCallReturnLabel_197
          CFI (cfiCond18) R24 Frame(CFA_Y, -8)
          CFI (cfiCond18) R25 Frame(CFA_Y, -7)
          CFI (cfiCond18) R26 Frame(CFA_Y, -6)
          CFI (cfiCond18) R27 Frame(CFA_Y, -5)
          CFI (cfiCond18) R4 Frame(CFA_Y, -4)
          CFI (cfiCond18) R5 Frame(CFA_Y, -3)
          CFI (cfiCond18) R6 Frame(CFA_Y, -2)
          CFI (cfiCond18) R7 Frame(CFA_Y, -1)
          CFI (cfiCond18) CFA_SP SP+4
          CFI (cfiCond18) CFA_Y Y+8
          CFI Block cfiCond19 Using cfiCommon0
          CFI (cfiCond19) Function rprintfFloat
          CFI (cfiCond19) Conditional ??CrossCallReturnLabel_194
          CFI (cfiCond19) R24 Frame(CFA_Y, -12)
          CFI (cfiCond19) R25 Frame(CFA_Y, -11)
          CFI (cfiCond19) R26 Frame(CFA_Y, -10)
          CFI (cfiCond19) R27 Frame(CFA_Y, -9)
          CFI (cfiCond19) R4 Frame(CFA_Y, -8)
          CFI (cfiCond19) R5 Frame(CFA_Y, -7)
          CFI (cfiCond19) R6 Frame(CFA_Y, -6)
          CFI (cfiCond19) R7 Frame(CFA_Y, -5)
          CFI (cfiCond19) R8 Frame(CFA_Y, -4)
          CFI (cfiCond19) R9 Frame(CFA_Y, -3)
          CFI (cfiCond19) R10 Frame(CFA_Y, -2)
          CFI (cfiCond19) R11 Frame(CFA_Y, -1)
          CFI (cfiCond19) CFA_SP SP+4
          CFI (cfiCond19) CFA_Y Y+12
          CFI Block cfiCond20 Using cfiCommon0
          CFI (cfiCond20) Function rprintfFloat
          CFI (cfiCond20) Conditional ??CrossCallReturnLabel_195
          CFI (cfiCond20) R24 Frame(CFA_Y, -12)
          CFI (cfiCond20) R25 Frame(CFA_Y, -11)
          CFI (cfiCond20) R26 Frame(CFA_Y, -10)
          CFI (cfiCond20) R27 Frame(CFA_Y, -9)
          CFI (cfiCond20) R4 Frame(CFA_Y, -8)
          CFI (cfiCond20) R5 Frame(CFA_Y, -7)
          CFI (cfiCond20) R6 Frame(CFA_Y, -6)
          CFI (cfiCond20) R7 Frame(CFA_Y, -5)
          CFI (cfiCond20) R8 Frame(CFA_Y, -4)
          CFI (cfiCond20) R9 Frame(CFA_Y, -3)
          CFI (cfiCond20) R10 Frame(CFA_Y, -2)
          CFI (cfiCond20) R11 Frame(CFA_Y, -1)
          CFI (cfiCond20) CFA_SP SP+4
          CFI (cfiCond20) CFA_Y Y+12
          CFI Block cfiCond21 Using cfiCommon0
          CFI (cfiCond21) Function rprintfFloat
          CFI (cfiCond21) Conditional ??CrossCallReturnLabel_198, ??CrossCallReturnLabel_65
          CFI (cfiCond21) R24 Frame(CFA_Y, -12)
          CFI (cfiCond21) R25 Frame(CFA_Y, -11)
          CFI (cfiCond21) R26 Frame(CFA_Y, -10)
          CFI (cfiCond21) R27 Frame(CFA_Y, -9)
          CFI (cfiCond21) R4 Frame(CFA_Y, -8)
          CFI (cfiCond21) R5 Frame(CFA_Y, -7)
          CFI (cfiCond21) R6 Frame(CFA_Y, -6)
          CFI (cfiCond21) R7 Frame(CFA_Y, -5)
          CFI (cfiCond21) R8 Frame(CFA_Y, -4)
          CFI (cfiCond21) R9 Frame(CFA_Y, -3)
          CFI (cfiCond21) R10 Frame(CFA_Y, -2)
          CFI (cfiCond21) R11 Frame(CFA_Y, -1)
          CFI (cfiCond21) CFA_SP SP+6
          CFI (cfiCond21) CFA_Y Y+12
          CFI Block cfiCond22 Using cfiCommon0
          CFI (cfiCond22) Function rprintfFloat
          CFI (cfiCond22) Conditional ??CrossCallReturnLabel_198, ??CrossCallReturnLabel_66
          CFI (cfiCond22) R24 Frame(CFA_Y, -12)
          CFI (cfiCond22) R25 Frame(CFA_Y, -11)
          CFI (cfiCond22) R26 Frame(CFA_Y, -10)
          CFI (cfiCond22) R27 Frame(CFA_Y, -9)
          CFI (cfiCond22) R4 Frame(CFA_Y, -8)
          CFI (cfiCond22) R5 Frame(CFA_Y, -7)
          CFI (cfiCond22) R6 Frame(CFA_Y, -6)
          CFI (cfiCond22) R7 Frame(CFA_Y, -5)
          CFI (cfiCond22) R8 Frame(CFA_Y, -4)
          CFI (cfiCond22) R9 Frame(CFA_Y, -3)
          CFI (cfiCond22) R10 Frame(CFA_Y, -2)
          CFI (cfiCond22) R11 Frame(CFA_Y, -1)
          CFI (cfiCond22) CFA_SP SP+6
          CFI (cfiCond22) CFA_Y Y+12
          CFI Block cfiPicker23 Using cfiCommon2
          CFI (cfiPicker23) NoFunction
          CFI (cfiPicker23) Picker
        MOVW    R17:R16, R5:R4
        MOVW    R19:R18, R7:R6
        RET
          CFI EndBlock cfiCond17
          CFI EndBlock cfiCond18
          CFI EndBlock cfiCond19
          CFI EndBlock cfiCond20
          CFI EndBlock cfiCond21
          CFI EndBlock cfiCond22
          CFI EndBlock cfiPicker23

        RSEG CODE:CODE:NOROOT(1)
?Subroutine91:
          CFI Block cfiCond24 Using cfiCommon0
          CFI Function PEREP
          CFI Conditional ??CrossCallReturnLabel_288, ??CrossCallReturnLabel_196
          CFI R24 Frame(CFA_Y, -8)
          CFI R25 Frame(CFA_Y, -7)
          CFI R26 Frame(CFA_Y, -6)
          CFI R27 Frame(CFA_Y, -5)
          CFI R4 Frame(CFA_Y, -4)
          CFI R5 Frame(CFA_Y, -3)
          CFI R6 Frame(CFA_Y, -2)
          CFI R7 Frame(CFA_Y, -1)
          CFI CFA_SP SP+6
          CFI CFA_Y Y+8
          CFI Block cfiCond25 Using cfiCommon0
          CFI (cfiCond25) Function PEREP
          CFI (cfiCond25) Conditional ??CrossCallReturnLabel_288, ??CrossCallReturnLabel_197
          CFI (cfiCond25) R24 Frame(CFA_Y, -8)
          CFI (cfiCond25) R25 Frame(CFA_Y, -7)
          CFI (cfiCond25) R26 Frame(CFA_Y, -6)
          CFI (cfiCond25) R27 Frame(CFA_Y, -5)
          CFI (cfiCond25) R4 Frame(CFA_Y, -4)
          CFI (cfiCond25) R5 Frame(CFA_Y, -3)
          CFI (cfiCond25) R6 Frame(CFA_Y, -2)
          CFI (cfiCond25) R7 Frame(CFA_Y, -1)
          CFI (cfiCond25) CFA_SP SP+6
          CFI (cfiCond25) CFA_Y Y+8
          CFI Block cfiCond26 Using cfiCommon0
          CFI (cfiCond26) Function PEREP
          CFI (cfiCond26) Conditional ??CrossCallReturnLabel_289, ??CrossCallReturnLabel_302
          CFI (cfiCond26) R24 Frame(CFA_Y, -8)
          CFI (cfiCond26) R25 Frame(CFA_Y, -7)
          CFI (cfiCond26) R26 Frame(CFA_Y, -6)
          CFI (cfiCond26) R27 Frame(CFA_Y, -5)
          CFI (cfiCond26) R4 Frame(CFA_Y, -4)
          CFI (cfiCond26) R5 Frame(CFA_Y, -3)
          CFI (cfiCond26) R6 Frame(CFA_Y, -2)
          CFI (cfiCond26) R7 Frame(CFA_Y, -1)
          CFI (cfiCond26) CFA_SP SP+6
          CFI (cfiCond26) CFA_Y Y+8
          CFI Block cfiCond27 Using cfiCommon0
          CFI (cfiCond27) Function coding
          CFI (cfiCond27) Conditional ??CrossCallReturnLabel_289, ??CrossCallReturnLabel_301
          CFI (cfiCond27) R24 Frame(CFA_Y, -10)
          CFI (cfiCond27) R25 Frame(CFA_Y, -9)
          CFI (cfiCond27) R26 Frame(CFA_Y, -8)
          CFI (cfiCond27) R27 Frame(CFA_Y, -7)
          CFI (cfiCond27) R4 Frame(CFA_Y, -6)
          CFI (cfiCond27) R5 Frame(CFA_Y, -5)
          CFI (cfiCond27) R6 Frame(CFA_Y, -4)
          CFI (cfiCond27) R7 Frame(CFA_Y, -3)
          CFI (cfiCond27) R8 Frame(CFA_Y, -2)
          CFI (cfiCond27) R9 Frame(CFA_Y, -1)
          CFI (cfiCond27) CFA_SP SP+6
          CFI (cfiCond27) CFA_Y Y+10
          CFI Block cfiCond28 Using cfiCommon0
          CFI (cfiCond28) Function PEREP
          CFI (cfiCond28) Conditional ??CrossCallReturnLabel_289, ??CrossCallReturnLabel_300
          CFI (cfiCond28) R24 Frame(CFA_Y, -8)
          CFI (cfiCond28) R25 Frame(CFA_Y, -7)
          CFI (cfiCond28) R26 Frame(CFA_Y, -6)
          CFI (cfiCond28) R27 Frame(CFA_Y, -5)
          CFI (cfiCond28) R4 Frame(CFA_Y, -4)
          CFI (cfiCond28) R5 Frame(CFA_Y, -3)
          CFI (cfiCond28) R6 Frame(CFA_Y, -2)
          CFI (cfiCond28) R7 Frame(CFA_Y, -1)
          CFI (cfiCond28) CFA_SP SP+6
          CFI (cfiCond28) CFA_Y Y+8
          CFI Block cfiCond29 Using cfiCommon0
          CFI (cfiCond29) Function PEREP
          CFI (cfiCond29) Conditional ??CrossCallReturnLabel_289, ??CrossCallReturnLabel_299
          CFI (cfiCond29) R24 Frame(CFA_Y, -8)
          CFI (cfiCond29) R25 Frame(CFA_Y, -7)
          CFI (cfiCond29) R26 Frame(CFA_Y, -6)
          CFI (cfiCond29) R27 Frame(CFA_Y, -5)
          CFI (cfiCond29) R4 Frame(CFA_Y, -4)
          CFI (cfiCond29) R5 Frame(CFA_Y, -3)
          CFI (cfiCond29) R6 Frame(CFA_Y, -2)
          CFI (cfiCond29) R7 Frame(CFA_Y, -1)
          CFI (cfiCond29) CFA_SP SP+6
          CFI (cfiCond29) CFA_Y Y+8
          CFI Block cfiCond30 Using cfiCommon0
          CFI (cfiCond30) Function coding
          CFI (cfiCond30) Conditional ??CrossCallReturnLabel_289, ??CrossCallReturnLabel_298
          CFI (cfiCond30) R24 Frame(CFA_Y, -10)
          CFI (cfiCond30) R25 Frame(CFA_Y, -9)
          CFI (cfiCond30) R26 Frame(CFA_Y, -8)
          CFI (cfiCond30) R27 Frame(CFA_Y, -7)
          CFI (cfiCond30) R4 Frame(CFA_Y, -6)
          CFI (cfiCond30) R5 Frame(CFA_Y, -5)
          CFI (cfiCond30) R6 Frame(CFA_Y, -4)
          CFI (cfiCond30) R7 Frame(CFA_Y, -3)
          CFI (cfiCond30) R8 Frame(CFA_Y, -2)
          CFI (cfiCond30) R9 Frame(CFA_Y, -1)
          CFI (cfiCond30) CFA_SP SP+6
          CFI (cfiCond30) CFA_Y Y+10
          CFI Block cfiCond31 Using cfiCommon0
          CFI (cfiCond31) Function coding
          CFI (cfiCond31) Conditional ??CrossCallReturnLabel_289, ??CrossCallReturnLabel_297
          CFI (cfiCond31) R24 Frame(CFA_Y, -10)
          CFI (cfiCond31) R25 Frame(CFA_Y, -9)
          CFI (cfiCond31) R26 Frame(CFA_Y, -8)
          CFI (cfiCond31) R27 Frame(CFA_Y, -7)
          CFI (cfiCond31) R4 Frame(CFA_Y, -6)
          CFI (cfiCond31) R5 Frame(CFA_Y, -5)
          CFI (cfiCond31) R6 Frame(CFA_Y, -4)
          CFI (cfiCond31) R7 Frame(CFA_Y, -3)
          CFI (cfiCond31) R8 Frame(CFA_Y, -2)
          CFI (cfiCond31) R9 Frame(CFA_Y, -1)
          CFI (cfiCond31) CFA_SP SP+6
          CFI (cfiCond31) CFA_Y Y+10
          CFI Block cfiPicker32 Using cfiCommon2
          CFI (cfiPicker32) NoFunction
          CFI (cfiPicker32) Picker
        LD      R16, Z
        LDD     R17, Z+1
        RJMP    ?Subroutine111
          CFI EndBlock cfiCond24
          CFI EndBlock cfiCond25
          CFI EndBlock cfiCond26
          CFI EndBlock cfiCond27
          CFI EndBlock cfiCond28
          CFI EndBlock cfiCond29
          CFI EndBlock cfiCond30
          CFI EndBlock cfiCond31
          CFI EndBlock cfiPicker32

        RSEG CODE:CODE:NOROOT(1)
?Subroutine90:
          CFI Block cfiCond33 Using cfiCommon0
          CFI Function PEREP
          CFI Conditional ??CrossCallReturnLabel_166
          CFI R24 Frame(CFA_Y, -8)
          CFI R25 Frame(CFA_Y, -7)
          CFI R26 Frame(CFA_Y, -6)
          CFI R27 Frame(CFA_Y, -5)
          CFI R4 Frame(CFA_Y, -4)
          CFI R5 Frame(CFA_Y, -3)
          CFI R6 Frame(CFA_Y, -2)
          CFI R7 Frame(CFA_Y, -1)
          CFI CFA_SP SP+4
          CFI CFA_Y Y+8
          CFI Block cfiCond34 Using cfiCommon0
          CFI (cfiCond34) Function PEREP
          CFI (cfiCond34) Conditional ??CrossCallReturnLabel_167
          CFI (cfiCond34) R24 Frame(CFA_Y, -8)
          CFI (cfiCond34) R25 Frame(CFA_Y, -7)
          CFI (cfiCond34) R26 Frame(CFA_Y, -6)
          CFI (cfiCond34) R27 Frame(CFA_Y, -5)
          CFI (cfiCond34) R4 Frame(CFA_Y, -4)
          CFI (cfiCond34) R5 Frame(CFA_Y, -3)
          CFI (cfiCond34) R6 Frame(CFA_Y, -2)
          CFI (cfiCond34) R7 Frame(CFA_Y, -1)
          CFI (cfiCond34) CFA_SP SP+4
          CFI (cfiCond34) CFA_Y Y+8
          CFI Block cfiCond35 Using cfiCommon0
          CFI (cfiCond35) Function PEREP
          CFI (cfiCond35) Conditional ??CrossCallReturnLabel_169, ??CrossCallReturnLabel_196
          CFI (cfiCond35) R24 Frame(CFA_Y, -8)
          CFI (cfiCond35) R25 Frame(CFA_Y, -7)
          CFI (cfiCond35) R26 Frame(CFA_Y, -6)
          CFI (cfiCond35) R27 Frame(CFA_Y, -5)
          CFI (cfiCond35) R4 Frame(CFA_Y, -4)
          CFI (cfiCond35) R5 Frame(CFA_Y, -3)
          CFI (cfiCond35) R6 Frame(CFA_Y, -2)
          CFI (cfiCond35) R7 Frame(CFA_Y, -1)
          CFI (cfiCond35) CFA_SP SP+6
          CFI (cfiCond35) CFA_Y Y+8
          CFI Block cfiCond36 Using cfiCommon0
          CFI (cfiCond36) Function PEREP
          CFI (cfiCond36) Conditional ??CrossCallReturnLabel_169, ??CrossCallReturnLabel_197
          CFI (cfiCond36) R24 Frame(CFA_Y, -8)
          CFI (cfiCond36) R25 Frame(CFA_Y, -7)
          CFI (cfiCond36) R26 Frame(CFA_Y, -6)
          CFI (cfiCond36) R27 Frame(CFA_Y, -5)
          CFI (cfiCond36) R4 Frame(CFA_Y, -4)
          CFI (cfiCond36) R5 Frame(CFA_Y, -3)
          CFI (cfiCond36) R6 Frame(CFA_Y, -2)
          CFI (cfiCond36) R7 Frame(CFA_Y, -1)
          CFI (cfiCond36) CFA_SP SP+6
          CFI (cfiCond36) CFA_Y Y+8
          CFI Block cfiCond37 Using cfiCommon0
          CFI (cfiCond37) Function coding
          CFI (cfiCond37) Conditional ??CrossCallReturnLabel_168
          CFI (cfiCond37) R24 Frame(CFA_Y, -10)
          CFI (cfiCond37) R25 Frame(CFA_Y, -9)
          CFI (cfiCond37) R26 Frame(CFA_Y, -8)
          CFI (cfiCond37) R27 Frame(CFA_Y, -7)
          CFI (cfiCond37) R4 Frame(CFA_Y, -6)
          CFI (cfiCond37) R5 Frame(CFA_Y, -5)
          CFI (cfiCond37) R6 Frame(CFA_Y, -4)
          CFI (cfiCond37) R7 Frame(CFA_Y, -3)
          CFI (cfiCond37) R8 Frame(CFA_Y, -2)
          CFI (cfiCond37) R9 Frame(CFA_Y, -1)
          CFI (cfiCond37) CFA_SP SP+4
          CFI (cfiCond37) CFA_Y Y+10
          CFI Block cfiPicker38 Using cfiCommon2
          CFI (cfiPicker38) NoFunction
          CFI (cfiPicker38) Picker
        LDI     R30, LOW(minimallen)
        LDI     R31, (minimallen) >> 8
        RET
          CFI EndBlock cfiCond33
          CFI EndBlock cfiCond34
          CFI EndBlock cfiCond35
          CFI EndBlock cfiCond36
          CFI EndBlock cfiCond37
          CFI EndBlock cfiPicker38

        RSEG CODE:CODE:NOROOT(1)
?Subroutine26:
          CFI Block cfiCond39 Using cfiCommon0
          CFI Function PEREP
          CFI Conditional ??CrossCallReturnLabel_282
          CFI R24 Frame(CFA_Y, -8)
          CFI R25 Frame(CFA_Y, -7)
          CFI R26 Frame(CFA_Y, -6)
          CFI R27 Frame(CFA_Y, -5)
          CFI R4 Frame(CFA_Y, -4)
          CFI R5 Frame(CFA_Y, -3)
          CFI R6 Frame(CFA_Y, -2)
          CFI R7 Frame(CFA_Y, -1)
          CFI CFA_SP SP+4
          CFI CFA_Y Y+8
          CFI Block cfiCond40 Using cfiCommon0
          CFI (cfiCond40) Function PEREP
          CFI (cfiCond40) Conditional ??CrossCallReturnLabel_283
          CFI (cfiCond40) R24 Frame(CFA_Y, -8)
          CFI (cfiCond40) R25 Frame(CFA_Y, -7)
          CFI (cfiCond40) R26 Frame(CFA_Y, -6)
          CFI (cfiCond40) R27 Frame(CFA_Y, -5)
          CFI (cfiCond40) R4 Frame(CFA_Y, -4)
          CFI (cfiCond40) R5 Frame(CFA_Y, -3)
          CFI (cfiCond40) R6 Frame(CFA_Y, -2)
          CFI (cfiCond40) R7 Frame(CFA_Y, -1)
          CFI (cfiCond40) CFA_SP SP+4
          CFI (cfiCond40) CFA_Y Y+8
          CFI Block cfiPicker41 Using cfiCommon2
          CFI (cfiPicker41) NoFunction
          CFI (cfiPicker41) Picker
        MUL     R24, R20
          CFI EndBlock cfiCond39
          CFI EndBlock cfiCond40
          CFI EndBlock cfiPicker41
        REQUIRE ??Subroutine124_0
        ;               // Fall through to label ??Subroutine124_0

        RSEG CODE:CODE:NOROOT(1)
??Subroutine124_0:
          CFI Block cfiCond42 Using cfiCommon0
          CFI Function PEREP
          CFI Conditional ??CrossCallReturnLabel_281
          CFI R24 Frame(CFA_Y, -8)
          CFI R25 Frame(CFA_Y, -7)
          CFI R26 Frame(CFA_Y, -6)
          CFI R27 Frame(CFA_Y, -5)
          CFI R4 Frame(CFA_Y, -4)
          CFI R5 Frame(CFA_Y, -3)
          CFI R6 Frame(CFA_Y, -2)
          CFI R7 Frame(CFA_Y, -1)
          CFI CFA_SP SP+4
          CFI CFA_Y Y+8
          CFI Block cfiCond43 Using cfiCommon0
          CFI (cfiCond43) Function PEREP
          CFI (cfiCond43) Conditional ??CrossCallReturnLabel_282
          CFI (cfiCond43) R24 Frame(CFA_Y, -8)
          CFI (cfiCond43) R25 Frame(CFA_Y, -7)
          CFI (cfiCond43) R26 Frame(CFA_Y, -6)
          CFI (cfiCond43) R27 Frame(CFA_Y, -5)
          CFI (cfiCond43) R4 Frame(CFA_Y, -4)
          CFI (cfiCond43) R5 Frame(CFA_Y, -3)
          CFI (cfiCond43) R6 Frame(CFA_Y, -2)
          CFI (cfiCond43) R7 Frame(CFA_Y, -1)
          CFI (cfiCond43) CFA_SP SP+4
          CFI (cfiCond43) CFA_Y Y+8
          CFI Block cfiCond44 Using cfiCommon0
          CFI (cfiCond44) Function PEREP
          CFI (cfiCond44) Conditional ??CrossCallReturnLabel_283
          CFI (cfiCond44) R24 Frame(CFA_Y, -8)
          CFI (cfiCond44) R25 Frame(CFA_Y, -7)
          CFI (cfiCond44) R26 Frame(CFA_Y, -6)
          CFI (cfiCond44) R27 Frame(CFA_Y, -5)
          CFI (cfiCond44) R4 Frame(CFA_Y, -4)
          CFI (cfiCond44) R5 Frame(CFA_Y, -3)
          CFI (cfiCond44) R6 Frame(CFA_Y, -2)
          CFI (cfiCond44) R7 Frame(CFA_Y, -1)
          CFI (cfiCond44) CFA_SP SP+4
          CFI (cfiCond44) CFA_Y Y+8
          CFI Block cfiPicker45 Using cfiCommon2
          CFI (cfiPicker45) NoFunction
          CFI (cfiPicker45) Picker
        MOVW    R31:R30, R1:R0
        SUBI    R30, LOW((-(len) & 0xFFFF))
        SBCI    R31, (-(len) & 0xFFFF) >> 8
        RET
          CFI EndBlock cfiCond42
          CFI EndBlock cfiCond43
          CFI EndBlock cfiCond44
          CFI EndBlock cfiPicker45

        RSEG CODE:CODE:NOROOT(1)
?Subroutine22:
          CFI Block cfiCond46 Using cfiCommon0
          CFI Function PEREP
          CFI Conditional ??CrossCallReturnLabel_39
          CFI R24 Frame(CFA_Y, -8)
          CFI R25 Frame(CFA_Y, -7)
          CFI R26 Frame(CFA_Y, -6)
          CFI R27 Frame(CFA_Y, -5)
          CFI R4 Frame(CFA_Y, -4)
          CFI R5 Frame(CFA_Y, -3)
          CFI R6 Frame(CFA_Y, -2)
          CFI R7 Frame(CFA_Y, -1)
          CFI CFA_SP SP+4
          CFI CFA_Y Y+8
          CFI Block cfiCond47 Using cfiCommon0
          CFI (cfiCond47) Function PEREP
          CFI (cfiCond47) Conditional ??CrossCallReturnLabel_40
          CFI (cfiCond47) R24 Frame(CFA_Y, -8)
          CFI (cfiCond47) R25 Frame(CFA_Y, -7)
          CFI (cfiCond47) R26 Frame(CFA_Y, -6)
          CFI (cfiCond47) R27 Frame(CFA_Y, -5)
          CFI (cfiCond47) R4 Frame(CFA_Y, -4)
          CFI (cfiCond47) R5 Frame(CFA_Y, -3)
          CFI (cfiCond47) R6 Frame(CFA_Y, -2)
          CFI (cfiCond47) R7 Frame(CFA_Y, -1)
          CFI (cfiCond47) CFA_SP SP+4
          CFI (cfiCond47) CFA_Y Y+8
          CFI Block cfiPicker48 Using cfiCommon2
          CFI (cfiPicker48) NoFunction
          CFI (cfiPicker48) Picker
        RCALL   ?Subroutine93
??CrossCallReturnLabel_173:
        RCALL   ?Subroutine87
??CrossCallReturnLabel_154:
        RCALL   ?Subroutine95
??CrossCallReturnLabel_185:
        RCALL   ?Subroutine88
??CrossCallReturnLabel_157:
        LD      R19, Z
        LDI     R18, 0
        ADD     R17, R19
        RCALL   ?Subroutine97
??CrossCallReturnLabel_192:
        MOVW    R5:R4, R17:R16
        MOVW    R7:R6, R19:R18
        RET
          CFI EndBlock cfiCond46
          CFI EndBlock cfiCond47
          CFI EndBlock cfiPicker48

        RSEG CODE:CODE:NOROOT(1)
?Subroutine20:
          CFI Block cfiCond49 Using cfiCommon0
          CFI Function analiz_INT
          CFI Conditional ??CrossCallReturnLabel_33
          CFI CFA_SP SP+4
          CFI Block cfiCond50 Using cfiCommon0
          CFI (cfiCond50) Function PEREP
          CFI (cfiCond50) Conditional ??CrossCallReturnLabel_34
          CFI (cfiCond50) R24 Frame(CFA_Y, -8)
          CFI (cfiCond50) R25 Frame(CFA_Y, -7)
          CFI (cfiCond50) R26 Frame(CFA_Y, -6)
          CFI (cfiCond50) R27 Frame(CFA_Y, -5)
          CFI (cfiCond50) R4 Frame(CFA_Y, -4)
          CFI (cfiCond50) R5 Frame(CFA_Y, -3)
          CFI (cfiCond50) R6 Frame(CFA_Y, -2)
          CFI (cfiCond50) R7 Frame(CFA_Y, -1)
          CFI (cfiCond50) CFA_SP SP+4
          CFI (cfiCond50) CFA_Y Y+8
          CFI Block cfiCond51 Using cfiCommon0
          CFI (cfiCond51) Function PEREP
          CFI (cfiCond51) Conditional ??CrossCallReturnLabel_35
          CFI (cfiCond51) R24 Frame(CFA_Y, -8)
          CFI (cfiCond51) R25 Frame(CFA_Y, -7)
          CFI (cfiCond51) R26 Frame(CFA_Y, -6)
          CFI (cfiCond51) R27 Frame(CFA_Y, -5)
          CFI (cfiCond51) R4 Frame(CFA_Y, -4)
          CFI (cfiCond51) R5 Frame(CFA_Y, -3)
          CFI (cfiCond51) R6 Frame(CFA_Y, -2)
          CFI (cfiCond51) R7 Frame(CFA_Y, -1)
          CFI (cfiCond51) CFA_SP SP+4
          CFI (cfiCond51) CFA_Y Y+8
          CFI Block cfiCond52 Using cfiCommon0
          CFI (cfiCond52) Function PEREP
          CFI (cfiCond52) Conditional ??CrossCallReturnLabel_36
          CFI (cfiCond52) R24 Frame(CFA_Y, -8)
          CFI (cfiCond52) R25 Frame(CFA_Y, -7)
          CFI (cfiCond52) R26 Frame(CFA_Y, -6)
          CFI (cfiCond52) R27 Frame(CFA_Y, -5)
          CFI (cfiCond52) R4 Frame(CFA_Y, -4)
          CFI (cfiCond52) R5 Frame(CFA_Y, -3)
          CFI (cfiCond52) R6 Frame(CFA_Y, -2)
          CFI (cfiCond52) R7 Frame(CFA_Y, -1)
          CFI (cfiCond52) CFA_SP SP+4
          CFI (cfiCond52) CFA_Y Y+8
          CFI Block cfiCond53 Using cfiCommon0
          CFI (cfiCond53) Function PEREP
          CFI (cfiCond53) Conditional ??CrossCallReturnLabel_37
          CFI (cfiCond53) R24 Frame(CFA_Y, -8)
          CFI (cfiCond53) R25 Frame(CFA_Y, -7)
          CFI (cfiCond53) R26 Frame(CFA_Y, -6)
          CFI (cfiCond53) R27 Frame(CFA_Y, -5)
          CFI (cfiCond53) R4 Frame(CFA_Y, -4)
          CFI (cfiCond53) R5 Frame(CFA_Y, -3)
          CFI (cfiCond53) R6 Frame(CFA_Y, -2)
          CFI (cfiCond53) R7 Frame(CFA_Y, -1)
          CFI (cfiCond53) CFA_SP SP+4
          CFI (cfiCond53) CFA_Y Y+8
          CFI Block cfiCond54 Using cfiCommon0
          CFI (cfiCond54) Function PEREP
          CFI (cfiCond54) Conditional ??CrossCallReturnLabel_38
          CFI (cfiCond54) R24 Frame(CFA_Y, -8)
          CFI (cfiCond54) R25 Frame(CFA_Y, -7)
          CFI (cfiCond54) R26 Frame(CFA_Y, -6)
          CFI (cfiCond54) R27 Frame(CFA_Y, -5)
          CFI (cfiCond54) R4 Frame(CFA_Y, -4)
          CFI (cfiCond54) R5 Frame(CFA_Y, -3)
          CFI (cfiCond54) R6 Frame(CFA_Y, -2)
          CFI (cfiCond54) R7 Frame(CFA_Y, -1)
          CFI (cfiCond54) CFA_SP SP+4
          CFI (cfiCond54) CFA_Y Y+8
          CFI Block cfiPicker55 Using cfiCommon2
          CFI (cfiPicker55) NoFunction
          CFI (cfiPicker55) Picker
        LDS     R16, ct
        RET
          CFI EndBlock cfiCond49
          CFI EndBlock cfiCond50
          CFI EndBlock cfiCond51
          CFI EndBlock cfiCond52
          CFI EndBlock cfiCond53
          CFI EndBlock cfiCond54
          CFI EndBlock cfiPicker55

        RSEG NEAR_Z:DATA:NOROOT(0)
        REQUIRE `?<Segment init: NEAR_Z>`
??state2:
        DS8 1
//  125 
//  126 ///////////////////////////////////////////////////////////////
//  127 //  main
//  128 //////////////////////////////////////////////////////////////

        RSEG CODE:CODE:NOROOT(1)
//  129   bool remote_main() 
remote_main:
          CFI Block cfiBlock56 Using cfiCommon0
          CFI Function remote_main
//  130   {   
//  131     cod_ok=0;//признак готовности кода
        FUNCALL remote_main, du_init
        LOCFRAME CSTACK, 0, STACK
        LOCFRAME RSTACK, 2, STACK
        ARGFRAME RSTACK, 0, STACK
        FUNCALL remote_main, analiz_INT
        LOCFRAME CSTACK, 0, STACK
        LOCFRAME RSTACK, 2, STACK
        ARGFRAME RSTACK, 0, STACK
        FUNCALL remote_main, PEREP
        LOCFRAME CSTACK, 0, STACK
        LOCFRAME RSTACK, 2, STACK
        ARGFRAME RSTACK, 0, STACK
        LDI     R16, 0
        STS     cod_ok, R16
//  132     
//  133     if (ini!=1) du_init();    
        LDS     R16, ??ini
        TST     R16
        BRNE    ??remote_main_0
        RCALL   du_init
//  134     if (intok!=0) analiz_INT();  //INT событие произошло
??remote_main_0:
        LDS     R16, ??intok
        TST     R16
        BREQ    ??remote_main_1
        RCALL   analiz_INT
//  135     
//  136     if (perepoln!=0 ) 
??remote_main_1:
        LDS     R16, ??perepoln
        TST     R16
        BREQ    ??remote_main_2
//  137     {//получили переполнение, значит сигнал закончился
//  138       PEREP();
        RCALL   PEREP
//  139     }   
//  140      return(cod_ok);  
??remote_main_2:
        LDS     R16, cod_ok
        RET
          CFI EndBlock cfiBlock56
//  141   }
//  142 
//  143 
//  144 ///////////////////////////////////////////////////////////////////       
//  145 //                             кодировка
//  146 ///////////////////////////////////////////////////////////////////

        RSEG CODE:CODE:NOROOT(1)
//  147   void coding(uint i, uchar pr)  
coding:
          CFI Block cfiBlock57 Using cfiCommon0
          CFI Function coding
//  148   {
        FUNCALL coding, rprintfFloat
        LOCFRAME CSTACK, 10, STACK
        LOCFRAME RSTACK, 2, STACK
        ARGFRAME RSTACK, 0, STACK
        FUNCALL coding, rprintfStr
        LOCFRAME CSTACK, 10, STACK
        LOCFRAME RSTACK, 2, STACK
        ARGFRAME RSTACK, 0, STACK
        FUNCALL coding, rprintfFloat
        LOCFRAME CSTACK, 10, STACK
        LOCFRAME RSTACK, 2, STACK
        ARGFRAME RSTACK, 0, STACK
        FUNCALL coding, rprintfStr
        LOCFRAME CSTACK, 10, STACK
        LOCFRAME RSTACK, 2, STACK
        ARGFRAME RSTACK, 0, STACK
        FUNCALL coding, rprintfFloat
        LOCFRAME CSTACK, 10, STACK
        LOCFRAME RSTACK, 2, STACK
        ARGFRAME RSTACK, 0, STACK
        FUNCALL coding, rprintfStr
        LOCFRAME CSTACK, 10, STACK
        LOCFRAME RSTACK, 2, STACK
        ARGFRAME RSTACK, 0, STACK
        FUNCALL coding, rprintfStr
        LOCFRAME CSTACK, 10, STACK
        LOCFRAME RSTACK, 2, STACK
        ARGFRAME RSTACK, 0, STACK
        FUNCALL coding, rprintfFloat
        LOCFRAME CSTACK, 10, STACK
        LOCFRAME RSTACK, 2, STACK
        ARGFRAME RSTACK, 0, STACK
        FUNCALL coding, rprintfStr
        LOCFRAME CSTACK, 10, STACK
        LOCFRAME RSTACK, 2, STACK
        ARGFRAME RSTACK, 0, STACK
        FUNCALL coding, rprintfFloat
        LOCFRAME CSTACK, 10, STACK
        LOCFRAME RSTACK, 2, STACK
        ARGFRAME RSTACK, 0, STACK
        FUNCALL coding, rprintfStr
        LOCFRAME CSTACK, 10, STACK
        LOCFRAME RSTACK, 2, STACK
        ARGFRAME RSTACK, 0, STACK
        FUNCALL coding, rprintfFloat
        LOCFRAME CSTACK, 10, STACK
        LOCFRAME RSTACK, 2, STACK
        ARGFRAME RSTACK, 0, STACK
        FUNCALL coding, rprintfStr
        LOCFRAME CSTACK, 10, STACK
        LOCFRAME RSTACK, 2, STACK
        ARGFRAME RSTACK, 0, STACK
        FUNCALL coding, rprintfFloat
        LOCFRAME CSTACK, 10, STACK
        LOCFRAME RSTACK, 2, STACK
        ARGFRAME RSTACK, 0, STACK
        FUNCALL coding, USART_SendChar
        LOCFRAME CSTACK, 10, STACK
        LOCFRAME RSTACK, 2, STACK
        ARGFRAME RSTACK, 0, STACK
        RCALL   ?PROLOGUE10_L09
          CFI R9 Frame(CFA_Y, -1)
          CFI R8 Frame(CFA_Y, -2)
          CFI R7 Frame(CFA_Y, -3)
          CFI R6 Frame(CFA_Y, -4)
          CFI R5 Frame(CFA_Y, -5)
          CFI R4 Frame(CFA_Y, -6)
          CFI R27 Frame(CFA_Y, -7)
          CFI R26 Frame(CFA_Y, -8)
          CFI R25 Frame(CFA_Y, -9)
          CFI R24 Frame(CFA_Y, -10)
          CFI CFA_Y Y+10
        REQUIRE ?Register_R4_is_cg_reg
        REQUIRE ?Register_R5_is_cg_reg
        REQUIRE ?Register_R6_is_cg_reg
        REQUIRE ?Register_R8_is_cg_reg
        REQUIRE ?Register_R9_is_cg_reg
        MOVW    R25:R24, R17:R16
        MOV     R6, R18
//  149  
//  150     
//  151     float v=len[i];
        RCALL   ?Subroutine99
??CrossCallReturnLabel_199:
        LDI     R26, LOW(len)
        LDI     R27, (len) >> 8
        ADD     R26, R16
        ADC     R27, R17
        LD      R0, X+
        LD      R1, X+
        LD      R2, X+
        LD      R3, X
        SBIW    R27:R26, 3
//  152              
//  153             //  sst=sst+v;
//  154        if (i>1) {
        CPI     R24, 2
        LDI     R16, 0
        CPC     R25, R16
        BRCC    $+2+2
        RJMP    ??CrossCallReturnLabel_203
//  155           
//  156   //-------------   версия  больше-меньше  ------------------
//  157               //  if (len[i]>len[i-1])  cod1+=1;
//  158          
//  159              //  if (len[i]<=len[i-1]) cod1+=3;
//  160    /*        
//  161     if (ind==4) { 
//  162                        if (len[i]>len[i-1]) { SET(cod4,c4); }
//  163                       // else cod4<<=1;
//  164                        c4++;
//  165                        if (c4>=15) ind=5;
//  166                     }
//  167          
//  168               
//  169 
//  170            if (ind==3) { 
//  171                        if (len[i]>len[i-1]) { SET(cod3,c3); }
//  172                       // else cod3<<=1;
//  173                        c3++;
//  174                        if (c3>=15) ind=4;
//  175                     }
//  176         
//  177          
//  178            if (ind==2) { 
//  179                        if (len[i]>len[i-1]) { SET(cod2,c2); }
//  180                       // else cod2<<=1;
//  181                        c2++;
//  182                        if (c2>=15) ind=3;
//  183                     }
//  184          
//  185          if (ind==1) { 
//  186            if (len[i]>len[i-1]) { SET(cod1,c1); }
//  187                        //else cod1<<=1;
//  188                        c1++;
//  189                        if (c1>=15) ind=2;
//  190                     }
//  191          
//  192       */ 
//  193          
//  194        /*  
//  195          if (ind==4) { 
//  196            if (len[i]<3) { SET(cod4,c4);c4++; }
//  197            if (len[i]>=3 && len[i]<5)  {  c4++;  c4++;}
//  198            if (len[i]>=5 && len[i]<25) { SET(cod4,c4); c4++;    if (c4<=15)  SET(cod4,c4);  c4++;}
//  199            if (len[i]>=25)  {  c4++;  c4++; c4++;}
//  200                        if (c4>=15) ind=0;
//  201                      }
//  202       */
//  203          
//  204          
//  205       //-----   версия v2  по относительной длине -------  
//  206 #define   set1 SET(cod1,c1);c1++   
//  207 #define   set2 SET(cod2,c2);c2++  
//  208 #define   set3 SET(cod3,c3);c3++  
//  209          
//  210         
//  211        //ДЕЛАТЬ точность менее 0.5 опасно, т.к. ШУМ измерения
//  212           if (ind==3) { 
        MOVW    R5:R4, R25:R24
        LSL     R4
        ROL     R5
        LDS     R16, ind
        CPI     R16, 3
        BREQ    $+2+2
        RJMP    ??coding_0
//  213             
//  214             if (v<1.5) cod3=cod3+i;
        LDS     R20, c3
        RCALL   ?Subroutine1
??CrossCallReturnLabel_2:
        BRCC    ??coding_1
        RCALL   ??Subroutine134_0
??CrossCallReturnLabel_358:
        RCALL   ?Subroutine25
//  215            if (v>=1.5 && v<2) { set3; c3++;    } else
//  216            if (v>=2 && v<3)   { set3; cod3=cod3+i;  c3++; } else
??CrossCallReturnLabel_325:
        RCALL   ?Subroutine51
??CrossCallReturnLabel_67:
        BRCC    ??coding_2
        RCALL   ?Subroutine57
??CrossCallReturnLabel_80:
        BRCS    ??coding_3
//  217            if (v>=3 && v<5)   { set3; cod3=cod3+i+i;  c3++; if (c3<=14) {set3; cod3=cod3+i;   c3++; }  }   else                                  
??coding_2:
        RCALL   ?Subroutine58
??CrossCallReturnLabel_83:
        BRCC    ??coding_4
        RCALL   ?Subroutine60
??CrossCallReturnLabel_91:
        BRCC    ??coding_4
        RCALL   ??Subroutine134_0
??CrossCallReturnLabel_359:
        RCALL   ?Subroutine29
??CrossCallReturnLabel_41:
        RCALL   ??Subroutine129_0
??CrossCallReturnLabel_316:
        RCALL   ?Subroutine38
??CrossCallReturnLabel_286:
        ST      Z, R16
        CPI     R16, 15
        BRCC    ??coding_5
??coding_3:
        RCALL   ??Subroutine134_0
??CrossCallReturnLabel_360:
        RCALL   ?Subroutine59
??CrossCallReturnLabel_86:
        LDS     R20, c3
        RCALL   ?Subroutine2
??CrossCallReturnLabel_5:
        RJMP    ??CrossCallReturnLabel_317
??coding_1:
        RCALL   ?Subroutine53
??CrossCallReturnLabel_73:
        BRCC    ??CrossCallReturnLabel_325
        RCALL   ??Subroutine134_0
??CrossCallReturnLabel_361:
        RCALL   ?Subroutine94
??CrossCallReturnLabel_174:
        RCALL   ??Subroutine129_0
??CrossCallReturnLabel_317:
        RCALL   ?Subroutine38
??CrossCallReturnLabel_287:
        RJMP    ??coding_6
//  218            if (v>5 && v<7)    { c3++;   if (c3<=15)  c3++; }
??coding_4:
        RCALL   ?Subroutine49
??CrossCallReturnLabel_62:
        BRCC    ??coding_5
        RCALL   ?Subroutine52
??CrossCallReturnLabel_70:
        BRCC    ??coding_5
        LDI     R30, LOW(c3)
        LDI     R31, (c3) >> 8
        RCALL   ?Subroutine31
??CrossCallReturnLabel_44:
        BRCC    ??coding_5
        INC     R16
??coding_6:
        ST      Z, R16
//  219          
//  220             
//  221            if (c3>=16) {ind=1; cod1=cod1<<2; cod2=cod2<<2; c1=0; c2=0; c3=0;}//пошли по кругу
??coding_5:
        LDS     R16, c3
        CPI     R16, 16
        BRCC    $+2+2
        RJMP    ??coding_7
        LDI     R16, 1
        STS     ind, R16
        RCALL   ?Subroutine102
??CrossCallReturnLabel_208:
        RCALL   ?Subroutine33
??CrossCallReturnLabel_200:
        RCALL   ??Subroutine129_0
??CrossCallReturnLabel_318:
        RCALL   ??Subroutine135_0
??CrossCallReturnLabel_365:
        RCALL   ?Subroutine33
??CrossCallReturnLabel_201:
        RCALL   ??Subroutine129_0
??CrossCallReturnLabel_319:
        STS     c1, R21
        STS     c2, R21
        STS     c3, R21
        RJMP    ??coding_8
//  222         
//  223                      }
//  224          
//  225                 
//  226           if (ind==2) { 
??coding_0:
        CPI     R16, 2
        BRNE    ??coding_9
//  227           
//  228            if (v<1.5) cod2=cod2+i;
        LDS     R20, c2
        RCALL   ?Subroutine1
??CrossCallReturnLabel_3:
        BRCC    ??coding_10
        RCALL   ??Subroutine135_0
??CrossCallReturnLabel_366:
        RCALL   ?Subroutine25
//  229            if (v>=1.5 && v<2) { set2; c2++;  cod2=cod2+i;  } else
//  230            if (v>=2 && v<3)   { set2; cod2=cod2+i;  c2++; } else
??CrossCallReturnLabel_326:
        RCALL   ?Subroutine51
??CrossCallReturnLabel_68:
        BRCC    ??coding_11
        RCALL   ?Subroutine57
??CrossCallReturnLabel_81:
        BRCS    ??coding_12
//  231            if (v>=3 && v<5)   { set2; cod2=cod2+i+i;  c2++; if (c2<=14) { set2; cod2=cod2+i;  c2++; }  }   else                                  
??coding_11:
        RCALL   ?Subroutine58
??CrossCallReturnLabel_84:
        BRCC    ??coding_13
        RCALL   ?Subroutine60
??CrossCallReturnLabel_92:
        BRCC    ??coding_13
        RCALL   ??Subroutine135_0
??CrossCallReturnLabel_367:
        RCALL   ?Subroutine29
??CrossCallReturnLabel_42:
        RCALL   ?Subroutine23
??CrossCallReturnLabel_303:
        CPI     R16, 15
        BRCC    ??coding_14
??coding_12:
        RCALL   ??Subroutine135_0
??CrossCallReturnLabel_368:
        RCALL   ?Subroutine59
??CrossCallReturnLabel_87:
        LDS     R20, c2
        RCALL   ?Subroutine2
??CrossCallReturnLabel_6:
        LDI     R30, LOW(c2)
        LDI     R31, (c2) >> 8
        RCALL   ??Subroutine125_0
??CrossCallReturnLabel_284:
        RJMP    ??coding_15
??coding_10:
        RCALL   ?Subroutine53
??CrossCallReturnLabel_74:
        BRCC    ??CrossCallReturnLabel_326
        RCALL   ??Subroutine135_0
??CrossCallReturnLabel_369:
        RCALL   ?Subroutine94
??CrossCallReturnLabel_175:
        RCALL   ?Subroutine23
??CrossCallReturnLabel_304:
        RCALL   ??Subroutine135_0
??CrossCallReturnLabel_370:
        LD      R16, Z
        RCALL   ??Subroutine128_0
??CrossCallReturnLabel_323:
        RJMP    ??coding_14
//  232            if (v>5 && v<7)    { c2++;   if (c2<=15)  c2++; }
??coding_13:
        RCALL   ?Subroutine49
??CrossCallReturnLabel_63:
        BRCC    ??coding_14
        RCALL   ?Subroutine52
??CrossCallReturnLabel_71:
        BRCC    ??coding_14
        LDI     R30, LOW(c2)
        LDI     R31, (c2) >> 8
        RCALL   ?Subroutine31
??CrossCallReturnLabel_45:
        BRCC    ??coding_14
        INC     R16
??coding_15:
        ST      Z, R16
//  233          
//  234                 if (c2>=16) ind=3;
??coding_14:
        LDS     R16, c2
        CPI     R16, 16
        BRCS    ??coding_7
        LDI     R16, 3
        RJMP    ??coding_16
//  235                      }
//  236                 
//  237          if (ind==1) { 
??coding_9:
        CPI     R16, 1
        BRNE    ??coding_7
//  238            
//  239            if (v<1.5) cod1=cod1+i;
??coding_8:
        LDS     R20, c1
        RCALL   ?Subroutine1
??CrossCallReturnLabel_4:
        BRCC    ??coding_17
        RCALL   ?Subroutine102
??CrossCallReturnLabel_209:
        RCALL   ?Subroutine25
//  240            if (v>=1.5 && v<2) { set1; c1++;  cod1=cod1+i;  } else
//  241            if (v>=2 && v<3)   { set1; cod1=cod1+i;  c1++; } else
??CrossCallReturnLabel_327:
        RCALL   ?Subroutine51
??CrossCallReturnLabel_69:
        BRCC    ??coding_18
        RCALL   ?Subroutine57
??CrossCallReturnLabel_82:
        BRCS    ??coding_19
//  242            if (v>=3 && v<5)   { set1; cod1=cod1+i+i;  c1++; if (c1<=14) { set1; cod1=cod1+i; c1++; }  }   else                                  
??coding_18:
        RCALL   ?Subroutine58
??CrossCallReturnLabel_85:
        BRCC    ??coding_20
        RCALL   ?Subroutine60
??CrossCallReturnLabel_93:
        BRCC    ??coding_20
        RCALL   ?Subroutine102
??CrossCallReturnLabel_210:
        RCALL   ?Subroutine29
??CrossCallReturnLabel_43:
        RCALL   ?Subroutine24
??CrossCallReturnLabel_305:
        CPI     R16, 15
        BRCC    ??coding_21
??coding_19:
        RCALL   ?Subroutine102
??CrossCallReturnLabel_211:
        RCALL   ?Subroutine59
??CrossCallReturnLabel_88:
        LDS     R20, c1
        RCALL   ?Subroutine2
??CrossCallReturnLabel_7:
        LDI     R30, LOW(c1)
        LDI     R31, (c1) >> 8
        RCALL   ??Subroutine125_0
??CrossCallReturnLabel_285:
        RJMP    ??coding_22
??coding_17:
        RCALL   ?Subroutine53
??CrossCallReturnLabel_75:
        BRCC    ??CrossCallReturnLabel_327
        RCALL   ?Subroutine102
??CrossCallReturnLabel_212:
        RCALL   ?Subroutine94
??CrossCallReturnLabel_176:
        RCALL   ?Subroutine24
??CrossCallReturnLabel_306:
        RCALL   ?Subroutine102
??CrossCallReturnLabel_213:
        LD      R16, Z
        RCALL   ??Subroutine128_0
??CrossCallReturnLabel_324:
        RJMP    ??coding_21
//  243            if (v>5 && v<7)    { c1++;   if (c1<=15)  c1++; }
??coding_20:
        RCALL   ?Subroutine49
??CrossCallReturnLabel_64:
        BRCC    ??coding_21
        RCALL   ?Subroutine52
??CrossCallReturnLabel_72:
        BRCC    ??coding_21
        LDI     R30, LOW(c1)
        LDI     R31, (c1) >> 8
        RCALL   ?Subroutine31
??CrossCallReturnLabel_46:
        BRCC    ??coding_21
        INC     R16
??coding_22:
        ST      Z, R16
//  244          
//  245                 if (c1>=16) ind=2;
??coding_21:
        LDS     R16, c1
        CPI     R16, 16
        BRCS    ??coding_7
        LDI     R16, 2
??coding_16:
        STS     ind, R16
//  246                      }
//  247           
//  248          
//  249         
//  250          
//  251       
//  252              cod_ok=1;//код готов         
??coding_7:
        LDI     R16, 1
        STS     cod_ok, R16
//  253          
//  254          if (pr==0) {
        TST     R6
        BRNE    ??CrossCallReturnLabel_203
//  255                      rprintfFloat(2, i);
        MOVW    R17:R16, R25:R24
        LDI     R18, 0
        RCALL   ?Subroutine47
??CrossCallReturnLabel_58:
        LDI     R16, 2
        RCALL   rprintfFloat
//  256                      rprintfStr("  / abslen= ");
        LDI     R16, LOW(`?<Constant "  / abslen= ">`)
        LDI     R17, (`?<Constant "  / abslen= ">`) >> 8
        RCALL   rprintfStr
//  257                       rprintfFloat(9, dim1[i]+ (256*dim2[i])  );
        LSL     R24
        ROL     R25
        MOVW    R31:R30, R25:R24
        SUBI    R30, LOW((-(dim1) & 0xFFFF))
        SBCI    R31, (-(dim1) & 0xFFFF) >> 8
        RCALL   ?Subroutine95
??CrossCallReturnLabel_178:
        MOVW    R31:R30, R25:R24
        SUBI    R30, LOW((-(dim2) & 0xFFFF))
        SBCI    R31, (-(dim2) & 0xFFFF) >> 8
        LD      R19, Z
        LDI     R18, 0
        ADD     R17, R19
        RCALL   ?Subroutine47
??CrossCallReturnLabel_59:
        LDI     R16, 9
        RCALL   rprintfFloat
//  258                       rprintfStr("  / len= ");
        LDI     R16, LOW(`?<Constant "  / len= ">`)
        LDI     R17, (`?<Constant "  / len= ">`) >> 8
        RCALL   rprintfStr
//  259                   rprintfFloat(4,  len[i]);
        LD      R20, X+
        LD      R21, X+
        LD      R22, X+
        LD      R23, X
        LDI     R16, 4
        RCALL   rprintfFloat
//  260                    rprintfStr("  ");
        LDI     R16, LOW(`?<Constant "  ">`)
        LDI     R17, (`?<Constant "  ">`) >> 8
        RCALL   rprintfStr
//  261                  rprintfStr("  / cod1= ");
        LDI     R16, LOW(`?<Constant "  / cod1= ">`)
        LDI     R17, (`?<Constant "  / cod1= ">`) >> 8
        RCALL   ?Subroutine28
//  262                   rprintfFloat(6, cod1);
//  263                    rprintfStr(" / cod2= ");
??CrossCallReturnLabel_301:
        LDI     R16, LOW(`?<Constant " / cod2= ">`)
        LDI     R17, (`?<Constant " / cod2= ">`) >> 8
        RCALL   ?Subroutine40
//  264                   rprintfFloat(6,  cod2);
??CrossCallReturnLabel_364:
        RCALL   ??Subroutine126_0
//  265                    rprintfStr(" / cod3= ");
??CrossCallReturnLabel_298:
        LDI     R16, LOW(`?<Constant " / cod3= ">`)
        LDI     R17, (`?<Constant " / cod3= ">`) >> 8
        RCALL   ?Subroutine42
//  266                   rprintfFloat(6,  cod3);
??CrossCallReturnLabel_357:
        RCALL   ??Subroutine126_0
//  267                    rprintfStr("/ minlen=");
??CrossCallReturnLabel_297:
        LDI     R16, LOW(`?<Constant "/ minlen=">`)
        LDI     R17, (`?<Constant "/ minlen=">`) >> 8
        RCALL   rprintfStr
//  268                    rprintfFloat(9,   minimallen);
        RCALL   ?Subroutine90
//  269                    ent;
//  270                 }
//  271          
//  272          
//  273                    }
??CrossCallReturnLabel_168:
        RCALL   ?Subroutine95
??CrossCallReturnLabel_179:
        RCALL   ?Subroutine43
//  274        
//  275        
//  276        
//  277   
//  278   }
??CrossCallReturnLabel_203:
        LDI     R30, 10
        RJMP    ?EPILOGUE_B10_L09
          CFI EndBlock cfiBlock57

        RSEG CODE:CODE:NOROOT(1)
?Subroutine60:
          CFI Block cfiCond58 Using cfiCommon0
          CFI Function coding
          CFI Conditional ??CrossCallReturnLabel_91
          CFI R24 Frame(CFA_Y, -10)
          CFI R25 Frame(CFA_Y, -9)
          CFI R26 Frame(CFA_Y, -8)
          CFI R27 Frame(CFA_Y, -7)
          CFI R4 Frame(CFA_Y, -6)
          CFI R5 Frame(CFA_Y, -5)
          CFI R6 Frame(CFA_Y, -4)
          CFI R7 Frame(CFA_Y, -3)
          CFI R8 Frame(CFA_Y, -2)
          CFI R9 Frame(CFA_Y, -1)
          CFI CFA_SP SP+4
          CFI CFA_Y Y+10
          CFI Block cfiCond59 Using cfiCommon0
          CFI (cfiCond59) Function coding
          CFI (cfiCond59) Conditional ??CrossCallReturnLabel_92
          CFI (cfiCond59) R24 Frame(CFA_Y, -10)
          CFI (cfiCond59) R25 Frame(CFA_Y, -9)
          CFI (cfiCond59) R26 Frame(CFA_Y, -8)
          CFI (cfiCond59) R27 Frame(CFA_Y, -7)
          CFI (cfiCond59) R4 Frame(CFA_Y, -6)
          CFI (cfiCond59) R5 Frame(CFA_Y, -5)
          CFI (cfiCond59) R6 Frame(CFA_Y, -4)
          CFI (cfiCond59) R7 Frame(CFA_Y, -3)
          CFI (cfiCond59) R8 Frame(CFA_Y, -2)
          CFI (cfiCond59) R9 Frame(CFA_Y, -1)
          CFI (cfiCond59) CFA_SP SP+4
          CFI (cfiCond59) CFA_Y Y+10
          CFI Block cfiCond60 Using cfiCommon0
          CFI (cfiCond60) Function coding
          CFI (cfiCond60) Conditional ??CrossCallReturnLabel_93
          CFI (cfiCond60) R24 Frame(CFA_Y, -10)
          CFI (cfiCond60) R25 Frame(CFA_Y, -9)
          CFI (cfiCond60) R26 Frame(CFA_Y, -8)
          CFI (cfiCond60) R27 Frame(CFA_Y, -7)
          CFI (cfiCond60) R4 Frame(CFA_Y, -6)
          CFI (cfiCond60) R5 Frame(CFA_Y, -5)
          CFI (cfiCond60) R6 Frame(CFA_Y, -4)
          CFI (cfiCond60) R7 Frame(CFA_Y, -3)
          CFI (cfiCond60) R8 Frame(CFA_Y, -2)
          CFI (cfiCond60) R9 Frame(CFA_Y, -1)
          CFI (cfiCond60) CFA_SP SP+4
          CFI (cfiCond60) CFA_Y Y+10
          CFI Block cfiPicker61 Using cfiCommon2
          CFI (cfiPicker61) NoFunction
          CFI (cfiPicker61) Picker
        LDI     R22, 160
        RJMP    ?F_CMP_LT_L04
          CFI EndBlock cfiCond58
          CFI EndBlock cfiCond59
          CFI EndBlock cfiCond60
          CFI EndBlock cfiPicker61

        RSEG CODE:CODE:NOROOT(1)
?Subroutine58:
          CFI Block cfiCond62 Using cfiCommon0
          CFI Function coding
          CFI Conditional ??CrossCallReturnLabel_83
          CFI R24 Frame(CFA_Y, -10)
          CFI R25 Frame(CFA_Y, -9)
          CFI R26 Frame(CFA_Y, -8)
          CFI R27 Frame(CFA_Y, -7)
          CFI R4 Frame(CFA_Y, -6)
          CFI R5 Frame(CFA_Y, -5)
          CFI R6 Frame(CFA_Y, -4)
          CFI R7 Frame(CFA_Y, -3)
          CFI R8 Frame(CFA_Y, -2)
          CFI R9 Frame(CFA_Y, -1)
          CFI CFA_SP SP+4
          CFI CFA_Y Y+10
          CFI Block cfiCond63 Using cfiCommon0
          CFI (cfiCond63) Function coding
          CFI (cfiCond63) Conditional ??CrossCallReturnLabel_84
          CFI (cfiCond63) R24 Frame(CFA_Y, -10)
          CFI (cfiCond63) R25 Frame(CFA_Y, -9)
          CFI (cfiCond63) R26 Frame(CFA_Y, -8)
          CFI (cfiCond63) R27 Frame(CFA_Y, -7)
          CFI (cfiCond63) R4 Frame(CFA_Y, -6)
          CFI (cfiCond63) R5 Frame(CFA_Y, -5)
          CFI (cfiCond63) R6 Frame(CFA_Y, -4)
          CFI (cfiCond63) R7 Frame(CFA_Y, -3)
          CFI (cfiCond63) R8 Frame(CFA_Y, -2)
          CFI (cfiCond63) R9 Frame(CFA_Y, -1)
          CFI (cfiCond63) CFA_SP SP+4
          CFI (cfiCond63) CFA_Y Y+10
          CFI Block cfiCond64 Using cfiCommon0
          CFI (cfiCond64) Function coding
          CFI (cfiCond64) Conditional ??CrossCallReturnLabel_85
          CFI (cfiCond64) R24 Frame(CFA_Y, -10)
          CFI (cfiCond64) R25 Frame(CFA_Y, -9)
          CFI (cfiCond64) R26 Frame(CFA_Y, -8)
          CFI (cfiCond64) R27 Frame(CFA_Y, -7)
          CFI (cfiCond64) R4 Frame(CFA_Y, -6)
          CFI (cfiCond64) R5 Frame(CFA_Y, -5)
          CFI (cfiCond64) R6 Frame(CFA_Y, -4)
          CFI (cfiCond64) R7 Frame(CFA_Y, -3)
          CFI (cfiCond64) R8 Frame(CFA_Y, -2)
          CFI (cfiCond64) R9 Frame(CFA_Y, -1)
          CFI (cfiCond64) CFA_SP SP+4
          CFI (cfiCond64) CFA_Y Y+10
          CFI Block cfiPicker65 Using cfiCommon2
          CFI (cfiPicker65) NoFunction
          CFI (cfiPicker65) Picker
        LDI     R22, 64
        RJMP    ?F_CMP_GE_L04
          CFI EndBlock cfiCond62
          CFI EndBlock cfiCond63
          CFI EndBlock cfiCond64
          CFI EndBlock cfiPicker65

        RSEG CODE:CODE:NOROOT(1)
?Subroutine57:
          CFI Block cfiCond66 Using cfiCommon0
          CFI Function coding
          CFI Conditional ??CrossCallReturnLabel_80
          CFI R24 Frame(CFA_Y, -10)
          CFI R25 Frame(CFA_Y, -9)
          CFI R26 Frame(CFA_Y, -8)
          CFI R27 Frame(CFA_Y, -7)
          CFI R4 Frame(CFA_Y, -6)
          CFI R5 Frame(CFA_Y, -5)
          CFI R6 Frame(CFA_Y, -4)
          CFI R7 Frame(CFA_Y, -3)
          CFI R8 Frame(CFA_Y, -2)
          CFI R9 Frame(CFA_Y, -1)
          CFI CFA_SP SP+4
          CFI CFA_Y Y+10
          CFI Block cfiCond67 Using cfiCommon0
          CFI (cfiCond67) Function coding
          CFI (cfiCond67) Conditional ??CrossCallReturnLabel_81
          CFI (cfiCond67) R24 Frame(CFA_Y, -10)
          CFI (cfiCond67) R25 Frame(CFA_Y, -9)
          CFI (cfiCond67) R26 Frame(CFA_Y, -8)
          CFI (cfiCond67) R27 Frame(CFA_Y, -7)
          CFI (cfiCond67) R4 Frame(CFA_Y, -6)
          CFI (cfiCond67) R5 Frame(CFA_Y, -5)
          CFI (cfiCond67) R6 Frame(CFA_Y, -4)
          CFI (cfiCond67) R7 Frame(CFA_Y, -3)
          CFI (cfiCond67) R8 Frame(CFA_Y, -2)
          CFI (cfiCond67) R9 Frame(CFA_Y, -1)
          CFI (cfiCond67) CFA_SP SP+4
          CFI (cfiCond67) CFA_Y Y+10
          CFI Block cfiCond68 Using cfiCommon0
          CFI (cfiCond68) Function coding
          CFI (cfiCond68) Conditional ??CrossCallReturnLabel_82
          CFI (cfiCond68) R24 Frame(CFA_Y, -10)
          CFI (cfiCond68) R25 Frame(CFA_Y, -9)
          CFI (cfiCond68) R26 Frame(CFA_Y, -8)
          CFI (cfiCond68) R27 Frame(CFA_Y, -7)
          CFI (cfiCond68) R4 Frame(CFA_Y, -6)
          CFI (cfiCond68) R5 Frame(CFA_Y, -5)
          CFI (cfiCond68) R6 Frame(CFA_Y, -4)
          CFI (cfiCond68) R7 Frame(CFA_Y, -3)
          CFI (cfiCond68) R8 Frame(CFA_Y, -2)
          CFI (cfiCond68) R9 Frame(CFA_Y, -1)
          CFI (cfiCond68) CFA_SP SP+4
          CFI (cfiCond68) CFA_Y Y+10
          CFI Block cfiPicker69 Using cfiCommon2
          CFI (cfiPicker69) NoFunction
          CFI (cfiPicker69) Picker
        LDI     R22, 64
        RJMP    ?F_CMP_LT_L04
          CFI EndBlock cfiCond66
          CFI EndBlock cfiCond67
          CFI EndBlock cfiCond68
          CFI EndBlock cfiPicker69

        RSEG CODE:CODE:NOROOT(1)
?Subroutine53:
          CFI Block cfiCond70 Using cfiCommon0
          CFI Function coding
          CFI Conditional ??CrossCallReturnLabel_73
          CFI R24 Frame(CFA_Y, -10)
          CFI R25 Frame(CFA_Y, -9)
          CFI R26 Frame(CFA_Y, -8)
          CFI R27 Frame(CFA_Y, -7)
          CFI R4 Frame(CFA_Y, -6)
          CFI R5 Frame(CFA_Y, -5)
          CFI R6 Frame(CFA_Y, -4)
          CFI R7 Frame(CFA_Y, -3)
          CFI R8 Frame(CFA_Y, -2)
          CFI R9 Frame(CFA_Y, -1)
          CFI CFA_SP SP+4
          CFI CFA_Y Y+10
          CFI Block cfiCond71 Using cfiCommon0
          CFI (cfiCond71) Function coding
          CFI (cfiCond71) Conditional ??CrossCallReturnLabel_74
          CFI (cfiCond71) R24 Frame(CFA_Y, -10)
          CFI (cfiCond71) R25 Frame(CFA_Y, -9)
          CFI (cfiCond71) R26 Frame(CFA_Y, -8)
          CFI (cfiCond71) R27 Frame(CFA_Y, -7)
          CFI (cfiCond71) R4 Frame(CFA_Y, -6)
          CFI (cfiCond71) R5 Frame(CFA_Y, -5)
          CFI (cfiCond71) R6 Frame(CFA_Y, -4)
          CFI (cfiCond71) R7 Frame(CFA_Y, -3)
          CFI (cfiCond71) R8 Frame(CFA_Y, -2)
          CFI (cfiCond71) R9 Frame(CFA_Y, -1)
          CFI (cfiCond71) CFA_SP SP+4
          CFI (cfiCond71) CFA_Y Y+10
          CFI Block cfiCond72 Using cfiCommon0
          CFI (cfiCond72) Function coding
          CFI (cfiCond72) Conditional ??CrossCallReturnLabel_75
          CFI (cfiCond72) R24 Frame(CFA_Y, -10)
          CFI (cfiCond72) R25 Frame(CFA_Y, -9)
          CFI (cfiCond72) R26 Frame(CFA_Y, -8)
          CFI (cfiCond72) R27 Frame(CFA_Y, -7)
          CFI (cfiCond72) R4 Frame(CFA_Y, -6)
          CFI (cfiCond72) R5 Frame(CFA_Y, -5)
          CFI (cfiCond72) R6 Frame(CFA_Y, -4)
          CFI (cfiCond72) R7 Frame(CFA_Y, -3)
          CFI (cfiCond72) R8 Frame(CFA_Y, -2)
          CFI (cfiCond72) R9 Frame(CFA_Y, -1)
          CFI (cfiCond72) CFA_SP SP+4
          CFI (cfiCond72) CFA_Y Y+10
          CFI Block cfiPicker73 Using cfiCommon2
          CFI (cfiPicker73) NoFunction
          CFI (cfiPicker73) Picker
        LDI     R22, 0
        LDI     R23, 64
        RJMP    ?F_CMP_LT_L04
          CFI EndBlock cfiCond70
          CFI EndBlock cfiCond71
          CFI EndBlock cfiCond72
          CFI EndBlock cfiPicker73

        RSEG CODE:CODE:NOROOT(1)
?Subroutine52:
          CFI Block cfiCond74 Using cfiCommon0
          CFI Function coding
          CFI Conditional ??CrossCallReturnLabel_70
          CFI R24 Frame(CFA_Y, -10)
          CFI R25 Frame(CFA_Y, -9)
          CFI R26 Frame(CFA_Y, -8)
          CFI R27 Frame(CFA_Y, -7)
          CFI R4 Frame(CFA_Y, -6)
          CFI R5 Frame(CFA_Y, -5)
          CFI R6 Frame(CFA_Y, -4)
          CFI R7 Frame(CFA_Y, -3)
          CFI R8 Frame(CFA_Y, -2)
          CFI R9 Frame(CFA_Y, -1)
          CFI CFA_SP SP+4
          CFI CFA_Y Y+10
          CFI Block cfiCond75 Using cfiCommon0
          CFI (cfiCond75) Function coding
          CFI (cfiCond75) Conditional ??CrossCallReturnLabel_71
          CFI (cfiCond75) R24 Frame(CFA_Y, -10)
          CFI (cfiCond75) R25 Frame(CFA_Y, -9)
          CFI (cfiCond75) R26 Frame(CFA_Y, -8)
          CFI (cfiCond75) R27 Frame(CFA_Y, -7)
          CFI (cfiCond75) R4 Frame(CFA_Y, -6)
          CFI (cfiCond75) R5 Frame(CFA_Y, -5)
          CFI (cfiCond75) R6 Frame(CFA_Y, -4)
          CFI (cfiCond75) R7 Frame(CFA_Y, -3)
          CFI (cfiCond75) R8 Frame(CFA_Y, -2)
          CFI (cfiCond75) R9 Frame(CFA_Y, -1)
          CFI (cfiCond75) CFA_SP SP+4
          CFI (cfiCond75) CFA_Y Y+10
          CFI Block cfiCond76 Using cfiCommon0
          CFI (cfiCond76) Function coding
          CFI (cfiCond76) Conditional ??CrossCallReturnLabel_72
          CFI (cfiCond76) R24 Frame(CFA_Y, -10)
          CFI (cfiCond76) R25 Frame(CFA_Y, -9)
          CFI (cfiCond76) R26 Frame(CFA_Y, -8)
          CFI (cfiCond76) R27 Frame(CFA_Y, -7)
          CFI (cfiCond76) R4 Frame(CFA_Y, -6)
          CFI (cfiCond76) R5 Frame(CFA_Y, -5)
          CFI (cfiCond76) R6 Frame(CFA_Y, -4)
          CFI (cfiCond76) R7 Frame(CFA_Y, -3)
          CFI (cfiCond76) R8 Frame(CFA_Y, -2)
          CFI (cfiCond76) R9 Frame(CFA_Y, -1)
          CFI (cfiCond76) CFA_SP SP+4
          CFI (cfiCond76) CFA_Y Y+10
          CFI Block cfiPicker77 Using cfiCommon2
          CFI (cfiPicker77) NoFunction
          CFI (cfiPicker77) Picker
        LDI     R20, 0
        LDI     R22, 224
        RJMP    ?F_CMP_LT_L04
          CFI EndBlock cfiCond74
          CFI EndBlock cfiCond75
          CFI EndBlock cfiCond76
          CFI EndBlock cfiPicker77

        RSEG CODE:CODE:NOROOT(1)
?Subroutine51:
          CFI Block cfiCond78 Using cfiCommon0
          CFI Function coding
          CFI Conditional ??CrossCallReturnLabel_67
          CFI R24 Frame(CFA_Y, -10)
          CFI R25 Frame(CFA_Y, -9)
          CFI R26 Frame(CFA_Y, -8)
          CFI R27 Frame(CFA_Y, -7)
          CFI R4 Frame(CFA_Y, -6)
          CFI R5 Frame(CFA_Y, -5)
          CFI R6 Frame(CFA_Y, -4)
          CFI R7 Frame(CFA_Y, -3)
          CFI R8 Frame(CFA_Y, -2)
          CFI R9 Frame(CFA_Y, -1)
          CFI CFA_SP SP+4
          CFI CFA_Y Y+10
          CFI Block cfiCond79 Using cfiCommon0
          CFI (cfiCond79) Function coding
          CFI (cfiCond79) Conditional ??CrossCallReturnLabel_68
          CFI (cfiCond79) R24 Frame(CFA_Y, -10)
          CFI (cfiCond79) R25 Frame(CFA_Y, -9)
          CFI (cfiCond79) R26 Frame(CFA_Y, -8)
          CFI (cfiCond79) R27 Frame(CFA_Y, -7)
          CFI (cfiCond79) R4 Frame(CFA_Y, -6)
          CFI (cfiCond79) R5 Frame(CFA_Y, -5)
          CFI (cfiCond79) R6 Frame(CFA_Y, -4)
          CFI (cfiCond79) R7 Frame(CFA_Y, -3)
          CFI (cfiCond79) R8 Frame(CFA_Y, -2)
          CFI (cfiCond79) R9 Frame(CFA_Y, -1)
          CFI (cfiCond79) CFA_SP SP+4
          CFI (cfiCond79) CFA_Y Y+10
          CFI Block cfiCond80 Using cfiCommon0
          CFI (cfiCond80) Function coding
          CFI (cfiCond80) Conditional ??CrossCallReturnLabel_69
          CFI (cfiCond80) R24 Frame(CFA_Y, -10)
          CFI (cfiCond80) R25 Frame(CFA_Y, -9)
          CFI (cfiCond80) R26 Frame(CFA_Y, -8)
          CFI (cfiCond80) R27 Frame(CFA_Y, -7)
          CFI (cfiCond80) R4 Frame(CFA_Y, -6)
          CFI (cfiCond80) R5 Frame(CFA_Y, -5)
          CFI (cfiCond80) R6 Frame(CFA_Y, -4)
          CFI (cfiCond80) R7 Frame(CFA_Y, -3)
          CFI (cfiCond80) R8 Frame(CFA_Y, -2)
          CFI (cfiCond80) R9 Frame(CFA_Y, -1)
          CFI (cfiCond80) CFA_SP SP+4
          CFI (cfiCond80) CFA_Y Y+10
          CFI Block cfiPicker81 Using cfiCommon2
          CFI (cfiPicker81) NoFunction
          CFI (cfiPicker81) Picker
        LDI     R22, 0
        LDI     R23, 64
        MOVW    R17:R16, R1:R0
        RJMP    ?F_CMP_GE_L04
          CFI EndBlock cfiCond78
          CFI EndBlock cfiCond79
          CFI EndBlock cfiCond80
          CFI EndBlock cfiPicker81

        RSEG CODE:CODE:NOROOT(1)
?Subroutine49:
          CFI Block cfiCond82 Using cfiCommon0
          CFI Function coding
          CFI Conditional ??CrossCallReturnLabel_62
          CFI R24 Frame(CFA_Y, -10)
          CFI R25 Frame(CFA_Y, -9)
          CFI R26 Frame(CFA_Y, -8)
          CFI R27 Frame(CFA_Y, -7)
          CFI R4 Frame(CFA_Y, -6)
          CFI R5 Frame(CFA_Y, -5)
          CFI R6 Frame(CFA_Y, -4)
          CFI R7 Frame(CFA_Y, -3)
          CFI R8 Frame(CFA_Y, -2)
          CFI R9 Frame(CFA_Y, -1)
          CFI CFA_SP SP+4
          CFI CFA_Y Y+10
          CFI Block cfiCond83 Using cfiCommon0
          CFI (cfiCond83) Function coding
          CFI (cfiCond83) Conditional ??CrossCallReturnLabel_63
          CFI (cfiCond83) R24 Frame(CFA_Y, -10)
          CFI (cfiCond83) R25 Frame(CFA_Y, -9)
          CFI (cfiCond83) R26 Frame(CFA_Y, -8)
          CFI (cfiCond83) R27 Frame(CFA_Y, -7)
          CFI (cfiCond83) R4 Frame(CFA_Y, -6)
          CFI (cfiCond83) R5 Frame(CFA_Y, -5)
          CFI (cfiCond83) R6 Frame(CFA_Y, -4)
          CFI (cfiCond83) R7 Frame(CFA_Y, -3)
          CFI (cfiCond83) R8 Frame(CFA_Y, -2)
          CFI (cfiCond83) R9 Frame(CFA_Y, -1)
          CFI (cfiCond83) CFA_SP SP+4
          CFI (cfiCond83) CFA_Y Y+10
          CFI Block cfiCond84 Using cfiCommon0
          CFI (cfiCond84) Function coding
          CFI (cfiCond84) Conditional ??CrossCallReturnLabel_64
          CFI (cfiCond84) R24 Frame(CFA_Y, -10)
          CFI (cfiCond84) R25 Frame(CFA_Y, -9)
          CFI (cfiCond84) R26 Frame(CFA_Y, -8)
          CFI (cfiCond84) R27 Frame(CFA_Y, -7)
          CFI (cfiCond84) R4 Frame(CFA_Y, -6)
          CFI (cfiCond84) R5 Frame(CFA_Y, -5)
          CFI (cfiCond84) R6 Frame(CFA_Y, -4)
          CFI (cfiCond84) R7 Frame(CFA_Y, -3)
          CFI (cfiCond84) R8 Frame(CFA_Y, -2)
          CFI (cfiCond84) R9 Frame(CFA_Y, -1)
          CFI (cfiCond84) CFA_SP SP+4
          CFI (cfiCond84) CFA_Y Y+10
          CFI Block cfiPicker85 Using cfiCommon2
          CFI (cfiPicker85) NoFunction
          CFI (cfiPicker85) Picker
        LDI     R20, 1
        LDI     R22, 160
        RJMP    ?F_CMP_GE_L04
          CFI EndBlock cfiCond82
          CFI EndBlock cfiCond83
          CFI EndBlock cfiCond84
          CFI EndBlock cfiPicker85

        RSEG CODE:CODE:NOROOT(1)
?Subroutine47:
          CFI Block cfiCond86 Using cfiCommon0
          CFI Function coding
          CFI Conditional ??CrossCallReturnLabel_58
          CFI R24 Frame(CFA_Y, -10)
          CFI R25 Frame(CFA_Y, -9)
          CFI R26 Frame(CFA_Y, -8)
          CFI R27 Frame(CFA_Y, -7)
          CFI R4 Frame(CFA_Y, -6)
          CFI R5 Frame(CFA_Y, -5)
          CFI R6 Frame(CFA_Y, -4)
          CFI R7 Frame(CFA_Y, -3)
          CFI R8 Frame(CFA_Y, -2)
          CFI R9 Frame(CFA_Y, -1)
          CFI CFA_SP SP+4
          CFI CFA_Y Y+10
          CFI Block cfiCond87 Using cfiCommon0
          CFI (cfiCond87) Function coding
          CFI (cfiCond87) Conditional ??CrossCallReturnLabel_59
          CFI (cfiCond87) R24 Frame(CFA_Y, -10)
          CFI (cfiCond87) R25 Frame(CFA_Y, -9)
          CFI (cfiCond87) R26 Frame(CFA_Y, -8)
          CFI (cfiCond87) R27 Frame(CFA_Y, -7)
          CFI (cfiCond87) R4 Frame(CFA_Y, -6)
          CFI (cfiCond87) R5 Frame(CFA_Y, -5)
          CFI (cfiCond87) R6 Frame(CFA_Y, -4)
          CFI (cfiCond87) R7 Frame(CFA_Y, -3)
          CFI (cfiCond87) R8 Frame(CFA_Y, -2)
          CFI (cfiCond87) R9 Frame(CFA_Y, -1)
          CFI (cfiCond87) CFA_SP SP+4
          CFI (cfiCond87) CFA_Y Y+10
          CFI Block cfiPicker88 Using cfiCommon2
          CFI (cfiPicker88) NoFunction
          CFI (cfiPicker88) Picker
        RCALL   ?Subroutine97
??CrossCallReturnLabel_193:
        RJMP    ?Subroutine113
          CFI EndBlock cfiCond86
          CFI EndBlock cfiCond87
          CFI EndBlock cfiPicker88

        RSEG CODE:CODE:NOROOT(1)
?Subroutine38:
          CFI Block cfiCond89 Using cfiCommon0
          CFI Function coding
          CFI Conditional ??CrossCallReturnLabel_286
          CFI R24 Frame(CFA_Y, -10)
          CFI R25 Frame(CFA_Y, -9)
          CFI R26 Frame(CFA_Y, -8)
          CFI R27 Frame(CFA_Y, -7)
          CFI R4 Frame(CFA_Y, -6)
          CFI R5 Frame(CFA_Y, -5)
          CFI R6 Frame(CFA_Y, -4)
          CFI R7 Frame(CFA_Y, -3)
          CFI R8 Frame(CFA_Y, -2)
          CFI R9 Frame(CFA_Y, -1)
          CFI CFA_SP SP+4
          CFI CFA_Y Y+10
          CFI Block cfiCond90 Using cfiCommon0
          CFI (cfiCond90) Function coding
          CFI (cfiCond90) Conditional ??CrossCallReturnLabel_287
          CFI (cfiCond90) R24 Frame(CFA_Y, -10)
          CFI (cfiCond90) R25 Frame(CFA_Y, -9)
          CFI (cfiCond90) R26 Frame(CFA_Y, -8)
          CFI (cfiCond90) R27 Frame(CFA_Y, -7)
          CFI (cfiCond90) R4 Frame(CFA_Y, -6)
          CFI (cfiCond90) R5 Frame(CFA_Y, -5)
          CFI (cfiCond90) R6 Frame(CFA_Y, -4)
          CFI (cfiCond90) R7 Frame(CFA_Y, -3)
          CFI (cfiCond90) R8 Frame(CFA_Y, -2)
          CFI (cfiCond90) R9 Frame(CFA_Y, -1)
          CFI (cfiCond90) CFA_SP SP+4
          CFI (cfiCond90) CFA_Y Y+10
          CFI Block cfiPicker91 Using cfiCommon2
          CFI (cfiPicker91) NoFunction
          CFI (cfiPicker91) Picker
        LDI     R30, LOW(c3)
        LDI     R31, (c3) >> 8
          CFI EndBlock cfiCond89
          CFI EndBlock cfiCond90
          CFI EndBlock cfiPicker91
        REQUIRE ??Subroutine125_0
        ;               // Fall through to label ??Subroutine125_0

        RSEG CODE:CODE:NOROOT(1)
??Subroutine125_0:
          CFI Block cfiCond92 Using cfiCommon0
          CFI Function coding
          CFI Conditional ??CrossCallReturnLabel_284
          CFI R24 Frame(CFA_Y, -10)
          CFI R25 Frame(CFA_Y, -9)
          CFI R26 Frame(CFA_Y, -8)
          CFI R27 Frame(CFA_Y, -7)
          CFI R4 Frame(CFA_Y, -6)
          CFI R5 Frame(CFA_Y, -5)
          CFI R6 Frame(CFA_Y, -4)
          CFI R7 Frame(CFA_Y, -3)
          CFI R8 Frame(CFA_Y, -2)
          CFI R9 Frame(CFA_Y, -1)
          CFI CFA_SP SP+4
          CFI CFA_Y Y+10
          CFI Block cfiCond93 Using cfiCommon0
          CFI (cfiCond93) Function coding
          CFI (cfiCond93) Conditional ??CrossCallReturnLabel_285
          CFI (cfiCond93) R24 Frame(CFA_Y, -10)
          CFI (cfiCond93) R25 Frame(CFA_Y, -9)
          CFI (cfiCond93) R26 Frame(CFA_Y, -8)
          CFI (cfiCond93) R27 Frame(CFA_Y, -7)
          CFI (cfiCond93) R4 Frame(CFA_Y, -6)
          CFI (cfiCond93) R5 Frame(CFA_Y, -5)
          CFI (cfiCond93) R6 Frame(CFA_Y, -4)
          CFI (cfiCond93) R7 Frame(CFA_Y, -3)
          CFI (cfiCond93) R8 Frame(CFA_Y, -2)
          CFI (cfiCond93) R9 Frame(CFA_Y, -1)
          CFI (cfiCond93) CFA_SP SP+4
          CFI (cfiCond93) CFA_Y Y+10
          CFI Block cfiCond94 Using cfiCommon0
          CFI (cfiCond94) Function coding
          CFI (cfiCond94) Conditional ??CrossCallReturnLabel_286
          CFI (cfiCond94) R24 Frame(CFA_Y, -10)
          CFI (cfiCond94) R25 Frame(CFA_Y, -9)
          CFI (cfiCond94) R26 Frame(CFA_Y, -8)
          CFI (cfiCond94) R27 Frame(CFA_Y, -7)
          CFI (cfiCond94) R4 Frame(CFA_Y, -6)
          CFI (cfiCond94) R5 Frame(CFA_Y, -5)
          CFI (cfiCond94) R6 Frame(CFA_Y, -4)
          CFI (cfiCond94) R7 Frame(CFA_Y, -3)
          CFI (cfiCond94) R8 Frame(CFA_Y, -2)
          CFI (cfiCond94) R9 Frame(CFA_Y, -1)
          CFI (cfiCond94) CFA_SP SP+4
          CFI (cfiCond94) CFA_Y Y+10
          CFI Block cfiCond95 Using cfiCommon0
          CFI (cfiCond95) Function coding
          CFI (cfiCond95) Conditional ??CrossCallReturnLabel_287
          CFI (cfiCond95) R24 Frame(CFA_Y, -10)
          CFI (cfiCond95) R25 Frame(CFA_Y, -9)
          CFI (cfiCond95) R26 Frame(CFA_Y, -8)
          CFI (cfiCond95) R27 Frame(CFA_Y, -7)
          CFI (cfiCond95) R4 Frame(CFA_Y, -6)
          CFI (cfiCond95) R5 Frame(CFA_Y, -5)
          CFI (cfiCond95) R6 Frame(CFA_Y, -4)
          CFI (cfiCond95) R7 Frame(CFA_Y, -3)
          CFI (cfiCond95) R8 Frame(CFA_Y, -2)
          CFI (cfiCond95) R9 Frame(CFA_Y, -1)
          CFI (cfiCond95) CFA_SP SP+4
          CFI (cfiCond95) CFA_Y Y+10
          CFI Block cfiPicker96 Using cfiCommon2
          CFI (cfiPicker96) NoFunction
          CFI (cfiPicker96) Picker
        LD      R16, Z
        SUBI    R16, 254
        RET
          CFI EndBlock cfiCond92
          CFI EndBlock cfiCond93
          CFI EndBlock cfiCond94
          CFI EndBlock cfiCond95
          CFI EndBlock cfiPicker96

        RSEG CODE:CODE:NOROOT(1)
?Subroutine33:
          CFI Block cfiCond97 Using cfiCommon0
          CFI Function coding
          CFI Conditional ??CrossCallReturnLabel_200
          CFI R24 Frame(CFA_Y, -10)
          CFI R25 Frame(CFA_Y, -9)
          CFI R26 Frame(CFA_Y, -8)
          CFI R27 Frame(CFA_Y, -7)
          CFI R4 Frame(CFA_Y, -6)
          CFI R5 Frame(CFA_Y, -5)
          CFI R6 Frame(CFA_Y, -4)
          CFI R7 Frame(CFA_Y, -3)
          CFI R8 Frame(CFA_Y, -2)
          CFI R9 Frame(CFA_Y, -1)
          CFI CFA_SP SP+4
          CFI CFA_Y Y+10
          CFI Block cfiCond98 Using cfiCommon0
          CFI (cfiCond98) Function coding
          CFI (cfiCond98) Conditional ??CrossCallReturnLabel_201
          CFI (cfiCond98) R24 Frame(CFA_Y, -10)
          CFI (cfiCond98) R25 Frame(CFA_Y, -9)
          CFI (cfiCond98) R26 Frame(CFA_Y, -8)
          CFI (cfiCond98) R27 Frame(CFA_Y, -7)
          CFI (cfiCond98) R4 Frame(CFA_Y, -6)
          CFI (cfiCond98) R5 Frame(CFA_Y, -5)
          CFI (cfiCond98) R6 Frame(CFA_Y, -4)
          CFI (cfiCond98) R7 Frame(CFA_Y, -3)
          CFI (cfiCond98) R8 Frame(CFA_Y, -2)
          CFI (cfiCond98) R9 Frame(CFA_Y, -1)
          CFI (cfiCond98) CFA_SP SP+4
          CFI (cfiCond98) CFA_Y Y+10
          CFI Block cfiPicker99 Using cfiCommon2
          CFI (cfiPicker99) NoFunction
          CFI (cfiPicker99) Picker
        RCALL   ?Subroutine95
          CFI EndBlock cfiCond97
          CFI EndBlock cfiCond98
          CFI EndBlock cfiPicker99
??CrossCallReturnLabel_187:
        REQUIRE ?Subroutine99
        ;               // Fall through to label ?Subroutine99

        RSEG CODE:CODE:NOROOT(1)
?Subroutine99:
          CFI Block cfiCond100 Using cfiCommon0
          CFI Function coding
          CFI Conditional ??CrossCallReturnLabel_199
          CFI R24 Frame(CFA_Y, -10)
          CFI R25 Frame(CFA_Y, -9)
          CFI R26 Frame(CFA_Y, -8)
          CFI R27 Frame(CFA_Y, -7)
          CFI R4 Frame(CFA_Y, -6)
          CFI R5 Frame(CFA_Y, -5)
          CFI R6 Frame(CFA_Y, -4)
          CFI R7 Frame(CFA_Y, -3)
          CFI R8 Frame(CFA_Y, -2)
          CFI R9 Frame(CFA_Y, -1)
          CFI CFA_SP SP+4
          CFI CFA_Y Y+10
          CFI Block cfiCond101 Using cfiCommon0
          CFI (cfiCond101) Function coding
          CFI (cfiCond101) Conditional ??CrossCallReturnLabel_200
          CFI (cfiCond101) R24 Frame(CFA_Y, -10)
          CFI (cfiCond101) R25 Frame(CFA_Y, -9)
          CFI (cfiCond101) R26 Frame(CFA_Y, -8)
          CFI (cfiCond101) R27 Frame(CFA_Y, -7)
          CFI (cfiCond101) R4 Frame(CFA_Y, -6)
          CFI (cfiCond101) R5 Frame(CFA_Y, -5)
          CFI (cfiCond101) R6 Frame(CFA_Y, -4)
          CFI (cfiCond101) R7 Frame(CFA_Y, -3)
          CFI (cfiCond101) R8 Frame(CFA_Y, -2)
          CFI (cfiCond101) R9 Frame(CFA_Y, -1)
          CFI (cfiCond101) CFA_SP SP+4
          CFI (cfiCond101) CFA_Y Y+10
          CFI Block cfiCond102 Using cfiCommon0
          CFI (cfiCond102) Function coding
          CFI (cfiCond102) Conditional ??CrossCallReturnLabel_201
          CFI (cfiCond102) R24 Frame(CFA_Y, -10)
          CFI (cfiCond102) R25 Frame(CFA_Y, -9)
          CFI (cfiCond102) R26 Frame(CFA_Y, -8)
          CFI (cfiCond102) R27 Frame(CFA_Y, -7)
          CFI (cfiCond102) R4 Frame(CFA_Y, -6)
          CFI (cfiCond102) R5 Frame(CFA_Y, -5)
          CFI (cfiCond102) R6 Frame(CFA_Y, -4)
          CFI (cfiCond102) R7 Frame(CFA_Y, -3)
          CFI (cfiCond102) R8 Frame(CFA_Y, -2)
          CFI (cfiCond102) R9 Frame(CFA_Y, -1)
          CFI (cfiCond102) CFA_SP SP+4
          CFI (cfiCond102) CFA_Y Y+10
          CFI Block cfiPicker103 Using cfiCommon2
          CFI (cfiPicker103) NoFunction
          CFI (cfiPicker103) Picker
        LSL     R16
        ROL     R17
        LSL     R16
        ROL     R17
        RET
          CFI EndBlock cfiCond100
          CFI EndBlock cfiCond101
          CFI EndBlock cfiCond102
          CFI EndBlock cfiPicker103

        RSEG CODE:CODE:NOROOT(1)
?Subroutine94:
          CFI Block cfiCond104 Using cfiCommon0
          CFI Function coding
          CFI Conditional ??CrossCallReturnLabel_174
          CFI R24 Frame(CFA_Y, -10)
          CFI R25 Frame(CFA_Y, -9)
          CFI R26 Frame(CFA_Y, -8)
          CFI R27 Frame(CFA_Y, -7)
          CFI R4 Frame(CFA_Y, -6)
          CFI R5 Frame(CFA_Y, -5)
          CFI R6 Frame(CFA_Y, -4)
          CFI R7 Frame(CFA_Y, -3)
          CFI R8 Frame(CFA_Y, -2)
          CFI R9 Frame(CFA_Y, -1)
          CFI CFA_SP SP+4
          CFI CFA_Y Y+10
          CFI Block cfiCond105 Using cfiCommon0
          CFI (cfiCond105) Function coding
          CFI (cfiCond105) Conditional ??CrossCallReturnLabel_175
          CFI (cfiCond105) R24 Frame(CFA_Y, -10)
          CFI (cfiCond105) R25 Frame(CFA_Y, -9)
          CFI (cfiCond105) R26 Frame(CFA_Y, -8)
          CFI (cfiCond105) R27 Frame(CFA_Y, -7)
          CFI (cfiCond105) R4 Frame(CFA_Y, -6)
          CFI (cfiCond105) R5 Frame(CFA_Y, -5)
          CFI (cfiCond105) R6 Frame(CFA_Y, -4)
          CFI (cfiCond105) R7 Frame(CFA_Y, -3)
          CFI (cfiCond105) R8 Frame(CFA_Y, -2)
          CFI (cfiCond105) R9 Frame(CFA_Y, -1)
          CFI (cfiCond105) CFA_SP SP+4
          CFI (cfiCond105) CFA_Y Y+10
          CFI Block cfiCond106 Using cfiCommon0
          CFI (cfiCond106) Function coding
          CFI (cfiCond106) Conditional ??CrossCallReturnLabel_176
          CFI (cfiCond106) R24 Frame(CFA_Y, -10)
          CFI (cfiCond106) R25 Frame(CFA_Y, -9)
          CFI (cfiCond106) R26 Frame(CFA_Y, -8)
          CFI (cfiCond106) R27 Frame(CFA_Y, -7)
          CFI (cfiCond106) R4 Frame(CFA_Y, -6)
          CFI (cfiCond106) R5 Frame(CFA_Y, -5)
          CFI (cfiCond106) R6 Frame(CFA_Y, -4)
          CFI (cfiCond106) R7 Frame(CFA_Y, -3)
          CFI (cfiCond106) R8 Frame(CFA_Y, -2)
          CFI (cfiCond106) R9 Frame(CFA_Y, -1)
          CFI (cfiCond106) CFA_SP SP+4
          CFI (cfiCond106) CFA_Y Y+10
          CFI Block cfiCond107 Using cfiCommon0
          CFI (cfiCond107) Function coding
          CFI (cfiCond107) Conditional ??CrossCallReturnLabel_177, ??CrossCallReturnLabel_41
          CFI (cfiCond107) R24 Frame(CFA_Y, -10)
          CFI (cfiCond107) R25 Frame(CFA_Y, -9)
          CFI (cfiCond107) R26 Frame(CFA_Y, -8)
          CFI (cfiCond107) R27 Frame(CFA_Y, -7)
          CFI (cfiCond107) R4 Frame(CFA_Y, -6)
          CFI (cfiCond107) R5 Frame(CFA_Y, -5)
          CFI (cfiCond107) R6 Frame(CFA_Y, -4)
          CFI (cfiCond107) R7 Frame(CFA_Y, -3)
          CFI (cfiCond107) R8 Frame(CFA_Y, -2)
          CFI (cfiCond107) R9 Frame(CFA_Y, -1)
          CFI (cfiCond107) CFA_SP SP+6
          CFI (cfiCond107) CFA_Y Y+10
          CFI Block cfiCond108 Using cfiCommon0
          CFI (cfiCond108) Function coding
          CFI (cfiCond108) Conditional ??CrossCallReturnLabel_177, ??CrossCallReturnLabel_42
          CFI (cfiCond108) R24 Frame(CFA_Y, -10)
          CFI (cfiCond108) R25 Frame(CFA_Y, -9)
          CFI (cfiCond108) R26 Frame(CFA_Y, -8)
          CFI (cfiCond108) R27 Frame(CFA_Y, -7)
          CFI (cfiCond108) R4 Frame(CFA_Y, -6)
          CFI (cfiCond108) R5 Frame(CFA_Y, -5)
          CFI (cfiCond108) R6 Frame(CFA_Y, -4)
          CFI (cfiCond108) R7 Frame(CFA_Y, -3)
          CFI (cfiCond108) R8 Frame(CFA_Y, -2)
          CFI (cfiCond108) R9 Frame(CFA_Y, -1)
          CFI (cfiCond108) CFA_SP SP+6
          CFI (cfiCond108) CFA_Y Y+10
          CFI Block cfiCond109 Using cfiCommon0
          CFI (cfiCond109) Function coding
          CFI (cfiCond109) Conditional ??CrossCallReturnLabel_177, ??CrossCallReturnLabel_43
          CFI (cfiCond109) R24 Frame(CFA_Y, -10)
          CFI (cfiCond109) R25 Frame(CFA_Y, -9)
          CFI (cfiCond109) R26 Frame(CFA_Y, -8)
          CFI (cfiCond109) R27 Frame(CFA_Y, -7)
          CFI (cfiCond109) R4 Frame(CFA_Y, -6)
          CFI (cfiCond109) R5 Frame(CFA_Y, -5)
          CFI (cfiCond109) R6 Frame(CFA_Y, -4)
          CFI (cfiCond109) R7 Frame(CFA_Y, -3)
          CFI (cfiCond109) R8 Frame(CFA_Y, -2)
          CFI (cfiCond109) R9 Frame(CFA_Y, -1)
          CFI (cfiCond109) CFA_SP SP+6
          CFI (cfiCond109) CFA_Y Y+10
          CFI Block cfiPicker110 Using cfiCommon2
          CFI (cfiPicker110) NoFunction
          CFI (cfiPicker110) Picker
        LD      R16, Z
        LDD     R17, Z+1
        OR      R16, R8
        OR      R17, R9
        RET
          CFI EndBlock cfiCond104
          CFI EndBlock cfiCond105
          CFI EndBlock cfiCond106
          CFI EndBlock cfiCond107
          CFI EndBlock cfiCond108
          CFI EndBlock cfiCond109
          CFI EndBlock cfiPicker110

        RSEG CODE:CODE:NOROOT(1)
?Subroutine31:
          CFI Block cfiCond111 Using cfiCommon0
          CFI Function coding
          CFI Conditional ??CrossCallReturnLabel_44
          CFI R24 Frame(CFA_Y, -10)
          CFI R25 Frame(CFA_Y, -9)
          CFI R26 Frame(CFA_Y, -8)
          CFI R27 Frame(CFA_Y, -7)
          CFI R4 Frame(CFA_Y, -6)
          CFI R5 Frame(CFA_Y, -5)
          CFI R6 Frame(CFA_Y, -4)
          CFI R7 Frame(CFA_Y, -3)
          CFI R8 Frame(CFA_Y, -2)
          CFI R9 Frame(CFA_Y, -1)
          CFI CFA_SP SP+4
          CFI CFA_Y Y+10
          CFI Block cfiCond112 Using cfiCommon0
          CFI (cfiCond112) Function coding
          CFI (cfiCond112) Conditional ??CrossCallReturnLabel_45
          CFI (cfiCond112) R24 Frame(CFA_Y, -10)
          CFI (cfiCond112) R25 Frame(CFA_Y, -9)
          CFI (cfiCond112) R26 Frame(CFA_Y, -8)
          CFI (cfiCond112) R27 Frame(CFA_Y, -7)
          CFI (cfiCond112) R4 Frame(CFA_Y, -6)
          CFI (cfiCond112) R5 Frame(CFA_Y, -5)
          CFI (cfiCond112) R6 Frame(CFA_Y, -4)
          CFI (cfiCond112) R7 Frame(CFA_Y, -3)
          CFI (cfiCond112) R8 Frame(CFA_Y, -2)
          CFI (cfiCond112) R9 Frame(CFA_Y, -1)
          CFI (cfiCond112) CFA_SP SP+4
          CFI (cfiCond112) CFA_Y Y+10
          CFI Block cfiCond113 Using cfiCommon0
          CFI (cfiCond113) Function coding
          CFI (cfiCond113) Conditional ??CrossCallReturnLabel_46
          CFI (cfiCond113) R24 Frame(CFA_Y, -10)
          CFI (cfiCond113) R25 Frame(CFA_Y, -9)
          CFI (cfiCond113) R26 Frame(CFA_Y, -8)
          CFI (cfiCond113) R27 Frame(CFA_Y, -7)
          CFI (cfiCond113) R4 Frame(CFA_Y, -6)
          CFI (cfiCond113) R5 Frame(CFA_Y, -5)
          CFI (cfiCond113) R6 Frame(CFA_Y, -4)
          CFI (cfiCond113) R7 Frame(CFA_Y, -3)
          CFI (cfiCond113) R8 Frame(CFA_Y, -2)
          CFI (cfiCond113) R9 Frame(CFA_Y, -1)
          CFI (cfiCond113) CFA_SP SP+4
          CFI (cfiCond113) CFA_Y Y+10
          CFI Block cfiPicker114 Using cfiCommon2
          CFI (cfiPicker114) NoFunction
          CFI (cfiPicker114) Picker
        RCALL   ?Subroutine92
??CrossCallReturnLabel_311:
        CPI     R16, 16
        RET
          CFI EndBlock cfiCond111
          CFI EndBlock cfiCond112
          CFI EndBlock cfiCond113
          CFI EndBlock cfiPicker114

        RSEG CODE:CODE:NOROOT(1)
?Subroutine29:
          CFI Block cfiCond115 Using cfiCommon0
          CFI Function coding
          CFI Conditional ??CrossCallReturnLabel_41
          CFI R24 Frame(CFA_Y, -10)
          CFI R25 Frame(CFA_Y, -9)
          CFI R26 Frame(CFA_Y, -8)
          CFI R27 Frame(CFA_Y, -7)
          CFI R4 Frame(CFA_Y, -6)
          CFI R5 Frame(CFA_Y, -5)
          CFI R6 Frame(CFA_Y, -4)
          CFI R7 Frame(CFA_Y, -3)
          CFI R8 Frame(CFA_Y, -2)
          CFI R9 Frame(CFA_Y, -1)
          CFI CFA_SP SP+4
          CFI CFA_Y Y+10
          CFI Block cfiCond116 Using cfiCommon0
          CFI (cfiCond116) Function coding
          CFI (cfiCond116) Conditional ??CrossCallReturnLabel_42
          CFI (cfiCond116) R24 Frame(CFA_Y, -10)
          CFI (cfiCond116) R25 Frame(CFA_Y, -9)
          CFI (cfiCond116) R26 Frame(CFA_Y, -8)
          CFI (cfiCond116) R27 Frame(CFA_Y, -7)
          CFI (cfiCond116) R4 Frame(CFA_Y, -6)
          CFI (cfiCond116) R5 Frame(CFA_Y, -5)
          CFI (cfiCond116) R6 Frame(CFA_Y, -4)
          CFI (cfiCond116) R7 Frame(CFA_Y, -3)
          CFI (cfiCond116) R8 Frame(CFA_Y, -2)
          CFI (cfiCond116) R9 Frame(CFA_Y, -1)
          CFI (cfiCond116) CFA_SP SP+4
          CFI (cfiCond116) CFA_Y Y+10
          CFI Block cfiCond117 Using cfiCommon0
          CFI (cfiCond117) Function coding
          CFI (cfiCond117) Conditional ??CrossCallReturnLabel_43
          CFI (cfiCond117) R24 Frame(CFA_Y, -10)
          CFI (cfiCond117) R25 Frame(CFA_Y, -9)
          CFI (cfiCond117) R26 Frame(CFA_Y, -8)
          CFI (cfiCond117) R27 Frame(CFA_Y, -7)
          CFI (cfiCond117) R4 Frame(CFA_Y, -6)
          CFI (cfiCond117) R5 Frame(CFA_Y, -5)
          CFI (cfiCond117) R6 Frame(CFA_Y, -4)
          CFI (cfiCond117) R7 Frame(CFA_Y, -3)
          CFI (cfiCond117) R8 Frame(CFA_Y, -2)
          CFI (cfiCond117) R9 Frame(CFA_Y, -1)
          CFI (cfiCond117) CFA_SP SP+4
          CFI (cfiCond117) CFA_Y Y+10
          CFI Block cfiPicker118 Using cfiCommon2
          CFI (cfiPicker118) NoFunction
          CFI (cfiPicker118) Picker
        RCALL   ?Subroutine94
??CrossCallReturnLabel_177:
        ADD     R16, R4
        ADC     R17, R5
        RET
          CFI EndBlock cfiCond115
          CFI EndBlock cfiCond116
          CFI EndBlock cfiCond117
          CFI EndBlock cfiPicker118

        RSEG CODE:CODE:NOROOT(1)
?Subroutine28:
          CFI Block cfiCond119 Using cfiCommon0
          CFI Function PEREP
          CFI Conditional ??CrossCallReturnLabel_302
          CFI R24 Frame(CFA_Y, -8)
          CFI R25 Frame(CFA_Y, -7)
          CFI R26 Frame(CFA_Y, -6)
          CFI R27 Frame(CFA_Y, -5)
          CFI R4 Frame(CFA_Y, -4)
          CFI R5 Frame(CFA_Y, -3)
          CFI R6 Frame(CFA_Y, -2)
          CFI R7 Frame(CFA_Y, -1)
          CFI CFA_SP SP+4
          CFI CFA_Y Y+8
          CFI Block cfiCond120 Using cfiCommon0
          CFI (cfiCond120) Function coding
          CFI (cfiCond120) Conditional ??CrossCallReturnLabel_301
          CFI (cfiCond120) R24 Frame(CFA_Y, -10)
          CFI (cfiCond120) R25 Frame(CFA_Y, -9)
          CFI (cfiCond120) R26 Frame(CFA_Y, -8)
          CFI (cfiCond120) R27 Frame(CFA_Y, -7)
          CFI (cfiCond120) R4 Frame(CFA_Y, -6)
          CFI (cfiCond120) R5 Frame(CFA_Y, -5)
          CFI (cfiCond120) R6 Frame(CFA_Y, -4)
          CFI (cfiCond120) R7 Frame(CFA_Y, -3)
          CFI (cfiCond120) R8 Frame(CFA_Y, -2)
          CFI (cfiCond120) R9 Frame(CFA_Y, -1)
          CFI (cfiCond120) CFA_SP SP+4
          CFI (cfiCond120) CFA_Y Y+10
          CFI Block cfiPicker121 Using cfiCommon2
          CFI (cfiPicker121) NoFunction
          CFI (cfiPicker121) Picker
        RCALL   rprintfStr
        RCALL   ?Subroutine102
          CFI EndBlock cfiCond119
          CFI EndBlock cfiCond120
          CFI EndBlock cfiPicker121
??CrossCallReturnLabel_216:
        REQUIRE ?Subroutine122
        REQUIRE ??Subroutine126_0
        ;               // Fall through to label ??Subroutine126_0

        RSEG CODE:CODE:NOROOT(1)
??Subroutine126_0:
          CFI Block cfiCond122 Using cfiCommon0
          CFI Function PEREP
          CFI Conditional ??CrossCallReturnLabel_300
          CFI R24 Frame(CFA_Y, -8)
          CFI R25 Frame(CFA_Y, -7)
          CFI R26 Frame(CFA_Y, -6)
          CFI R27 Frame(CFA_Y, -5)
          CFI R4 Frame(CFA_Y, -4)
          CFI R5 Frame(CFA_Y, -3)
          CFI R6 Frame(CFA_Y, -2)
          CFI R7 Frame(CFA_Y, -1)
          CFI CFA_SP SP+4
          CFI CFA_Y Y+8
          CFI Block cfiCond123 Using cfiCommon0
          CFI (cfiCond123) Function PEREP
          CFI (cfiCond123) Conditional ??CrossCallReturnLabel_299
          CFI (cfiCond123) R24 Frame(CFA_Y, -8)
          CFI (cfiCond123) R25 Frame(CFA_Y, -7)
          CFI (cfiCond123) R26 Frame(CFA_Y, -6)
          CFI (cfiCond123) R27 Frame(CFA_Y, -5)
          CFI (cfiCond123) R4 Frame(CFA_Y, -4)
          CFI (cfiCond123) R5 Frame(CFA_Y, -3)
          CFI (cfiCond123) R6 Frame(CFA_Y, -2)
          CFI (cfiCond123) R7 Frame(CFA_Y, -1)
          CFI (cfiCond123) CFA_SP SP+4
          CFI (cfiCond123) CFA_Y Y+8
          CFI Block cfiCond124 Using cfiCommon0
          CFI (cfiCond124) Function coding
          CFI (cfiCond124) Conditional ??CrossCallReturnLabel_298
          CFI (cfiCond124) R24 Frame(CFA_Y, -10)
          CFI (cfiCond124) R25 Frame(CFA_Y, -9)
          CFI (cfiCond124) R26 Frame(CFA_Y, -8)
          CFI (cfiCond124) R27 Frame(CFA_Y, -7)
          CFI (cfiCond124) R4 Frame(CFA_Y, -6)
          CFI (cfiCond124) R5 Frame(CFA_Y, -5)
          CFI (cfiCond124) R6 Frame(CFA_Y, -4)
          CFI (cfiCond124) R7 Frame(CFA_Y, -3)
          CFI (cfiCond124) R8 Frame(CFA_Y, -2)
          CFI (cfiCond124) R9 Frame(CFA_Y, -1)
          CFI (cfiCond124) CFA_SP SP+4
          CFI (cfiCond124) CFA_Y Y+10
          CFI Block cfiCond125 Using cfiCommon0
          CFI (cfiCond125) Function coding
          CFI (cfiCond125) Conditional ??CrossCallReturnLabel_297
          CFI (cfiCond125) R24 Frame(CFA_Y, -10)
          CFI (cfiCond125) R25 Frame(CFA_Y, -9)
          CFI (cfiCond125) R26 Frame(CFA_Y, -8)
          CFI (cfiCond125) R27 Frame(CFA_Y, -7)
          CFI (cfiCond125) R4 Frame(CFA_Y, -6)
          CFI (cfiCond125) R5 Frame(CFA_Y, -5)
          CFI (cfiCond125) R6 Frame(CFA_Y, -4)
          CFI (cfiCond125) R7 Frame(CFA_Y, -3)
          CFI (cfiCond125) R8 Frame(CFA_Y, -2)
          CFI (cfiCond125) R9 Frame(CFA_Y, -1)
          CFI (cfiCond125) CFA_SP SP+4
          CFI (cfiCond125) CFA_Y Y+10
          CFI Block cfiCond126 Using cfiCommon0
          CFI (cfiCond126) Function PEREP
          CFI (cfiCond126) Conditional ??CrossCallReturnLabel_302
          CFI (cfiCond126) R24 Frame(CFA_Y, -8)
          CFI (cfiCond126) R25 Frame(CFA_Y, -7)
          CFI (cfiCond126) R26 Frame(CFA_Y, -6)
          CFI (cfiCond126) R27 Frame(CFA_Y, -5)
          CFI (cfiCond126) R4 Frame(CFA_Y, -4)
          CFI (cfiCond126) R5 Frame(CFA_Y, -3)
          CFI (cfiCond126) R6 Frame(CFA_Y, -2)
          CFI (cfiCond126) R7 Frame(CFA_Y, -1)
          CFI (cfiCond126) CFA_SP SP+4
          CFI (cfiCond126) CFA_Y Y+8
          CFI Block cfiCond127 Using cfiCommon0
          CFI (cfiCond127) Function coding
          CFI (cfiCond127) Conditional ??CrossCallReturnLabel_301
          CFI (cfiCond127) R24 Frame(CFA_Y, -10)
          CFI (cfiCond127) R25 Frame(CFA_Y, -9)
          CFI (cfiCond127) R26 Frame(CFA_Y, -8)
          CFI (cfiCond127) R27 Frame(CFA_Y, -7)
          CFI (cfiCond127) R4 Frame(CFA_Y, -6)
          CFI (cfiCond127) R5 Frame(CFA_Y, -5)
          CFI (cfiCond127) R6 Frame(CFA_Y, -4)
          CFI (cfiCond127) R7 Frame(CFA_Y, -3)
          CFI (cfiCond127) R8 Frame(CFA_Y, -2)
          CFI (cfiCond127) R9 Frame(CFA_Y, -1)
          CFI (cfiCond127) CFA_SP SP+4
          CFI (cfiCond127) CFA_Y Y+10
          CFI Block cfiPicker128 Using cfiCommon2
          CFI (cfiPicker128) NoFunction
          CFI (cfiPicker128) Picker
        RCALL   ?Subroutine91
          CFI EndBlock cfiCond122
          CFI EndBlock cfiCond123
          CFI EndBlock cfiCond124
          CFI EndBlock cfiCond125
          CFI EndBlock cfiCond126
          CFI EndBlock cfiCond127
          CFI EndBlock cfiPicker128
??CrossCallReturnLabel_289:
        REQUIRE ?Subroutine122
        ;               // Fall through to label ?Subroutine122

        RSEG CODE:CODE:NOROOT(1)
?Subroutine122:
          CFI Block cfiCond129 Using cfiCommon0
          CFI Function PEREP
          CFI Conditional ??CrossCallReturnLabel_302
          CFI R24 Frame(CFA_Y, -8)
          CFI R25 Frame(CFA_Y, -7)
          CFI R26 Frame(CFA_Y, -6)
          CFI R27 Frame(CFA_Y, -5)
          CFI R4 Frame(CFA_Y, -4)
          CFI R5 Frame(CFA_Y, -3)
          CFI R6 Frame(CFA_Y, -2)
          CFI R7 Frame(CFA_Y, -1)
          CFI CFA_SP SP+4
          CFI CFA_Y Y+8
          CFI Block cfiCond130 Using cfiCommon0
          CFI (cfiCond130) Function coding
          CFI (cfiCond130) Conditional ??CrossCallReturnLabel_301
          CFI (cfiCond130) R24 Frame(CFA_Y, -10)
          CFI (cfiCond130) R25 Frame(CFA_Y, -9)
          CFI (cfiCond130) R26 Frame(CFA_Y, -8)
          CFI (cfiCond130) R27 Frame(CFA_Y, -7)
          CFI (cfiCond130) R4 Frame(CFA_Y, -6)
          CFI (cfiCond130) R5 Frame(CFA_Y, -5)
          CFI (cfiCond130) R6 Frame(CFA_Y, -4)
          CFI (cfiCond130) R7 Frame(CFA_Y, -3)
          CFI (cfiCond130) R8 Frame(CFA_Y, -2)
          CFI (cfiCond130) R9 Frame(CFA_Y, -1)
          CFI (cfiCond130) CFA_SP SP+4
          CFI (cfiCond130) CFA_Y Y+10
          CFI Block cfiCond131 Using cfiCommon0
          CFI (cfiCond131) Function PEREP
          CFI (cfiCond131) Conditional ??CrossCallReturnLabel_300
          CFI (cfiCond131) R24 Frame(CFA_Y, -8)
          CFI (cfiCond131) R25 Frame(CFA_Y, -7)
          CFI (cfiCond131) R26 Frame(CFA_Y, -6)
          CFI (cfiCond131) R27 Frame(CFA_Y, -5)
          CFI (cfiCond131) R4 Frame(CFA_Y, -4)
          CFI (cfiCond131) R5 Frame(CFA_Y, -3)
          CFI (cfiCond131) R6 Frame(CFA_Y, -2)
          CFI (cfiCond131) R7 Frame(CFA_Y, -1)
          CFI (cfiCond131) CFA_SP SP+4
          CFI (cfiCond131) CFA_Y Y+8
          CFI Block cfiCond132 Using cfiCommon0
          CFI (cfiCond132) Function PEREP
          CFI (cfiCond132) Conditional ??CrossCallReturnLabel_299
          CFI (cfiCond132) R24 Frame(CFA_Y, -8)
          CFI (cfiCond132) R25 Frame(CFA_Y, -7)
          CFI (cfiCond132) R26 Frame(CFA_Y, -6)
          CFI (cfiCond132) R27 Frame(CFA_Y, -5)
          CFI (cfiCond132) R4 Frame(CFA_Y, -4)
          CFI (cfiCond132) R5 Frame(CFA_Y, -3)
          CFI (cfiCond132) R6 Frame(CFA_Y, -2)
          CFI (cfiCond132) R7 Frame(CFA_Y, -1)
          CFI (cfiCond132) CFA_SP SP+4
          CFI (cfiCond132) CFA_Y Y+8
          CFI Block cfiCond133 Using cfiCommon0
          CFI (cfiCond133) Function coding
          CFI (cfiCond133) Conditional ??CrossCallReturnLabel_298
          CFI (cfiCond133) R24 Frame(CFA_Y, -10)
          CFI (cfiCond133) R25 Frame(CFA_Y, -9)
          CFI (cfiCond133) R26 Frame(CFA_Y, -8)
          CFI (cfiCond133) R27 Frame(CFA_Y, -7)
          CFI (cfiCond133) R4 Frame(CFA_Y, -6)
          CFI (cfiCond133) R5 Frame(CFA_Y, -5)
          CFI (cfiCond133) R6 Frame(CFA_Y, -4)
          CFI (cfiCond133) R7 Frame(CFA_Y, -3)
          CFI (cfiCond133) R8 Frame(CFA_Y, -2)
          CFI (cfiCond133) R9 Frame(CFA_Y, -1)
          CFI (cfiCond133) CFA_SP SP+4
          CFI (cfiCond133) CFA_Y Y+10
          CFI Block cfiCond134 Using cfiCommon0
          CFI (cfiCond134) Function coding
          CFI (cfiCond134) Conditional ??CrossCallReturnLabel_297
          CFI (cfiCond134) R24 Frame(CFA_Y, -10)
          CFI (cfiCond134) R25 Frame(CFA_Y, -9)
          CFI (cfiCond134) R26 Frame(CFA_Y, -8)
          CFI (cfiCond134) R27 Frame(CFA_Y, -7)
          CFI (cfiCond134) R4 Frame(CFA_Y, -6)
          CFI (cfiCond134) R5 Frame(CFA_Y, -5)
          CFI (cfiCond134) R6 Frame(CFA_Y, -4)
          CFI (cfiCond134) R7 Frame(CFA_Y, -3)
          CFI (cfiCond134) R8 Frame(CFA_Y, -2)
          CFI (cfiCond134) R9 Frame(CFA_Y, -1)
          CFI (cfiCond134) CFA_SP SP+4
          CFI (cfiCond134) CFA_Y Y+10
          CFI Block cfiCond135 Using cfiCommon0
          CFI (cfiCond135) Function PEREP
          CFI (cfiCond135) Conditional ??CrossCallReturnLabel_296
          CFI (cfiCond135) R24 Frame(CFA_Y, -8)
          CFI (cfiCond135) R25 Frame(CFA_Y, -7)
          CFI (cfiCond135) R26 Frame(CFA_Y, -6)
          CFI (cfiCond135) R27 Frame(CFA_Y, -5)
          CFI (cfiCond135) R4 Frame(CFA_Y, -4)
          CFI (cfiCond135) R5 Frame(CFA_Y, -3)
          CFI (cfiCond135) R6 Frame(CFA_Y, -2)
          CFI (cfiCond135) R7 Frame(CFA_Y, -1)
          CFI (cfiCond135) CFA_SP SP+4
          CFI (cfiCond135) CFA_Y Y+8
          CFI Block cfiCond136 Using cfiCommon0
          CFI (cfiCond136) Function main_logic
          CFI (cfiCond136) Conditional ??CrossCallReturnLabel_295
          CFI (cfiCond136) CFA_SP SP+4
          CFI Block cfiPicker137 Using cfiCommon2
          CFI (cfiPicker137) NoFunction
          CFI (cfiPicker137) Picker
        LDI     R16, 6
        RJMP    rprintfFloat
          CFI EndBlock cfiCond129
          CFI EndBlock cfiCond130
          CFI EndBlock cfiCond131
          CFI EndBlock cfiCond132
          CFI EndBlock cfiCond133
          CFI EndBlock cfiCond134
          CFI EndBlock cfiCond135
          CFI EndBlock cfiCond136
          CFI EndBlock cfiPicker137

        RSEG CODE:CODE:NOROOT(1)
?Subroutine24:
          CFI Block cfiCond138 Using cfiCommon0
          CFI Function coding
          CFI Conditional ??CrossCallReturnLabel_305
          CFI R24 Frame(CFA_Y, -10)
          CFI R25 Frame(CFA_Y, -9)
          CFI R26 Frame(CFA_Y, -8)
          CFI R27 Frame(CFA_Y, -7)
          CFI R4 Frame(CFA_Y, -6)
          CFI R5 Frame(CFA_Y, -5)
          CFI R6 Frame(CFA_Y, -4)
          CFI R7 Frame(CFA_Y, -3)
          CFI R8 Frame(CFA_Y, -2)
          CFI R9 Frame(CFA_Y, -1)
          CFI CFA_SP SP+4
          CFI CFA_Y Y+10
          CFI Block cfiCond139 Using cfiCommon0
          CFI (cfiCond139) Function coding
          CFI (cfiCond139) Conditional ??CrossCallReturnLabel_306
          CFI (cfiCond139) R24 Frame(CFA_Y, -10)
          CFI (cfiCond139) R25 Frame(CFA_Y, -9)
          CFI (cfiCond139) R26 Frame(CFA_Y, -8)
          CFI (cfiCond139) R27 Frame(CFA_Y, -7)
          CFI (cfiCond139) R4 Frame(CFA_Y, -6)
          CFI (cfiCond139) R5 Frame(CFA_Y, -5)
          CFI (cfiCond139) R6 Frame(CFA_Y, -4)
          CFI (cfiCond139) R7 Frame(CFA_Y, -3)
          CFI (cfiCond139) R8 Frame(CFA_Y, -2)
          CFI (cfiCond139) R9 Frame(CFA_Y, -1)
          CFI (cfiCond139) CFA_SP SP+4
          CFI (cfiCond139) CFA_Y Y+10
          CFI Block cfiPicker140 Using cfiCommon2
          CFI (cfiPicker140) NoFunction
          CFI (cfiPicker140) Picker
        ST      Z, R16
        STD     Z+1, R17
        LDI     R30, LOW(c1)
        LDI     R31, (c1) >> 8
          CFI EndBlock cfiCond138
          CFI EndBlock cfiCond139
          CFI EndBlock cfiPicker140
        REQUIRE ?Subroutine114
        ;               // Fall through to label ?Subroutine114

        RSEG CODE:CODE:NOROOT(1)
?Subroutine114:
          CFI Block cfiCond141 Using cfiCommon0
          CFI Function coding
          CFI Conditional ??CrossCallReturnLabel_305
          CFI R24 Frame(CFA_Y, -10)
          CFI R25 Frame(CFA_Y, -9)
          CFI R26 Frame(CFA_Y, -8)
          CFI R27 Frame(CFA_Y, -7)
          CFI R4 Frame(CFA_Y, -6)
          CFI R5 Frame(CFA_Y, -5)
          CFI R6 Frame(CFA_Y, -4)
          CFI R7 Frame(CFA_Y, -3)
          CFI R8 Frame(CFA_Y, -2)
          CFI R9 Frame(CFA_Y, -1)
          CFI CFA_SP SP+4
          CFI CFA_Y Y+10
          CFI Block cfiCond142 Using cfiCommon0
          CFI (cfiCond142) Function coding
          CFI (cfiCond142) Conditional ??CrossCallReturnLabel_306
          CFI (cfiCond142) R24 Frame(CFA_Y, -10)
          CFI (cfiCond142) R25 Frame(CFA_Y, -9)
          CFI (cfiCond142) R26 Frame(CFA_Y, -8)
          CFI (cfiCond142) R27 Frame(CFA_Y, -7)
          CFI (cfiCond142) R4 Frame(CFA_Y, -6)
          CFI (cfiCond142) R5 Frame(CFA_Y, -5)
          CFI (cfiCond142) R6 Frame(CFA_Y, -4)
          CFI (cfiCond142) R7 Frame(CFA_Y, -3)
          CFI (cfiCond142) R8 Frame(CFA_Y, -2)
          CFI (cfiCond142) R9 Frame(CFA_Y, -1)
          CFI (cfiCond142) CFA_SP SP+4
          CFI (cfiCond142) CFA_Y Y+10
          CFI Block cfiCond143 Using cfiCommon0
          CFI (cfiCond143) Function coding
          CFI (cfiCond143) Conditional ??CrossCallReturnLabel_303
          CFI (cfiCond143) R24 Frame(CFA_Y, -10)
          CFI (cfiCond143) R25 Frame(CFA_Y, -9)
          CFI (cfiCond143) R26 Frame(CFA_Y, -8)
          CFI (cfiCond143) R27 Frame(CFA_Y, -7)
          CFI (cfiCond143) R4 Frame(CFA_Y, -6)
          CFI (cfiCond143) R5 Frame(CFA_Y, -5)
          CFI (cfiCond143) R6 Frame(CFA_Y, -4)
          CFI (cfiCond143) R7 Frame(CFA_Y, -3)
          CFI (cfiCond143) R8 Frame(CFA_Y, -2)
          CFI (cfiCond143) R9 Frame(CFA_Y, -1)
          CFI (cfiCond143) CFA_SP SP+4
          CFI (cfiCond143) CFA_Y Y+10
          CFI Block cfiCond144 Using cfiCommon0
          CFI (cfiCond144) Function coding
          CFI (cfiCond144) Conditional ??CrossCallReturnLabel_304
          CFI (cfiCond144) R24 Frame(CFA_Y, -10)
          CFI (cfiCond144) R25 Frame(CFA_Y, -9)
          CFI (cfiCond144) R26 Frame(CFA_Y, -8)
          CFI (cfiCond144) R27 Frame(CFA_Y, -7)
          CFI (cfiCond144) R4 Frame(CFA_Y, -6)
          CFI (cfiCond144) R5 Frame(CFA_Y, -5)
          CFI (cfiCond144) R6 Frame(CFA_Y, -4)
          CFI (cfiCond144) R7 Frame(CFA_Y, -3)
          CFI (cfiCond144) R8 Frame(CFA_Y, -2)
          CFI (cfiCond144) R9 Frame(CFA_Y, -1)
          CFI (cfiCond144) CFA_SP SP+4
          CFI (cfiCond144) CFA_Y Y+10
          CFI Block cfiPicker145 Using cfiCommon2
          CFI (cfiPicker145) NoFunction
          CFI (cfiPicker145) Picker
        LD      R16, Z
        SUBI    R16, 254
          CFI EndBlock cfiCond141
          CFI EndBlock cfiCond142
          CFI EndBlock cfiCond143
          CFI EndBlock cfiCond144
          CFI EndBlock cfiPicker145
        REQUIRE ??Subroutine127_0
        ;               // Fall through to label ??Subroutine127_0

        RSEG CODE:CODE:NOROOT(1)
??Subroutine127_0:
          CFI Block cfiCond146 Using cfiCommon0
          CFI Function coding
          CFI Conditional ??CrossCallReturnLabel_311, ??CrossCallReturnLabel_44
          CFI R24 Frame(CFA_Y, -10)
          CFI R25 Frame(CFA_Y, -9)
          CFI R26 Frame(CFA_Y, -8)
          CFI R27 Frame(CFA_Y, -7)
          CFI R4 Frame(CFA_Y, -6)
          CFI R5 Frame(CFA_Y, -5)
          CFI R6 Frame(CFA_Y, -4)
          CFI R7 Frame(CFA_Y, -3)
          CFI R8 Frame(CFA_Y, -2)
          CFI R9 Frame(CFA_Y, -1)
          CFI CFA_SP SP+6
          CFI CFA_Y Y+10
          CFI Block cfiCond147 Using cfiCommon0
          CFI (cfiCond147) Function coding
          CFI (cfiCond147) Conditional ??CrossCallReturnLabel_311, ??CrossCallReturnLabel_45
          CFI (cfiCond147) R24 Frame(CFA_Y, -10)
          CFI (cfiCond147) R25 Frame(CFA_Y, -9)
          CFI (cfiCond147) R26 Frame(CFA_Y, -8)
          CFI (cfiCond147) R27 Frame(CFA_Y, -7)
          CFI (cfiCond147) R4 Frame(CFA_Y, -6)
          CFI (cfiCond147) R5 Frame(CFA_Y, -5)
          CFI (cfiCond147) R6 Frame(CFA_Y, -4)
          CFI (cfiCond147) R7 Frame(CFA_Y, -3)
          CFI (cfiCond147) R8 Frame(CFA_Y, -2)
          CFI (cfiCond147) R9 Frame(CFA_Y, -1)
          CFI (cfiCond147) CFA_SP SP+6
          CFI (cfiCond147) CFA_Y Y+10
          CFI Block cfiCond148 Using cfiCommon0
          CFI (cfiCond148) Function coding
          CFI (cfiCond148) Conditional ??CrossCallReturnLabel_311, ??CrossCallReturnLabel_46
          CFI (cfiCond148) R24 Frame(CFA_Y, -10)
          CFI (cfiCond148) R25 Frame(CFA_Y, -9)
          CFI (cfiCond148) R26 Frame(CFA_Y, -8)
          CFI (cfiCond148) R27 Frame(CFA_Y, -7)
          CFI (cfiCond148) R4 Frame(CFA_Y, -6)
          CFI (cfiCond148) R5 Frame(CFA_Y, -5)
          CFI (cfiCond148) R6 Frame(CFA_Y, -4)
          CFI (cfiCond148) R7 Frame(CFA_Y, -3)
          CFI (cfiCond148) R8 Frame(CFA_Y, -2)
          CFI (cfiCond148) R9 Frame(CFA_Y, -1)
          CFI (cfiCond148) CFA_SP SP+6
          CFI (cfiCond148) CFA_Y Y+10
          CFI Block cfiCond149 Using cfiCommon0
          CFI (cfiCond149) Function analiz_INT
          CFI (cfiCond149) Conditional ??CrossCallReturnLabel_307
          CFI (cfiCond149) CFA_SP SP+4
          CFI Block cfiCond150 Using cfiCommon0
          CFI (cfiCond150) Function main
          CFI (cfiCond150) Conditional ??CrossCallReturnLabel_308
          CFI (cfiCond150) R24 Frame(CFA_Y, -1)
          CFI (cfiCond150) CFA_SP SP+4
          CFI (cfiCond150) CFA_Y Y+1
          CFI Block cfiCond151 Using cfiCommon0
          CFI (cfiCond151) Function migWORK
          CFI (cfiCond151) Conditional ??CrossCallReturnLabel_309
          CFI (cfiCond151) CFA_SP SP+4
          CFI Block cfiCond152 Using cfiCommon0
          CFI (cfiCond152) Function programming
          CFI (cfiCond152) Conditional ??CrossCallReturnLabel_310, ??CrossCallReturnLabel_15
          CFI (cfiCond152) R24 Frame(CFA_Y, -1)
          CFI (cfiCond152) CFA_SP SP+6
          CFI (cfiCond152) CFA_Y Y+1
          CFI Block cfiCond153 Using cfiCommon0
          CFI (cfiCond153) Function programming
          CFI (cfiCond153) Conditional ??CrossCallReturnLabel_310, ??CrossCallReturnLabel_16
          CFI (cfiCond153) R24 Frame(CFA_Y, -1)
          CFI (cfiCond153) CFA_SP SP+6
          CFI (cfiCond153) CFA_Y Y+1
          CFI Block cfiCond154 Using cfiCommon0
          CFI (cfiCond154) Function coding
          CFI (cfiCond154) Conditional ??CrossCallReturnLabel_305
          CFI (cfiCond154) R24 Frame(CFA_Y, -10)
          CFI (cfiCond154) R25 Frame(CFA_Y, -9)
          CFI (cfiCond154) R26 Frame(CFA_Y, -8)
          CFI (cfiCond154) R27 Frame(CFA_Y, -7)
          CFI (cfiCond154) R4 Frame(CFA_Y, -6)
          CFI (cfiCond154) R5 Frame(CFA_Y, -5)
          CFI (cfiCond154) R6 Frame(CFA_Y, -4)
          CFI (cfiCond154) R7 Frame(CFA_Y, -3)
          CFI (cfiCond154) R8 Frame(CFA_Y, -2)
          CFI (cfiCond154) R9 Frame(CFA_Y, -1)
          CFI (cfiCond154) CFA_SP SP+4
          CFI (cfiCond154) CFA_Y Y+10
          CFI Block cfiCond155 Using cfiCommon0
          CFI (cfiCond155) Function coding
          CFI (cfiCond155) Conditional ??CrossCallReturnLabel_306
          CFI (cfiCond155) R24 Frame(CFA_Y, -10)
          CFI (cfiCond155) R25 Frame(CFA_Y, -9)
          CFI (cfiCond155) R26 Frame(CFA_Y, -8)
          CFI (cfiCond155) R27 Frame(CFA_Y, -7)
          CFI (cfiCond155) R4 Frame(CFA_Y, -6)
          CFI (cfiCond155) R5 Frame(CFA_Y, -5)
          CFI (cfiCond155) R6 Frame(CFA_Y, -4)
          CFI (cfiCond155) R7 Frame(CFA_Y, -3)
          CFI (cfiCond155) R8 Frame(CFA_Y, -2)
          CFI (cfiCond155) R9 Frame(CFA_Y, -1)
          CFI (cfiCond155) CFA_SP SP+4
          CFI (cfiCond155) CFA_Y Y+10
          CFI Block cfiCond156 Using cfiCommon0
          CFI (cfiCond156) Function coding
          CFI (cfiCond156) Conditional ??CrossCallReturnLabel_303
          CFI (cfiCond156) R24 Frame(CFA_Y, -10)
          CFI (cfiCond156) R25 Frame(CFA_Y, -9)
          CFI (cfiCond156) R26 Frame(CFA_Y, -8)
          CFI (cfiCond156) R27 Frame(CFA_Y, -7)
          CFI (cfiCond156) R4 Frame(CFA_Y, -6)
          CFI (cfiCond156) R5 Frame(CFA_Y, -5)
          CFI (cfiCond156) R6 Frame(CFA_Y, -4)
          CFI (cfiCond156) R7 Frame(CFA_Y, -3)
          CFI (cfiCond156) R8 Frame(CFA_Y, -2)
          CFI (cfiCond156) R9 Frame(CFA_Y, -1)
          CFI (cfiCond156) CFA_SP SP+4
          CFI (cfiCond156) CFA_Y Y+10
          CFI Block cfiCond157 Using cfiCommon0
          CFI (cfiCond157) Function coding
          CFI (cfiCond157) Conditional ??CrossCallReturnLabel_304
          CFI (cfiCond157) R24 Frame(CFA_Y, -10)
          CFI (cfiCond157) R25 Frame(CFA_Y, -9)
          CFI (cfiCond157) R26 Frame(CFA_Y, -8)
          CFI (cfiCond157) R27 Frame(CFA_Y, -7)
          CFI (cfiCond157) R4 Frame(CFA_Y, -6)
          CFI (cfiCond157) R5 Frame(CFA_Y, -5)
          CFI (cfiCond157) R6 Frame(CFA_Y, -4)
          CFI (cfiCond157) R7 Frame(CFA_Y, -3)
          CFI (cfiCond157) R8 Frame(CFA_Y, -2)
          CFI (cfiCond157) R9 Frame(CFA_Y, -1)
          CFI (cfiCond157) CFA_SP SP+4
          CFI (cfiCond157) CFA_Y Y+10
          CFI Block cfiPicker158 Using cfiCommon2
          CFI (cfiPicker158) NoFunction
          CFI (cfiPicker158) Picker
        ST      Z, R16
        RET
          CFI EndBlock cfiCond146
          CFI EndBlock cfiCond147
          CFI EndBlock cfiCond148
          CFI EndBlock cfiCond149
          CFI EndBlock cfiCond150
          CFI EndBlock cfiCond151
          CFI EndBlock cfiCond152
          CFI EndBlock cfiCond153
          CFI EndBlock cfiCond154
          CFI EndBlock cfiCond155
          CFI EndBlock cfiCond156
          CFI EndBlock cfiCond157
          CFI EndBlock cfiPicker158

        RSEG CODE:CODE:NOROOT(1)
?Subroutine23:
          CFI Block cfiCond159 Using cfiCommon0
          CFI Function coding
          CFI Conditional ??CrossCallReturnLabel_303
          CFI R24 Frame(CFA_Y, -10)
          CFI R25 Frame(CFA_Y, -9)
          CFI R26 Frame(CFA_Y, -8)
          CFI R27 Frame(CFA_Y, -7)
          CFI R4 Frame(CFA_Y, -6)
          CFI R5 Frame(CFA_Y, -5)
          CFI R6 Frame(CFA_Y, -4)
          CFI R7 Frame(CFA_Y, -3)
          CFI R8 Frame(CFA_Y, -2)
          CFI R9 Frame(CFA_Y, -1)
          CFI CFA_SP SP+4
          CFI CFA_Y Y+10
          CFI Block cfiCond160 Using cfiCommon0
          CFI (cfiCond160) Function coding
          CFI (cfiCond160) Conditional ??CrossCallReturnLabel_304
          CFI (cfiCond160) R24 Frame(CFA_Y, -10)
          CFI (cfiCond160) R25 Frame(CFA_Y, -9)
          CFI (cfiCond160) R26 Frame(CFA_Y, -8)
          CFI (cfiCond160) R27 Frame(CFA_Y, -7)
          CFI (cfiCond160) R4 Frame(CFA_Y, -6)
          CFI (cfiCond160) R5 Frame(CFA_Y, -5)
          CFI (cfiCond160) R6 Frame(CFA_Y, -4)
          CFI (cfiCond160) R7 Frame(CFA_Y, -3)
          CFI (cfiCond160) R8 Frame(CFA_Y, -2)
          CFI (cfiCond160) R9 Frame(CFA_Y, -1)
          CFI (cfiCond160) CFA_SP SP+4
          CFI (cfiCond160) CFA_Y Y+10
          CFI Block cfiPicker161 Using cfiCommon2
          CFI (cfiPicker161) NoFunction
          CFI (cfiPicker161) Picker
        ST      Z, R16
        STD     Z+1, R17
        LDI     R30, LOW(c2)
        LDI     R31, (c2) >> 8
        RJMP    ?Subroutine114
          CFI EndBlock cfiCond159
          CFI EndBlock cfiCond160
          CFI EndBlock cfiPicker161

        RSEG CODE:CODE:NOROOT(1)
?Subroutine2:
          CFI Block cfiCond162 Using cfiCommon0
          CFI Function coding
          CFI Conditional ??CrossCallReturnLabel_5
          CFI R24 Frame(CFA_Y, -10)
          CFI R25 Frame(CFA_Y, -9)
          CFI R26 Frame(CFA_Y, -8)
          CFI R27 Frame(CFA_Y, -7)
          CFI R4 Frame(CFA_Y, -6)
          CFI R5 Frame(CFA_Y, -5)
          CFI R6 Frame(CFA_Y, -4)
          CFI R7 Frame(CFA_Y, -3)
          CFI R8 Frame(CFA_Y, -2)
          CFI R9 Frame(CFA_Y, -1)
          CFI CFA_SP SP+4
          CFI CFA_Y Y+10
          CFI Block cfiCond163 Using cfiCommon0
          CFI (cfiCond163) Function coding
          CFI (cfiCond163) Conditional ??CrossCallReturnLabel_6
          CFI (cfiCond163) R24 Frame(CFA_Y, -10)
          CFI (cfiCond163) R25 Frame(CFA_Y, -9)
          CFI (cfiCond163) R26 Frame(CFA_Y, -8)
          CFI (cfiCond163) R27 Frame(CFA_Y, -7)
          CFI (cfiCond163) R4 Frame(CFA_Y, -6)
          CFI (cfiCond163) R5 Frame(CFA_Y, -5)
          CFI (cfiCond163) R6 Frame(CFA_Y, -4)
          CFI (cfiCond163) R7 Frame(CFA_Y, -3)
          CFI (cfiCond163) R8 Frame(CFA_Y, -2)
          CFI (cfiCond163) R9 Frame(CFA_Y, -1)
          CFI (cfiCond163) CFA_SP SP+4
          CFI (cfiCond163) CFA_Y Y+10
          CFI Block cfiCond164 Using cfiCommon0
          CFI (cfiCond164) Function coding
          CFI (cfiCond164) Conditional ??CrossCallReturnLabel_7
          CFI (cfiCond164) R24 Frame(CFA_Y, -10)
          CFI (cfiCond164) R25 Frame(CFA_Y, -9)
          CFI (cfiCond164) R26 Frame(CFA_Y, -8)
          CFI (cfiCond164) R27 Frame(CFA_Y, -7)
          CFI (cfiCond164) R4 Frame(CFA_Y, -6)
          CFI (cfiCond164) R5 Frame(CFA_Y, -5)
          CFI (cfiCond164) R6 Frame(CFA_Y, -4)
          CFI (cfiCond164) R7 Frame(CFA_Y, -3)
          CFI (cfiCond164) R8 Frame(CFA_Y, -2)
          CFI (cfiCond164) R9 Frame(CFA_Y, -1)
          CFI (cfiCond164) CFA_SP SP+4
          CFI (cfiCond164) CFA_Y Y+10
          CFI Block cfiPicker165 Using cfiCommon2
          CFI (cfiPicker165) NoFunction
          CFI (cfiPicker165) Picker
        RCALL   ?Subroutine110
??CrossCallReturnLabel_233:
        OR      R18, R16
        OR      R19, R17
        ADD     R18, R24
        ADC     R19, R25
        ST      Z, R18
        STD     Z+1, R19
        RET
          CFI EndBlock cfiCond162
          CFI EndBlock cfiCond163
          CFI EndBlock cfiCond164
          CFI EndBlock cfiPicker165

        RSEG CODE:CODE:NOROOT(1)
?Subroutine1:
          CFI Block cfiCond166 Using cfiCommon0
          CFI Function coding
          CFI Conditional ??CrossCallReturnLabel_2
          CFI R24 Frame(CFA_Y, -10)
          CFI R25 Frame(CFA_Y, -9)
          CFI R26 Frame(CFA_Y, -8)
          CFI R27 Frame(CFA_Y, -7)
          CFI R4 Frame(CFA_Y, -6)
          CFI R5 Frame(CFA_Y, -5)
          CFI R6 Frame(CFA_Y, -4)
          CFI R7 Frame(CFA_Y, -3)
          CFI R8 Frame(CFA_Y, -2)
          CFI R9 Frame(CFA_Y, -1)
          CFI CFA_SP SP+4
          CFI CFA_Y Y+10
          CFI Block cfiCond167 Using cfiCommon0
          CFI (cfiCond167) Function coding
          CFI (cfiCond167) Conditional ??CrossCallReturnLabel_3
          CFI (cfiCond167) R24 Frame(CFA_Y, -10)
          CFI (cfiCond167) R25 Frame(CFA_Y, -9)
          CFI (cfiCond167) R26 Frame(CFA_Y, -8)
          CFI (cfiCond167) R27 Frame(CFA_Y, -7)
          CFI (cfiCond167) R4 Frame(CFA_Y, -6)
          CFI (cfiCond167) R5 Frame(CFA_Y, -5)
          CFI (cfiCond167) R6 Frame(CFA_Y, -4)
          CFI (cfiCond167) R7 Frame(CFA_Y, -3)
          CFI (cfiCond167) R8 Frame(CFA_Y, -2)
          CFI (cfiCond167) R9 Frame(CFA_Y, -1)
          CFI (cfiCond167) CFA_SP SP+4
          CFI (cfiCond167) CFA_Y Y+10
          CFI Block cfiCond168 Using cfiCommon0
          CFI (cfiCond168) Function coding
          CFI (cfiCond168) Conditional ??CrossCallReturnLabel_4
          CFI (cfiCond168) R24 Frame(CFA_Y, -10)
          CFI (cfiCond168) R25 Frame(CFA_Y, -9)
          CFI (cfiCond168) R26 Frame(CFA_Y, -8)
          CFI (cfiCond168) R27 Frame(CFA_Y, -7)
          CFI (cfiCond168) R4 Frame(CFA_Y, -6)
          CFI (cfiCond168) R5 Frame(CFA_Y, -5)
          CFI (cfiCond168) R6 Frame(CFA_Y, -4)
          CFI (cfiCond168) R7 Frame(CFA_Y, -3)
          CFI (cfiCond168) R8 Frame(CFA_Y, -2)
          CFI (cfiCond168) R9 Frame(CFA_Y, -1)
          CFI (cfiCond168) CFA_SP SP+4
          CFI (cfiCond168) CFA_Y Y+10
          CFI Block cfiPicker169 Using cfiCommon2
          CFI (cfiPicker169) NoFunction
          CFI (cfiPicker169) Picker
        RCALL   ?Subroutine110
??CrossCallReturnLabel_232:
        MOVW    R9:R8, R17:R16
        RCALL   ?Subroutine101
??CrossCallReturnLabel_204:
        LDI     R22, 192
        LDI     R23, 63
        MOVW    R17:R16, R1:R0
        MOVW    R19:R18, R3:R2
        RJMP    ?F_CMP_LT_L04
          CFI EndBlock cfiCond166
          CFI EndBlock cfiCond167
          CFI EndBlock cfiCond168
          CFI EndBlock cfiPicker169
//  279   
//  280 
//  281  //переполнился импульс более 130мс  (1/(4000000/8)*65535)
//  282 #pragma vector = TIMER1_OVF_vect

        RSEG CODE:CODE:NOROOT(1)
//  283 __interrupt void funTIMER1_OVF_vect(void)
funTIMER1_OVF_vect:
          CFI Block cfiBlock170 Using cfiCommon1
          CFI Function funTIMER1_OVF_vect
//  284 {
        ST      -Y, R16
          CFI R16 Frame(CFA_Y, -1)
          CFI CFA_Y Y+1
//  285    //TIFR = 0xFF; - в прерывании сбрасывется сам
//  286   
//  287   perepoln=1;   
        LDI     R16, 1
        STS     ??perepoln, R16
          CFI EndBlock cfiBlock170
//  288  
//  289 }
        REQUIRE ?Subroutine121
        ;               // Fall through to label ?Subroutine121

        RSEG CODE:CODE:NOROOT(1)
?Subroutine121:
          CFI Block cfiBlock171 Using cfiCommon1
          CFI NoFunction
          CFI CFA_Y Y+1
          CFI R16 Frame(CFA_Y, -1)
        LD      R16, Y+
          CFI CFA_Y Y+0
          CFI R16 SameValue
        RETI
          CFI EndBlock cfiBlock171
//  290 
//  291 
//  292 
// F:\Dulov\RemoteAmp\main.c
//    1 //***************************************************************************
//    2 //  
//    3 //  Author(s)...: dav COBRA 
//    4 //  Target(s)...: ATMega8
//    5 //  Compiler....: 6 40
//    6 //  ТЕСТ1
//    7 //  Description.: Система  управления  для  Усилителя  Мощности   V-ниже
//    8 //  v1.1 - добавлена поддержка включения усилителя тыловых колонок вместо Source5
//    9 //       - изменена установка auto off
//   10 //  v1.2 - теперь во время мигания(только Source) светодиодов  команды пульта обрабатываются
//   11 //       - новая команда пульта - возврат в предыдущий source
//   12 //       - команды пульта можно продублировать на втором пульте, т.е. на каждую функцию 2 кнопки пульта
//   13 //       - вместо импульсов громкости можно формировать постоянный сигнал
//   14 //       - подправлены задержки
//   15 //       - обновлен алгоритм кодирования
//   16 // v1.22 - исправлена ошибка задержки вкл AC
//   17 // v1.23 - исправлен при включении включается SOURCE1 
//   18 // v1.24 - исправлен баг AUTOOFF на 30 минут 
//   19 // v1.25 - исправлен баг AUTOOFF при выключениии питания 
//   20 // v1.26 - refactoring, проверка на повторное программирование кнопки
//   21 //  Data........: 02 2017
//   22 //
//   23 //   - ВЫКЛЮЧИТЬ ОПЦИЮ clustering of variables В optimization compilator !!!!
//   24 //***************************************************************************
//   25 #include <iom8.h>//<ioavr.h>
//   26 //#include <inavr.h>  
//   27 #include <intrinsics.h>
//   28 #include "init.h"
//   29 #include "main.h"
//   30 #include "du.h"  
//   31 #include "SoftTimers.h" 
//   32 #include "keys.h"
//   33 //#include <stdlib.h>
//   34 //#include <math.h> 
//   35 #include "usart.h"
//   36 #include "eeprom.h"
//   37 //#include <stdarg.h>
//   38 //************************************************************************* 
//   39 #define AC_ON    SET(PORTD,6)
//   40 #define AC_OFF   RES(PORTD,6)
//   41 void diag(void);
//   42 void led_all(bool a);
//   43 void resled(void);
//   44 void source(void);
//   45 void resOUT(void);  
//   46 void gro(uchar a);
//   47 void main_logic(void);
//   48 void main_power(void);
//   49 void writeCOD(void);
//   50 uchar analizCOD(void);
//   51 void programming(uchar rez);
//   52 uchar getadr(void);
//   53 
//   54 

        RSEG NEAR_I:DATA:NOROOT(0)
        REQUIRE `?<Segment init: NEAR_I>`
//   55 uint tON=acon; 
tON:
        DS8 2
        REQUIRE `?<Initializer for tON>`

        RSEG NEAR_Z:DATA:NOROOT(0)
        REQUIRE `?<Segment init: NEAR_Z>`
//   56 uchar pr=0;
pr:
        DS8 1

        RSEG NEAR_Z:DATA:NOROOT(0)
        REQUIRE `?<Segment init: NEAR_Z>`
//   57 static bool get=0;
??get:
        DS8 1

        RSEG NEAR_Z:DATA:NOROOT(0)
        REQUIRE `?<Segment init: NEAR_Z>`
//   58 bool onok=0;  
onok:
        DS8 1

        RSEG NEAR_Z:DATA:NOROOT(0)
        REQUIRE `?<Segment init: NEAR_Z>`
//   59 bool on=0,mute=0;
on:
        DS8 1

        RSEG NEAR_Z:DATA:NOROOT(0)
        REQUIRE `?<Segment init: NEAR_Z>`
mute:
        DS8 1

        RSEG NEAR_Z:DATA:NOROOT(0)
        REQUIRE `?<Segment init: NEAR_Z>`
//   60 bool zader=0,aoff=0;
zader:
        DS8 1

        RSEG NEAR_Z:DATA:NOROOT(0)
        REQUIRE `?<Segment init: NEAR_Z>`
aoff:
        DS8 1

        RSEG NEAR_Z:DATA:NOROOT(0)
        REQUIRE `?<Segment init: NEAR_Z>`
//   61 uint timerzad; 
timerzad:
        DS8 2

        RSEG NEAR_Z:DATA:NOROOT(0)
        REQUIRE `?<Segment init: NEAR_Z>`
//   62 uchar pultadr;
pultadr:
        DS8 1

        RSEG NEAR_Z:DATA:NOROOT(0)
        REQUIRE `?<Segment init: NEAR_Z>`
//   63 static bool u=0,til=0,mode_programming=0; 
??u:
        DS8 1

        RSEG NEAR_Z:DATA:NOROOT(0)
        REQUIRE `?<Segment init: NEAR_Z>`
??til:
        DS8 1

        RSEG NEAR_Z:DATA:NOROOT(0)
        REQUIRE `?<Segment init: NEAR_Z>`
??mode_programming:
        DS8 1

        RSEG NEAR_Z:DATA:NOROOT(0)
        REQUIRE `?<Segment init: NEAR_Z>`
//   64 static  uchar mode=0,tekfunc=0; 
??mode:
        DS8 1

        RSEG NEAR_Z:DATA:NOROOT(0)
        REQUIRE `?<Segment init: NEAR_Z>`
??tekfunc:
        DS8 1

        RSEG NEAR_I:DATA:NOROOT(0)
        REQUIRE `?<Segment init: NEAR_I>`
//   65 static uchar lastsel=1,sel=1,gro1=0,gro2=0,regaoff=0;
??lastsel:
        DS8 1
        REQUIRE `?<Initializer for lastsel>`

        RSEG NEAR_I:DATA:NOROOT(0)
        REQUIRE `?<Segment init: NEAR_I>`
??sel:
        DS8 1
        REQUIRE `?<Initializer for sel>`

        RSEG NEAR_Z:DATA:NOROOT(0)
        REQUIRE `?<Segment init: NEAR_Z>`
??gro1:
        DS8 1

        RSEG NEAR_Z:DATA:NOROOT(0)
        REQUIRE `?<Segment init: NEAR_Z>`
??gro2:
        DS8 1

        RSEG NEAR_Z:DATA:NOROOT(0)
        REQUIRE `?<Segment init: NEAR_Z>`
??regaoff:
        DS8 1
//   66 

        RSEG CODE:CODE:NOROOT(1)
//   67 void led_test()
led_test:
          CFI Block cfiBlock172 Using cfiCommon0
          CFI Function led_test
//   68 {
        FUNCALL led_test, led_all
        LOCFRAME CSTACK, 1, STACK
        LOCFRAME RSTACK, 2, STACK
        ARGFRAME RSTACK, 0, STACK
        FUNCALL led_test, led_all
        LOCFRAME CSTACK, 1, STACK
        LOCFRAME RSTACK, 2, STACK
        ARGFRAME RSTACK, 0, STACK
        ST      -Y, R24
          CFI R24 Frame(CFA_Y, -1)
          CFI CFA_Y Y+1
//   69   for (uchar i=0; i<=6; i++){ led_all(1);  p9; led_all(0);}
        LDI     R24, 7
??led_test_0:
        RCALL   ??Subroutine132_0
??CrossCallReturnLabel_350:
        LDI     R16, 127
        LDI     R17, 252
        LDI     R18, 10
        SUBI    R16, 1
        SBCI    R17, 0
        SBCI    R18, 0
        BRNE    $-6
        RJMP    $+2
        NOP
        RCALL   ?Subroutine12
??CrossCallReturnLabel_20:
        DEC     R24
        BRNE    ??led_test_0
          CFI EndBlock cfiBlock172
//   70 }
        REQUIRE ?Subroutine116
        ;               // Fall through to label ?Subroutine116

        RSEG CODE:CODE:NOROOT(1)
?Subroutine116:
          CFI Block cfiBlock173 Using cfiCommon0
          CFI NoFunction
          CFI CFA_Y Y+1
          CFI R24 Frame(CFA_Y, -1)
        LD      R24, Y+
          CFI CFA_Y Y+0
          CFI R24 SameValue
        RET
          CFI EndBlock cfiBlock173
//   71 //***************************************************************************
//   72 //                  M  A  I  N
//   73 //***************************************************************************

        RSEG CODE:CODE:NOROOT(1)
//   74 int main( void )
main:
          CFI Block cfiBlock174 Using cfiCommon0
          CFI Function main
//   75 {//main
        FUNCALL main, iniPORTS
        LOCFRAME CSTACK, 1, STACK
        LOCFRAME RSTACK, 2, STACK
        ARGFRAME RSTACK, 0, STACK
        FUNCALL main, led_test
        LOCFRAME CSTACK, 1, STACK
        LOCFRAME RSTACK, 2, STACK
        ARGFRAME RSTACK, 0, STACK
        FUNCALL main, USART_Init
        LOCFRAME CSTACK, 1, STACK
        LOCFRAME RSTACK, 2, STACK
        ARGFRAME RSTACK, 0, STACK
        FUNCALL main, led_test
        LOCFRAME CSTACK, 1, STACK
        LOCFRAME RSTACK, 2, STACK
        ARGFRAME RSTACK, 0, STACK
        FUNCALL main, led_all
        LOCFRAME CSTACK, 1, STACK
        LOCFRAME RSTACK, 2, STACK
        ARGFRAME RSTACK, 0, STACK
        FUNCALL main, writeCOD
        LOCFRAME CSTACK, 1, STACK
        LOCFRAME RSTACK, 2, STACK
        ARGFRAME RSTACK, 0, STACK
        FUNCALL main, led_all
        LOCFRAME CSTACK, 1, STACK
        LOCFRAME RSTACK, 2, STACK
        ARGFRAME RSTACK, 0, STACK
        FUNCALL main, led_test
        LOCFRAME CSTACK, 1, STACK
        LOCFRAME RSTACK, 2, STACK
        ARGFRAME RSTACK, 0, STACK
        FUNCALL main, getadr
        LOCFRAME CSTACK, 1, STACK
        LOCFRAME RSTACK, 2, STACK
        ARGFRAME RSTACK, 0, STACK
        FUNCALL main, led_all
        LOCFRAME CSTACK, 1, STACK
        LOCFRAME RSTACK, 2, STACK
        ARGFRAME RSTACK, 0, STACK
        FUNCALL main, getadr
        LOCFRAME CSTACK, 1, STACK
        LOCFRAME RSTACK, 2, STACK
        ARGFRAME RSTACK, 0, STACK
        FUNCALL main, programming
        LOCFRAME CSTACK, 1, STACK
        LOCFRAME RSTACK, 2, STACK
        ARGFRAME RSTACK, 0, STACK
        FUNCALL main, diag
        LOCFRAME CSTACK, 1, STACK
        LOCFRAME RSTACK, 2, STACK
        ARGFRAME RSTACK, 0, STACK
        FUNCALL main, remote_main
        LOCFRAME CSTACK, 1, STACK
        LOCFRAME RSTACK, 2, STACK
        ARGFRAME RSTACK, 0, STACK
        FUNCALL main, analizCOD
        LOCFRAME CSTACK, 1, STACK
        LOCFRAME RSTACK, 2, STACK
        ARGFRAME RSTACK, 0, STACK
        FUNCALL main, main_power
        LOCFRAME CSTACK, 1, STACK
        LOCFRAME RSTACK, 2, STACK
        ARGFRAME RSTACK, 0, STACK
        FUNCALL main, main_logic
        LOCFRAME CSTACK, 1, STACK
        LOCFRAME RSTACK, 2, STACK
        ARGFRAME RSTACK, 0, STACK
        ST      -Y, R24
          CFI R24 Frame(CFA_Y, -1)
          CFI CFA_Y Y+1
//   76     iniPORTS();   
        RCALL   iniPORTS
//   77   p3;//задержка при включении
        RCALL   ?Subroutine61
//   78  
//   79  //----------------------------------
//   80    if (keyONsm) {u=1; led_test(); USART_Init();}//включаем UART
??CrossCallReturnLabel_94:
        SBIC    0x10, 0x05
        RJMP    ??main_0
        LDI     R16, 1
        STS     ??u, R16
        RCALL   led_test
        RCALL   USART_Init
//   81 //----------------------------------
//   82   mode=fmode; //смена режима работы
??main_0:
        LDI     R20, LOW(fmode)
        LDI     R21, (fmode) >> 8
        RCALL   __eeget8_16
        STS     ??mode, R16
//   83   if (mode!=1 && mode!=0) {  fmode=0; mode=0;   }//ini eeprom  read
        CPI     R16, 1
        BREQ    ??main_1
        TST     R16
        BREQ    ??main_1
        RCALL   ?Subroutine13
??CrossCallReturnLabel_21:
        STS     ??mode, R16
//   84   if (modegro!=1 && modegro!=0) { modegro=0;  }//ini eeprom read 
??main_1:
        RCALL   ?Subroutine63
??CrossCallReturnLabel_268:
        BREQ    ??CrossCallReturnLabel_23
        RCALL   ?Subroutine65
??CrossCallReturnLabel_257:
        BREQ    ??CrossCallReturnLabel_23
        RCALL   ?Subroutine14
//   85   
//   86   if (keyMUTE && !keyAOFFsm) {  led_test();
??CrossCallReturnLabel_23:
        SBIC    0x10, 0x01
        RJMP    ??main_2
        SBIC    0x10, 0x05
        RJMP    ??main_2
        SBIS    0x10, 0x00
        RJMP    ??main_2
        RCALL   led_test
//   87   if (mode==0 && modegro==0)   {  fmode=1; p5;   SET(PORTB,4);  while(1) {}   }
        RCALL   ?Subroutine66
??CrossCallReturnLabel_260:
        BRNE    ??main_3
        RCALL   ?Subroutine65
??CrossCallReturnLabel_258:
        BRNE    ??main_4
        LDI     R16, 1
        LDI     R20, LOW(fmode)
        LDI     R21, (fmode) >> 8
        RCALL   ?Subroutine62
??CrossCallReturnLabel_98:
        SBI     0x18, 0x04
??main_5:
        RJMP    ??main_5
//   88   if (mode==1 && modegro==0)   {  modegro=1; p5; SET(PORTB,2);  SET(PORTB,3);  SET(PORTB,4);  while(1) {}  }
??main_3:
        CPI     R16, 1
        BRNE    ??main_2
        RCALL   ?Subroutine65
??CrossCallReturnLabel_259:
        BRNE    ??main_6
        LDI     R16, 1
        LDI     R20, LOW(modegro)
        LDI     R21, (modegro) >> 8
        RCALL   ?Subroutine62
??CrossCallReturnLabel_97:
        SBI     0x18, 0x02
        SBI     0x18, 0x03
        SBI     0x18, 0x04
??main_7:
        RJMP    ??main_7
??main_6:
        RCALL   ?Subroutine63
??CrossCallReturnLabel_269:
        BRNE    ??main_2
//   89   if (mode==1 && modegro==1)   {  fmode=0; p5; SET(PORTB,2);  SET(PORTB,3);    while(1) {}  } 
        RCALL   ?Subroutine13
??CrossCallReturnLabel_22:
        RCALL   ?Subroutine103
??CrossCallReturnLabel_328:
        SBI     0x18, 0x02
        SBI     0x18, 0x03
??main_8:
        RJMP    ??main_8
??main_4:
        RCALL   ?Subroutine63
??CrossCallReturnLabel_270:
        BRNE    ??main_2
//   90   if (mode==0 && modegro==1)   {  modegro=0; p5;  led_all(1);    while(1) {}   }
        RCALL   ?Subroutine14
??CrossCallReturnLabel_24:
        RCALL   ?Subroutine103
??CrossCallReturnLabel_329:
        RCALL   ??Subroutine132_0
??CrossCallReturnLabel_349:
        RJMP    ??CrossCallReturnLabel_349
//   91   
//   92                               }
//   93   
//   94  // modegro=1; mode=1;
//   95 //-----------------------------------
//   96   
//   97    
//   98    if (keySELsm==1 && keyAOFFsm==1)//очистка
??main_2:
        SBIC    0x10, 0x01
        RJMP    ??main_9
        SBIC    0x10, 0x00
        RJMP    ??main_9
//   99       {
//  100         tekfunc=0;
        LDI     R16, 0
        STS     ??tekfunc, R16
//  101         mode_programming=1; cod1=0;cod2=0;cod3=0;
        LDI     R16, 1
        STS     ??mode_programming, R16
        RCALL   ?Subroutine10
//  102         for (uchar i=0; i<=MAXFUNC; i++) {writeCOD();tekfunc++;}
??CrossCallReturnLabel_13:
        LDI     R24, 24
??main_10:
        RCALL   writeCOD
        LDI     R30, LOW(??tekfunc)
        LDI     R31, (??tekfunc) >> 8
        RCALL   ?Subroutine92
??CrossCallReturnLabel_308:
        DEC     R24
        BRNE    ??main_10
//  103         led_all(1); while(1) {} //зависаем
        RCALL   ??Subroutine132_0
??CrossCallReturnLabel_348:
        RJMP    ??CrossCallReturnLabel_348
//  104       }
//  105   if (keySELsm) {mode_programming=1; led_test();}//включаем программирование пульта
??main_9:
        SBIC    0x10, 0x01
        RJMP    ??main_11
        LDI     R16, 1
        STS     ??mode_programming, R16
        RCALL   led_test
//  106   
//  107   
//  108    if (mode_programming) //мигание первого программируемого
??main_11:
        LDS     R16, ??mode_programming
        TST     R16
        BREQ    ??main_12
//  109    {
//  110      for (uchar i=0; i<7; i++) {getadr(); p3;led_all(0); p3;}
        LDI     R24, 7
??main_13:
        RCALL   getadr
        RCALL   ?Subroutine61
??CrossCallReturnLabel_95:
        RCALL   ?Subroutine12
??CrossCallReturnLabel_19:
        RCALL   ?Subroutine61
??CrossCallReturnLabel_96:
        DEC     R24
        BRNE    ??main_13
//  111     
//  112      getadr();
        RCALL   getadr
//  113    }
//  114            
//  115 
//  116     __enable_interrupt();   
??main_12:
        SEI
        RJMP    ??main_14
//  117   while(1)
//  118   {
//  119      bool rez=remote_main();//вызов обработчика пульта 
//  120      if (!mode_programming)  
//  121      {    
//  122        pultadr=0; 
//  123        if (rez) pultadr=analizCOD();  
//  124        main_power();
//  125        if (on==1) main_logic();
//  126      }
//  127      else programming(rez);
??main_15:
        RCALL   programming
//  128      
//  129      if(u) diag();  
??main_16:
        LDS     R16, ??u
        TST     R16
        BREQ    ??main_14
        RCALL   diag
??main_14:
        RCALL   remote_main
        LDS     R17, ??mode_programming
        TST     R17
        BRNE    ??main_15
        LDI     R17, 0
        STS     pultadr, R17
        TST     R16
        BREQ    ??CrossCallReturnLabel_338
        RCALL   analizCOD
        RCALL   ?Subroutine105
??CrossCallReturnLabel_338:
        RCALL   main_power
        LDS     R16, on
        TST     R16
        BREQ    ??main_16
        RCALL   main_logic
        RJMP    ??main_16
          CFI EndBlock cfiBlock174
        REQUIRE _A_PIND
        REQUIRE _A_PORTB
//  130   }
//  131 }//main

        RSEG CODE:CODE:NOROOT(1)
?Subroutine65:
          CFI Block cfiCond175 Using cfiCommon0
          CFI Function main
          CFI Conditional ??CrossCallReturnLabel_257
          CFI R24 Frame(CFA_Y, -1)
          CFI CFA_SP SP+4
          CFI CFA_Y Y+1
          CFI Block cfiCond176 Using cfiCommon0
          CFI (cfiCond176) Function main
          CFI (cfiCond176) Conditional ??CrossCallReturnLabel_258
          CFI (cfiCond176) R24 Frame(CFA_Y, -1)
          CFI (cfiCond176) CFA_SP SP+4
          CFI (cfiCond176) CFA_Y Y+1
          CFI Block cfiCond177 Using cfiCommon0
          CFI (cfiCond177) Function main
          CFI (cfiCond177) Conditional ??CrossCallReturnLabel_259
          CFI (cfiCond177) R24 Frame(CFA_Y, -1)
          CFI (cfiCond177) CFA_SP SP+4
          CFI (cfiCond177) CFA_Y Y+1
          CFI Block cfiPicker178 Using cfiCommon2
          CFI (cfiPicker178) NoFunction
          CFI (cfiPicker178) Picker
        RCALL   ?Subroutine104
          CFI EndBlock cfiCond175
          CFI EndBlock cfiCond176
          CFI EndBlock cfiCond177
          CFI EndBlock cfiPicker178
??CrossCallReturnLabel_219:
        REQUIRE ?Subroutine117
        ;               // Fall through to label ?Subroutine117

        RSEG CODE:CODE:NOROOT(1)
?Subroutine117:
          CFI Block cfiCond179 Using cfiCommon0
          CFI Function main
          CFI Conditional ??CrossCallReturnLabel_257
          CFI R24 Frame(CFA_Y, -1)
          CFI CFA_SP SP+4
          CFI CFA_Y Y+1
          CFI Block cfiCond180 Using cfiCommon0
          CFI (cfiCond180) Function main
          CFI (cfiCond180) Conditional ??CrossCallReturnLabel_258
          CFI (cfiCond180) R24 Frame(CFA_Y, -1)
          CFI (cfiCond180) CFA_SP SP+4
          CFI (cfiCond180) CFA_Y Y+1
          CFI Block cfiCond181 Using cfiCommon0
          CFI (cfiCond181) Function main
          CFI (cfiCond181) Conditional ??CrossCallReturnLabel_259
          CFI (cfiCond181) R24 Frame(CFA_Y, -1)
          CFI (cfiCond181) CFA_SP SP+4
          CFI (cfiCond181) CFA_Y Y+1
          CFI Block cfiCond182 Using cfiCommon0
          CFI (cfiCond182) Function main_logic
          CFI (cfiCond182) Conditional ??CrossCallReturnLabel_264
          CFI (cfiCond182) CFA_SP SP+4
          CFI Block cfiCond183 Using cfiCommon0
          CFI (cfiCond183) Function main_logic
          CFI (cfiCond183) Conditional ??CrossCallReturnLabel_265
          CFI (cfiCond183) CFA_SP SP+4
          CFI Block cfiCond184 Using cfiCommon0
          CFI (cfiCond184) Function main_logic
          CFI (cfiCond184) Conditional ??CrossCallReturnLabel_266
          CFI (cfiCond184) CFA_SP SP+4
          CFI Block cfiCond185 Using cfiCommon0
          CFI (cfiCond185) Function main_logic
          CFI (cfiCond185) Conditional ??CrossCallReturnLabel_267
          CFI (cfiCond185) CFA_SP SP+4
          CFI Block cfiCond186 Using cfiCommon0
          CFI (cfiCond186) Function main
          CFI (cfiCond186) Conditional ??CrossCallReturnLabel_260
          CFI (cfiCond186) R24 Frame(CFA_Y, -1)
          CFI (cfiCond186) CFA_SP SP+4
          CFI (cfiCond186) CFA_Y Y+1
          CFI Block cfiCond187 Using cfiCommon0
          CFI (cfiCond187) Function source
          CFI (cfiCond187) Conditional ??CrossCallReturnLabel_261
          CFI (cfiCond187) CFA_SP SP+4
          CFI Block cfiCond188 Using cfiCommon0
          CFI (cfiCond188) Function resled
          CFI (cfiCond188) Conditional ??CrossCallReturnLabel_262
          CFI (cfiCond188) CFA_SP SP+4
          CFI Block cfiCond189 Using cfiCommon0
          CFI (cfiCond189) Function resOUT
          CFI (cfiCond189) Conditional ??CrossCallReturnLabel_263
          CFI (cfiCond189) CFA_SP SP+4
          CFI Block cfiPicker190 Using cfiCommon2
          CFI (cfiPicker190) NoFunction
          CFI (cfiPicker190) Picker
        TST     R16
        RET
          CFI EndBlock cfiCond179
          CFI EndBlock cfiCond180
          CFI EndBlock cfiCond181
          CFI EndBlock cfiCond182
          CFI EndBlock cfiCond183
          CFI EndBlock cfiCond184
          CFI EndBlock cfiCond185
          CFI EndBlock cfiCond186
          CFI EndBlock cfiCond187
          CFI EndBlock cfiCond188
          CFI EndBlock cfiCond189
          CFI EndBlock cfiPicker190

        RSEG CODE:CODE:NOROOT(1)
?Subroutine62:
          CFI Block cfiCond191 Using cfiCommon0
          CFI Function main
          CFI Conditional ??CrossCallReturnLabel_98
          CFI R24 Frame(CFA_Y, -1)
          CFI CFA_SP SP+4
          CFI CFA_Y Y+1
          CFI Block cfiCond192 Using cfiCommon0
          CFI (cfiCond192) Function main
          CFI (cfiCond192) Conditional ??CrossCallReturnLabel_97
          CFI (cfiCond192) R24 Frame(CFA_Y, -1)
          CFI (cfiCond192) CFA_SP SP+4
          CFI (cfiCond192) CFA_Y Y+1
          CFI Block cfiPicker193 Using cfiCommon2
          CFI (cfiPicker193) NoFunction
          CFI (cfiPicker193) Picker
        RCALL   __eeput8_16
        RJMP    ?Subroutine103
          CFI EndBlock cfiCond191
          CFI EndBlock cfiCond192
          CFI EndBlock cfiPicker193

        RSEG CODE:CODE:NOROOT(1)
?Subroutine61:
          CFI Block cfiCond194 Using cfiCommon0
          CFI Function main
          CFI Conditional ??CrossCallReturnLabel_94
          CFI R24 Frame(CFA_Y, -1)
          CFI CFA_SP SP+4
          CFI CFA_Y Y+1
          CFI Block cfiCond195 Using cfiCommon0
          CFI (cfiCond195) Function main
          CFI (cfiCond195) Conditional ??CrossCallReturnLabel_95
          CFI (cfiCond195) R24 Frame(CFA_Y, -1)
          CFI (cfiCond195) CFA_SP SP+4
          CFI (cfiCond195) CFA_Y Y+1
          CFI Block cfiCond196 Using cfiCommon0
          CFI (cfiCond196) Function main
          CFI (cfiCond196) Conditional ??CrossCallReturnLabel_96
          CFI (cfiCond196) R24 Frame(CFA_Y, -1)
          CFI (cfiCond196) CFA_SP SP+4
          CFI (cfiCond196) CFA_Y Y+1
          CFI Block cfiPicker197 Using cfiCommon2
          CFI (cfiPicker197) NoFunction
          CFI (cfiPicker197) Picker
        LDI     R16, 127
        LDI     R17, 169
        LDI     R18, 3
        SUBI    R16, 1
        SBCI    R17, 0
        SBCI    R18, 0
        BRNE    $-6
        RJMP    $+2
        NOP
        RET
          CFI EndBlock cfiCond194
          CFI EndBlock cfiCond195
          CFI EndBlock cfiCond196
          CFI EndBlock cfiPicker197

        RSEG CODE:CODE:NOROOT(1)
?Subroutine92:
          CFI Block cfiCond198 Using cfiCommon0
          CFI Function coding
          CFI Conditional ??CrossCallReturnLabel_311, ??CrossCallReturnLabel_44
          CFI R24 Frame(CFA_Y, -10)
          CFI R25 Frame(CFA_Y, -9)
          CFI R26 Frame(CFA_Y, -8)
          CFI R27 Frame(CFA_Y, -7)
          CFI R4 Frame(CFA_Y, -6)
          CFI R5 Frame(CFA_Y, -5)
          CFI R6 Frame(CFA_Y, -4)
          CFI R7 Frame(CFA_Y, -3)
          CFI R8 Frame(CFA_Y, -2)
          CFI R9 Frame(CFA_Y, -1)
          CFI CFA_SP SP+6
          CFI CFA_Y Y+10
          CFI Block cfiCond199 Using cfiCommon0
          CFI (cfiCond199) Function coding
          CFI (cfiCond199) Conditional ??CrossCallReturnLabel_311, ??CrossCallReturnLabel_45
          CFI (cfiCond199) R24 Frame(CFA_Y, -10)
          CFI (cfiCond199) R25 Frame(CFA_Y, -9)
          CFI (cfiCond199) R26 Frame(CFA_Y, -8)
          CFI (cfiCond199) R27 Frame(CFA_Y, -7)
          CFI (cfiCond199) R4 Frame(CFA_Y, -6)
          CFI (cfiCond199) R5 Frame(CFA_Y, -5)
          CFI (cfiCond199) R6 Frame(CFA_Y, -4)
          CFI (cfiCond199) R7 Frame(CFA_Y, -3)
          CFI (cfiCond199) R8 Frame(CFA_Y, -2)
          CFI (cfiCond199) R9 Frame(CFA_Y, -1)
          CFI (cfiCond199) CFA_SP SP+6
          CFI (cfiCond199) CFA_Y Y+10
          CFI Block cfiCond200 Using cfiCommon0
          CFI (cfiCond200) Function coding
          CFI (cfiCond200) Conditional ??CrossCallReturnLabel_311, ??CrossCallReturnLabel_46
          CFI (cfiCond200) R24 Frame(CFA_Y, -10)
          CFI (cfiCond200) R25 Frame(CFA_Y, -9)
          CFI (cfiCond200) R26 Frame(CFA_Y, -8)
          CFI (cfiCond200) R27 Frame(CFA_Y, -7)
          CFI (cfiCond200) R4 Frame(CFA_Y, -6)
          CFI (cfiCond200) R5 Frame(CFA_Y, -5)
          CFI (cfiCond200) R6 Frame(CFA_Y, -4)
          CFI (cfiCond200) R7 Frame(CFA_Y, -3)
          CFI (cfiCond200) R8 Frame(CFA_Y, -2)
          CFI (cfiCond200) R9 Frame(CFA_Y, -1)
          CFI (cfiCond200) CFA_SP SP+6
          CFI (cfiCond200) CFA_Y Y+10
          CFI Block cfiCond201 Using cfiCommon0
          CFI (cfiCond201) Function analiz_INT
          CFI (cfiCond201) Conditional ??CrossCallReturnLabel_307
          CFI (cfiCond201) CFA_SP SP+4
          CFI Block cfiCond202 Using cfiCommon0
          CFI (cfiCond202) Function main
          CFI (cfiCond202) Conditional ??CrossCallReturnLabel_308
          CFI (cfiCond202) R24 Frame(CFA_Y, -1)
          CFI (cfiCond202) CFA_SP SP+4
          CFI (cfiCond202) CFA_Y Y+1
          CFI Block cfiCond203 Using cfiCommon0
          CFI (cfiCond203) Function migWORK
          CFI (cfiCond203) Conditional ??CrossCallReturnLabel_309
          CFI (cfiCond203) CFA_SP SP+4
          CFI Block cfiCond204 Using cfiCommon0
          CFI (cfiCond204) Function programming
          CFI (cfiCond204) Conditional ??CrossCallReturnLabel_310, ??CrossCallReturnLabel_15
          CFI (cfiCond204) R24 Frame(CFA_Y, -1)
          CFI (cfiCond204) CFA_SP SP+6
          CFI (cfiCond204) CFA_Y Y+1
          CFI Block cfiCond205 Using cfiCommon0
          CFI (cfiCond205) Function programming
          CFI (cfiCond205) Conditional ??CrossCallReturnLabel_310, ??CrossCallReturnLabel_16
          CFI (cfiCond205) R24 Frame(CFA_Y, -1)
          CFI (cfiCond205) CFA_SP SP+6
          CFI (cfiCond205) CFA_Y Y+1
          CFI Block cfiPicker206 Using cfiCommon2
          CFI (cfiPicker206) NoFunction
          CFI (cfiPicker206) Picker
        LD      R16, Z
        INC     R16
        RJMP    ??Subroutine127_0
          CFI EndBlock cfiCond198
          CFI EndBlock cfiCond199
          CFI EndBlock cfiCond200
          CFI EndBlock cfiCond201
          CFI EndBlock cfiCond202
          CFI EndBlock cfiCond203
          CFI EndBlock cfiCond204
          CFI EndBlock cfiCond205
          CFI EndBlock cfiPicker206

        RSEG CODE:CODE:NOROOT(1)
?Subroutine14:
          CFI Block cfiCond207 Using cfiCommon0
          CFI Function main
          CFI Conditional ??CrossCallReturnLabel_23
          CFI R24 Frame(CFA_Y, -1)
          CFI CFA_SP SP+4
          CFI CFA_Y Y+1
          CFI Block cfiCond208 Using cfiCommon0
          CFI (cfiCond208) Function main
          CFI (cfiCond208) Conditional ??CrossCallReturnLabel_24
          CFI (cfiCond208) R24 Frame(CFA_Y, -1)
          CFI (cfiCond208) CFA_SP SP+4
          CFI (cfiCond208) CFA_Y Y+1
          CFI Block cfiPicker209 Using cfiCommon2
          CFI (cfiPicker209) NoFunction
          CFI (cfiPicker209) Picker
        LDI     R16, 0
        LDI     R20, LOW(modegro)
        LDI     R21, (modegro) >> 8
        RJMP    __eeput8_16
          CFI EndBlock cfiCond207
          CFI EndBlock cfiCond208
          CFI EndBlock cfiPicker209

        RSEG CODE:CODE:NOROOT(1)
?Subroutine13:
          CFI Block cfiCond210 Using cfiCommon0
          CFI Function main
          CFI Conditional ??CrossCallReturnLabel_21
          CFI R24 Frame(CFA_Y, -1)
          CFI CFA_SP SP+4
          CFI CFA_Y Y+1
          CFI Block cfiCond211 Using cfiCommon0
          CFI (cfiCond211) Function main
          CFI (cfiCond211) Conditional ??CrossCallReturnLabel_22
          CFI (cfiCond211) R24 Frame(CFA_Y, -1)
          CFI (cfiCond211) CFA_SP SP+4
          CFI (cfiCond211) CFA_Y Y+1
          CFI Block cfiPicker212 Using cfiCommon2
          CFI (cfiPicker212) NoFunction
          CFI (cfiPicker212) Picker
        LDI     R16, 0
        LDI     R20, LOW(fmode)
        LDI     R21, (fmode) >> 8
        RJMP    __eeput8_16
          CFI EndBlock cfiCond210
          CFI EndBlock cfiCond211
          CFI EndBlock cfiPicker212

        RSEG CODE:CODE:NOROOT(1)
?Subroutine10:
          CFI Block cfiCond213 Using cfiCommon0
          CFI Function PEREP
          CFI Conditional ??CrossCallReturnLabel_14
          CFI R24 Frame(CFA_Y, -8)
          CFI R25 Frame(CFA_Y, -7)
          CFI R26 Frame(CFA_Y, -6)
          CFI R27 Frame(CFA_Y, -5)
          CFI R4 Frame(CFA_Y, -4)
          CFI R5 Frame(CFA_Y, -3)
          CFI R6 Frame(CFA_Y, -2)
          CFI R7 Frame(CFA_Y, -1)
          CFI CFA_SP SP+4
          CFI CFA_Y Y+8
          CFI Block cfiCond214 Using cfiCommon0
          CFI (cfiCond214) Function main
          CFI (cfiCond214) Conditional ??CrossCallReturnLabel_13
          CFI (cfiCond214) R24 Frame(CFA_Y, -1)
          CFI (cfiCond214) CFA_SP SP+4
          CFI (cfiCond214) CFA_Y Y+1
          CFI Block cfiPicker215 Using cfiCommon2
          CFI (cfiPicker215) NoFunction
          CFI (cfiPicker215) Picker
        LDI     R16, 0
        RCALL   ?Subroutine102
??CrossCallReturnLabel_215:
        RCALL   ?Subroutine89
??CrossCallReturnLabel_164:
        LDI     R30, LOW(cod2)
        LDI     R31, (cod2) >> 8
        RCALL   ?Subroutine89
??CrossCallReturnLabel_165:
        LDI     R30, LOW(cod3)
        LDI     R31, (cod3) >> 8
        RJMP    ?Subroutine89
          CFI EndBlock cfiCond213
          CFI EndBlock cfiCond214
          CFI EndBlock cfiPicker215
//  132 //***************************************************************************
//  133 
//  134 
//  135 
//  136 
//  137 
//  138 
//  139 
//  140 
//  141 
//  142 
//  143 

        RSEG CODE:CODE:NOROOT(1)
//  144  void main_power()
main_power:
          CFI Block cfiBlock216 Using cfiCommon0
          CFI Function main_power
//  145 {
//  146 
//  147  if ((keyON||pultadr==25 || pultadr==90) && on==1 && zader!=1) { rprintfStr("OFF>adr="); rprintfFloat(9, pultadr ); ent;
        FUNCALL main_power, rprintfStr
        LOCFRAME CSTACK, 0, STACK
        LOCFRAME RSTACK, 2, STACK
        ARGFRAME RSTACK, 0, STACK
        FUNCALL main_power, rprintfFloat
        LOCFRAME CSTACK, 0, STACK
        LOCFRAME RSTACK, 2, STACK
        ARGFRAME RSTACK, 0, STACK
        FUNCALL main_power, USART_SendChar
        LOCFRAME CSTACK, 0, STACK
        LOCFRAME RSTACK, 2, STACK
        ARGFRAME RSTACK, 0, STACK
        FUNCALL main_power, rprintfStr
        LOCFRAME CSTACK, 0, STACK
        LOCFRAME RSTACK, 2, STACK
        ARGFRAME RSTACK, 0, STACK
        FUNCALL main_power, rprintfFloat
        LOCFRAME CSTACK, 0, STACK
        LOCFRAME RSTACK, 2, STACK
        ARGFRAME RSTACK, 0, STACK
        FUNCALL main_power, USART_SendChar
        LOCFRAME CSTACK, 0, STACK
        LOCFRAME RSTACK, 2, STACK
        ARGFRAME RSTACK, 0, STACK
        FUNCALL main_power, source
        LOCFRAME CSTACK, 0, STACK
        LOCFRAME RSTACK, 2, STACK
        ARGFRAME RSTACK, 0, STACK
        FUNCALL main_power, resOUT
        LOCFRAME CSTACK, 0, STACK
        LOCFRAME RSTACK, 2, STACK
        ARGFRAME RSTACK, 0, STACK
        SBIC    0x10, 0x05
        RJMP    ??main_power_0
        SBIS    0x10, 0x00
        RJMP    ??main_power_0
        SBIC    0x10, 0x01
        RJMP    ??main_power_1
??main_power_0:
        RCALL   ?Subroutine69
??CrossCallReturnLabel_104:
        CPI     R16, 25
        BREQ    ??main_power_1
        CPI     R16, 90
        BRNE    ??CrossCallReturnLabel_339
??main_power_1:
        LDS     R17, on
        LDS     R18, zader
        LDI     R16, 1
        EOR     R18, R16
        AND     R17, R18
        BREQ    ??CrossCallReturnLabel_339
        LDI     R16, LOW(`?<Constant "OFF>adr=">`)
        LDI     R17, (`?<Constant "OFF>adr=">`) >> 8
        RCALL   ?Subroutine18
//  148                     on=0;onok=0; p5; zader=0;  til=0; gro1=0; gro2=0; pultadr=0;  }//OFF
??CrossCallReturnLabel_31:
        RCALL   ?Subroutine15
??CrossCallReturnLabel_25:
        RCALL   ?Subroutine103
??CrossCallReturnLabel_330:
        RCALL   ?Subroutine85
??CrossCallReturnLabel_149:
        STS     ??til, R16
        STS     ??gro1, R16
        STS     ??gro2, R16
        RCALL   ?Subroutine105
//  149      if ((keyON||pultadr==25 || pultadr==90) && on==0) {rprintfStr("ON>adr="); rprintfFloat(9, pultadr ); ent;
??CrossCallReturnLabel_339:
        SBIC    0x10, 0x05
        RJMP    ??main_power_2
        SBIS    0x10, 0x00
        RJMP    ??main_power_2
        SBIC    0x10, 0x01
        RJMP    ??main_power_3
??main_power_2:
        RCALL   ?Subroutine69
??CrossCallReturnLabel_105:
        CPI     R16, 25
        BREQ    ??main_power_3
        CPI     R16, 90
        BRNE    ??CrossCallReturnLabel_341
??main_power_3:
        LDS     R16, on
        TST     R16
        BRNE    ??CrossCallReturnLabel_341
        LDI     R16, LOW(`?<Constant "ON>adr=">`)
        LDI     R17, (`?<Constant "ON>adr=">`) >> 8
        RCALL   ?Subroutine18
//  150                     SET(PORTD,4); SET(PORTD,7);p5; on=1; mute=0; zader=1;timerzad=0;source();pultadr=0;  }//ON
??CrossCallReturnLabel_32:
        SBI     0x12, 0x04
        SBI     0x12, 0x07
        RCALL   ?Subroutine103
??CrossCallReturnLabel_331:
        LDI     R16, 1
        STS     on, R16
        LDI     R16, 0
        STS     mute, R16
        RCALL   ?Subroutine3
??CrossCallReturnLabel_9:
        RCALL   ??Subroutine131_0
//  151      
//  152     //выключение
//  153     if (on==0 && onok==0) { on=0; aoff=0; p5; zader=0; regaoff=0; AC_OFF; delay_s(1); tON=acon; 
??CrossCallReturnLabel_341:
        LDS     R16, on
        LDS     R17, onok
        OR      R16, R17
        BRNE    ??main_power_4
        LDI     R16, 0
        STS     on, R16
        RCALL   ?Subroutine16
??CrossCallReturnLabel_28:
        CBI     0x12, 0x06
        RCALL   ?Subroutine70
??CrossCallReturnLabel_120:
        LDI     R16, 32
        LDI     R17, 78
        LDI     R30, LOW(tON)
        LDI     R31, (tON) >> 8
        RCALL   ??Subroutine129_0
//  154     			    PORTB=0; RES(PORTD,7);RES(PORTD,4); resOUT(); RES(PORTC,5); RES(PORTC,0);RES(PORTD,3); onok=1;
??CrossCallReturnLabel_320:
        LDI     R16, 0
        OUT     0x18, R16
        CBI     0x12, 0x07
        CBI     0x12, 0x04
        RCALL   resOUT
        CBI     0x15, 0x05
        CBI     0x15, 0x00
        CBI     0x12, 0x03
        LDI     R16, 1
        STS     onok, R16
//  155                           }
//  156                             
//  157 }
??main_power_4:
        RET
          CFI EndBlock cfiBlock216
        REQUIRE _A_PIND
        REQUIRE _A_PORTD
        REQUIRE _A_PORTB
        REQUIRE _A_PORTC

        RSEG CODE:CODE:NOROOT(1)
?Subroutine103:
          CFI Block cfiCond217 Using cfiCommon0
          CFI Function main
          CFI Conditional ??CrossCallReturnLabel_98
          CFI R24 Frame(CFA_Y, -1)
          CFI CFA_SP SP+4
          CFI CFA_Y Y+1
          CFI Block cfiCond218 Using cfiCommon0
          CFI (cfiCond218) Function main
          CFI (cfiCond218) Conditional ??CrossCallReturnLabel_97
          CFI (cfiCond218) R24 Frame(CFA_Y, -1)
          CFI (cfiCond218) CFA_SP SP+4
          CFI (cfiCond218) CFA_Y Y+1
          CFI Block cfiCond219 Using cfiCommon0
          CFI (cfiCond219) Function main
          CFI (cfiCond219) Conditional ??CrossCallReturnLabel_328
          CFI (cfiCond219) R24 Frame(CFA_Y, -1)
          CFI (cfiCond219) CFA_SP SP+4
          CFI (cfiCond219) CFA_Y Y+1
          CFI Block cfiCond220 Using cfiCommon0
          CFI (cfiCond220) Function main
          CFI (cfiCond220) Conditional ??CrossCallReturnLabel_329
          CFI (cfiCond220) R24 Frame(CFA_Y, -1)
          CFI (cfiCond220) CFA_SP SP+4
          CFI (cfiCond220) CFA_Y Y+1
          CFI Block cfiCond221 Using cfiCommon0
          CFI (cfiCond221) Function main_power
          CFI (cfiCond221) Conditional ??CrossCallReturnLabel_330
          CFI (cfiCond221) CFA_SP SP+4
          CFI Block cfiCond222 Using cfiCommon0
          CFI (cfiCond222) Function main_power
          CFI (cfiCond222) Conditional ??CrossCallReturnLabel_331
          CFI (cfiCond222) CFA_SP SP+4
          CFI Block cfiCond223 Using cfiCommon0
          CFI (cfiCond223) Function main_power
          CFI (cfiCond223) Conditional ??CrossCallReturnLabel_332, ??CrossCallReturnLabel_28
          CFI (cfiCond223) CFA_SP SP+6
          CFI Block cfiCond224 Using cfiCommon0
          CFI (cfiCond224) Function main_logic
          CFI (cfiCond224) Conditional ??CrossCallReturnLabel_332, ??CrossCallReturnLabel_27
          CFI (cfiCond224) CFA_SP SP+6
          CFI Block cfiCond225 Using cfiCommon0
          CFI (cfiCond225) Function main_logic
          CFI (cfiCond225) Conditional ??CrossCallReturnLabel_333, ??CrossCallReturnLabel_337
          CFI (cfiCond225) CFA_SP SP+6
          CFI Block cfiCond226 Using cfiCommon0
          CFI (cfiCond226) Function main_logic
          CFI (cfiCond226) Conditional ??CrossCallReturnLabel_333, ??CrossCallReturnLabel_336
          CFI (cfiCond226) CFA_SP SP+6
          CFI Block cfiCond227 Using cfiCommon0
          CFI (cfiCond227) Function main_logic
          CFI (cfiCond227) Conditional ??CrossCallReturnLabel_333, ??CrossCallReturnLabel_335
          CFI (cfiCond227) CFA_SP SP+6
          CFI Block cfiCond228 Using cfiCommon0
          CFI (cfiCond228) Function main_logic
          CFI (cfiCond228) Conditional ??CrossCallReturnLabel_333, ??CrossCallReturnLabel_334
          CFI (cfiCond228) CFA_SP SP+6
          CFI Block cfiPicker229 Using cfiCommon2
          CFI (cfiPicker229) NoFunction
          CFI (cfiPicker229) Picker
        LDI     R16, 127
        LDI     R17, 26
        LDI     R18, 6
        SUBI    R16, 1
        SBCI    R17, 0
        SBCI    R18, 0
        BRNE    $-6
        RJMP    $+2
        NOP
        RET
          CFI EndBlock cfiCond217
          CFI EndBlock cfiCond218
          CFI EndBlock cfiCond219
          CFI EndBlock cfiCond220
          CFI EndBlock cfiCond221
          CFI EndBlock cfiCond222
          CFI EndBlock cfiCond223
          CFI EndBlock cfiCond224
          CFI EndBlock cfiCond225
          CFI EndBlock cfiCond226
          CFI EndBlock cfiCond227
          CFI EndBlock cfiCond228
          CFI EndBlock cfiPicker229

        RSEG CODE:CODE:NOROOT(1)
?Subroutine25:
          CFI Block cfiCond230 Using cfiCommon0
          CFI Function coding
          CFI Conditional ??CrossCallReturnLabel_325
          CFI R24 Frame(CFA_Y, -10)
          CFI R25 Frame(CFA_Y, -9)
          CFI R26 Frame(CFA_Y, -8)
          CFI R27 Frame(CFA_Y, -7)
          CFI R4 Frame(CFA_Y, -6)
          CFI R5 Frame(CFA_Y, -5)
          CFI R6 Frame(CFA_Y, -4)
          CFI R7 Frame(CFA_Y, -3)
          CFI R8 Frame(CFA_Y, -2)
          CFI R9 Frame(CFA_Y, -1)
          CFI CFA_SP SP+4
          CFI CFA_Y Y+10
          CFI Block cfiCond231 Using cfiCommon0
          CFI (cfiCond231) Function coding
          CFI (cfiCond231) Conditional ??CrossCallReturnLabel_326
          CFI (cfiCond231) R24 Frame(CFA_Y, -10)
          CFI (cfiCond231) R25 Frame(CFA_Y, -9)
          CFI (cfiCond231) R26 Frame(CFA_Y, -8)
          CFI (cfiCond231) R27 Frame(CFA_Y, -7)
          CFI (cfiCond231) R4 Frame(CFA_Y, -6)
          CFI (cfiCond231) R5 Frame(CFA_Y, -5)
          CFI (cfiCond231) R6 Frame(CFA_Y, -4)
          CFI (cfiCond231) R7 Frame(CFA_Y, -3)
          CFI (cfiCond231) R8 Frame(CFA_Y, -2)
          CFI (cfiCond231) R9 Frame(CFA_Y, -1)
          CFI (cfiCond231) CFA_SP SP+4
          CFI (cfiCond231) CFA_Y Y+10
          CFI Block cfiCond232 Using cfiCommon0
          CFI (cfiCond232) Function coding
          CFI (cfiCond232) Conditional ??CrossCallReturnLabel_327
          CFI (cfiCond232) R24 Frame(CFA_Y, -10)
          CFI (cfiCond232) R25 Frame(CFA_Y, -9)
          CFI (cfiCond232) R26 Frame(CFA_Y, -8)
          CFI (cfiCond232) R27 Frame(CFA_Y, -7)
          CFI (cfiCond232) R4 Frame(CFA_Y, -6)
          CFI (cfiCond232) R5 Frame(CFA_Y, -5)
          CFI (cfiCond232) R6 Frame(CFA_Y, -4)
          CFI (cfiCond232) R7 Frame(CFA_Y, -3)
          CFI (cfiCond232) R8 Frame(CFA_Y, -2)
          CFI (cfiCond232) R9 Frame(CFA_Y, -1)
          CFI (cfiCond232) CFA_SP SP+4
          CFI (cfiCond232) CFA_Y Y+10
          CFI Block cfiPicker233 Using cfiCommon2
          CFI (cfiPicker233) NoFunction
          CFI (cfiPicker233) Picker
        RCALL   ?Subroutine95
          CFI EndBlock cfiCond230
          CFI EndBlock cfiCond231
          CFI EndBlock cfiCond232
          CFI EndBlock cfiPicker233
??CrossCallReturnLabel_186:
        REQUIRE ??Subroutine128_0
        ;               // Fall through to label ??Subroutine128_0

        RSEG CODE:CODE:NOROOT(1)
??Subroutine128_0:
          CFI Block cfiCond234 Using cfiCommon0
          CFI Function coding
          CFI Conditional ??CrossCallReturnLabel_323
          CFI R24 Frame(CFA_Y, -10)
          CFI R25 Frame(CFA_Y, -9)
          CFI R26 Frame(CFA_Y, -8)
          CFI R27 Frame(CFA_Y, -7)
          CFI R4 Frame(CFA_Y, -6)
          CFI R5 Frame(CFA_Y, -5)
          CFI R6 Frame(CFA_Y, -4)
          CFI R7 Frame(CFA_Y, -3)
          CFI R8 Frame(CFA_Y, -2)
          CFI R9 Frame(CFA_Y, -1)
          CFI CFA_SP SP+4
          CFI CFA_Y Y+10
          CFI Block cfiCond235 Using cfiCommon0
          CFI (cfiCond235) Function coding
          CFI (cfiCond235) Conditional ??CrossCallReturnLabel_324
          CFI (cfiCond235) R24 Frame(CFA_Y, -10)
          CFI (cfiCond235) R25 Frame(CFA_Y, -9)
          CFI (cfiCond235) R26 Frame(CFA_Y, -8)
          CFI (cfiCond235) R27 Frame(CFA_Y, -7)
          CFI (cfiCond235) R4 Frame(CFA_Y, -6)
          CFI (cfiCond235) R5 Frame(CFA_Y, -5)
          CFI (cfiCond235) R6 Frame(CFA_Y, -4)
          CFI (cfiCond235) R7 Frame(CFA_Y, -3)
          CFI (cfiCond235) R8 Frame(CFA_Y, -2)
          CFI (cfiCond235) R9 Frame(CFA_Y, -1)
          CFI (cfiCond235) CFA_SP SP+4
          CFI (cfiCond235) CFA_Y Y+10
          CFI Block cfiCond236 Using cfiCommon0
          CFI (cfiCond236) Function coding
          CFI (cfiCond236) Conditional ??CrossCallReturnLabel_325
          CFI (cfiCond236) R24 Frame(CFA_Y, -10)
          CFI (cfiCond236) R25 Frame(CFA_Y, -9)
          CFI (cfiCond236) R26 Frame(CFA_Y, -8)
          CFI (cfiCond236) R27 Frame(CFA_Y, -7)
          CFI (cfiCond236) R4 Frame(CFA_Y, -6)
          CFI (cfiCond236) R5 Frame(CFA_Y, -5)
          CFI (cfiCond236) R6 Frame(CFA_Y, -4)
          CFI (cfiCond236) R7 Frame(CFA_Y, -3)
          CFI (cfiCond236) R8 Frame(CFA_Y, -2)
          CFI (cfiCond236) R9 Frame(CFA_Y, -1)
          CFI (cfiCond236) CFA_SP SP+4
          CFI (cfiCond236) CFA_Y Y+10
          CFI Block cfiCond237 Using cfiCommon0
          CFI (cfiCond237) Function coding
          CFI (cfiCond237) Conditional ??CrossCallReturnLabel_326
          CFI (cfiCond237) R24 Frame(CFA_Y, -10)
          CFI (cfiCond237) R25 Frame(CFA_Y, -9)
          CFI (cfiCond237) R26 Frame(CFA_Y, -8)
          CFI (cfiCond237) R27 Frame(CFA_Y, -7)
          CFI (cfiCond237) R4 Frame(CFA_Y, -6)
          CFI (cfiCond237) R5 Frame(CFA_Y, -5)
          CFI (cfiCond237) R6 Frame(CFA_Y, -4)
          CFI (cfiCond237) R7 Frame(CFA_Y, -3)
          CFI (cfiCond237) R8 Frame(CFA_Y, -2)
          CFI (cfiCond237) R9 Frame(CFA_Y, -1)
          CFI (cfiCond237) CFA_SP SP+4
          CFI (cfiCond237) CFA_Y Y+10
          CFI Block cfiCond238 Using cfiCommon0
          CFI (cfiCond238) Function coding
          CFI (cfiCond238) Conditional ??CrossCallReturnLabel_327
          CFI (cfiCond238) R24 Frame(CFA_Y, -10)
          CFI (cfiCond238) R25 Frame(CFA_Y, -9)
          CFI (cfiCond238) R26 Frame(CFA_Y, -8)
          CFI (cfiCond238) R27 Frame(CFA_Y, -7)
          CFI (cfiCond238) R4 Frame(CFA_Y, -6)
          CFI (cfiCond238) R5 Frame(CFA_Y, -5)
          CFI (cfiCond238) R6 Frame(CFA_Y, -4)
          CFI (cfiCond238) R7 Frame(CFA_Y, -3)
          CFI (cfiCond238) R8 Frame(CFA_Y, -2)
          CFI (cfiCond238) R9 Frame(CFA_Y, -1)
          CFI (cfiCond238) CFA_SP SP+4
          CFI (cfiCond238) CFA_Y Y+10
          CFI Block cfiPicker239 Using cfiCommon2
          CFI (cfiPicker239) NoFunction
          CFI (cfiPicker239) Picker
        ADD     R16, R24
        ADC     R17, R25
          CFI EndBlock cfiCond234
          CFI EndBlock cfiCond235
          CFI EndBlock cfiCond236
          CFI EndBlock cfiCond237
          CFI EndBlock cfiCond238
          CFI EndBlock cfiPicker239
        REQUIRE ??Subroutine129_0
        ;               // Fall through to label ??Subroutine129_0

        RSEG CODE:CODE:NOROOT(1)
??Subroutine129_0:
          CFI Block cfiCond240 Using cfiCommon0
          CFI Function analiz_INT
          CFI Conditional ??CrossCallReturnLabel_312
          CFI CFA_SP SP+4
          CFI Block cfiCond241 Using cfiCommon0
          CFI (cfiCond241) Function analiz_INT
          CFI (cfiCond241) Conditional ??CrossCallReturnLabel_313
          CFI (cfiCond241) CFA_SP SP+4
          CFI Block cfiCond242 Using cfiCommon0
          CFI (cfiCond242) Function PEREP
          CFI (cfiCond242) Conditional ??CrossCallReturnLabel_314
          CFI (cfiCond242) R24 Frame(CFA_Y, -8)
          CFI (cfiCond242) R25 Frame(CFA_Y, -7)
          CFI (cfiCond242) R26 Frame(CFA_Y, -6)
          CFI (cfiCond242) R27 Frame(CFA_Y, -5)
          CFI (cfiCond242) R4 Frame(CFA_Y, -4)
          CFI (cfiCond242) R5 Frame(CFA_Y, -3)
          CFI (cfiCond242) R6 Frame(CFA_Y, -2)
          CFI (cfiCond242) R7 Frame(CFA_Y, -1)
          CFI (cfiCond242) CFA_SP SP+4
          CFI (cfiCond242) CFA_Y Y+8
          CFI Block cfiCond243 Using cfiCommon0
          CFI (cfiCond243) Function PEREP
          CFI (cfiCond243) Conditional ??CrossCallReturnLabel_315
          CFI (cfiCond243) R24 Frame(CFA_Y, -8)
          CFI (cfiCond243) R25 Frame(CFA_Y, -7)
          CFI (cfiCond243) R26 Frame(CFA_Y, -6)
          CFI (cfiCond243) R27 Frame(CFA_Y, -5)
          CFI (cfiCond243) R4 Frame(CFA_Y, -4)
          CFI (cfiCond243) R5 Frame(CFA_Y, -3)
          CFI (cfiCond243) R6 Frame(CFA_Y, -2)
          CFI (cfiCond243) R7 Frame(CFA_Y, -1)
          CFI (cfiCond243) CFA_SP SP+4
          CFI (cfiCond243) CFA_Y Y+8
          CFI Block cfiCond244 Using cfiCommon0
          CFI (cfiCond244) Function coding
          CFI (cfiCond244) Conditional ??CrossCallReturnLabel_316
          CFI (cfiCond244) R24 Frame(CFA_Y, -10)
          CFI (cfiCond244) R25 Frame(CFA_Y, -9)
          CFI (cfiCond244) R26 Frame(CFA_Y, -8)
          CFI (cfiCond244) R27 Frame(CFA_Y, -7)
          CFI (cfiCond244) R4 Frame(CFA_Y, -6)
          CFI (cfiCond244) R5 Frame(CFA_Y, -5)
          CFI (cfiCond244) R6 Frame(CFA_Y, -4)
          CFI (cfiCond244) R7 Frame(CFA_Y, -3)
          CFI (cfiCond244) R8 Frame(CFA_Y, -2)
          CFI (cfiCond244) R9 Frame(CFA_Y, -1)
          CFI (cfiCond244) CFA_SP SP+4
          CFI (cfiCond244) CFA_Y Y+10
          CFI Block cfiCond245 Using cfiCommon0
          CFI (cfiCond245) Function coding
          CFI (cfiCond245) Conditional ??CrossCallReturnLabel_317
          CFI (cfiCond245) R24 Frame(CFA_Y, -10)
          CFI (cfiCond245) R25 Frame(CFA_Y, -9)
          CFI (cfiCond245) R26 Frame(CFA_Y, -8)
          CFI (cfiCond245) R27 Frame(CFA_Y, -7)
          CFI (cfiCond245) R4 Frame(CFA_Y, -6)
          CFI (cfiCond245) R5 Frame(CFA_Y, -5)
          CFI (cfiCond245) R6 Frame(CFA_Y, -4)
          CFI (cfiCond245) R7 Frame(CFA_Y, -3)
          CFI (cfiCond245) R8 Frame(CFA_Y, -2)
          CFI (cfiCond245) R9 Frame(CFA_Y, -1)
          CFI (cfiCond245) CFA_SP SP+4
          CFI (cfiCond245) CFA_Y Y+10
          CFI Block cfiCond246 Using cfiCommon0
          CFI (cfiCond246) Function coding
          CFI (cfiCond246) Conditional ??CrossCallReturnLabel_318
          CFI (cfiCond246) R24 Frame(CFA_Y, -10)
          CFI (cfiCond246) R25 Frame(CFA_Y, -9)
          CFI (cfiCond246) R26 Frame(CFA_Y, -8)
          CFI (cfiCond246) R27 Frame(CFA_Y, -7)
          CFI (cfiCond246) R4 Frame(CFA_Y, -6)
          CFI (cfiCond246) R5 Frame(CFA_Y, -5)
          CFI (cfiCond246) R6 Frame(CFA_Y, -4)
          CFI (cfiCond246) R7 Frame(CFA_Y, -3)
          CFI (cfiCond246) R8 Frame(CFA_Y, -2)
          CFI (cfiCond246) R9 Frame(CFA_Y, -1)
          CFI (cfiCond246) CFA_SP SP+4
          CFI (cfiCond246) CFA_Y Y+10
          CFI Block cfiCond247 Using cfiCommon0
          CFI (cfiCond247) Function coding
          CFI (cfiCond247) Conditional ??CrossCallReturnLabel_319
          CFI (cfiCond247) R24 Frame(CFA_Y, -10)
          CFI (cfiCond247) R25 Frame(CFA_Y, -9)
          CFI (cfiCond247) R26 Frame(CFA_Y, -8)
          CFI (cfiCond247) R27 Frame(CFA_Y, -7)
          CFI (cfiCond247) R4 Frame(CFA_Y, -6)
          CFI (cfiCond247) R5 Frame(CFA_Y, -5)
          CFI (cfiCond247) R6 Frame(CFA_Y, -4)
          CFI (cfiCond247) R7 Frame(CFA_Y, -3)
          CFI (cfiCond247) R8 Frame(CFA_Y, -2)
          CFI (cfiCond247) R9 Frame(CFA_Y, -1)
          CFI (cfiCond247) CFA_SP SP+4
          CFI (cfiCond247) CFA_Y Y+10
          CFI Block cfiCond248 Using cfiCommon0
          CFI (cfiCond248) Function main_power
          CFI (cfiCond248) Conditional ??CrossCallReturnLabel_320
          CFI (cfiCond248) CFA_SP SP+4
          CFI Block cfiCond249 Using cfiCommon0
          CFI (cfiCond249) Function pult
          CFI (cfiCond249) Conditional ??CrossCallReturnLabel_321
          CFI (cfiCond249) CFA_SP SP+4
          CFI Block cfiCond250 Using cfiCommon0
          CFI (cfiCond250) Function main_logic
          CFI (cfiCond250) Conditional ??CrossCallReturnLabel_322
          CFI (cfiCond250) CFA_SP SP+4
          CFI Block cfiCond251 Using cfiCommon0
          CFI (cfiCond251) Function coding
          CFI (cfiCond251) Conditional ??CrossCallReturnLabel_323
          CFI (cfiCond251) R24 Frame(CFA_Y, -10)
          CFI (cfiCond251) R25 Frame(CFA_Y, -9)
          CFI (cfiCond251) R26 Frame(CFA_Y, -8)
          CFI (cfiCond251) R27 Frame(CFA_Y, -7)
          CFI (cfiCond251) R4 Frame(CFA_Y, -6)
          CFI (cfiCond251) R5 Frame(CFA_Y, -5)
          CFI (cfiCond251) R6 Frame(CFA_Y, -4)
          CFI (cfiCond251) R7 Frame(CFA_Y, -3)
          CFI (cfiCond251) R8 Frame(CFA_Y, -2)
          CFI (cfiCond251) R9 Frame(CFA_Y, -1)
          CFI (cfiCond251) CFA_SP SP+4
          CFI (cfiCond251) CFA_Y Y+10
          CFI Block cfiCond252 Using cfiCommon0
          CFI (cfiCond252) Function coding
          CFI (cfiCond252) Conditional ??CrossCallReturnLabel_324
          CFI (cfiCond252) R24 Frame(CFA_Y, -10)
          CFI (cfiCond252) R25 Frame(CFA_Y, -9)
          CFI (cfiCond252) R26 Frame(CFA_Y, -8)
          CFI (cfiCond252) R27 Frame(CFA_Y, -7)
          CFI (cfiCond252) R4 Frame(CFA_Y, -6)
          CFI (cfiCond252) R5 Frame(CFA_Y, -5)
          CFI (cfiCond252) R6 Frame(CFA_Y, -4)
          CFI (cfiCond252) R7 Frame(CFA_Y, -3)
          CFI (cfiCond252) R8 Frame(CFA_Y, -2)
          CFI (cfiCond252) R9 Frame(CFA_Y, -1)
          CFI (cfiCond252) CFA_SP SP+4
          CFI (cfiCond252) CFA_Y Y+10
          CFI Block cfiCond253 Using cfiCommon0
          CFI (cfiCond253) Function coding
          CFI (cfiCond253) Conditional ??CrossCallReturnLabel_325
          CFI (cfiCond253) R24 Frame(CFA_Y, -10)
          CFI (cfiCond253) R25 Frame(CFA_Y, -9)
          CFI (cfiCond253) R26 Frame(CFA_Y, -8)
          CFI (cfiCond253) R27 Frame(CFA_Y, -7)
          CFI (cfiCond253) R4 Frame(CFA_Y, -6)
          CFI (cfiCond253) R5 Frame(CFA_Y, -5)
          CFI (cfiCond253) R6 Frame(CFA_Y, -4)
          CFI (cfiCond253) R7 Frame(CFA_Y, -3)
          CFI (cfiCond253) R8 Frame(CFA_Y, -2)
          CFI (cfiCond253) R9 Frame(CFA_Y, -1)
          CFI (cfiCond253) CFA_SP SP+4
          CFI (cfiCond253) CFA_Y Y+10
          CFI Block cfiCond254 Using cfiCommon0
          CFI (cfiCond254) Function coding
          CFI (cfiCond254) Conditional ??CrossCallReturnLabel_326
          CFI (cfiCond254) R24 Frame(CFA_Y, -10)
          CFI (cfiCond254) R25 Frame(CFA_Y, -9)
          CFI (cfiCond254) R26 Frame(CFA_Y, -8)
          CFI (cfiCond254) R27 Frame(CFA_Y, -7)
          CFI (cfiCond254) R4 Frame(CFA_Y, -6)
          CFI (cfiCond254) R5 Frame(CFA_Y, -5)
          CFI (cfiCond254) R6 Frame(CFA_Y, -4)
          CFI (cfiCond254) R7 Frame(CFA_Y, -3)
          CFI (cfiCond254) R8 Frame(CFA_Y, -2)
          CFI (cfiCond254) R9 Frame(CFA_Y, -1)
          CFI (cfiCond254) CFA_SP SP+4
          CFI (cfiCond254) CFA_Y Y+10
          CFI Block cfiCond255 Using cfiCommon0
          CFI (cfiCond255) Function coding
          CFI (cfiCond255) Conditional ??CrossCallReturnLabel_327
          CFI (cfiCond255) R24 Frame(CFA_Y, -10)
          CFI (cfiCond255) R25 Frame(CFA_Y, -9)
          CFI (cfiCond255) R26 Frame(CFA_Y, -8)
          CFI (cfiCond255) R27 Frame(CFA_Y, -7)
          CFI (cfiCond255) R4 Frame(CFA_Y, -6)
          CFI (cfiCond255) R5 Frame(CFA_Y, -5)
          CFI (cfiCond255) R6 Frame(CFA_Y, -4)
          CFI (cfiCond255) R7 Frame(CFA_Y, -3)
          CFI (cfiCond255) R8 Frame(CFA_Y, -2)
          CFI (cfiCond255) R9 Frame(CFA_Y, -1)
          CFI (cfiCond255) CFA_SP SP+4
          CFI (cfiCond255) CFA_Y Y+10
          CFI Block cfiPicker256 Using cfiCommon2
          CFI (cfiPicker256) NoFunction
          CFI (cfiPicker256) Picker
        ST      Z, R16
        STD     Z+1, R17
        RET
          CFI EndBlock cfiCond240
          CFI EndBlock cfiCond241
          CFI EndBlock cfiCond242
          CFI EndBlock cfiCond243
          CFI EndBlock cfiCond244
          CFI EndBlock cfiCond245
          CFI EndBlock cfiCond246
          CFI EndBlock cfiCond247
          CFI EndBlock cfiCond248
          CFI EndBlock cfiCond249
          CFI EndBlock cfiCond250
          CFI EndBlock cfiCond251
          CFI EndBlock cfiCond252
          CFI EndBlock cfiCond253
          CFI EndBlock cfiCond254
          CFI EndBlock cfiCond255
          CFI EndBlock cfiPicker256

        RSEG CODE:CODE:NOROOT(1)
?Subroutine18:
          CFI Block cfiCond257 Using cfiCommon0
          CFI Function main_power
          CFI Conditional ??CrossCallReturnLabel_31
          CFI CFA_SP SP+4
          CFI Block cfiCond258 Using cfiCommon0
          CFI (cfiCond258) Function main_power
          CFI (cfiCond258) Conditional ??CrossCallReturnLabel_32
          CFI (cfiCond258) CFA_SP SP+4
          CFI Block cfiPicker259 Using cfiCommon2
          CFI (cfiPicker259) NoFunction
          CFI (cfiPicker259) Picker
        RCALL   rprintfStr
        LDS     R16, pultadr
        RCALL   ?Subroutine86
??CrossCallReturnLabel_293:
        RJMP    ?Subroutine100
          CFI EndBlock cfiCond257
          CFI EndBlock cfiCond258
          CFI EndBlock cfiPicker259
//  158 
//  159 

        RSEG CODE:CODE:NOROOT(1)
//  160 uchar getadr()//адреса  команд
getadr:
          CFI Block cfiBlock260 Using cfiCommon0
          CFI Function getadr
//  161 {
//  162   uchar adr=0;
        LDI     R16, 0
//  163   if (tekfunc==0) {adr=1; SET(PORTB,0);}//s1
        LDS     R17, ??tekfunc
        TST     R17
        BRNE    ??getadr_0
        LDI     R16, 1
        RJMP    ??getadr_1
//  164   if (tekfunc==1) {adr=5; SET(PORTB,1);}
??getadr_0:
        CPI     R17, 1
        BRNE    ??getadr_2
        LDI     R16, 5
        RJMP    ??getadr_3
//  165   if (tekfunc==2) {adr=10;SET(PORTB,2);}
??getadr_2:
        CPI     R17, 2
        BRNE    ??getadr_4
        LDI     R16, 10
        RJMP    ??getadr_5
//  166   if (tekfunc==3) {adr=15;SET(PORTB,3);}
??getadr_4:
        CPI     R17, 3
        BRNE    ??getadr_6
        LDI     R16, 15
        RJMP    ??getadr_7
//  167   if (tekfunc==4) {adr=20;SET(PORTB,4);}//s5 или ONтыл
??getadr_6:
        CPI     R17, 4
        BRNE    ??getadr_8
        LDI     R16, 20
        RJMP    ??getadr_9
//  168   if (tekfunc==5) {adr=55;SET(PORTB,0);SET(PORTB,2);SET(PORTB,4);}//command return
??getadr_8:
        CPI     R17, 5
        BRNE    ??getadr_10
        LDI     R16, 55
        RJMP    ??getadr_11
//  169   if (tekfunc==6) {adr=25;SET(PORTD,7);}//on standby
??getadr_10:
        CPI     R17, 6
        BRNE    ??getadr_12
        LDI     R16, 25
        RJMP    ??getadr_13
//  170   if (tekfunc==7) {adr=30;SET(PORTB,5);}//aoff
??getadr_12:
        CPI     R17, 7
        BRNE    ??getadr_14
        LDI     R16, 30
        RJMP    ??getadr_15
//  171   if (tekfunc==8) {adr=35;AC_ON;}//mute
??getadr_14:
        CPI     R17, 8
        BRNE    ??getadr_16
        LDI     R16, 35
        RJMP    ??getadr_17
//  172   if (tekfunc==9) {adr=40; }//select
??getadr_16:
        CPI     R17, 9
        BRNE    ??getadr_18
        LDI     R16, 40
        RET
//  173   if (tekfunc==10) {adr=45; }//громкость увеличить
??getadr_18:
        CPI     R17, 10
        BRNE    ??getadr_19
        LDI     R16, 45
        RET
//  174   if (tekfunc==11) {adr=50; }//громкость уменьшить
??getadr_19:
        CPI     R17, 11
        BRNE    ??getadr_20
        LDI     R16, 50
        RET
//  175   
//  176   //дублирование команд
//  177    if (tekfunc==12) {adr=60; SET(PORTB,0);}//s1
??getadr_20:
        CPI     R17, 12
        BRNE    ??getadr_21
        LDI     R16, 60
??getadr_1:
        SBI     0x18, 0x00
        RET
//  178   if (tekfunc==13) {adr=65; SET(PORTB,1);}
??getadr_21:
        CPI     R17, 13
        BRNE    ??getadr_22
        LDI     R16, 65
??getadr_3:
        SBI     0x18, 0x01
        RET
//  179   if (tekfunc==14) {adr=70;SET(PORTB,2);}
??getadr_22:
        CPI     R17, 14
        BRNE    ??getadr_23
        LDI     R16, 70
??getadr_5:
        SBI     0x18, 0x02
        RET
//  180   if (tekfunc==15) {adr=75;SET(PORTB,3);}
??getadr_23:
        CPI     R17, 15
        BRNE    ??getadr_24
        LDI     R16, 75
??getadr_7:
        SBI     0x18, 0x03
        RET
//  181   if (tekfunc==16) {adr=80;SET(PORTB,4);}//s5 или ONтыл
??getadr_24:
        CPI     R17, 16
        BRNE    ??getadr_25
        LDI     R16, 80
        RJMP    ??getadr_9
//  182   if (tekfunc==17) {adr=85;SET(PORTB,0);SET(PORTB,2);SET(PORTB,4);}//command return
??getadr_25:
        CPI     R17, 17
        BRNE    ??getadr_26
        LDI     R16, 85
??getadr_11:
        SBI     0x18, 0x00
        SBI     0x18, 0x02
??getadr_9:
        SBI     0x18, 0x04
        RET
//  183   if (tekfunc==18) {adr=90;SET(PORTD,7);}//on standby
??getadr_26:
        CPI     R17, 18
        BRNE    ??getadr_27
        LDI     R16, 90
??getadr_13:
        RJMP    ?Subroutine118
//  184   if (tekfunc==19) {adr=95;SET(PORTB,5);}//aoff
??getadr_27:
        CPI     R17, 19
        BRNE    ??getadr_28
        LDI     R16, 95
??getadr_15:
        SBI     0x18, 0x05
        RET
//  185   if (tekfunc==20) {adr=100;AC_ON;}//mute
??getadr_28:
        CPI     R17, 20
        BRNE    ??getadr_29
        LDI     R16, 100
??getadr_17:
        SBI     0x12, 0x06
        RET
//  186   if (tekfunc==21) {adr=105; }//select
??getadr_29:
        CPI     R17, 21
        BRNE    ??getadr_30
        LDI     R16, 105
        RET
//  187   if (tekfunc==22) {adr=110; }//громкость увеличить
??getadr_30:
        CPI     R17, 22
        BRNE    ??getadr_31
        LDI     R16, 110
        RET
//  188   if (tekfunc==23) {adr=115; }//громкость уменьшить
??getadr_31:
        CPI     R17, 23
        BRNE    ??getadr_32
        LDI     R16, 115
//  189   return(adr);
??getadr_32:
        RET
          CFI EndBlock cfiBlock260
        REQUIRE _A_PORTB
        REQUIRE _A_PORTD
//  190 }

        RSEG CODE:CODE:NOROOT(1)
?Subroutine118:
          CFI Block cfiBlock261 Using cfiCommon0
          CFI NoFunction
        SBI     0x12, 0x07
        RET
          CFI EndBlock cfiBlock261
//  191 
//  192 

        RSEG CODE:CODE:NOROOT(1)
//  193 void pult() 
pult:
          CFI Block cfiBlock262 Using cfiCommon0
          CFI Function pult
//  194 {
//  195    tON=1500; zader=1;timerzad=0; source(); p2;   //время включения АС при переключениях
        FUNCALL pult, source
        LOCFRAME CSTACK, 0, STACK
        LOCFRAME RSTACK, 2, STACK
        ARGFRAME RSTACK, 0, STACK
        LDI     R16, 220
        LDI     R17, 5
        LDI     R30, LOW(tON)
        LDI     R31, (tON) >> 8
        RCALL   ??Subroutine129_0
??CrossCallReturnLabel_321:
        RCALL   ?Subroutine3
??CrossCallReturnLabel_8:
        RJMP    ?Subroutine71
          CFI EndBlock cfiBlock262
//  196 }

        RSEG CODE:CODE:NOROOT(1)
?Subroutine3:
          CFI Block cfiCond263 Using cfiCommon0
          CFI Function main_power
          CFI Conditional ??CrossCallReturnLabel_9
          CFI CFA_SP SP+4
          CFI Block cfiCond264 Using cfiCommon0
          CFI (cfiCond264) Function pult
          CFI (cfiCond264) Conditional ??CrossCallReturnLabel_8
          CFI (cfiCond264) CFA_SP SP+4
          CFI Block cfiPicker265 Using cfiCommon2
          CFI (cfiPicker265) NoFunction
          CFI (cfiPicker265) Picker
        LDI     R16, 1
        STS     zader, R16
        LDI     R16, 0
        LDI     R30, LOW(timerzad)
        LDI     R31, (timerzad) >> 8
        RCALL   ?Subroutine89
??CrossCallReturnLabel_163:
        RJMP    source
          CFI EndBlock cfiCond263
          CFI EndBlock cfiCond264
          CFI EndBlock cfiPicker265
//  197 
//  198 
//  199 
//  200 
//  201 

        RSEG CODE:CODE:NOROOT(1)
//  202 void main_logic()//-----------------------главная логика --------------------
main_logic:
          CFI Block cfiBlock266 Using cfiCommon0
          CFI Function main_logic
//  203 {   
//  204    static uchar last_pultadr;
//  205    migWORK();
        FUNCALL main_logic, migWORK
        LOCFRAME CSTACK, 0, STACK
        LOCFRAME RSTACK, 2, STACK
        ARGFRAME RSTACK, 0, STACK
        FUNCALL main_logic, rprintfStr
        LOCFRAME CSTACK, 0, STACK
        LOCFRAME RSTACK, 2, STACK
        ARGFRAME RSTACK, 0, STACK
        FUNCALL main_logic, rprintfFloat
        LOCFRAME CSTACK, 0, STACK
        LOCFRAME RSTACK, 2, STACK
        ARGFRAME RSTACK, 0, STACK
        FUNCALL main_logic, USART_SendChar
        LOCFRAME CSTACK, 0, STACK
        LOCFRAME RSTACK, 2, STACK
        ARGFRAME RSTACK, 0, STACK
        FUNCALL main_logic, pult
        LOCFRAME CSTACK, 0, STACK
        LOCFRAME RSTACK, 2, STACK
        ARGFRAME RSTACK, 0, STACK
        FUNCALL main_logic, migINI
        LOCFRAME CSTACK, 0, STACK
        LOCFRAME RSTACK, 2, STACK
        ARGFRAME RSTACK, 0, STACK
        FUNCALL main_logic, pult
        LOCFRAME CSTACK, 0, STACK
        LOCFRAME RSTACK, 2, STACK
        ARGFRAME RSTACK, 0, STACK
        FUNCALL main_logic, migINI
        LOCFRAME CSTACK, 0, STACK
        LOCFRAME RSTACK, 2, STACK
        ARGFRAME RSTACK, 0, STACK
        FUNCALL main_logic, pult
        LOCFRAME CSTACK, 0, STACK
        LOCFRAME RSTACK, 2, STACK
        ARGFRAME RSTACK, 0, STACK
        FUNCALL main_logic, migINI
        LOCFRAME CSTACK, 0, STACK
        LOCFRAME RSTACK, 2, STACK
        ARGFRAME RSTACK, 0, STACK
        FUNCALL main_logic, pult
        LOCFRAME CSTACK, 0, STACK
        LOCFRAME RSTACK, 2, STACK
        ARGFRAME RSTACK, 0, STACK
        FUNCALL main_logic, migINI
        LOCFRAME CSTACK, 0, STACK
        LOCFRAME RSTACK, 2, STACK
        ARGFRAME RSTACK, 0, STACK
        FUNCALL main_logic, pult
        LOCFRAME CSTACK, 0, STACK
        LOCFRAME RSTACK, 2, STACK
        ARGFRAME RSTACK, 0, STACK
        FUNCALL main_logic, migINI
        LOCFRAME CSTACK, 0, STACK
        LOCFRAME RSTACK, 2, STACK
        ARGFRAME RSTACK, 0, STACK
        FUNCALL main_logic, TimerSet
        LOCFRAME CSTACK, 0, STACK
        LOCFRAME RSTACK, 2, STACK
        ARGFRAME RSTACK, 0, STACK
        FUNCALL main_logic, TimerSet
        LOCFRAME CSTACK, 0, STACK
        LOCFRAME RSTACK, 2, STACK
        ARGFRAME RSTACK, 0, STACK
        FUNCALL main_logic, TimerSet
        LOCFRAME CSTACK, 0, STACK
        LOCFRAME RSTACK, 2, STACK
        ARGFRAME RSTACK, 0, STACK
        FUNCALL main_logic, TimerTick
        LOCFRAME CSTACK, 0, STACK
        LOCFRAME RSTACK, 2, STACK
        ARGFRAME RSTACK, 0, STACK
        FUNCALL main_logic, pult
        LOCFRAME CSTACK, 0, STACK
        LOCFRAME RSTACK, 2, STACK
        ARGFRAME RSTACK, 0, STACK
        FUNCALL main_logic, pult
        LOCFRAME CSTACK, 0, STACK
        LOCFRAME RSTACK, 2, STACK
        ARGFRAME RSTACK, 0, STACK
        FUNCALL main_logic, pult
        LOCFRAME CSTACK, 0, STACK
        LOCFRAME RSTACK, 2, STACK
        ARGFRAME RSTACK, 0, STACK
        FUNCALL main_logic, gro
        LOCFRAME CSTACK, 0, STACK
        LOCFRAME RSTACK, 2, STACK
        ARGFRAME RSTACK, 0, STACK
        FUNCALL main_logic, gro
        LOCFRAME CSTACK, 0, STACK
        LOCFRAME RSTACK, 2, STACK
        ARGFRAME RSTACK, 0, STACK
        RCALL   migWORK
//  206    
//  207    if (pultadr==last_pultadr) {}
//  208   
//  209    if (pultadr!=0)
        RCALL   ?Subroutine69
??CrossCallReturnLabel_106:
        TST     R16
        BRNE    $+2+2
        RJMP    ??main_logic_0
//  210    {//если есть команда с пульта
//  211      
//  212       rprintfStr("normal>command find  adr=");
        LDI     R16, LOW(`?<Constant "normal>command find  ...">`)
        LDI     R17, (`?<Constant "normal>command find  ...">`) >> 8
        RCALL   rprintfStr
//  213       rprintfFloat(6, pultadr ); ent;
        RCALL   ?Subroutine69
??CrossCallReturnLabel_107:
        RCALL   ?Subroutine19
??CrossCallReturnLabel_295:
        RCALL   ?Subroutine112
//  214      
//  215      if (pultadr==1 || pultadr==60) {if (sel!=1)  { AC_OFF; lastsel=sel; sel=1; pult(); } else   migINI(sel-1, 3 ,0); 
??CrossCallReturnLabel_241:
        RCALL   ?Subroutine69
??CrossCallReturnLabel_108:
        CPI     R16, 1
        BREQ    ??main_logic_1
        CPI     R16, 60
        BRNE    ??main_logic_2
??main_logic_1:
        RCALL   ?Subroutine115
??CrossCallReturnLabel_245:
        CPI     R16, 1
        BREQ    ??main_logic_3
        RCALL   ?Subroutine68
??CrossCallReturnLabel_99:
        LDI     R16, 1
        RCALL   ?Subroutine73
??CrossCallReturnLabel_130:
        RJMP    ??main_logic_2
??main_logic_3:
        RCALL   ?Subroutine46
//  216  }
??CrossCallReturnLabel_53:
        LDI     R16, 0
        RCALL   migINI
//  217      if (pultadr==5 || pultadr==65) {if (sel!=2)  {AC_OFF; lastsel=sel;sel=2; pult(); }  else  migINI(sel-1, 3 ,0); 
??main_logic_2:
        RCALL   ?Subroutine69
??CrossCallReturnLabel_109:
        CPI     R16, 5
        BREQ    ??main_logic_4
        CPI     R16, 65
        BRNE    ??main_logic_5
??main_logic_4:
        RCALL   ?Subroutine115
??CrossCallReturnLabel_246:
        CPI     R16, 2
        BREQ    ??main_logic_6
        RCALL   ?Subroutine68
??CrossCallReturnLabel_100:
        LDI     R16, 2
        RCALL   ?Subroutine73
??CrossCallReturnLabel_129:
        RJMP    ??main_logic_5
??main_logic_6:
        RCALL   ?Subroutine46
//  218 }
??CrossCallReturnLabel_54:
        LDI     R16, 1
        RCALL   migINI
//  219      if (pultadr==10 || pultadr==70) {if (sel!=3) {AC_OFF; lastsel=sel;sel=3; pult(); } else    migINI(sel-1, 3 ,0); 
??main_logic_5:
        RCALL   ?Subroutine69
??CrossCallReturnLabel_110:
        CPI     R16, 10
        BREQ    ??main_logic_7
        CPI     R16, 70
        BRNE    ??main_logic_8
??main_logic_7:
        RCALL   ?Subroutine115
??CrossCallReturnLabel_247:
        CPI     R16, 3
        BREQ    ??main_logic_9
        RCALL   ?Subroutine68
??CrossCallReturnLabel_101:
        LDI     R16, 3
        RCALL   ?Subroutine73
??CrossCallReturnLabel_128:
        RJMP    ??main_logic_8
??main_logic_9:
        RCALL   ?Subroutine46
//  220 }
??CrossCallReturnLabel_55:
        LDI     R16, 2
        RCALL   migINI
//  221      if (pultadr==15 || pultadr==75) {if (sel!=4) {AC_OFF; lastsel=sel;sel=4; pult(); } else   migINI(sel-1, 3 ,0); 
??main_logic_8:
        RCALL   ?Subroutine69
??CrossCallReturnLabel_111:
        CPI     R16, 15
        BREQ    ??main_logic_10
        CPI     R16, 75
        BRNE    ??main_logic_11
??main_logic_10:
        RCALL   ?Subroutine115
??CrossCallReturnLabel_248:
        CPI     R16, 4
        BREQ    ??main_logic_12
        RCALL   ?Subroutine68
??CrossCallReturnLabel_102:
        LDI     R16, 4
        RCALL   ?Subroutine73
??CrossCallReturnLabel_127:
        RJMP    ??main_logic_11
??main_logic_12:
        RCALL   ?Subroutine46
//  222  }
??CrossCallReturnLabel_56:
        LDI     R16, 3
        RCALL   migINI
//  223      if ((pultadr==20  || pultadr==80) && mode!=1) { if (sel!=5) {AC_OFF; lastsel=sel;sel=5; pult();}  else  migINI(sel-1, 3 ,0); 
??main_logic_11:
        RCALL   ?Subroutine69
??CrossCallReturnLabel_112:
        CPI     R16, 20
        BREQ    ??main_logic_13
        CPI     R16, 80
        BRNE    ??main_logic_14
??main_logic_13:
        RCALL   ?Subroutine67
??CrossCallReturnLabel_272:
        BREQ    ??main_logic_15
        RCALL   ?Subroutine115
??CrossCallReturnLabel_249:
        CPI     R16, 5
        BREQ    ??main_logic_16
        RCALL   ?Subroutine68
??CrossCallReturnLabel_103:
        LDI     R16, 5
        RCALL   ?Subroutine73
??CrossCallReturnLabel_126:
        RJMP    ??main_logic_15
??main_logic_16:
        RCALL   ?Subroutine46
//  224 }
??CrossCallReturnLabel_57:
        LDI     R16, 4
        RCALL   migINI
//  225      
//  226      
//  227      //тыловые  ------------------------------------------------------
//  228      if ((  pultadr==20  || pultadr==80) && mode==1) {  
??main_logic_15:
        RCALL   ?Subroutine69
??CrossCallReturnLabel_113:
        CPI     R16, 20
        BREQ    ??main_logic_17
??main_logic_14:
        RCALL   ?Subroutine69
??CrossCallReturnLabel_114:
        CPI     R16, 80
        BRNE    ??main_logic_0
??main_logic_17:
        RCALL   ?Subroutine67
??CrossCallReturnLabel_273:
        BRNE    ??main_logic_0
//  229          
//  230        if (til==0) { SET(PORTC,5);til=1;  
        LDS     R16, ??til
        TST     R16
        BRNE    ??main_logic_18
        SBI     0x15, 0x05
        LDI     R16, 1
        STS     ??til, R16
//  231                for (uchar i=0; i<2; i++) {SET(PORTB,4);p2;RES(PORTB,4);p2;}  SET(PORTB,4);  pultadr=0;  p1;}
        LDI     R16, 2
??main_logic_19:
        SBI     0x18, 0x04
        RCALL   ?Subroutine106
??CrossCallReturnLabel_220:
        CBI     0x18, 0x04
        RCALL   ?Subroutine106
??CrossCallReturnLabel_221:
        DEC     R16
        BRNE    ??main_logic_19
        SBI     0x18, 0x04
        LDI     R16, 0
        RJMP    ??main_logic_20
//  232        else 
//  233        if (til==1) {   RES(PORTC,5); RES(PORTB,4); til=0; pultadr=0; p1; }
??main_logic_18:
        CBI     0x15, 0x05
        CBI     0x18, 0x04
        LDI     R16, 0
        STS     ??til, R16
??main_logic_20:
        RCALL   ?Subroutine105
??CrossCallReturnLabel_340:
        LDI     R16, 127
        LDI     R17, 56
        LDI     R18, 1
        SUBI    R16, 1
        SBCI    R17, 0
        SBCI    R18, 0
        BRNE    $-6
        RJMP    $+2
        NOP
//  234      
//  235                                                      }
//  236    }//если есть команда с пульта
//  237    
//  238   //--------------- mute -------------------
//  239   if (mute==1) AC_OFF; else { if (zader==0) AC_ON; }
??main_logic_0:
        RCALL   ?Subroutine76
??CrossCallReturnLabel_264:
        BREQ    ??main_logic_21
        CBI     0x12, 0x06
//  240   if (zader==1) {timerzad++;  if (timerzad> tON)  {zader=0;timerzad=0; if (mute!=1)AC_ON;} }//задержка включения
??main_logic_22:
        LDS     R16, zader
        TST     R16
        BREQ    ??main_logic_23
        LDI     R30, LOW(timerzad)
        LDI     R31, (timerzad) >> 8
        RCALL   ?Subroutine95
??CrossCallReturnLabel_180:
        SUBI    R16, 255
        SBCI    R17, 255
        RCALL   ??Subroutine129_0
??CrossCallReturnLabel_322:
        LDI     R30, LOW(tON)
        LDI     R31, (tON) >> 8
        RCALL   ?Subroutine95
??CrossCallReturnLabel_181:
        LDI     R30, LOW(timerzad)
        LDI     R31, (timerzad) >> 8
        RCALL   ?Subroutine59
??CrossCallReturnLabel_89:
        CP      R16, R18
        CPC     R17, R19
        BRCC    ??main_logic_23
        RCALL   ?Subroutine85
??CrossCallReturnLabel_150:
        RCALL   ?Subroutine89
??CrossCallReturnLabel_162:
        RCALL   ?Subroutine76
??CrossCallReturnLabel_265:
        BRNE    ??main_logic_23
??main_logic_24:
        SBI     0x12, 0x06
//  241   
//  242   if (keyMUTE ||pultadr==35 || pultadr==100)  
??main_logic_23:
        SBIC    0x10, 0x01
        RJMP    ??main_logic_25
        SBIS    0x10, 0x05
        RJMP    ??main_logic_26
??main_logic_25:
        RCALL   ?Subroutine69
??CrossCallReturnLabel_115:
        CPI     R16, 35
        BREQ    ??main_logic_26
        CPI     R16, 100
        BRNE    ??CrossCallReturnLabel_336
//  243   {
//  244    if ( mute==0) { AC_OFF; mute=1; p5; pultadr=0;}
??main_logic_26:
        RCALL   ?Subroutine76
??CrossCallReturnLabel_266:
        BRNE    ??CrossCallReturnLabel_337
        CBI     0x12, 0x06
        LDI     R16, 1
        RCALL   ?Subroutine9
//  245    if (mute==1) { AC_ON; mute=0; p5; pultadr=0; }   
??CrossCallReturnLabel_337:
        RCALL   ?Subroutine76
??CrossCallReturnLabel_267:
        BREQ    ??CrossCallReturnLabel_336
        SBI     0x12, 0x06
        LDI     R16, 0
        RCALL   ?Subroutine9
//  246   }
//  247    
//  248    
//  249    
//  250   //--------------- aoff --------------------
//  251  
//  252    if (keyAOFF || pultadr==30 || pultadr==95) 
??CrossCallReturnLabel_336:
        SBIC    0x10, 0x00
        RJMP    ??main_logic_27
        SBIS    0x10, 0x05
        RJMP    ??main_logic_28
??main_logic_27:
        RCALL   ?Subroutine69
??CrossCallReturnLabel_116:
        CPI     R16, 30
        BREQ    ??main_logic_28
        CPI     R16, 95
        BRNE    ??main_logic_29
//  253    {
//  254      
//  255   if ( aoff==1 && regaoff>=3)  {  RES(PORTB,5);  p5; aoff=0; regaoff=0; pultadr=0;}//отмена aoff 
??main_logic_28:
        LDS     R16, aoff
        TST     R16
        BREQ    ??main_logic_30
        RCALL   ?Subroutine78
??CrossCallReturnLabel_139:
        CPI     R16, 3
        BRCS    ??main_logic_30
        CBI     0x18, 0x05
        RCALL   ??Subroutine130_0
??CrossCallReturnLabel_335:
        RJMP    ??main_logic_31
??main_logic_21:
        LDS     R16, zader
        TST     R16
        BREQ    $+2+2
        RJMP    ??main_logic_22
        RJMP    ??main_logic_24
//  256   if ( regaoff==0) { aoff=1; regaoff++;  TimerSet(&tm1,60*60*2)/*2 часа*/; pultadr=0;  for (uchar i=0; i<3; i++)  {SET(PORTB,5);p2;RES(PORTB,5);p2;}  SET(PORTB,5); }
??main_logic_30:
        RCALL   ?Subroutine78
??CrossCallReturnLabel_140:
        TST     R16
        BRNE    ??main_logic_32
??main_logic_31:
        RCALL   ?Subroutine8
??CrossCallReturnLabel_10:
        RCALL   ?Subroutine107
??CrossCallReturnLabel_224:
        LDI     R18, 32
        LDI     R19, 28
        RCALL   ?Subroutine77
??CrossCallReturnLabel_138:
        RCALL   ??Subroutine131_0
??CrossCallReturnLabel_342:
        LDI     R16, 3
??main_logic_33:
        RCALL   ?Subroutine17
??CrossCallReturnLabel_29:
        BRNE    ??main_logic_33
        SBI     0x18, 0x05
//  257   if (regaoff==1) { aoff=1; regaoff++; TimerSet(&tm1,60*60*1)/*1 часа*/; pultadr=0; for (uchar i=0; i<2; i++)  {SET(PORTB,5);p2;RES(PORTB,5);p2;}  SET(PORTB,5); }
??main_logic_32:
        RCALL   ?Subroutine78
??CrossCallReturnLabel_141:
        CPI     R16, 1
        BRNE    ??main_logic_34
        RCALL   ?Subroutine8
??CrossCallReturnLabel_11:
        LDI     R16, 2
        RCALL   ?Subroutine107
??CrossCallReturnLabel_225:
        LDI     R18, 16
        LDI     R19, 14
        RCALL   ?Subroutine77
??CrossCallReturnLabel_137:
        RCALL   ??Subroutine131_0
??CrossCallReturnLabel_343:
        LDI     R16, 2
??main_logic_35:
        RCALL   ?Subroutine17
??CrossCallReturnLabel_30:
        BRNE    ??main_logic_35
        SBI     0x18, 0x05
//  258   if (regaoff==2) { aoff=1; regaoff++; TimerSet(&tm1,60*60*0.5)/*0.5 часа*/; pultadr=0; for (uchar i=0; i<1; i++)  {SET(PORTB,5);p2;RES(PORTB,5);p2;}  SET(PORTB,5); }
??main_logic_34:
        RCALL   ?Subroutine78
??CrossCallReturnLabel_142:
        CPI     R16, 2
        BRNE    ??main_logic_29
        RCALL   ?Subroutine8
??CrossCallReturnLabel_12:
        LDI     R16, 3
        RCALL   ?Subroutine107
??CrossCallReturnLabel_226:
        LDI     R18, 8
        LDI     R19, 7
        RCALL   ?Subroutine77
??CrossCallReturnLabel_136:
        RCALL   ??Subroutine131_0
??CrossCallReturnLabel_344:
        SBI     0x18, 0x05
        RCALL   ?Subroutine71
??CrossCallReturnLabel_122:
        CBI     0x18, 0x05
        RCALL   ?Subroutine71
??CrossCallReturnLabel_123:
        SBI     0x18, 0x05
//  259   
//  260    }
//  261 
//  262    
//  263  //  if ((keyAOFF || pultadr==30 || pultadr==95) && aoff==0) 
//  264  //     {   aoff=1;  iniT1(60*60*2)/*2 часа*/; pultadr=0;
//  265  //         for (uchar i=0; i<2; i++)  {SET(PORTB,5);p2;RES(PORTB,5);p2;}  SET(PORTB,5);
//  266   //   
//  267   //        
//  268  //         for (uint i=0; i<1000; i++)
//  269  //         {   char rez=du_main(0);  if (rez==1) { pultadr=analizCOD();break; }}
//  270  //         
//  271   //    //если user продолжает удерживать
//  272   //    if ((keyAOFF || pultadr==30 || pultadr==95) ) { iniT1(60*30);/*30 мин*/
//  273  //      for (uchar i=0; i<4; i++)  {SET(PORTB,5);p2;p2;p2;p2;p2;RES(PORTB,5);p2;}  SET(PORTB,5);
//  274   //                                    }
//  275   //    
//  276    //   }
//  277                                                         
//  278    
//  279   
//  280  
//  281   if (aoff==1)  {   TimerTick(&tm1); if (tm1.out) { on=0; onok=0;  aoff=0; p5; zader=0; regaoff=0;}
??main_logic_29:
        LDS     R16, aoff
        TST     R16
        BREQ    ??CrossCallReturnLabel_27
        LDI     R16, LOW(tm1)
        LDI     R17, (tm1) >> 8
        RCALL   TimerTick
        LDS     R16, (tm1 + 6)
        TST     R16
        BREQ    ??CrossCallReturnLabel_27
        RCALL   ?Subroutine15
??CrossCallReturnLabel_26:
        RCALL   ?Subroutine16
//  282                 } 
//  283                 
//  284  //--------------- select -------------------
//  285                 if ( u!=1) {//что бы во время работы UART не срабатывал
??CrossCallReturnLabel_27:
        LDS     R16, ??u
        TST     R16
        BRNE    ??main_logic_36
//  286    uchar kol;  if  (mode==1) kol=4; else kol=5;
        RCALL   ?Subroutine67
??CrossCallReturnLabel_274:
        BRNE    ??main_logic_37
        LDI     R16, 4
        RJMP    ??main_logic_38
??main_logic_37:
        LDI     R16, 5
//  287    if (keySEL ||pultadr==40 || pultadr==105) 
??main_logic_38:
        SBIC    0x10, 0x01
        RJMP    ??main_logic_39
        SBIC    0x10, 0x05
        RJMP    ??main_logic_40
??main_logic_39:
        LDS     R17, pultadr
        CPI     R17, 40
        BREQ    ??main_logic_40
        CPI     R17, 105
        BRNE    ??CrossCallReturnLabel_125
//  288                 { 
//  289                         if (sel<=(kol-1)) { AC_OFF; p2; RES(PORTB,(sel-1));lastsel=sel; sel++; pult(); } 
??main_logic_40:
        DEC     R16
        LDS     R17, ??sel
        CP      R16, R17
        CBI     0x12, 0x06
        BRCS    ??main_logic_41
        RCALL   ?Subroutine71
??CrossCallReturnLabel_124:
        RCALL   ?Subroutine4
??CrossCallReturnLabel_243:
        STS     ??lastsel, R16
        INC     R16
        RJMP    ??main_logic_42
//  290                        else { AC_OFF;  RES(PORTB,(sel-1)); sel=1; pult(); }
??main_logic_41:
        LDS     R20, ??sel
        DEC     R20
        RCALL   ?Subroutine83
??CrossCallReturnLabel_278:
        LDI     R16, 1
//  291               
//  292                 }
??main_logic_42:
        RCALL   ?Subroutine73
//  293                          
//  294   //--------------- return sel -------------------  возврат в предыдущий source                 
//  295    if ( pultadr==55 || pultadr==85) {
??CrossCallReturnLabel_125:
        RCALL   ?Subroutine69
??CrossCallReturnLabel_117:
        CPI     R16, 55
        BREQ    ??main_logic_43
        CPI     R16, 85
        BRNE    ??main_logic_36
//  296      
//  297      if (sel!=lastsel) {
??main_logic_43:
        RCALL   ?Subroutine115
??CrossCallReturnLabel_250:
        LDS     R17, ??lastsel
        CP      R16, R17
        BREQ    ??main_logic_36
//  298        AC_OFF;  RES(PORTB,(sel-1)); uchar tmp1=sel; sel=lastsel;  lastsel=tmp1; pultadr=0;  pult();
        CBI     0x12, 0x06
        RCALL   ?Subroutine4
??CrossCallReturnLabel_244:
        LDS     R17, ??lastsel
        STS     ??sel, R17
        STS     ??lastsel, R16
        RCALL   ??Subroutine131_0
??CrossCallReturnLabel_345:
        RCALL   pult
//  299      }
//  300                                       }
//  301               
//  302                           }//что бы во время работы UART не срабатывал
//  303                            
//  304                           
//  305                  
//  306  //--------------- ГРОМКОСТЬ -------------------
//  307    if (pultadr==45 || pultadr==110) { gro(1); p5;  pultadr=0; }  
??main_logic_36:
        RCALL   ?Subroutine69
??CrossCallReturnLabel_118:
        CPI     R16, 45
        BREQ    ??main_logic_44
        CPI     R16, 110
        BRNE    ??main_logic_45
??main_logic_44:
        LDI     R16, 1
        RJMP    ??main_logic_46
//  308    if (pultadr==50 || pultadr==115) { gro(2); p5;  pultadr=0; }  
??main_logic_45:
        CPI     R16, 50
        BREQ    ??main_logic_47
        CPI     R16, 115
        BRNE    ??CrossCallReturnLabel_334
??main_logic_47:
        LDI     R16, 2
??main_logic_46:
        RCALL   gro
        RCALL   ??Subroutine130_0
//  309    
//  310    
//  311                 
//  312  
//  313                           
//  314                           
//  315    last_pultadr=pultadr;
??CrossCallReturnLabel_334:
        RCALL   ?Subroutine69
??CrossCallReturnLabel_119:
        STS     ??last_pultadr, R16
//  316    
//  317 }
        RET
          CFI EndBlock cfiBlock266
        REQUIRE _A_PORTD
        REQUIRE _A_PORTC
        REQUIRE _A_PORTB
        REQUIRE _A_PIND

        RSEG CODE:CODE:NOROOT(1)
?Subroutine85:
          CFI Block cfiCond267 Using cfiCommon0
          CFI Function main_power
          CFI Conditional ??CrossCallReturnLabel_149
          CFI CFA_SP SP+4
          CFI Block cfiCond268 Using cfiCommon0
          CFI (cfiCond268) Function main_logic
          CFI (cfiCond268) Conditional ??CrossCallReturnLabel_150
          CFI (cfiCond268) CFA_SP SP+4
          CFI Block cfiCond269 Using cfiCommon0
          CFI (cfiCond269) Function main_power
          CFI (cfiCond269) Conditional ??CrossCallReturnLabel_151, ??CrossCallReturnLabel_28
          CFI (cfiCond269) CFA_SP SP+6
          CFI Block cfiCond270 Using cfiCommon0
          CFI (cfiCond270) Function main_logic
          CFI (cfiCond270) Conditional ??CrossCallReturnLabel_151, ??CrossCallReturnLabel_27
          CFI (cfiCond270) CFA_SP SP+6
          CFI Block cfiPicker271 Using cfiCommon2
          CFI (cfiPicker271) NoFunction
          CFI (cfiPicker271) Picker
        LDI     R16, 0
        STS     zader, R16
        RET
          CFI EndBlock cfiCond267
          CFI EndBlock cfiCond268
          CFI EndBlock cfiCond269
          CFI EndBlock cfiCond270
          CFI EndBlock cfiPicker271

        RSEG CODE:CODE:NOROOT(1)
?Subroutine78:
          CFI Block cfiCond272 Using cfiCommon0
          CFI Function main_logic
          CFI Conditional ??CrossCallReturnLabel_139
          CFI CFA_SP SP+4
          CFI Block cfiCond273 Using cfiCommon0
          CFI (cfiCond273) Function main_logic
          CFI (cfiCond273) Conditional ??CrossCallReturnLabel_140
          CFI (cfiCond273) CFA_SP SP+4
          CFI Block cfiCond274 Using cfiCommon0
          CFI (cfiCond274) Function main_logic
          CFI (cfiCond274) Conditional ??CrossCallReturnLabel_141
          CFI (cfiCond274) CFA_SP SP+4
          CFI Block cfiCond275 Using cfiCommon0
          CFI (cfiCond275) Function main_logic
          CFI (cfiCond275) Conditional ??CrossCallReturnLabel_142
          CFI (cfiCond275) CFA_SP SP+4
          CFI Block cfiPicker276 Using cfiCommon2
          CFI (cfiPicker276) NoFunction
          CFI (cfiPicker276) Picker
        LDS     R16, ??regaoff
        RET
          CFI EndBlock cfiCond272
          CFI EndBlock cfiCond273
          CFI EndBlock cfiCond274
          CFI EndBlock cfiCond275
          CFI EndBlock cfiPicker276

        RSEG CODE:CODE:NOROOT(1)
?Subroutine77:
          CFI Block cfiCond277 Using cfiCommon0
          CFI Function main_logic
          CFI Conditional ??CrossCallReturnLabel_138
          CFI CFA_SP SP+4
          CFI Block cfiCond278 Using cfiCommon0
          CFI (cfiCond278) Function main_logic
          CFI (cfiCond278) Conditional ??CrossCallReturnLabel_137
          CFI (cfiCond278) CFA_SP SP+4
          CFI Block cfiCond279 Using cfiCommon0
          CFI (cfiCond279) Function main_logic
          CFI (cfiCond279) Conditional ??CrossCallReturnLabel_136
          CFI (cfiCond279) CFA_SP SP+4
          CFI Block cfiPicker280 Using cfiCommon2
          CFI (cfiPicker280) NoFunction
          CFI (cfiPicker280) Picker
        LDI     R16, LOW(tm1)
        LDI     R17, (tm1) >> 8
        RJMP    TimerSet
          CFI EndBlock cfiCond277
          CFI EndBlock cfiCond278
          CFI EndBlock cfiCond279
          CFI EndBlock cfiPicker280

        RSEG CODE:CODE:NOROOT(1)
?Subroutine76:
          CFI Block cfiCond281 Using cfiCommon0
          CFI Function main_logic
          CFI Conditional ??CrossCallReturnLabel_264
          CFI CFA_SP SP+4
          CFI Block cfiCond282 Using cfiCommon0
          CFI (cfiCond282) Function main_logic
          CFI (cfiCond282) Conditional ??CrossCallReturnLabel_265
          CFI (cfiCond282) CFA_SP SP+4
          CFI Block cfiCond283 Using cfiCommon0
          CFI (cfiCond283) Function main_logic
          CFI (cfiCond283) Conditional ??CrossCallReturnLabel_266
          CFI (cfiCond283) CFA_SP SP+4
          CFI Block cfiCond284 Using cfiCommon0
          CFI (cfiCond284) Function main_logic
          CFI (cfiCond284) Conditional ??CrossCallReturnLabel_267
          CFI (cfiCond284) CFA_SP SP+4
          CFI Block cfiPicker285 Using cfiCommon2
          CFI (cfiPicker285) NoFunction
          CFI (cfiPicker285) Picker
        LDS     R16, mute
        RJMP    ?Subroutine117
          CFI EndBlock cfiCond281
          CFI EndBlock cfiCond282
          CFI EndBlock cfiCond283
          CFI EndBlock cfiCond284
          CFI EndBlock cfiPicker285

        RSEG CODE:CODE:NOROOT(1)
?Subroutine106:
          CFI Block cfiCond286 Using cfiCommon0
          CFI Function main_logic
          CFI Conditional ??CrossCallReturnLabel_220
          CFI CFA_SP SP+4
          CFI Block cfiCond287 Using cfiCommon0
          CFI (cfiCond287) Function main_logic
          CFI (cfiCond287) Conditional ??CrossCallReturnLabel_221
          CFI (cfiCond287) CFA_SP SP+4
          CFI Block cfiCond288 Using cfiCommon0
          CFI (cfiCond288) Function main_logic
          CFI (cfiCond288) Conditional ??CrossCallReturnLabel_222, ??CrossCallReturnLabel_29
          CFI (cfiCond288) CFA_SP SP+6
          CFI Block cfiCond289 Using cfiCommon0
          CFI (cfiCond289) Function main_logic
          CFI (cfiCond289) Conditional ??CrossCallReturnLabel_222, ??CrossCallReturnLabel_30
          CFI (cfiCond289) CFA_SP SP+6
          CFI Block cfiCond290 Using cfiCommon0
          CFI (cfiCond290) Function main_logic
          CFI (cfiCond290) Conditional ??CrossCallReturnLabel_223, ??CrossCallReturnLabel_29
          CFI (cfiCond290) CFA_SP SP+6
          CFI Block cfiCond291 Using cfiCommon0
          CFI (cfiCond291) Function main_logic
          CFI (cfiCond291) Conditional ??CrossCallReturnLabel_223, ??CrossCallReturnLabel_30
          CFI (cfiCond291) CFA_SP SP+6
          CFI Block cfiPicker292 Using cfiCommon2
          CFI (cfiPicker292) NoFunction
          CFI (cfiPicker292) Picker
        LDI     R20, 255
        LDI     R21, 112
        LDI     R22, 2
        SUBI    R20, 1
        SBCI    R21, 0
        SBCI    R22, 0
        BRNE    $-6
        RJMP    $+2
        NOP
        RET
          CFI EndBlock cfiCond286
          CFI EndBlock cfiCond287
          CFI EndBlock cfiCond288
          CFI EndBlock cfiCond289
          CFI EndBlock cfiCond290
          CFI EndBlock cfiCond291
          CFI EndBlock cfiPicker292

        RSEG CODE:CODE:NOROOT(1)
?Subroutine73:
          CFI Block cfiCond293 Using cfiCommon0
          CFI Function main_logic
          CFI Conditional ??CrossCallReturnLabel_130
          CFI CFA_SP SP+4
          CFI Block cfiCond294 Using cfiCommon0
          CFI (cfiCond294) Function main_logic
          CFI (cfiCond294) Conditional ??CrossCallReturnLabel_129
          CFI (cfiCond294) CFA_SP SP+4
          CFI Block cfiCond295 Using cfiCommon0
          CFI (cfiCond295) Function main_logic
          CFI (cfiCond295) Conditional ??CrossCallReturnLabel_128
          CFI (cfiCond295) CFA_SP SP+4
          CFI Block cfiCond296 Using cfiCommon0
          CFI (cfiCond296) Function main_logic
          CFI (cfiCond296) Conditional ??CrossCallReturnLabel_127
          CFI (cfiCond296) CFA_SP SP+4
          CFI Block cfiCond297 Using cfiCommon0
          CFI (cfiCond297) Function main_logic
          CFI (cfiCond297) Conditional ??CrossCallReturnLabel_126
          CFI (cfiCond297) CFA_SP SP+4
          CFI Block cfiCond298 Using cfiCommon0
          CFI (cfiCond298) Function main_logic
          CFI (cfiCond298) Conditional ??CrossCallReturnLabel_125
          CFI (cfiCond298) CFA_SP SP+4
          CFI Block cfiPicker299 Using cfiCommon2
          CFI (cfiPicker299) NoFunction
          CFI (cfiPicker299) Picker
        STS     ??sel, R16
        RJMP    pult
          CFI EndBlock cfiCond293
          CFI EndBlock cfiCond294
          CFI EndBlock cfiCond295
          CFI EndBlock cfiCond296
          CFI EndBlock cfiCond297
          CFI EndBlock cfiCond298
          CFI EndBlock cfiPicker299

        RSEG CODE:CODE:NOROOT(1)
?Subroutine69:
          CFI Block cfiCond300 Using cfiCommon0
          CFI Function main_power
          CFI Conditional ??CrossCallReturnLabel_104
          CFI CFA_SP SP+4
          CFI Block cfiCond301 Using cfiCommon0
          CFI (cfiCond301) Function main_power
          CFI (cfiCond301) Conditional ??CrossCallReturnLabel_105
          CFI (cfiCond301) CFA_SP SP+4
          CFI Block cfiCond302 Using cfiCommon0
          CFI (cfiCond302) Function main_logic
          CFI (cfiCond302) Conditional ??CrossCallReturnLabel_106
          CFI (cfiCond302) CFA_SP SP+4
          CFI Block cfiCond303 Using cfiCommon0
          CFI (cfiCond303) Function main_logic
          CFI (cfiCond303) Conditional ??CrossCallReturnLabel_107
          CFI (cfiCond303) CFA_SP SP+4
          CFI Block cfiCond304 Using cfiCommon0
          CFI (cfiCond304) Function main_logic
          CFI (cfiCond304) Conditional ??CrossCallReturnLabel_108
          CFI (cfiCond304) CFA_SP SP+4
          CFI Block cfiCond305 Using cfiCommon0
          CFI (cfiCond305) Function main_logic
          CFI (cfiCond305) Conditional ??CrossCallReturnLabel_109
          CFI (cfiCond305) CFA_SP SP+4
          CFI Block cfiCond306 Using cfiCommon0
          CFI (cfiCond306) Function main_logic
          CFI (cfiCond306) Conditional ??CrossCallReturnLabel_110
          CFI (cfiCond306) CFA_SP SP+4
          CFI Block cfiCond307 Using cfiCommon0
          CFI (cfiCond307) Function main_logic
          CFI (cfiCond307) Conditional ??CrossCallReturnLabel_111
          CFI (cfiCond307) CFA_SP SP+4
          CFI Block cfiCond308 Using cfiCommon0
          CFI (cfiCond308) Function main_logic
          CFI (cfiCond308) Conditional ??CrossCallReturnLabel_112
          CFI (cfiCond308) CFA_SP SP+4
          CFI Block cfiCond309 Using cfiCommon0
          CFI (cfiCond309) Function main_logic
          CFI (cfiCond309) Conditional ??CrossCallReturnLabel_113
          CFI (cfiCond309) CFA_SP SP+4
          CFI Block cfiCond310 Using cfiCommon0
          CFI (cfiCond310) Function main_logic
          CFI (cfiCond310) Conditional ??CrossCallReturnLabel_114
          CFI (cfiCond310) CFA_SP SP+4
          CFI Block cfiCond311 Using cfiCommon0
          CFI (cfiCond311) Function main_logic
          CFI (cfiCond311) Conditional ??CrossCallReturnLabel_115
          CFI (cfiCond311) CFA_SP SP+4
          CFI Block cfiCond312 Using cfiCommon0
          CFI (cfiCond312) Function main_logic
          CFI (cfiCond312) Conditional ??CrossCallReturnLabel_116
          CFI (cfiCond312) CFA_SP SP+4
          CFI Block cfiCond313 Using cfiCommon0
          CFI (cfiCond313) Function main_logic
          CFI (cfiCond313) Conditional ??CrossCallReturnLabel_117
          CFI (cfiCond313) CFA_SP SP+4
          CFI Block cfiCond314 Using cfiCommon0
          CFI (cfiCond314) Function main_logic
          CFI (cfiCond314) Conditional ??CrossCallReturnLabel_118
          CFI (cfiCond314) CFA_SP SP+4
          CFI Block cfiCond315 Using cfiCommon0
          CFI (cfiCond315) Function main_logic
          CFI (cfiCond315) Conditional ??CrossCallReturnLabel_119
          CFI (cfiCond315) CFA_SP SP+4
          CFI Block cfiPicker316 Using cfiCommon2
          CFI (cfiPicker316) NoFunction
          CFI (cfiPicker316) Picker
        LDS     R16, pultadr
        RET
          CFI EndBlock cfiCond300
          CFI EndBlock cfiCond301
          CFI EndBlock cfiCond302
          CFI EndBlock cfiCond303
          CFI EndBlock cfiCond304
          CFI EndBlock cfiCond305
          CFI EndBlock cfiCond306
          CFI EndBlock cfiCond307
          CFI EndBlock cfiCond308
          CFI EndBlock cfiCond309
          CFI EndBlock cfiCond310
          CFI EndBlock cfiCond311
          CFI EndBlock cfiCond312
          CFI EndBlock cfiCond313
          CFI EndBlock cfiCond314
          CFI EndBlock cfiCond315
          CFI EndBlock cfiPicker316

        RSEG CODE:CODE:NOROOT(1)
?Subroutine68:
          CFI Block cfiCond317 Using cfiCommon0
          CFI Function main_logic
          CFI Conditional ??CrossCallReturnLabel_99
          CFI CFA_SP SP+4
          CFI Block cfiCond318 Using cfiCommon0
          CFI (cfiCond318) Function main_logic
          CFI (cfiCond318) Conditional ??CrossCallReturnLabel_100
          CFI (cfiCond318) CFA_SP SP+4
          CFI Block cfiCond319 Using cfiCommon0
          CFI (cfiCond319) Function main_logic
          CFI (cfiCond319) Conditional ??CrossCallReturnLabel_101
          CFI (cfiCond319) CFA_SP SP+4
          CFI Block cfiCond320 Using cfiCommon0
          CFI (cfiCond320) Function main_logic
          CFI (cfiCond320) Conditional ??CrossCallReturnLabel_102
          CFI (cfiCond320) CFA_SP SP+4
          CFI Block cfiCond321 Using cfiCommon0
          CFI (cfiCond321) Function main_logic
          CFI (cfiCond321) Conditional ??CrossCallReturnLabel_103
          CFI (cfiCond321) CFA_SP SP+4
          CFI Block cfiPicker322 Using cfiCommon2
          CFI (cfiPicker322) NoFunction
          CFI (cfiPicker322) Picker
        CBI     0x12, 0x06
        LDS     R16, ??sel
        STS     ??lastsel, R16
        RET
          CFI EndBlock cfiCond317
          CFI EndBlock cfiCond318
          CFI EndBlock cfiCond319
          CFI EndBlock cfiCond320
          CFI EndBlock cfiCond321
          CFI EndBlock cfiPicker322

        RSEG CODE:CODE:NOROOT(1)
?Subroutine59:
          CFI Block cfiCond323 Using cfiCommon0
          CFI Function coding
          CFI Conditional ??CrossCallReturnLabel_86
          CFI R24 Frame(CFA_Y, -10)
          CFI R25 Frame(CFA_Y, -9)
          CFI R26 Frame(CFA_Y, -8)
          CFI R27 Frame(CFA_Y, -7)
          CFI R4 Frame(CFA_Y, -6)
          CFI R5 Frame(CFA_Y, -5)
          CFI R6 Frame(CFA_Y, -4)
          CFI R7 Frame(CFA_Y, -3)
          CFI R8 Frame(CFA_Y, -2)
          CFI R9 Frame(CFA_Y, -1)
          CFI CFA_SP SP+4
          CFI CFA_Y Y+10
          CFI Block cfiCond324 Using cfiCommon0
          CFI (cfiCond324) Function coding
          CFI (cfiCond324) Conditional ??CrossCallReturnLabel_87
          CFI (cfiCond324) R24 Frame(CFA_Y, -10)
          CFI (cfiCond324) R25 Frame(CFA_Y, -9)
          CFI (cfiCond324) R26 Frame(CFA_Y, -8)
          CFI (cfiCond324) R27 Frame(CFA_Y, -7)
          CFI (cfiCond324) R4 Frame(CFA_Y, -6)
          CFI (cfiCond324) R5 Frame(CFA_Y, -5)
          CFI (cfiCond324) R6 Frame(CFA_Y, -4)
          CFI (cfiCond324) R7 Frame(CFA_Y, -3)
          CFI (cfiCond324) R8 Frame(CFA_Y, -2)
          CFI (cfiCond324) R9 Frame(CFA_Y, -1)
          CFI (cfiCond324) CFA_SP SP+4
          CFI (cfiCond324) CFA_Y Y+10
          CFI Block cfiCond325 Using cfiCommon0
          CFI (cfiCond325) Function coding
          CFI (cfiCond325) Conditional ??CrossCallReturnLabel_88
          CFI (cfiCond325) R24 Frame(CFA_Y, -10)
          CFI (cfiCond325) R25 Frame(CFA_Y, -9)
          CFI (cfiCond325) R26 Frame(CFA_Y, -8)
          CFI (cfiCond325) R27 Frame(CFA_Y, -7)
          CFI (cfiCond325) R4 Frame(CFA_Y, -6)
          CFI (cfiCond325) R5 Frame(CFA_Y, -5)
          CFI (cfiCond325) R6 Frame(CFA_Y, -4)
          CFI (cfiCond325) R7 Frame(CFA_Y, -3)
          CFI (cfiCond325) R8 Frame(CFA_Y, -2)
          CFI (cfiCond325) R9 Frame(CFA_Y, -1)
          CFI (cfiCond325) CFA_SP SP+4
          CFI (cfiCond325) CFA_Y Y+10
          CFI Block cfiCond326 Using cfiCommon0
          CFI (cfiCond326) Function main_logic
          CFI (cfiCond326) Conditional ??CrossCallReturnLabel_89
          CFI (cfiCond326) CFA_SP SP+4
          CFI Block cfiCond327 Using cfiCommon0
          CFI (cfiCond327) Function TimerTick
          CFI (cfiCond327) Conditional ??CrossCallReturnLabel_90
          CFI (cfiCond327) CFA_SP SP+4
          CFI Block cfiPicker328 Using cfiCommon2
          CFI (cfiPicker328) NoFunction
          CFI (cfiPicker328) Picker
        LD      R18, Z
        LDD     R19, Z+1
        RET
          CFI EndBlock cfiCond323
          CFI EndBlock cfiCond324
          CFI EndBlock cfiCond325
          CFI EndBlock cfiCond326
          CFI EndBlock cfiCond327
          CFI EndBlock cfiPicker328

        RSEG CODE:CODE:NOROOT(1)
?Subroutine46:
          CFI Block cfiCond329 Using cfiCommon0
          CFI Function main_logic
          CFI Conditional ??CrossCallReturnLabel_53
          CFI CFA_SP SP+4
          CFI Block cfiCond330 Using cfiCommon0
          CFI (cfiCond330) Function main_logic
          CFI (cfiCond330) Conditional ??CrossCallReturnLabel_54
          CFI (cfiCond330) CFA_SP SP+4
          CFI Block cfiCond331 Using cfiCommon0
          CFI (cfiCond331) Function main_logic
          CFI (cfiCond331) Conditional ??CrossCallReturnLabel_55
          CFI (cfiCond331) CFA_SP SP+4
          CFI Block cfiCond332 Using cfiCommon0
          CFI (cfiCond332) Function main_logic
          CFI (cfiCond332) Conditional ??CrossCallReturnLabel_56
          CFI (cfiCond332) CFA_SP SP+4
          CFI Block cfiCond333 Using cfiCommon0
          CFI (cfiCond333) Function main_logic
          CFI (cfiCond333) Conditional ??CrossCallReturnLabel_57
          CFI (cfiCond333) CFA_SP SP+4
          CFI Block cfiPicker334 Using cfiCommon2
          CFI (cfiPicker334) NoFunction
          CFI (cfiPicker334) Picker
        LDI     R18, 0
        LDI     R17, 3
        RET
          CFI EndBlock cfiCond329
          CFI EndBlock cfiCond330
          CFI EndBlock cfiCond331
          CFI EndBlock cfiCond332
          CFI EndBlock cfiCond333
          CFI EndBlock cfiPicker334

        RSEG CODE:CODE:NOROOT(1)
?Subroutine95:
          CFI Block cfiCond335 Using cfiCommon0
          CFI Function PEREP
          CFI Conditional ??CrossCallReturnLabel_185, ??CrossCallReturnLabel_39
          CFI R24 Frame(CFA_Y, -8)
          CFI R25 Frame(CFA_Y, -7)
          CFI R26 Frame(CFA_Y, -6)
          CFI R27 Frame(CFA_Y, -5)
          CFI R4 Frame(CFA_Y, -4)
          CFI R5 Frame(CFA_Y, -3)
          CFI R6 Frame(CFA_Y, -2)
          CFI R7 Frame(CFA_Y, -1)
          CFI CFA_SP SP+6
          CFI CFA_Y Y+8
          CFI Block cfiCond336 Using cfiCommon0
          CFI (cfiCond336) Function PEREP
          CFI (cfiCond336) Conditional ??CrossCallReturnLabel_185, ??CrossCallReturnLabel_40
          CFI (cfiCond336) R24 Frame(CFA_Y, -8)
          CFI (cfiCond336) R25 Frame(CFA_Y, -7)
          CFI (cfiCond336) R26 Frame(CFA_Y, -6)
          CFI (cfiCond336) R27 Frame(CFA_Y, -5)
          CFI (cfiCond336) R4 Frame(CFA_Y, -4)
          CFI (cfiCond336) R5 Frame(CFA_Y, -3)
          CFI (cfiCond336) R6 Frame(CFA_Y, -2)
          CFI (cfiCond336) R7 Frame(CFA_Y, -1)
          CFI (cfiCond336) CFA_SP SP+6
          CFI (cfiCond336) CFA_Y Y+8
          CFI Block cfiCond337 Using cfiCommon0
          CFI (cfiCond337) Function coding
          CFI (cfiCond337) Conditional ??CrossCallReturnLabel_187, ??CrossCallReturnLabel_200
          CFI (cfiCond337) R24 Frame(CFA_Y, -10)
          CFI (cfiCond337) R25 Frame(CFA_Y, -9)
          CFI (cfiCond337) R26 Frame(CFA_Y, -8)
          CFI (cfiCond337) R27 Frame(CFA_Y, -7)
          CFI (cfiCond337) R4 Frame(CFA_Y, -6)
          CFI (cfiCond337) R5 Frame(CFA_Y, -5)
          CFI (cfiCond337) R6 Frame(CFA_Y, -4)
          CFI (cfiCond337) R7 Frame(CFA_Y, -3)
          CFI (cfiCond337) R8 Frame(CFA_Y, -2)
          CFI (cfiCond337) R9 Frame(CFA_Y, -1)
          CFI (cfiCond337) CFA_SP SP+6
          CFI (cfiCond337) CFA_Y Y+10
          CFI Block cfiCond338 Using cfiCommon0
          CFI (cfiCond338) Function coding
          CFI (cfiCond338) Conditional ??CrossCallReturnLabel_187, ??CrossCallReturnLabel_201
          CFI (cfiCond338) R24 Frame(CFA_Y, -10)
          CFI (cfiCond338) R25 Frame(CFA_Y, -9)
          CFI (cfiCond338) R26 Frame(CFA_Y, -8)
          CFI (cfiCond338) R27 Frame(CFA_Y, -7)
          CFI (cfiCond338) R4 Frame(CFA_Y, -6)
          CFI (cfiCond338) R5 Frame(CFA_Y, -5)
          CFI (cfiCond338) R6 Frame(CFA_Y, -4)
          CFI (cfiCond338) R7 Frame(CFA_Y, -3)
          CFI (cfiCond338) R8 Frame(CFA_Y, -2)
          CFI (cfiCond338) R9 Frame(CFA_Y, -1)
          CFI (cfiCond338) CFA_SP SP+6
          CFI (cfiCond338) CFA_Y Y+10
          CFI Block cfiCond339 Using cfiCommon0
          CFI (cfiCond339) Function coding
          CFI (cfiCond339) Conditional ??CrossCallReturnLabel_186, ??CrossCallReturnLabel_325
          CFI (cfiCond339) R24 Frame(CFA_Y, -10)
          CFI (cfiCond339) R25 Frame(CFA_Y, -9)
          CFI (cfiCond339) R26 Frame(CFA_Y, -8)
          CFI (cfiCond339) R27 Frame(CFA_Y, -7)
          CFI (cfiCond339) R4 Frame(CFA_Y, -6)
          CFI (cfiCond339) R5 Frame(CFA_Y, -5)
          CFI (cfiCond339) R6 Frame(CFA_Y, -4)
          CFI (cfiCond339) R7 Frame(CFA_Y, -3)
          CFI (cfiCond339) R8 Frame(CFA_Y, -2)
          CFI (cfiCond339) R9 Frame(CFA_Y, -1)
          CFI (cfiCond339) CFA_SP SP+6
          CFI (cfiCond339) CFA_Y Y+10
          CFI Block cfiCond340 Using cfiCommon0
          CFI (cfiCond340) Function coding
          CFI (cfiCond340) Conditional ??CrossCallReturnLabel_186, ??CrossCallReturnLabel_326
          CFI (cfiCond340) R24 Frame(CFA_Y, -10)
          CFI (cfiCond340) R25 Frame(CFA_Y, -9)
          CFI (cfiCond340) R26 Frame(CFA_Y, -8)
          CFI (cfiCond340) R27 Frame(CFA_Y, -7)
          CFI (cfiCond340) R4 Frame(CFA_Y, -6)
          CFI (cfiCond340) R5 Frame(CFA_Y, -5)
          CFI (cfiCond340) R6 Frame(CFA_Y, -4)
          CFI (cfiCond340) R7 Frame(CFA_Y, -3)
          CFI (cfiCond340) R8 Frame(CFA_Y, -2)
          CFI (cfiCond340) R9 Frame(CFA_Y, -1)
          CFI (cfiCond340) CFA_SP SP+6
          CFI (cfiCond340) CFA_Y Y+10
          CFI Block cfiCond341 Using cfiCommon0
          CFI (cfiCond341) Function coding
          CFI (cfiCond341) Conditional ??CrossCallReturnLabel_186, ??CrossCallReturnLabel_327
          CFI (cfiCond341) R24 Frame(CFA_Y, -10)
          CFI (cfiCond341) R25 Frame(CFA_Y, -9)
          CFI (cfiCond341) R26 Frame(CFA_Y, -8)
          CFI (cfiCond341) R27 Frame(CFA_Y, -7)
          CFI (cfiCond341) R4 Frame(CFA_Y, -6)
          CFI (cfiCond341) R5 Frame(CFA_Y, -5)
          CFI (cfiCond341) R6 Frame(CFA_Y, -4)
          CFI (cfiCond341) R7 Frame(CFA_Y, -3)
          CFI (cfiCond341) R8 Frame(CFA_Y, -2)
          CFI (cfiCond341) R9 Frame(CFA_Y, -1)
          CFI (cfiCond341) CFA_SP SP+6
          CFI (cfiCond341) CFA_Y Y+10
          CFI Block cfiCond342 Using cfiCommon0
          CFI (cfiCond342) Function coding
          CFI (cfiCond342) Conditional ??CrossCallReturnLabel_178
          CFI (cfiCond342) R24 Frame(CFA_Y, -10)
          CFI (cfiCond342) R25 Frame(CFA_Y, -9)
          CFI (cfiCond342) R26 Frame(CFA_Y, -8)
          CFI (cfiCond342) R27 Frame(CFA_Y, -7)
          CFI (cfiCond342) R4 Frame(CFA_Y, -6)
          CFI (cfiCond342) R5 Frame(CFA_Y, -5)
          CFI (cfiCond342) R6 Frame(CFA_Y, -4)
          CFI (cfiCond342) R7 Frame(CFA_Y, -3)
          CFI (cfiCond342) R8 Frame(CFA_Y, -2)
          CFI (cfiCond342) R9 Frame(CFA_Y, -1)
          CFI (cfiCond342) CFA_SP SP+4
          CFI (cfiCond342) CFA_Y Y+10
          CFI Block cfiCond343 Using cfiCommon0
          CFI (cfiCond343) Function coding
          CFI (cfiCond343) Conditional ??CrossCallReturnLabel_179
          CFI (cfiCond343) R24 Frame(CFA_Y, -10)
          CFI (cfiCond343) R25 Frame(CFA_Y, -9)
          CFI (cfiCond343) R26 Frame(CFA_Y, -8)
          CFI (cfiCond343) R27 Frame(CFA_Y, -7)
          CFI (cfiCond343) R4 Frame(CFA_Y, -6)
          CFI (cfiCond343) R5 Frame(CFA_Y, -5)
          CFI (cfiCond343) R6 Frame(CFA_Y, -4)
          CFI (cfiCond343) R7 Frame(CFA_Y, -3)
          CFI (cfiCond343) R8 Frame(CFA_Y, -2)
          CFI (cfiCond343) R9 Frame(CFA_Y, -1)
          CFI (cfiCond343) CFA_SP SP+4
          CFI (cfiCond343) CFA_Y Y+10
          CFI Block cfiCond344 Using cfiCommon0
          CFI (cfiCond344) Function main_logic
          CFI (cfiCond344) Conditional ??CrossCallReturnLabel_180
          CFI (cfiCond344) CFA_SP SP+4
          CFI Block cfiCond345 Using cfiCommon0
          CFI (cfiCond345) Function main_logic
          CFI (cfiCond345) Conditional ??CrossCallReturnLabel_181
          CFI (cfiCond345) CFA_SP SP+4
          CFI Block cfiCond346 Using cfiCommon0
          CFI (cfiCond346) Function writeCOD
          CFI (cfiCond346) Conditional ??CrossCallReturnLabel_182
          CFI (cfiCond346) R24 Frame(CFA_Y, -1)
          CFI (cfiCond346) CFA_SP SP+4
          CFI (cfiCond346) CFA_Y Y+1
          CFI Block cfiCond347 Using cfiCommon0
          CFI (cfiCond347) Function writeCOD
          CFI (cfiCond347) Conditional ??CrossCallReturnLabel_183
          CFI (cfiCond347) R24 Frame(CFA_Y, -1)
          CFI (cfiCond347) CFA_SP SP+4
          CFI (cfiCond347) CFA_Y Y+1
          CFI Block cfiCond348 Using cfiCommon0
          CFI (cfiCond348) Function writeCOD
          CFI (cfiCond348) Conditional ??CrossCallReturnLabel_184
          CFI (cfiCond348) R24 Frame(CFA_Y, -1)
          CFI (cfiCond348) CFA_SP SP+4
          CFI (cfiCond348) CFA_Y Y+1
          CFI Block cfiPicker349 Using cfiCommon2
          CFI (cfiPicker349) NoFunction
          CFI (cfiPicker349) Picker
        LD      R16, Z
        LDD     R17, Z+1
        RET
          CFI EndBlock cfiCond335
          CFI EndBlock cfiCond336
          CFI EndBlock cfiCond337
          CFI EndBlock cfiCond338
          CFI EndBlock cfiCond339
          CFI EndBlock cfiCond340
          CFI EndBlock cfiCond341
          CFI EndBlock cfiCond342
          CFI EndBlock cfiCond343
          CFI EndBlock cfiCond344
          CFI EndBlock cfiCond345
          CFI EndBlock cfiCond346
          CFI EndBlock cfiCond347
          CFI EndBlock cfiCond348
          CFI EndBlock cfiPicker349

        RSEG CODE:CODE:NOROOT(1)
?Subroutine89:
          CFI Block cfiCond350 Using cfiCommon0
          CFI Function PEREP
          CFI Conditional ??CrossCallReturnLabel_164, ??CrossCallReturnLabel_14
          CFI R24 Frame(CFA_Y, -8)
          CFI R25 Frame(CFA_Y, -7)
          CFI R26 Frame(CFA_Y, -6)
          CFI R27 Frame(CFA_Y, -5)
          CFI R4 Frame(CFA_Y, -4)
          CFI R5 Frame(CFA_Y, -3)
          CFI R6 Frame(CFA_Y, -2)
          CFI R7 Frame(CFA_Y, -1)
          CFI CFA_SP SP+6
          CFI CFA_Y Y+8
          CFI Block cfiCond351 Using cfiCommon0
          CFI (cfiCond351) Function main
          CFI (cfiCond351) Conditional ??CrossCallReturnLabel_164, ??CrossCallReturnLabel_13
          CFI (cfiCond351) R24 Frame(CFA_Y, -1)
          CFI (cfiCond351) CFA_SP SP+6
          CFI (cfiCond351) CFA_Y Y+1
          CFI Block cfiCond352 Using cfiCommon0
          CFI (cfiCond352) Function PEREP
          CFI (cfiCond352) Conditional ??CrossCallReturnLabel_165, ??CrossCallReturnLabel_14
          CFI (cfiCond352) R24 Frame(CFA_Y, -8)
          CFI (cfiCond352) R25 Frame(CFA_Y, -7)
          CFI (cfiCond352) R26 Frame(CFA_Y, -6)
          CFI (cfiCond352) R27 Frame(CFA_Y, -5)
          CFI (cfiCond352) R4 Frame(CFA_Y, -4)
          CFI (cfiCond352) R5 Frame(CFA_Y, -3)
          CFI (cfiCond352) R6 Frame(CFA_Y, -2)
          CFI (cfiCond352) R7 Frame(CFA_Y, -1)
          CFI (cfiCond352) CFA_SP SP+6
          CFI (cfiCond352) CFA_Y Y+8
          CFI Block cfiCond353 Using cfiCommon0
          CFI (cfiCond353) Function main
          CFI (cfiCond353) Conditional ??CrossCallReturnLabel_165, ??CrossCallReturnLabel_13
          CFI (cfiCond353) R24 Frame(CFA_Y, -1)
          CFI (cfiCond353) CFA_SP SP+6
          CFI (cfiCond353) CFA_Y Y+1
          CFI Block cfiCond354 Using cfiCommon0
          CFI (cfiCond354) Function PEREP
          CFI (cfiCond354) Conditional ??CrossCallReturnLabel_14
          CFI (cfiCond354) R24 Frame(CFA_Y, -8)
          CFI (cfiCond354) R25 Frame(CFA_Y, -7)
          CFI (cfiCond354) R26 Frame(CFA_Y, -6)
          CFI (cfiCond354) R27 Frame(CFA_Y, -5)
          CFI (cfiCond354) R4 Frame(CFA_Y, -4)
          CFI (cfiCond354) R5 Frame(CFA_Y, -3)
          CFI (cfiCond354) R6 Frame(CFA_Y, -2)
          CFI (cfiCond354) R7 Frame(CFA_Y, -1)
          CFI (cfiCond354) CFA_SP SP+4
          CFI (cfiCond354) CFA_Y Y+8
          CFI Block cfiCond355 Using cfiCommon0
          CFI (cfiCond355) Function main
          CFI (cfiCond355) Conditional ??CrossCallReturnLabel_13
          CFI (cfiCond355) R24 Frame(CFA_Y, -1)
          CFI (cfiCond355) CFA_SP SP+4
          CFI (cfiCond355) CFA_Y Y+1
          CFI Block cfiCond356 Using cfiCommon0
          CFI (cfiCond356) Function main_power
          CFI (cfiCond356) Conditional ??CrossCallReturnLabel_163, ??CrossCallReturnLabel_9
          CFI (cfiCond356) CFA_SP SP+6
          CFI Block cfiCond357 Using cfiCommon0
          CFI (cfiCond357) Function pult
          CFI (cfiCond357) Conditional ??CrossCallReturnLabel_163, ??CrossCallReturnLabel_8
          CFI (cfiCond357) CFA_SP SP+6
          CFI Block cfiCond358 Using cfiCommon0
          CFI (cfiCond358) Function PEREP
          CFI (cfiCond358) Conditional ??CrossCallReturnLabel_158
          CFI (cfiCond358) R24 Frame(CFA_Y, -8)
          CFI (cfiCond358) R25 Frame(CFA_Y, -7)
          CFI (cfiCond358) R26 Frame(CFA_Y, -6)
          CFI (cfiCond358) R27 Frame(CFA_Y, -5)
          CFI (cfiCond358) R4 Frame(CFA_Y, -4)
          CFI (cfiCond358) R5 Frame(CFA_Y, -3)
          CFI (cfiCond358) R6 Frame(CFA_Y, -2)
          CFI (cfiCond358) R7 Frame(CFA_Y, -1)
          CFI (cfiCond358) CFA_SP SP+4
          CFI (cfiCond358) CFA_Y Y+8
          CFI Block cfiCond359 Using cfiCommon0
          CFI (cfiCond359) Function PEREP
          CFI (cfiCond359) Conditional ??CrossCallReturnLabel_159
          CFI (cfiCond359) R24 Frame(CFA_Y, -8)
          CFI (cfiCond359) R25 Frame(CFA_Y, -7)
          CFI (cfiCond359) R26 Frame(CFA_Y, -6)
          CFI (cfiCond359) R27 Frame(CFA_Y, -5)
          CFI (cfiCond359) R4 Frame(CFA_Y, -4)
          CFI (cfiCond359) R5 Frame(CFA_Y, -3)
          CFI (cfiCond359) R6 Frame(CFA_Y, -2)
          CFI (cfiCond359) R7 Frame(CFA_Y, -1)
          CFI (cfiCond359) CFA_SP SP+4
          CFI (cfiCond359) CFA_Y Y+8
          CFI Block cfiCond360 Using cfiCommon0
          CFI (cfiCond360) Function PEREP
          CFI (cfiCond360) Conditional ??CrossCallReturnLabel_160
          CFI (cfiCond360) R24 Frame(CFA_Y, -8)
          CFI (cfiCond360) R25 Frame(CFA_Y, -7)
          CFI (cfiCond360) R26 Frame(CFA_Y, -6)
          CFI (cfiCond360) R27 Frame(CFA_Y, -5)
          CFI (cfiCond360) R4 Frame(CFA_Y, -4)
          CFI (cfiCond360) R5 Frame(CFA_Y, -3)
          CFI (cfiCond360) R6 Frame(CFA_Y, -2)
          CFI (cfiCond360) R7 Frame(CFA_Y, -1)
          CFI (cfiCond360) CFA_SP SP+4
          CFI (cfiCond360) CFA_Y Y+8
          CFI Block cfiCond361 Using cfiCommon0
          CFI (cfiCond361) Function PEREP
          CFI (cfiCond361) Conditional ??CrossCallReturnLabel_161
          CFI (cfiCond361) R24 Frame(CFA_Y, -8)
          CFI (cfiCond361) R25 Frame(CFA_Y, -7)
          CFI (cfiCond361) R26 Frame(CFA_Y, -6)
          CFI (cfiCond361) R27 Frame(CFA_Y, -5)
          CFI (cfiCond361) R4 Frame(CFA_Y, -4)
          CFI (cfiCond361) R5 Frame(CFA_Y, -3)
          CFI (cfiCond361) R6 Frame(CFA_Y, -2)
          CFI (cfiCond361) R7 Frame(CFA_Y, -1)
          CFI (cfiCond361) CFA_SP SP+4
          CFI (cfiCond361) CFA_Y Y+8
          CFI Block cfiCond362 Using cfiCommon0
          CFI (cfiCond362) Function main_logic
          CFI (cfiCond362) Conditional ??CrossCallReturnLabel_162
          CFI (cfiCond362) CFA_SP SP+4
          CFI Block cfiPicker363 Using cfiCommon2
          CFI (cfiPicker363) NoFunction
          CFI (cfiPicker363) Picker
        ST      Z, R16
        STD     Z+1, R16
        RET
          CFI EndBlock cfiCond350
          CFI EndBlock cfiCond351
          CFI EndBlock cfiCond352
          CFI EndBlock cfiCond353
          CFI EndBlock cfiCond354
          CFI EndBlock cfiCond355
          CFI EndBlock cfiCond356
          CFI EndBlock cfiCond357
          CFI EndBlock cfiCond358
          CFI EndBlock cfiCond359
          CFI EndBlock cfiCond360
          CFI EndBlock cfiCond361
          CFI EndBlock cfiCond362
          CFI EndBlock cfiPicker363

        RSEG CODE:CODE:NOROOT(1)
?Subroutine19:
          CFI Block cfiCond364 Using cfiCommon0
          CFI Function PEREP
          CFI Conditional ??CrossCallReturnLabel_296
          CFI R24 Frame(CFA_Y, -8)
          CFI R25 Frame(CFA_Y, -7)
          CFI R26 Frame(CFA_Y, -6)
          CFI R27 Frame(CFA_Y, -5)
          CFI R4 Frame(CFA_Y, -4)
          CFI R5 Frame(CFA_Y, -3)
          CFI R6 Frame(CFA_Y, -2)
          CFI R7 Frame(CFA_Y, -1)
          CFI CFA_SP SP+4
          CFI CFA_Y Y+8
          CFI Block cfiCond365 Using cfiCommon0
          CFI (cfiCond365) Function main_logic
          CFI (cfiCond365) Conditional ??CrossCallReturnLabel_295
          CFI (cfiCond365) CFA_SP SP+4
          CFI Block cfiPicker366 Using cfiCommon2
          CFI (cfiPicker366) NoFunction
          CFI (cfiPicker366) Picker
        RCALL   ?Subroutine86
??CrossCallReturnLabel_294:
        RJMP    ?Subroutine122
          CFI EndBlock cfiCond364
          CFI EndBlock cfiCond365
          CFI EndBlock cfiPicker366

        RSEG CODE:CODE:NOROOT(1)
?Subroutine86:
          CFI Block cfiCond367 Using cfiCommon0
          CFI Function main_power
          CFI Conditional ??CrossCallReturnLabel_293, ??CrossCallReturnLabel_31
          CFI CFA_SP SP+6
          CFI Block cfiCond368 Using cfiCommon0
          CFI (cfiCond368) Function main_power
          CFI (cfiCond368) Conditional ??CrossCallReturnLabel_293, ??CrossCallReturnLabel_32
          CFI (cfiCond368) CFA_SP SP+6
          CFI Block cfiCond369 Using cfiCommon0
          CFI (cfiCond369) Function PEREP
          CFI (cfiCond369) Conditional ??CrossCallReturnLabel_294, ??CrossCallReturnLabel_296
          CFI (cfiCond369) R24 Frame(CFA_Y, -8)
          CFI (cfiCond369) R25 Frame(CFA_Y, -7)
          CFI (cfiCond369) R26 Frame(CFA_Y, -6)
          CFI (cfiCond369) R27 Frame(CFA_Y, -5)
          CFI (cfiCond369) R4 Frame(CFA_Y, -4)
          CFI (cfiCond369) R5 Frame(CFA_Y, -3)
          CFI (cfiCond369) R6 Frame(CFA_Y, -2)
          CFI (cfiCond369) R7 Frame(CFA_Y, -1)
          CFI (cfiCond369) CFA_SP SP+6
          CFI (cfiCond369) CFA_Y Y+8
          CFI Block cfiCond370 Using cfiCommon0
          CFI (cfiCond370) Function main_logic
          CFI (cfiCond370) Conditional ??CrossCallReturnLabel_294, ??CrossCallReturnLabel_295
          CFI (cfiCond370) CFA_SP SP+6
          CFI Block cfiPicker371 Using cfiCommon2
          CFI (cfiPicker371) NoFunction
          CFI (cfiPicker371) Picker
        LDI     R17, 0
          CFI EndBlock cfiCond367
          CFI EndBlock cfiCond368
          CFI EndBlock cfiCond369
          CFI EndBlock cfiCond370
          CFI EndBlock cfiPicker371
        REQUIRE ?Subroutine111
        ;               // Fall through to label ?Subroutine111

        RSEG CODE:CODE:NOROOT(1)
?Subroutine111:
          CFI Block cfiCond372 Using cfiCommon0
          CFI Function PEREP
          CFI Conditional ??CrossCallReturnLabel_288, ??CrossCallReturnLabel_196
          CFI R24 Frame(CFA_Y, -8)
          CFI R25 Frame(CFA_Y, -7)
          CFI R26 Frame(CFA_Y, -6)
          CFI R27 Frame(CFA_Y, -5)
          CFI R4 Frame(CFA_Y, -4)
          CFI R5 Frame(CFA_Y, -3)
          CFI R6 Frame(CFA_Y, -2)
          CFI R7 Frame(CFA_Y, -1)
          CFI CFA_SP SP+6
          CFI CFA_Y Y+8
          CFI Block cfiCond373 Using cfiCommon0
          CFI (cfiCond373) Function PEREP
          CFI (cfiCond373) Conditional ??CrossCallReturnLabel_288, ??CrossCallReturnLabel_197
          CFI (cfiCond373) R24 Frame(CFA_Y, -8)
          CFI (cfiCond373) R25 Frame(CFA_Y, -7)
          CFI (cfiCond373) R26 Frame(CFA_Y, -6)
          CFI (cfiCond373) R27 Frame(CFA_Y, -5)
          CFI (cfiCond373) R4 Frame(CFA_Y, -4)
          CFI (cfiCond373) R5 Frame(CFA_Y, -3)
          CFI (cfiCond373) R6 Frame(CFA_Y, -2)
          CFI (cfiCond373) R7 Frame(CFA_Y, -1)
          CFI (cfiCond373) CFA_SP SP+6
          CFI (cfiCond373) CFA_Y Y+8
          CFI Block cfiCond374 Using cfiCommon0
          CFI (cfiCond374) Function PEREP
          CFI (cfiCond374) Conditional ??CrossCallReturnLabel_289, ??CrossCallReturnLabel_302
          CFI (cfiCond374) R24 Frame(CFA_Y, -8)
          CFI (cfiCond374) R25 Frame(CFA_Y, -7)
          CFI (cfiCond374) R26 Frame(CFA_Y, -6)
          CFI (cfiCond374) R27 Frame(CFA_Y, -5)
          CFI (cfiCond374) R4 Frame(CFA_Y, -4)
          CFI (cfiCond374) R5 Frame(CFA_Y, -3)
          CFI (cfiCond374) R6 Frame(CFA_Y, -2)
          CFI (cfiCond374) R7 Frame(CFA_Y, -1)
          CFI (cfiCond374) CFA_SP SP+6
          CFI (cfiCond374) CFA_Y Y+8
          CFI Block cfiCond375 Using cfiCommon0
          CFI (cfiCond375) Function coding
          CFI (cfiCond375) Conditional ??CrossCallReturnLabel_289, ??CrossCallReturnLabel_301
          CFI (cfiCond375) R24 Frame(CFA_Y, -10)
          CFI (cfiCond375) R25 Frame(CFA_Y, -9)
          CFI (cfiCond375) R26 Frame(CFA_Y, -8)
          CFI (cfiCond375) R27 Frame(CFA_Y, -7)
          CFI (cfiCond375) R4 Frame(CFA_Y, -6)
          CFI (cfiCond375) R5 Frame(CFA_Y, -5)
          CFI (cfiCond375) R6 Frame(CFA_Y, -4)
          CFI (cfiCond375) R7 Frame(CFA_Y, -3)
          CFI (cfiCond375) R8 Frame(CFA_Y, -2)
          CFI (cfiCond375) R9 Frame(CFA_Y, -1)
          CFI (cfiCond375) CFA_SP SP+6
          CFI (cfiCond375) CFA_Y Y+10
          CFI Block cfiCond376 Using cfiCommon0
          CFI (cfiCond376) Function PEREP
          CFI (cfiCond376) Conditional ??CrossCallReturnLabel_289, ??CrossCallReturnLabel_300
          CFI (cfiCond376) R24 Frame(CFA_Y, -8)
          CFI (cfiCond376) R25 Frame(CFA_Y, -7)
          CFI (cfiCond376) R26 Frame(CFA_Y, -6)
          CFI (cfiCond376) R27 Frame(CFA_Y, -5)
          CFI (cfiCond376) R4 Frame(CFA_Y, -4)
          CFI (cfiCond376) R5 Frame(CFA_Y, -3)
          CFI (cfiCond376) R6 Frame(CFA_Y, -2)
          CFI (cfiCond376) R7 Frame(CFA_Y, -1)
          CFI (cfiCond376) CFA_SP SP+6
          CFI (cfiCond376) CFA_Y Y+8
          CFI Block cfiCond377 Using cfiCommon0
          CFI (cfiCond377) Function PEREP
          CFI (cfiCond377) Conditional ??CrossCallReturnLabel_289, ??CrossCallReturnLabel_299
          CFI (cfiCond377) R24 Frame(CFA_Y, -8)
          CFI (cfiCond377) R25 Frame(CFA_Y, -7)
          CFI (cfiCond377) R26 Frame(CFA_Y, -6)
          CFI (cfiCond377) R27 Frame(CFA_Y, -5)
          CFI (cfiCond377) R4 Frame(CFA_Y, -4)
          CFI (cfiCond377) R5 Frame(CFA_Y, -3)
          CFI (cfiCond377) R6 Frame(CFA_Y, -2)
          CFI (cfiCond377) R7 Frame(CFA_Y, -1)
          CFI (cfiCond377) CFA_SP SP+6
          CFI (cfiCond377) CFA_Y Y+8
          CFI Block cfiCond378 Using cfiCommon0
          CFI (cfiCond378) Function coding
          CFI (cfiCond378) Conditional ??CrossCallReturnLabel_289, ??CrossCallReturnLabel_298
          CFI (cfiCond378) R24 Frame(CFA_Y, -10)
          CFI (cfiCond378) R25 Frame(CFA_Y, -9)
          CFI (cfiCond378) R26 Frame(CFA_Y, -8)
          CFI (cfiCond378) R27 Frame(CFA_Y, -7)
          CFI (cfiCond378) R4 Frame(CFA_Y, -6)
          CFI (cfiCond378) R5 Frame(CFA_Y, -5)
          CFI (cfiCond378) R6 Frame(CFA_Y, -4)
          CFI (cfiCond378) R7 Frame(CFA_Y, -3)
          CFI (cfiCond378) R8 Frame(CFA_Y, -2)
          CFI (cfiCond378) R9 Frame(CFA_Y, -1)
          CFI (cfiCond378) CFA_SP SP+6
          CFI (cfiCond378) CFA_Y Y+10
          CFI Block cfiCond379 Using cfiCommon0
          CFI (cfiCond379) Function coding
          CFI (cfiCond379) Conditional ??CrossCallReturnLabel_289, ??CrossCallReturnLabel_297
          CFI (cfiCond379) R24 Frame(CFA_Y, -10)
          CFI (cfiCond379) R25 Frame(CFA_Y, -9)
          CFI (cfiCond379) R26 Frame(CFA_Y, -8)
          CFI (cfiCond379) R27 Frame(CFA_Y, -7)
          CFI (cfiCond379) R4 Frame(CFA_Y, -6)
          CFI (cfiCond379) R5 Frame(CFA_Y, -5)
          CFI (cfiCond379) R6 Frame(CFA_Y, -4)
          CFI (cfiCond379) R7 Frame(CFA_Y, -3)
          CFI (cfiCond379) R8 Frame(CFA_Y, -2)
          CFI (cfiCond379) R9 Frame(CFA_Y, -1)
          CFI (cfiCond379) CFA_SP SP+6
          CFI (cfiCond379) CFA_Y Y+10
          CFI Block cfiCond380 Using cfiCommon0
          CFI (cfiCond380) Function coding
          CFI (cfiCond380) Conditional ??CrossCallReturnLabel_292, ??CrossCallReturnLabel_203
          CFI (cfiCond380) R24 Frame(CFA_Y, -10)
          CFI (cfiCond380) R25 Frame(CFA_Y, -9)
          CFI (cfiCond380) R26 Frame(CFA_Y, -8)
          CFI (cfiCond380) R27 Frame(CFA_Y, -7)
          CFI (cfiCond380) R4 Frame(CFA_Y, -6)
          CFI (cfiCond380) R5 Frame(CFA_Y, -5)
          CFI (cfiCond380) R6 Frame(CFA_Y, -4)
          CFI (cfiCond380) R7 Frame(CFA_Y, -3)
          CFI (cfiCond380) R8 Frame(CFA_Y, -2)
          CFI (cfiCond380) R9 Frame(CFA_Y, -1)
          CFI (cfiCond380) CFA_SP SP+6
          CFI (cfiCond380) CFA_Y Y+10
          CFI Block cfiCond381 Using cfiCommon0
          CFI (cfiCond381) Function diag
          CFI (cfiCond381) Conditional ??CrossCallReturnLabel_292, ??CrossCallReturnLabel_202
          CFI (cfiCond381) R24 Frame(CFA_Y, -2)
          CFI (cfiCond381) R25 Frame(CFA_Y, -1)
          CFI (cfiCond381) CFA_SP SP+6
          CFI (cfiCond381) CFA_Y Y+2
          CFI Block cfiCond382 Using cfiCommon0
          CFI (cfiCond382) Function main_power
          CFI (cfiCond382) Conditional ??CrossCallReturnLabel_293, ??CrossCallReturnLabel_31
          CFI (cfiCond382) CFA_SP SP+6
          CFI Block cfiCond383 Using cfiCommon0
          CFI (cfiCond383) Function main_power
          CFI (cfiCond383) Conditional ??CrossCallReturnLabel_293, ??CrossCallReturnLabel_32
          CFI (cfiCond383) CFA_SP SP+6
          CFI Block cfiCond384 Using cfiCommon0
          CFI (cfiCond384) Function PEREP
          CFI (cfiCond384) Conditional ??CrossCallReturnLabel_294, ??CrossCallReturnLabel_296
          CFI (cfiCond384) R24 Frame(CFA_Y, -8)
          CFI (cfiCond384) R25 Frame(CFA_Y, -7)
          CFI (cfiCond384) R26 Frame(CFA_Y, -6)
          CFI (cfiCond384) R27 Frame(CFA_Y, -5)
          CFI (cfiCond384) R4 Frame(CFA_Y, -4)
          CFI (cfiCond384) R5 Frame(CFA_Y, -3)
          CFI (cfiCond384) R6 Frame(CFA_Y, -2)
          CFI (cfiCond384) R7 Frame(CFA_Y, -1)
          CFI (cfiCond384) CFA_SP SP+6
          CFI (cfiCond384) CFA_Y Y+8
          CFI Block cfiCond385 Using cfiCommon0
          CFI (cfiCond385) Function main_logic
          CFI (cfiCond385) Conditional ??CrossCallReturnLabel_294, ??CrossCallReturnLabel_295
          CFI (cfiCond385) CFA_SP SP+6
          CFI Block cfiPicker386 Using cfiCommon2
          CFI (cfiPicker386) NoFunction
          CFI (cfiPicker386) Picker
        LDI     R18, 0
        LDI     R19, 0
        RCALL   ?UL2F_L04
          CFI EndBlock cfiCond372
          CFI EndBlock cfiCond373
          CFI EndBlock cfiCond374
          CFI EndBlock cfiCond375
          CFI EndBlock cfiCond376
          CFI EndBlock cfiCond377
          CFI EndBlock cfiCond378
          CFI EndBlock cfiCond379
          CFI EndBlock cfiCond380
          CFI EndBlock cfiCond381
          CFI EndBlock cfiCond382
          CFI EndBlock cfiCond383
          CFI EndBlock cfiCond384
          CFI EndBlock cfiCond385
          CFI EndBlock cfiPicker386
        REQUIRE ?Subroutine113
        ;               // Fall through to label ?Subroutine113

        RSEG CODE:CODE:NOROOT(1)
?Subroutine113:
          CFI Block cfiCond387 Using cfiCommon0
          CFI Function coding
          CFI Conditional ??CrossCallReturnLabel_58
          CFI R24 Frame(CFA_Y, -10)
          CFI R25 Frame(CFA_Y, -9)
          CFI R26 Frame(CFA_Y, -8)
          CFI R27 Frame(CFA_Y, -7)
          CFI R4 Frame(CFA_Y, -6)
          CFI R5 Frame(CFA_Y, -5)
          CFI R6 Frame(CFA_Y, -4)
          CFI R7 Frame(CFA_Y, -3)
          CFI R8 Frame(CFA_Y, -2)
          CFI R9 Frame(CFA_Y, -1)
          CFI CFA_SP SP+4
          CFI CFA_Y Y+10
          CFI Block cfiCond388 Using cfiCommon0
          CFI (cfiCond388) Function coding
          CFI (cfiCond388) Conditional ??CrossCallReturnLabel_59
          CFI (cfiCond388) R24 Frame(CFA_Y, -10)
          CFI (cfiCond388) R25 Frame(CFA_Y, -9)
          CFI (cfiCond388) R26 Frame(CFA_Y, -8)
          CFI (cfiCond388) R27 Frame(CFA_Y, -7)
          CFI (cfiCond388) R4 Frame(CFA_Y, -6)
          CFI (cfiCond388) R5 Frame(CFA_Y, -5)
          CFI (cfiCond388) R6 Frame(CFA_Y, -4)
          CFI (cfiCond388) R7 Frame(CFA_Y, -3)
          CFI (cfiCond388) R8 Frame(CFA_Y, -2)
          CFI (cfiCond388) R9 Frame(CFA_Y, -1)
          CFI (cfiCond388) CFA_SP SP+4
          CFI (cfiCond388) CFA_Y Y+10
          CFI Block cfiCond389 Using cfiCommon0
          CFI (cfiCond389) Function PEREP
          CFI (cfiCond389) Conditional ??CrossCallReturnLabel_288, ??CrossCallReturnLabel_196
          CFI (cfiCond389) R24 Frame(CFA_Y, -8)
          CFI (cfiCond389) R25 Frame(CFA_Y, -7)
          CFI (cfiCond389) R26 Frame(CFA_Y, -6)
          CFI (cfiCond389) R27 Frame(CFA_Y, -5)
          CFI (cfiCond389) R4 Frame(CFA_Y, -4)
          CFI (cfiCond389) R5 Frame(CFA_Y, -3)
          CFI (cfiCond389) R6 Frame(CFA_Y, -2)
          CFI (cfiCond389) R7 Frame(CFA_Y, -1)
          CFI (cfiCond389) CFA_SP SP+6
          CFI (cfiCond389) CFA_Y Y+8
          CFI Block cfiCond390 Using cfiCommon0
          CFI (cfiCond390) Function PEREP
          CFI (cfiCond390) Conditional ??CrossCallReturnLabel_288, ??CrossCallReturnLabel_197
          CFI (cfiCond390) R24 Frame(CFA_Y, -8)
          CFI (cfiCond390) R25 Frame(CFA_Y, -7)
          CFI (cfiCond390) R26 Frame(CFA_Y, -6)
          CFI (cfiCond390) R27 Frame(CFA_Y, -5)
          CFI (cfiCond390) R4 Frame(CFA_Y, -4)
          CFI (cfiCond390) R5 Frame(CFA_Y, -3)
          CFI (cfiCond390) R6 Frame(CFA_Y, -2)
          CFI (cfiCond390) R7 Frame(CFA_Y, -1)
          CFI (cfiCond390) CFA_SP SP+6
          CFI (cfiCond390) CFA_Y Y+8
          CFI Block cfiCond391 Using cfiCommon0
          CFI (cfiCond391) Function PEREP
          CFI (cfiCond391) Conditional ??CrossCallReturnLabel_289, ??CrossCallReturnLabel_302
          CFI (cfiCond391) R24 Frame(CFA_Y, -8)
          CFI (cfiCond391) R25 Frame(CFA_Y, -7)
          CFI (cfiCond391) R26 Frame(CFA_Y, -6)
          CFI (cfiCond391) R27 Frame(CFA_Y, -5)
          CFI (cfiCond391) R4 Frame(CFA_Y, -4)
          CFI (cfiCond391) R5 Frame(CFA_Y, -3)
          CFI (cfiCond391) R6 Frame(CFA_Y, -2)
          CFI (cfiCond391) R7 Frame(CFA_Y, -1)
          CFI (cfiCond391) CFA_SP SP+6
          CFI (cfiCond391) CFA_Y Y+8
          CFI Block cfiCond392 Using cfiCommon0
          CFI (cfiCond392) Function coding
          CFI (cfiCond392) Conditional ??CrossCallReturnLabel_289, ??CrossCallReturnLabel_301
          CFI (cfiCond392) R24 Frame(CFA_Y, -10)
          CFI (cfiCond392) R25 Frame(CFA_Y, -9)
          CFI (cfiCond392) R26 Frame(CFA_Y, -8)
          CFI (cfiCond392) R27 Frame(CFA_Y, -7)
          CFI (cfiCond392) R4 Frame(CFA_Y, -6)
          CFI (cfiCond392) R5 Frame(CFA_Y, -5)
          CFI (cfiCond392) R6 Frame(CFA_Y, -4)
          CFI (cfiCond392) R7 Frame(CFA_Y, -3)
          CFI (cfiCond392) R8 Frame(CFA_Y, -2)
          CFI (cfiCond392) R9 Frame(CFA_Y, -1)
          CFI (cfiCond392) CFA_SP SP+6
          CFI (cfiCond392) CFA_Y Y+10
          CFI Block cfiCond393 Using cfiCommon0
          CFI (cfiCond393) Function PEREP
          CFI (cfiCond393) Conditional ??CrossCallReturnLabel_289, ??CrossCallReturnLabel_300
          CFI (cfiCond393) R24 Frame(CFA_Y, -8)
          CFI (cfiCond393) R25 Frame(CFA_Y, -7)
          CFI (cfiCond393) R26 Frame(CFA_Y, -6)
          CFI (cfiCond393) R27 Frame(CFA_Y, -5)
          CFI (cfiCond393) R4 Frame(CFA_Y, -4)
          CFI (cfiCond393) R5 Frame(CFA_Y, -3)
          CFI (cfiCond393) R6 Frame(CFA_Y, -2)
          CFI (cfiCond393) R7 Frame(CFA_Y, -1)
          CFI (cfiCond393) CFA_SP SP+6
          CFI (cfiCond393) CFA_Y Y+8
          CFI Block cfiCond394 Using cfiCommon0
          CFI (cfiCond394) Function PEREP
          CFI (cfiCond394) Conditional ??CrossCallReturnLabel_289, ??CrossCallReturnLabel_299
          CFI (cfiCond394) R24 Frame(CFA_Y, -8)
          CFI (cfiCond394) R25 Frame(CFA_Y, -7)
          CFI (cfiCond394) R26 Frame(CFA_Y, -6)
          CFI (cfiCond394) R27 Frame(CFA_Y, -5)
          CFI (cfiCond394) R4 Frame(CFA_Y, -4)
          CFI (cfiCond394) R5 Frame(CFA_Y, -3)
          CFI (cfiCond394) R6 Frame(CFA_Y, -2)
          CFI (cfiCond394) R7 Frame(CFA_Y, -1)
          CFI (cfiCond394) CFA_SP SP+6
          CFI (cfiCond394) CFA_Y Y+8
          CFI Block cfiCond395 Using cfiCommon0
          CFI (cfiCond395) Function coding
          CFI (cfiCond395) Conditional ??CrossCallReturnLabel_289, ??CrossCallReturnLabel_298
          CFI (cfiCond395) R24 Frame(CFA_Y, -10)
          CFI (cfiCond395) R25 Frame(CFA_Y, -9)
          CFI (cfiCond395) R26 Frame(CFA_Y, -8)
          CFI (cfiCond395) R27 Frame(CFA_Y, -7)
          CFI (cfiCond395) R4 Frame(CFA_Y, -6)
          CFI (cfiCond395) R5 Frame(CFA_Y, -5)
          CFI (cfiCond395) R6 Frame(CFA_Y, -4)
          CFI (cfiCond395) R7 Frame(CFA_Y, -3)
          CFI (cfiCond395) R8 Frame(CFA_Y, -2)
          CFI (cfiCond395) R9 Frame(CFA_Y, -1)
          CFI (cfiCond395) CFA_SP SP+6
          CFI (cfiCond395) CFA_Y Y+10
          CFI Block cfiCond396 Using cfiCommon0
          CFI (cfiCond396) Function coding
          CFI (cfiCond396) Conditional ??CrossCallReturnLabel_289, ??CrossCallReturnLabel_297
          CFI (cfiCond396) R24 Frame(CFA_Y, -10)
          CFI (cfiCond396) R25 Frame(CFA_Y, -9)
          CFI (cfiCond396) R26 Frame(CFA_Y, -8)
          CFI (cfiCond396) R27 Frame(CFA_Y, -7)
          CFI (cfiCond396) R4 Frame(CFA_Y, -6)
          CFI (cfiCond396) R5 Frame(CFA_Y, -5)
          CFI (cfiCond396) R6 Frame(CFA_Y, -4)
          CFI (cfiCond396) R7 Frame(CFA_Y, -3)
          CFI (cfiCond396) R8 Frame(CFA_Y, -2)
          CFI (cfiCond396) R9 Frame(CFA_Y, -1)
          CFI (cfiCond396) CFA_SP SP+6
          CFI (cfiCond396) CFA_Y Y+10
          CFI Block cfiCond397 Using cfiCommon0
          CFI (cfiCond397) Function coding
          CFI (cfiCond397) Conditional ??CrossCallReturnLabel_292, ??CrossCallReturnLabel_203
          CFI (cfiCond397) R24 Frame(CFA_Y, -10)
          CFI (cfiCond397) R25 Frame(CFA_Y, -9)
          CFI (cfiCond397) R26 Frame(CFA_Y, -8)
          CFI (cfiCond397) R27 Frame(CFA_Y, -7)
          CFI (cfiCond397) R4 Frame(CFA_Y, -6)
          CFI (cfiCond397) R5 Frame(CFA_Y, -5)
          CFI (cfiCond397) R6 Frame(CFA_Y, -4)
          CFI (cfiCond397) R7 Frame(CFA_Y, -3)
          CFI (cfiCond397) R8 Frame(CFA_Y, -2)
          CFI (cfiCond397) R9 Frame(CFA_Y, -1)
          CFI (cfiCond397) CFA_SP SP+6
          CFI (cfiCond397) CFA_Y Y+10
          CFI Block cfiCond398 Using cfiCommon0
          CFI (cfiCond398) Function diag
          CFI (cfiCond398) Conditional ??CrossCallReturnLabel_292, ??CrossCallReturnLabel_202
          CFI (cfiCond398) R24 Frame(CFA_Y, -2)
          CFI (cfiCond398) R25 Frame(CFA_Y, -1)
          CFI (cfiCond398) CFA_SP SP+6
          CFI (cfiCond398) CFA_Y Y+2
          CFI Block cfiCond399 Using cfiCommon0
          CFI (cfiCond399) Function main_power
          CFI (cfiCond399) Conditional ??CrossCallReturnLabel_293, ??CrossCallReturnLabel_31
          CFI (cfiCond399) CFA_SP SP+6
          CFI Block cfiCond400 Using cfiCommon0
          CFI (cfiCond400) Function main_power
          CFI (cfiCond400) Conditional ??CrossCallReturnLabel_293, ??CrossCallReturnLabel_32
          CFI (cfiCond400) CFA_SP SP+6
          CFI Block cfiCond401 Using cfiCommon0
          CFI (cfiCond401) Function PEREP
          CFI (cfiCond401) Conditional ??CrossCallReturnLabel_294, ??CrossCallReturnLabel_296
          CFI (cfiCond401) R24 Frame(CFA_Y, -8)
          CFI (cfiCond401) R25 Frame(CFA_Y, -7)
          CFI (cfiCond401) R26 Frame(CFA_Y, -6)
          CFI (cfiCond401) R27 Frame(CFA_Y, -5)
          CFI (cfiCond401) R4 Frame(CFA_Y, -4)
          CFI (cfiCond401) R5 Frame(CFA_Y, -3)
          CFI (cfiCond401) R6 Frame(CFA_Y, -2)
          CFI (cfiCond401) R7 Frame(CFA_Y, -1)
          CFI (cfiCond401) CFA_SP SP+6
          CFI (cfiCond401) CFA_Y Y+8
          CFI Block cfiCond402 Using cfiCommon0
          CFI (cfiCond402) Function main_logic
          CFI (cfiCond402) Conditional ??CrossCallReturnLabel_294, ??CrossCallReturnLabel_295
          CFI (cfiCond402) CFA_SP SP+6
          CFI Block cfiCond403 Using cfiCommon0
          CFI (cfiCond403) Function diag
          CFI (cfiCond403) Conditional ??CrossCallReturnLabel_290
          CFI (cfiCond403) R24 Frame(CFA_Y, -2)
          CFI (cfiCond403) R25 Frame(CFA_Y, -1)
          CFI (cfiCond403) CFA_SP SP+4
          CFI (cfiCond403) CFA_Y Y+2
          CFI Block cfiCond404 Using cfiCommon0
          CFI (cfiCond404) Function rprintfFloat
          CFI (cfiCond404) Conditional ??CrossCallReturnLabel_291
          CFI (cfiCond404) R24 Frame(CFA_Y, -12)
          CFI (cfiCond404) R25 Frame(CFA_Y, -11)
          CFI (cfiCond404) R26 Frame(CFA_Y, -10)
          CFI (cfiCond404) R27 Frame(CFA_Y, -9)
          CFI (cfiCond404) R4 Frame(CFA_Y, -8)
          CFI (cfiCond404) R5 Frame(CFA_Y, -7)
          CFI (cfiCond404) R6 Frame(CFA_Y, -6)
          CFI (cfiCond404) R7 Frame(CFA_Y, -5)
          CFI (cfiCond404) R8 Frame(CFA_Y, -4)
          CFI (cfiCond404) R9 Frame(CFA_Y, -3)
          CFI (cfiCond404) R10 Frame(CFA_Y, -2)
          CFI (cfiCond404) R11 Frame(CFA_Y, -1)
          CFI (cfiCond404) CFA_SP SP+4
          CFI (cfiCond404) CFA_Y Y+12
          CFI Block cfiPicker405 Using cfiCommon2
          CFI (cfiPicker405) NoFunction
          CFI (cfiPicker405) Picker
        MOVW    R21:R20, R17:R16
        MOVW    R23:R22, R19:R18
        RET
          CFI EndBlock cfiCond387
          CFI EndBlock cfiCond388
          CFI EndBlock cfiCond389
          CFI EndBlock cfiCond390
          CFI EndBlock cfiCond391
          CFI EndBlock cfiCond392
          CFI EndBlock cfiCond393
          CFI EndBlock cfiCond394
          CFI EndBlock cfiCond395
          CFI EndBlock cfiCond396
          CFI EndBlock cfiCond397
          CFI EndBlock cfiCond398
          CFI EndBlock cfiCond399
          CFI EndBlock cfiCond400
          CFI EndBlock cfiCond401
          CFI EndBlock cfiCond402
          CFI EndBlock cfiCond403
          CFI EndBlock cfiCond404
          CFI EndBlock cfiPicker405

        RSEG CODE:CODE:NOROOT(1)
?Subroutine17:
          CFI Block cfiCond406 Using cfiCommon0
          CFI Function main_logic
          CFI Conditional ??CrossCallReturnLabel_29
          CFI CFA_SP SP+4
          CFI Block cfiCond407 Using cfiCommon0
          CFI (cfiCond407) Function main_logic
          CFI (cfiCond407) Conditional ??CrossCallReturnLabel_30
          CFI (cfiCond407) CFA_SP SP+4
          CFI Block cfiPicker408 Using cfiCommon2
          CFI (cfiPicker408) NoFunction
          CFI (cfiPicker408) Picker
        SBI     0x18, 0x05
        RCALL   ?Subroutine106
??CrossCallReturnLabel_222:
        CBI     0x18, 0x05
        RCALL   ?Subroutine106
??CrossCallReturnLabel_223:
        DEC     R16
        RET
          CFI EndBlock cfiCond406
          CFI EndBlock cfiCond407
          CFI EndBlock cfiPicker408

        RSEG CODE:CODE:NOROOT(1)
?Subroutine16:
          CFI Block cfiCond409 Using cfiCommon0
          CFI Function main_power
          CFI Conditional ??CrossCallReturnLabel_28
          CFI CFA_SP SP+4
          CFI Block cfiCond410 Using cfiCommon0
          CFI (cfiCond410) Function main_logic
          CFI (cfiCond410) Conditional ??CrossCallReturnLabel_27
          CFI (cfiCond410) CFA_SP SP+4
          CFI Block cfiPicker411 Using cfiCommon2
          CFI (cfiPicker411) NoFunction
          CFI (cfiPicker411) Picker
        STS     aoff, R16
        RCALL   ?Subroutine103
??CrossCallReturnLabel_332:
        RCALL   ?Subroutine85
          CFI EndBlock cfiCond409
          CFI EndBlock cfiCond410
          CFI EndBlock cfiPicker411
??CrossCallReturnLabel_151:
        REQUIRE ?Subroutine107
        ;               // Fall through to label ?Subroutine107

        RSEG CODE:CODE:NOROOT(1)
?Subroutine107:
          CFI Block cfiCond412 Using cfiCommon0
          CFI Function main_logic
          CFI Conditional ??CrossCallReturnLabel_224
          CFI CFA_SP SP+4
          CFI Block cfiCond413 Using cfiCommon0
          CFI (cfiCond413) Function main_logic
          CFI (cfiCond413) Conditional ??CrossCallReturnLabel_225
          CFI (cfiCond413) CFA_SP SP+4
          CFI Block cfiCond414 Using cfiCommon0
          CFI (cfiCond414) Function main_logic
          CFI (cfiCond414) Conditional ??CrossCallReturnLabel_226
          CFI (cfiCond414) CFA_SP SP+4
          CFI Block cfiCond415 Using cfiCommon0
          CFI (cfiCond415) Function main_power
          CFI (cfiCond415) Conditional ??CrossCallReturnLabel_28
          CFI (cfiCond415) CFA_SP SP+4
          CFI Block cfiCond416 Using cfiCommon0
          CFI (cfiCond416) Function main_logic
          CFI (cfiCond416) Conditional ??CrossCallReturnLabel_27
          CFI (cfiCond416) CFA_SP SP+4
          CFI Block cfiPicker417 Using cfiCommon2
          CFI (cfiPicker417) NoFunction
          CFI (cfiPicker417) Picker
        STS     ??regaoff, R16
        RET
          CFI EndBlock cfiCond412
          CFI EndBlock cfiCond413
          CFI EndBlock cfiCond414
          CFI EndBlock cfiCond415
          CFI EndBlock cfiCond416
          CFI EndBlock cfiPicker417

        RSEG CODE:CODE:NOROOT(1)
?Subroutine15:
          CFI Block cfiCond418 Using cfiCommon0
          CFI Function main_power
          CFI Conditional ??CrossCallReturnLabel_25
          CFI CFA_SP SP+4
          CFI Block cfiCond419 Using cfiCommon0
          CFI (cfiCond419) Function main_logic
          CFI (cfiCond419) Conditional ??CrossCallReturnLabel_26
          CFI (cfiCond419) CFA_SP SP+4
          CFI Block cfiPicker420 Using cfiCommon2
          CFI (cfiPicker420) NoFunction
          CFI (cfiPicker420) Picker
        LDI     R16, 0
        STS     on, R16
        STS     onok, R16
        RET
          CFI EndBlock cfiCond418
          CFI EndBlock cfiCond419
          CFI EndBlock cfiPicker420

        RSEG CODE:CODE:NOROOT(1)
?Subroutine9:
          CFI Block cfiCond421 Using cfiCommon0
          CFI Function main_logic
          CFI Conditional ??CrossCallReturnLabel_337
          CFI CFA_SP SP+4
          CFI Block cfiCond422 Using cfiCommon0
          CFI (cfiCond422) Function main_logic
          CFI (cfiCond422) Conditional ??CrossCallReturnLabel_336
          CFI (cfiCond422) CFA_SP SP+4
          CFI Block cfiPicker423 Using cfiCommon2
          CFI (cfiPicker423) NoFunction
          CFI (cfiPicker423) Picker
        STS     mute, R16
          CFI EndBlock cfiCond421
          CFI EndBlock cfiCond422
          CFI EndBlock cfiPicker423
        REQUIRE ?Subroutine105
        REQUIRE ??Subroutine130_0
        ;               // Fall through to label ??Subroutine130_0

        RSEG CODE:CODE:NOROOT(1)
??Subroutine130_0:
          CFI Block cfiCond424 Using cfiCommon0
          CFI Function main_logic
          CFI Conditional ??CrossCallReturnLabel_335
          CFI CFA_SP SP+4
          CFI Block cfiCond425 Using cfiCommon0
          CFI (cfiCond425) Function main_logic
          CFI (cfiCond425) Conditional ??CrossCallReturnLabel_334
          CFI (cfiCond425) CFA_SP SP+4
          CFI Block cfiCond426 Using cfiCommon0
          CFI (cfiCond426) Function main_logic
          CFI (cfiCond426) Conditional ??CrossCallReturnLabel_337
          CFI (cfiCond426) CFA_SP SP+4
          CFI Block cfiCond427 Using cfiCommon0
          CFI (cfiCond427) Function main_logic
          CFI (cfiCond427) Conditional ??CrossCallReturnLabel_336
          CFI (cfiCond427) CFA_SP SP+4
          CFI Block cfiPicker428 Using cfiCommon2
          CFI (cfiPicker428) NoFunction
          CFI (cfiPicker428) Picker
        RCALL   ?Subroutine103
          CFI EndBlock cfiCond424
          CFI EndBlock cfiCond425
          CFI EndBlock cfiCond426
          CFI EndBlock cfiCond427
          CFI EndBlock cfiPicker428
??CrossCallReturnLabel_333:
        REQUIRE ?Subroutine105
        REQUIRE ??Subroutine131_0
        ;               // Fall through to label ??Subroutine131_0

        RSEG CODE:CODE:NOROOT(1)
??Subroutine131_0:
          CFI Block cfiCond429 Using cfiCommon0
          CFI Function main_power
          CFI Conditional ??CrossCallReturnLabel_341
          CFI CFA_SP SP+4
          CFI Block cfiCond430 Using cfiCommon0
          CFI (cfiCond430) Function main_logic
          CFI (cfiCond430) Conditional ??CrossCallReturnLabel_342
          CFI (cfiCond430) CFA_SP SP+4
          CFI Block cfiCond431 Using cfiCommon0
          CFI (cfiCond431) Function main_logic
          CFI (cfiCond431) Conditional ??CrossCallReturnLabel_343
          CFI (cfiCond431) CFA_SP SP+4
          CFI Block cfiCond432 Using cfiCommon0
          CFI (cfiCond432) Function main_logic
          CFI (cfiCond432) Conditional ??CrossCallReturnLabel_344
          CFI (cfiCond432) CFA_SP SP+4
          CFI Block cfiCond433 Using cfiCommon0
          CFI (cfiCond433) Function main_logic
          CFI (cfiCond433) Conditional ??CrossCallReturnLabel_345
          CFI (cfiCond433) CFA_SP SP+4
          CFI Block cfiCond434 Using cfiCommon0
          CFI (cfiCond434) Function main_logic
          CFI (cfiCond434) Conditional ??CrossCallReturnLabel_335
          CFI (cfiCond434) CFA_SP SP+4
          CFI Block cfiCond435 Using cfiCommon0
          CFI (cfiCond435) Function main_logic
          CFI (cfiCond435) Conditional ??CrossCallReturnLabel_334
          CFI (cfiCond435) CFA_SP SP+4
          CFI Block cfiCond436 Using cfiCommon0
          CFI (cfiCond436) Function main_logic
          CFI (cfiCond436) Conditional ??CrossCallReturnLabel_337
          CFI (cfiCond436) CFA_SP SP+4
          CFI Block cfiCond437 Using cfiCommon0
          CFI (cfiCond437) Function main_logic
          CFI (cfiCond437) Conditional ??CrossCallReturnLabel_336
          CFI (cfiCond437) CFA_SP SP+4
          CFI Block cfiPicker438 Using cfiCommon2
          CFI (cfiPicker438) NoFunction
          CFI (cfiPicker438) Picker
        LDI     R16, 0
          CFI EndBlock cfiCond429
          CFI EndBlock cfiCond430
          CFI EndBlock cfiCond431
          CFI EndBlock cfiCond432
          CFI EndBlock cfiCond433
          CFI EndBlock cfiCond434
          CFI EndBlock cfiCond435
          CFI EndBlock cfiCond436
          CFI EndBlock cfiCond437
          CFI EndBlock cfiPicker438
        REQUIRE ?Subroutine105
        ;               // Fall through to label ?Subroutine105

        RSEG CODE:CODE:NOROOT(1)
?Subroutine105:
          CFI Block cfiCond439 Using cfiCommon0
          CFI Function main
          CFI Conditional ??CrossCallReturnLabel_338
          CFI R24 Frame(CFA_Y, -1)
          CFI CFA_SP SP+4
          CFI CFA_Y Y+1
          CFI Block cfiCond440 Using cfiCommon0
          CFI (cfiCond440) Function main_power
          CFI (cfiCond440) Conditional ??CrossCallReturnLabel_339
          CFI (cfiCond440) CFA_SP SP+4
          CFI Block cfiCond441 Using cfiCommon0
          CFI (cfiCond441) Function main_logic
          CFI (cfiCond441) Conditional ??CrossCallReturnLabel_340
          CFI (cfiCond441) CFA_SP SP+4
          CFI Block cfiCond442 Using cfiCommon0
          CFI (cfiCond442) Function main_logic
          CFI (cfiCond442) Conditional ??CrossCallReturnLabel_337
          CFI (cfiCond442) CFA_SP SP+4
          CFI Block cfiCond443 Using cfiCommon0
          CFI (cfiCond443) Function main_logic
          CFI (cfiCond443) Conditional ??CrossCallReturnLabel_336
          CFI (cfiCond443) CFA_SP SP+4
          CFI Block cfiCond444 Using cfiCommon0
          CFI (cfiCond444) Function main_logic
          CFI (cfiCond444) Conditional ??CrossCallReturnLabel_335
          CFI (cfiCond444) CFA_SP SP+4
          CFI Block cfiCond445 Using cfiCommon0
          CFI (cfiCond445) Function main_logic
          CFI (cfiCond445) Conditional ??CrossCallReturnLabel_334
          CFI (cfiCond445) CFA_SP SP+4
          CFI Block cfiCond446 Using cfiCommon0
          CFI (cfiCond446) Function main_power
          CFI (cfiCond446) Conditional ??CrossCallReturnLabel_341
          CFI (cfiCond446) CFA_SP SP+4
          CFI Block cfiCond447 Using cfiCommon0
          CFI (cfiCond447) Function main_logic
          CFI (cfiCond447) Conditional ??CrossCallReturnLabel_342
          CFI (cfiCond447) CFA_SP SP+4
          CFI Block cfiCond448 Using cfiCommon0
          CFI (cfiCond448) Function main_logic
          CFI (cfiCond448) Conditional ??CrossCallReturnLabel_343
          CFI (cfiCond448) CFA_SP SP+4
          CFI Block cfiCond449 Using cfiCommon0
          CFI (cfiCond449) Function main_logic
          CFI (cfiCond449) Conditional ??CrossCallReturnLabel_344
          CFI (cfiCond449) CFA_SP SP+4
          CFI Block cfiCond450 Using cfiCommon0
          CFI (cfiCond450) Function main_logic
          CFI (cfiCond450) Conditional ??CrossCallReturnLabel_345
          CFI (cfiCond450) CFA_SP SP+4
          CFI Block cfiPicker451 Using cfiCommon2
          CFI (cfiPicker451) NoFunction
          CFI (cfiPicker451) Picker
        STS     pultadr, R16
        RET
          CFI EndBlock cfiCond439
          CFI EndBlock cfiCond440
          CFI EndBlock cfiCond441
          CFI EndBlock cfiCond442
          CFI EndBlock cfiCond443
          CFI EndBlock cfiCond444
          CFI EndBlock cfiCond445
          CFI EndBlock cfiCond446
          CFI EndBlock cfiCond447
          CFI EndBlock cfiCond448
          CFI EndBlock cfiCond449
          CFI EndBlock cfiCond450
          CFI EndBlock cfiPicker451

        RSEG CODE:CODE:NOROOT(1)
?Subroutine8:
          CFI Block cfiCond452 Using cfiCommon0
          CFI Function main_logic
          CFI Conditional ??CrossCallReturnLabel_10
          CFI CFA_SP SP+4
          CFI Block cfiCond453 Using cfiCommon0
          CFI (cfiCond453) Function main_logic
          CFI (cfiCond453) Conditional ??CrossCallReturnLabel_11
          CFI (cfiCond453) CFA_SP SP+4
          CFI Block cfiCond454 Using cfiCommon0
          CFI (cfiCond454) Function main_logic
          CFI (cfiCond454) Conditional ??CrossCallReturnLabel_12
          CFI (cfiCond454) CFA_SP SP+4
          CFI Block cfiPicker455 Using cfiCommon2
          CFI (cfiPicker455) NoFunction
          CFI (cfiPicker455) Picker
        LDI     R16, 1
        STS     aoff, R16
        RET
          CFI EndBlock cfiCond452
          CFI EndBlock cfiCond453
          CFI EndBlock cfiCond454
          CFI EndBlock cfiPicker455

        RSEG CODE:CODE:NOROOT(1)
?Subroutine4:
          CFI Block cfiCond456 Using cfiCommon0
          CFI Function main_logic
          CFI Conditional ??CrossCallReturnLabel_243
          CFI CFA_SP SP+4
          CFI Block cfiCond457 Using cfiCommon0
          CFI (cfiCond457) Function main_logic
          CFI (cfiCond457) Conditional ??CrossCallReturnLabel_244
          CFI (cfiCond457) CFA_SP SP+4
          CFI Block cfiPicker458 Using cfiCommon2
          CFI (cfiPicker458) NoFunction
          CFI (cfiPicker458) Picker
        LDS     R20, ??sel
        DEC     R20
        RCALL   ?Subroutine83
          CFI EndBlock cfiCond456
          CFI EndBlock cfiCond457
          CFI EndBlock cfiPicker458
??CrossCallReturnLabel_280:
        REQUIRE ?Subroutine115
        ;               // Fall through to label ?Subroutine115

        RSEG CODE:CODE:NOROOT(1)
?Subroutine115:
          CFI Block cfiCond459 Using cfiCommon0
          CFI Function main_logic
          CFI Conditional ??CrossCallReturnLabel_243
          CFI CFA_SP SP+4
          CFI Block cfiCond460 Using cfiCommon0
          CFI (cfiCond460) Function main_logic
          CFI (cfiCond460) Conditional ??CrossCallReturnLabel_244
          CFI (cfiCond460) CFA_SP SP+4
          CFI Block cfiCond461 Using cfiCommon0
          CFI (cfiCond461) Function main_logic
          CFI (cfiCond461) Conditional ??CrossCallReturnLabel_245
          CFI (cfiCond461) CFA_SP SP+4
          CFI Block cfiCond462 Using cfiCommon0
          CFI (cfiCond462) Function main_logic
          CFI (cfiCond462) Conditional ??CrossCallReturnLabel_246
          CFI (cfiCond462) CFA_SP SP+4
          CFI Block cfiCond463 Using cfiCommon0
          CFI (cfiCond463) Function main_logic
          CFI (cfiCond463) Conditional ??CrossCallReturnLabel_247
          CFI (cfiCond463) CFA_SP SP+4
          CFI Block cfiCond464 Using cfiCommon0
          CFI (cfiCond464) Function main_logic
          CFI (cfiCond464) Conditional ??CrossCallReturnLabel_248
          CFI (cfiCond464) CFA_SP SP+4
          CFI Block cfiCond465 Using cfiCommon0
          CFI (cfiCond465) Function main_logic
          CFI (cfiCond465) Conditional ??CrossCallReturnLabel_249
          CFI (cfiCond465) CFA_SP SP+4
          CFI Block cfiCond466 Using cfiCommon0
          CFI (cfiCond466) Function main_logic
          CFI (cfiCond466) Conditional ??CrossCallReturnLabel_250
          CFI (cfiCond466) CFA_SP SP+4
          CFI Block cfiCond467 Using cfiCommon0
          CFI (cfiCond467) Function source
          CFI (cfiCond467) Conditional ??CrossCallReturnLabel_251
          CFI (cfiCond467) CFA_SP SP+4
          CFI Block cfiCond468 Using cfiCommon0
          CFI (cfiCond468) Function source
          CFI (cfiCond468) Conditional ??CrossCallReturnLabel_252
          CFI (cfiCond468) CFA_SP SP+4
          CFI Block cfiCond469 Using cfiCommon0
          CFI (cfiCond469) Function source
          CFI (cfiCond469) Conditional ??CrossCallReturnLabel_253
          CFI (cfiCond469) CFA_SP SP+4
          CFI Block cfiCond470 Using cfiCommon0
          CFI (cfiCond470) Function source
          CFI (cfiCond470) Conditional ??CrossCallReturnLabel_254
          CFI (cfiCond470) CFA_SP SP+4
          CFI Block cfiCond471 Using cfiCommon0
          CFI (cfiCond471) Function source
          CFI (cfiCond471) Conditional ??CrossCallReturnLabel_255
          CFI (cfiCond471) CFA_SP SP+4
          CFI Block cfiCond472 Using cfiCommon0
          CFI (cfiCond472) Function source
          CFI (cfiCond472) Conditional ??CrossCallReturnLabel_256
          CFI (cfiCond472) CFA_SP SP+4
          CFI Block cfiPicker473 Using cfiCommon2
          CFI (cfiPicker473) NoFunction
          CFI (cfiPicker473) Picker
        LDS     R16, ??sel
        RET
          CFI EndBlock cfiCond459
          CFI EndBlock cfiCond460
          CFI EndBlock cfiCond461
          CFI EndBlock cfiCond462
          CFI EndBlock cfiCond463
          CFI EndBlock cfiCond464
          CFI EndBlock cfiCond465
          CFI EndBlock cfiCond466
          CFI EndBlock cfiCond467
          CFI EndBlock cfiCond468
          CFI EndBlock cfiCond469
          CFI EndBlock cfiCond470
          CFI EndBlock cfiCond471
          CFI EndBlock cfiCond472
          CFI EndBlock cfiPicker473

        RSEG NEAR_Z:DATA:NOROOT(0)
        REQUIRE `?<Segment init: NEAR_Z>`
??last_pultadr:
        DS8 1
//  318  //------------------------------------------

        RSEG CODE:CODE:NOROOT(1)
//  319 void source()
source:
          CFI Block cfiBlock474 Using cfiCommon0
          CFI Function source
//  320 {  
//  321   if (sel==1){ resOUT(); resled(); SET(PORTC,1);}
        FUNCALL source, resOUT
        LOCFRAME CSTACK, 0, STACK
        LOCFRAME RSTACK, 2, STACK
        ARGFRAME RSTACK, 0, STACK
        FUNCALL source, resled
        LOCFRAME CSTACK, 0, STACK
        LOCFRAME RSTACK, 2, STACK
        ARGFRAME RSTACK, 0, STACK
        FUNCALL source, resOUT
        LOCFRAME CSTACK, 0, STACK
        LOCFRAME RSTACK, 2, STACK
        ARGFRAME RSTACK, 0, STACK
        FUNCALL source, resled
        LOCFRAME CSTACK, 0, STACK
        LOCFRAME RSTACK, 2, STACK
        ARGFRAME RSTACK, 0, STACK
        FUNCALL source, resOUT
        LOCFRAME CSTACK, 0, STACK
        LOCFRAME RSTACK, 2, STACK
        ARGFRAME RSTACK, 0, STACK
        FUNCALL source, resled
        LOCFRAME CSTACK, 0, STACK
        LOCFRAME RSTACK, 2, STACK
        ARGFRAME RSTACK, 0, STACK
        FUNCALL source, resOUT
        LOCFRAME CSTACK, 0, STACK
        LOCFRAME RSTACK, 2, STACK
        ARGFRAME RSTACK, 0, STACK
        FUNCALL source, resled
        LOCFRAME CSTACK, 0, STACK
        LOCFRAME RSTACK, 2, STACK
        ARGFRAME RSTACK, 0, STACK
        FUNCALL source, resOUT
        LOCFRAME CSTACK, 0, STACK
        LOCFRAME RSTACK, 2, STACK
        ARGFRAME RSTACK, 0, STACK
        FUNCALL source, resled
        LOCFRAME CSTACK, 0, STACK
        LOCFRAME RSTACK, 2, STACK
        ARGFRAME RSTACK, 0, STACK
        FUNCALL source, migINI
        LOCFRAME CSTACK, 0, STACK
        LOCFRAME RSTACK, 2, STACK
        ARGFRAME RSTACK, 0, STACK
        RCALL   ?Subroutine115
??CrossCallReturnLabel_251:
        CPI     R16, 1
        BRNE    ??source_0
        RCALL   ?Subroutine74
??CrossCallReturnLabel_135:
        SBI     0x15, 0x01
//  322   if (sel==2){ resOUT(); resled(); SET(PORTC,2);}
??source_0:
        RCALL   ?Subroutine115
??CrossCallReturnLabel_252:
        CPI     R16, 2
        BRNE    ??source_1
        RCALL   ?Subroutine74
??CrossCallReturnLabel_134:
        SBI     0x15, 0x02
//  323   if (sel==3){ resOUT(); resled(); SET(PORTC,3);}
??source_1:
        RCALL   ?Subroutine115
??CrossCallReturnLabel_253:
        CPI     R16, 3
        BRNE    ??source_2
        RCALL   ?Subroutine74
??CrossCallReturnLabel_133:
        SBI     0x15, 0x03
//  324   if (sel==4){ resOUT(); resled();SET(PORTC,4);}
??source_2:
        RCALL   ?Subroutine115
??CrossCallReturnLabel_254:
        CPI     R16, 4
        BRNE    ??source_3
        RCALL   ?Subroutine74
??CrossCallReturnLabel_132:
        SBI     0x15, 0x04
//  325   if (sel==5 && mode==0 ){  resOUT(); resled();SET(PORTC,5);}
??source_3:
        RCALL   ?Subroutine115
??CrossCallReturnLabel_255:
        CPI     R16, 5
        BRNE    ??source_4
        RCALL   ?Subroutine66
??CrossCallReturnLabel_261:
        BRNE    ??source_4
        RCALL   ?Subroutine74
??CrossCallReturnLabel_131:
        SBI     0x15, 0x05
//  326   
//  327   if (mute!=1 ) if (zader==0) AC_ON;//вкл АС
??source_4:
        LDS     R16, mute
        LDS     R17, zader
        OR      R16, R17
        BRNE    ??source_5
        SBI     0x12, 0x06
//  328  
//  329    migINI(sel-1, 5 ,0); 
??source_5:
        LDI     R18, 0
        LDI     R17, 5
        RCALL   ?Subroutine115
??CrossCallReturnLabel_256:
        DEC     R16
        RJMP    migINI
          CFI EndBlock cfiBlock474
        REQUIRE _A_PORTC
        REQUIRE _A_PORTD
//  330  
//  331 }

        RSEG CODE:CODE:NOROOT(1)
?Subroutine74:
          CFI Block cfiCond475 Using cfiCommon0
          CFI Function source
          CFI Conditional ??CrossCallReturnLabel_135
          CFI CFA_SP SP+4
          CFI Block cfiCond476 Using cfiCommon0
          CFI (cfiCond476) Function source
          CFI (cfiCond476) Conditional ??CrossCallReturnLabel_134
          CFI (cfiCond476) CFA_SP SP+4
          CFI Block cfiCond477 Using cfiCommon0
          CFI (cfiCond477) Function source
          CFI (cfiCond477) Conditional ??CrossCallReturnLabel_133
          CFI (cfiCond477) CFA_SP SP+4
          CFI Block cfiCond478 Using cfiCommon0
          CFI (cfiCond478) Function source
          CFI (cfiCond478) Conditional ??CrossCallReturnLabel_132
          CFI (cfiCond478) CFA_SP SP+4
          CFI Block cfiCond479 Using cfiCommon0
          CFI (cfiCond479) Function source
          CFI (cfiCond479) Conditional ??CrossCallReturnLabel_131
          CFI (cfiCond479) CFA_SP SP+4
          CFI Block cfiPicker480 Using cfiCommon2
          CFI (cfiPicker480) NoFunction
          CFI (cfiPicker480) Picker
        RCALL   resOUT
        RJMP    resled
          CFI EndBlock cfiCond475
          CFI EndBlock cfiCond476
          CFI EndBlock cfiCond477
          CFI EndBlock cfiCond478
          CFI EndBlock cfiCond479
          CFI EndBlock cfiPicker480
//  332 
//  333 
//  334 
//  335 
//  336 
//  337 
//  338 
//  339 
//  340 
//  341 
//  342 
//  343 
//  344 

        RSEG CODE:CODE:NOROOT(1)
//  345 bool proverka(uchar adr)//защита от дублирования функции на кнопке
proverka:
          CFI Block cfiBlock481 Using cfiCommon0
          CFI Function proverka
//  346 {
        MOV     R23, R16
//  347    for (uchar i=0; i<adr; i++)
        LDI     R22, 0
        RJMP    ??proverka_0
??proverka_1:
        INC     R22
??proverka_0:
        CP      R22, R23
        BRCC    ??proverka_2
//  348    {
//  349      if (k[i]==cod1)
        LDI     R16, 2
        MUL     R22, R16
        RCALL   ?Subroutine79
??CrossCallReturnLabel_143:
        RCALL   ?Subroutine35
??CrossCallReturnLabel_229:
        BRNE    ??proverka_1
//  350        if (k[i+1]==cod2)
        RCALL   ?Subroutine39
??CrossCallReturnLabel_47:
        BRNE    ??proverka_1
//  351          if (k[i+2]==cod3) return 0;
        RCALL   ?Subroutine41
??CrossCallReturnLabel_49:
        BRNE    ??proverka_1
        LDI     R16, 0
        RET
//  352    }
//  353 
//  354    return 1;
??proverka_2:
        LDI     R16, 1
        RET
          CFI EndBlock cfiBlock481
//  355 }
//  356 
//  357 

        RSEG CODE:CODE:NOROOT(1)
//  358 void programming (uchar rez)
programming:
          CFI Block cfiBlock482 Using cfiCommon0
          CFI Function programming
//  359 {  
        FUNCALL programming, getadr
        LOCFRAME CSTACK, 1, STACK
        LOCFRAME RSTACK, 2, STACK
        ARGFRAME RSTACK, 0, STACK
        FUNCALL programming, proverka
        LOCFRAME CSTACK, 1, STACK
        LOCFRAME RSTACK, 2, STACK
        ARGFRAME RSTACK, 0, STACK
        FUNCALL programming, writeCOD
        LOCFRAME CSTACK, 1, STACK
        LOCFRAME RSTACK, 2, STACK
        ARGFRAME RSTACK, 0, STACK
        FUNCALL programming, led_all
        LOCFRAME CSTACK, 1, STACK
        LOCFRAME RSTACK, 2, STACK
        ARGFRAME RSTACK, 0, STACK
        FUNCALL programming, led_all
        LOCFRAME CSTACK, 1, STACK
        LOCFRAME RSTACK, 2, STACK
        ARGFRAME RSTACK, 0, STACK
        FUNCALL programming, led_all
        LOCFRAME CSTACK, 1, STACK
        LOCFRAME RSTACK, 2, STACK
        ARGFRAME RSTACK, 0, STACK
        FUNCALL programming, led_all
        LOCFRAME CSTACK, 1, STACK
        LOCFRAME RSTACK, 2, STACK
        ARGFRAME RSTACK, 0, STACK
        FUNCALL programming, led_all
        LOCFRAME CSTACK, 1, STACK
        LOCFRAME RSTACK, 2, STACK
        ARGFRAME RSTACK, 0, STACK
        FUNCALL programming, led_all
        LOCFRAME CSTACK, 1, STACK
        LOCFRAME RSTACK, 2, STACK
        ARGFRAME RSTACK, 0, STACK
        FUNCALL programming, led_all
        LOCFRAME CSTACK, 1, STACK
        LOCFRAME RSTACK, 2, STACK
        ARGFRAME RSTACK, 0, STACK
        FUNCALL programming, led_all
        LOCFRAME CSTACK, 1, STACK
        LOCFRAME RSTACK, 2, STACK
        ARGFRAME RSTACK, 0, STACK
        ST      -Y, R24
          CFI R24 Frame(CFA_Y, -1)
          CFI CFA_Y Y+1
        MOV     R24, R16
//  360   uchar adr;
//  361    if (tekfunc==255) return;
        LDS     R17, ??tekfunc
        CPI     R17, 255
        BREQ    ??CrossCallReturnLabel_351
//  362    if (!get)  { adr=getadr(); get=1; }//получаем адрес и зажигаем программируемую функцию
        LDS     R17, ??get
        TST     R17
        BRNE    ??programming_0
        RCALL   getadr
        LDI     R17, 1
        STS     ??get, R17
//  363    if (rez==1)
??programming_0:
        CPI     R24, 1
        BRNE    ??CrossCallReturnLabel_352
//  364    {
//  365      if (proverka(adr)) 
        RCALL   proverka
        TST     R16
        BREQ    ??CrossCallReturnLabel_352
//  366      {
//  367          writeCOD();
        RCALL   writeCOD
//  368          tekfunc++;  get=0;
        RCALL   ?Subroutine11
//  369          if (tekfunc==12) {  for (uchar i=0; i<10;i++) 
??CrossCallReturnLabel_15:
        BRNE    ??programming_1
        LDI     R24, 10
//  370                                {led_all(1); p4; led_all(0);p4; }
??programming_2:
        RCALL   ?Subroutine0
??CrossCallReturnLabel_0:
        BRNE    ??programming_2
//  371                           }
//  372          if (tekfunc>MAXFUNC) {tekfunc=255;led_all(1);}
??programming_1:
        LDS     R16, ??tekfunc
        CPI     R16, 24
        BRCS    ??CrossCallReturnLabel_352
        RCALL   ?Subroutine5
//  373      
//  374      }
//  375    }
//  376    
//  377    
//  378    if (keyONsm) { 
??CrossCallReturnLabel_352:
        SBIC    0x10, 0x05
        RJMP    ??CrossCallReturnLabel_351
//  379                 led_all(1); delay_s(1); 
        RCALL   ??Subroutine132_0
??CrossCallReturnLabel_347:
        RCALL   ?Subroutine70
//  380                 led_all(0); 
??CrossCallReturnLabel_121:
        RCALL   ?Subroutine12
//  381                 tekfunc++;  get=0;
??CrossCallReturnLabel_18:
        RCALL   ?Subroutine11
//  382                    if (tekfunc==12) {  for (uchar i=0; i<10;i++) 
??CrossCallReturnLabel_16:
        BRNE    ??programming_3
        LDI     R24, 10
//  383                            {led_all(1); p4; led_all(0);p4; }
??programming_4:
        RCALL   ?Subroutine0
??CrossCallReturnLabel_1:
        BRNE    ??programming_4
//  384                       }
//  385                 if (tekfunc>MAXFUNC) {tekfunc=255;led_all(1);}
??programming_3:
        LDS     R16, ??tekfunc
        CPI     R16, 24
        BRCS    ??CrossCallReturnLabel_351
        RCALL   ?Subroutine5
//  386                
//  387                  }
//  388      
//  389 }
??CrossCallReturnLabel_351:
        RJMP    ?Subroutine116
          CFI EndBlock cfiBlock482
        REQUIRE _A_PIND

        RSEG CODE:CODE:NOROOT(1)
?Subroutine70:
          CFI Block cfiCond483 Using cfiCommon0
          CFI Function main_power
          CFI Conditional ??CrossCallReturnLabel_120
          CFI CFA_SP SP+4
          CFI Block cfiCond484 Using cfiCommon0
          CFI (cfiCond484) Function programming
          CFI (cfiCond484) Conditional ??CrossCallReturnLabel_121
          CFI (cfiCond484) R24 Frame(CFA_Y, -1)
          CFI (cfiCond484) CFA_SP SP+4
          CFI (cfiCond484) CFA_Y Y+1
          CFI Block cfiPicker485 Using cfiCommon2
          CFI (cfiPicker485) NoFunction
          CFI (cfiPicker485) Picker
        LDI     R16, 255
        LDI     R17, 52
        LDI     R18, 12
        SUBI    R16, 1
        SBCI    R17, 0
        SBCI    R18, 0
        BRNE    $-6
        RJMP    $+2
        NOP
        RET
          CFI EndBlock cfiCond483
          CFI EndBlock cfiCond484
          CFI EndBlock cfiPicker485

        RSEG CODE:CODE:NOROOT(1)
?Subroutine12:
          CFI Block cfiCond486 Using cfiCommon0
          CFI Function led_test
          CFI Conditional ??CrossCallReturnLabel_20
          CFI R24 Frame(CFA_Y, -1)
          CFI CFA_SP SP+4
          CFI CFA_Y Y+1
          CFI Block cfiCond487 Using cfiCommon0
          CFI (cfiCond487) Function main
          CFI (cfiCond487) Conditional ??CrossCallReturnLabel_19
          CFI (cfiCond487) R24 Frame(CFA_Y, -1)
          CFI (cfiCond487) CFA_SP SP+4
          CFI (cfiCond487) CFA_Y Y+1
          CFI Block cfiCond488 Using cfiCommon0
          CFI (cfiCond488) Function programming
          CFI (cfiCond488) Conditional ??CrossCallReturnLabel_18
          CFI (cfiCond488) R24 Frame(CFA_Y, -1)
          CFI (cfiCond488) CFA_SP SP+4
          CFI (cfiCond488) CFA_Y Y+1
          CFI Block cfiCond489 Using cfiCommon0
          CFI (cfiCond489) Function writeCOD
          CFI (cfiCond489) Conditional ??CrossCallReturnLabel_17
          CFI (cfiCond489) R24 Frame(CFA_Y, -1)
          CFI (cfiCond489) CFA_SP SP+4
          CFI (cfiCond489) CFA_Y Y+1
          CFI Block cfiPicker490 Using cfiCommon2
          CFI (cfiPicker490) NoFunction
          CFI (cfiPicker490) Picker
        LDI     R16, 0
        RJMP    led_all
          CFI EndBlock cfiCond486
          CFI EndBlock cfiCond487
          CFI EndBlock cfiCond488
          CFI EndBlock cfiCond489
          CFI EndBlock cfiPicker490

        RSEG CODE:CODE:NOROOT(1)
?Subroutine11:
          CFI Block cfiCond491 Using cfiCommon0
          CFI Function programming
          CFI Conditional ??CrossCallReturnLabel_15
          CFI R24 Frame(CFA_Y, -1)
          CFI CFA_SP SP+4
          CFI CFA_Y Y+1
          CFI Block cfiCond492 Using cfiCommon0
          CFI (cfiCond492) Function programming
          CFI (cfiCond492) Conditional ??CrossCallReturnLabel_16
          CFI (cfiCond492) R24 Frame(CFA_Y, -1)
          CFI (cfiCond492) CFA_SP SP+4
          CFI (cfiCond492) CFA_Y Y+1
          CFI Block cfiPicker493 Using cfiCommon2
          CFI (cfiPicker493) NoFunction
          CFI (cfiPicker493) Picker
        LDI     R30, LOW(??tekfunc)
        LDI     R31, (??tekfunc) >> 8
        RCALL   ?Subroutine92
??CrossCallReturnLabel_310:
        LDI     R16, 0
        STS     ??get, R16
        LDS     R16, ??tekfunc
        CPI     R16, 12
        RET
          CFI EndBlock cfiCond491
          CFI EndBlock cfiCond492
          CFI EndBlock cfiPicker493

        RSEG CODE:CODE:NOROOT(1)
?Subroutine5:
          CFI Block cfiCond494 Using cfiCommon0
          CFI Function programming
          CFI Conditional ??CrossCallReturnLabel_352
          CFI R24 Frame(CFA_Y, -1)
          CFI CFA_SP SP+4
          CFI CFA_Y Y+1
          CFI Block cfiCond495 Using cfiCommon0
          CFI (cfiCond495) Function programming
          CFI (cfiCond495) Conditional ??CrossCallReturnLabel_351
          CFI (cfiCond495) R24 Frame(CFA_Y, -1)
          CFI (cfiCond495) CFA_SP SP+4
          CFI (cfiCond495) CFA_Y Y+1
          CFI Block cfiPicker496 Using cfiCommon2
          CFI (cfiPicker496) NoFunction
          CFI (cfiPicker496) Picker
        LDI     R16, 255
        STS     ??tekfunc, R16
          CFI EndBlock cfiCond494
          CFI EndBlock cfiCond495
          CFI EndBlock cfiPicker496
        REQUIRE ??Subroutine132_0
        ;               // Fall through to label ??Subroutine132_0

        RSEG CODE:CODE:NOROOT(1)
??Subroutine132_0:
          CFI Block cfiCond497 Using cfiCommon0
          CFI Function led_test
          CFI Conditional ??CrossCallReturnLabel_350
          CFI R24 Frame(CFA_Y, -1)
          CFI CFA_SP SP+4
          CFI CFA_Y Y+1
          CFI Block cfiCond498 Using cfiCommon0
          CFI (cfiCond498) Function main
          CFI (cfiCond498) Conditional ??CrossCallReturnLabel_349
          CFI (cfiCond498) R24 Frame(CFA_Y, -1)
          CFI (cfiCond498) CFA_SP SP+4
          CFI (cfiCond498) CFA_Y Y+1
          CFI Block cfiCond499 Using cfiCommon0
          CFI (cfiCond499) Function main
          CFI (cfiCond499) Conditional ??CrossCallReturnLabel_348
          CFI (cfiCond499) R24 Frame(CFA_Y, -1)
          CFI (cfiCond499) CFA_SP SP+4
          CFI (cfiCond499) CFA_Y Y+1
          CFI Block cfiCond500 Using cfiCommon0
          CFI (cfiCond500) Function programming
          CFI (cfiCond500) Conditional ??CrossCallReturnLabel_347
          CFI (cfiCond500) R24 Frame(CFA_Y, -1)
          CFI (cfiCond500) CFA_SP SP+4
          CFI (cfiCond500) CFA_Y Y+1
          CFI Block cfiCond501 Using cfiCommon0
          CFI (cfiCond501) Function writeCOD
          CFI (cfiCond501) Conditional ??CrossCallReturnLabel_346
          CFI (cfiCond501) R24 Frame(CFA_Y, -1)
          CFI (cfiCond501) CFA_SP SP+4
          CFI (cfiCond501) CFA_Y Y+1
          CFI Block cfiCond502 Using cfiCommon0
          CFI (cfiCond502) Function programming
          CFI (cfiCond502) Conditional ??CrossCallReturnLabel_352
          CFI (cfiCond502) R24 Frame(CFA_Y, -1)
          CFI (cfiCond502) CFA_SP SP+4
          CFI (cfiCond502) CFA_Y Y+1
          CFI Block cfiCond503 Using cfiCommon0
          CFI (cfiCond503) Function programming
          CFI (cfiCond503) Conditional ??CrossCallReturnLabel_351
          CFI (cfiCond503) R24 Frame(CFA_Y, -1)
          CFI (cfiCond503) CFA_SP SP+4
          CFI (cfiCond503) CFA_Y Y+1
          CFI Block cfiPicker504 Using cfiCommon2
          CFI (cfiPicker504) NoFunction
          CFI (cfiPicker504) Picker
        LDI     R16, 1
        RJMP    led_all
          CFI EndBlock cfiCond497
          CFI EndBlock cfiCond498
          CFI EndBlock cfiCond499
          CFI EndBlock cfiCond500
          CFI EndBlock cfiCond501
          CFI EndBlock cfiCond502
          CFI EndBlock cfiCond503
          CFI EndBlock cfiPicker504

        RSEG CODE:CODE:NOROOT(1)
?Subroutine0:
          CFI Block cfiCond505 Using cfiCommon0
          CFI Function programming
          CFI Conditional ??CrossCallReturnLabel_0
          CFI R24 Frame(CFA_Y, -1)
          CFI CFA_SP SP+4
          CFI CFA_Y Y+1
          CFI Block cfiCond506 Using cfiCommon0
          CFI (cfiCond506) Function programming
          CFI (cfiCond506) Conditional ??CrossCallReturnLabel_1
          CFI (cfiCond506) R24 Frame(CFA_Y, -1)
          CFI (cfiCond506) CFA_SP SP+4
          CFI (cfiCond506) CFA_Y Y+1
          CFI Block cfiPicker507 Using cfiCommon2
          CFI (cfiPicker507) NoFunction
          CFI (cfiPicker507) Picker
        LDI     R16, 1
        RCALL   ?Subroutine108
??CrossCallReturnLabel_227:
        LDI     R16, 0
        RCALL   ?Subroutine108
??CrossCallReturnLabel_228:
        DEC     R24
        RET
          CFI EndBlock cfiCond505
          CFI EndBlock cfiCond506
          CFI EndBlock cfiPicker507

        RSEG CODE:CODE:NOROOT(1)
?Subroutine108:
          CFI Block cfiCond508 Using cfiCommon0
          CFI Function programming
          CFI Conditional ??CrossCallReturnLabel_227, ??CrossCallReturnLabel_0
          CFI R24 Frame(CFA_Y, -1)
          CFI CFA_SP SP+6
          CFI CFA_Y Y+1
          CFI Block cfiCond509 Using cfiCommon0
          CFI (cfiCond509) Function programming
          CFI (cfiCond509) Conditional ??CrossCallReturnLabel_227, ??CrossCallReturnLabel_1
          CFI (cfiCond509) R24 Frame(CFA_Y, -1)
          CFI (cfiCond509) CFA_SP SP+6
          CFI (cfiCond509) CFA_Y Y+1
          CFI Block cfiCond510 Using cfiCommon0
          CFI (cfiCond510) Function programming
          CFI (cfiCond510) Conditional ??CrossCallReturnLabel_228, ??CrossCallReturnLabel_0
          CFI (cfiCond510) R24 Frame(CFA_Y, -1)
          CFI (cfiCond510) CFA_SP SP+6
          CFI (cfiCond510) CFA_Y Y+1
          CFI Block cfiCond511 Using cfiCommon0
          CFI (cfiCond511) Function programming
          CFI (cfiCond511) Conditional ??CrossCallReturnLabel_228, ??CrossCallReturnLabel_1
          CFI (cfiCond511) R24 Frame(CFA_Y, -1)
          CFI (cfiCond511) CFA_SP SP+6
          CFI (cfiCond511) CFA_Y Y+1
          CFI Block cfiPicker512 Using cfiCommon2
          CFI (cfiPicker512) NoFunction
          CFI (cfiPicker512) Picker
        RCALL   led_all
        LDI     R16, 255
        LDI     R17, 225
        LDI     R18, 4
        SUBI    R16, 1
        SBCI    R17, 0
        SBCI    R18, 0
        BRNE    $-6
        RJMP    $+2
        NOP
        RET
          CFI EndBlock cfiCond508
          CFI EndBlock cfiCond509
          CFI EndBlock cfiCond510
          CFI EndBlock cfiCond511
          CFI EndBlock cfiPicker512
//  390 //--------------------------------------------------------------------
//  391 

        RSEG CODE:CODE:NOROOT(1)
//  392 void writeCOD()
writeCOD:
          CFI Block cfiBlock513 Using cfiCommon0
          CFI Function writeCOD
//  393 {
        FUNCALL writeCOD, rprintfStr
        LOCFRAME CSTACK, 1, STACK
        LOCFRAME RSTACK, 2, STACK
        ARGFRAME RSTACK, 0, STACK
        FUNCALL writeCOD, led_all
        LOCFRAME CSTACK, 1, STACK
        LOCFRAME RSTACK, 2, STACK
        ARGFRAME RSTACK, 0, STACK
        FUNCALL writeCOD, getadr
        LOCFRAME CSTACK, 1, STACK
        LOCFRAME RSTACK, 2, STACK
        ARGFRAME RSTACK, 0, STACK
        FUNCALL writeCOD, led_all
        LOCFRAME CSTACK, 1, STACK
        LOCFRAME RSTACK, 2, STACK
        ARGFRAME RSTACK, 0, STACK
        FUNCALL writeCOD, rprintfStr
        LOCFRAME CSTACK, 1, STACK
        LOCFRAME RSTACK, 2, STACK
        ARGFRAME RSTACK, 0, STACK
        FUNCALL writeCOD, USART_SendChar
        LOCFRAME CSTACK, 1, STACK
        LOCFRAME RSTACK, 2, STACK
        ARGFRAME RSTACK, 0, STACK
        ST      -Y, R24
          CFI R24 Frame(CFA_Y, -1)
          CFI CFA_Y Y+1
//  394   rprintfStr("write ..");
        LDI     R16, LOW(`?<Constant "write ..">`)
        LDI     R17, (`?<Constant "write ..">`) >> 8
        RCALL   rprintfStr
//  395   led_all(1);delay_s(3);
        RCALL   ??Subroutine132_0
??CrossCallReturnLabel_346:
        LDI     R16, 255
        LDI     R17, 158
        LDI     R18, 36
        SUBI    R16, 1
        SBCI    R17, 0
        SBCI    R18, 0
        BRNE    $-6
        RJMP    $+2
        NOP
//  396   uchar adr=getadr();
        RCALL   getadr
        MOV     R24, R16
//  397   led_all(0);
        RCALL   ?Subroutine12
//  398   
//  399        
//  400        k[adr]=cod1; delay_ms(30);
??CrossCallReturnLabel_17:
        RCALL   ?Subroutine93
??CrossCallReturnLabel_171:
        RCALL   ?Subroutine79
??CrossCallReturnLabel_144:
        RCALL   ?Subroutine102
??CrossCallReturnLabel_214:
        RCALL   ?Subroutine95
??CrossCallReturnLabel_182:
        RCALL   ?Subroutine80
//  401        k[adr+1]=cod2; delay_ms(30);
??CrossCallReturnLabel_353:
        RCALL   ??Subroutine135_0
??CrossCallReturnLabel_371:
        RCALL   ?Subroutine95
??CrossCallReturnLabel_183:
        MOVW    R21:R20, R19:R18
        SUBI    R20, 254
        SBCI    R21, 255
        RCALL   ??Subroutine133_0
//  402        k[adr+2]=cod3; delay_ms(30);
??CrossCallReturnLabel_355:
        RCALL   ??Subroutine134_0
??CrossCallReturnLabel_362:
        RCALL   ?Subroutine95
??CrossCallReturnLabel_184:
        SUBI    R18, 252
        SBCI    R19, 255
        RCALL   ?Subroutine80
//  403        
//  404        rprintfStr("OK !   "); ent;
??CrossCallReturnLabel_354:
        LDI     R16, LOW(`?<Constant "OK !   ">`)
        LDI     R17, (`?<Constant "OK !   ">`) >> 8
        RCALL   ?Subroutine44
//  405    
//  406 }
??CrossCallReturnLabel_236:
        RJMP    ?Subroutine116
          CFI EndBlock cfiBlock513

        RSEG CODE:CODE:NOROOT(1)
?Subroutine93:
          CFI Block cfiCond514 Using cfiCommon0
          CFI Function PEREP
          CFI Conditional ??CrossCallReturnLabel_170
          CFI R24 Frame(CFA_Y, -8)
          CFI R25 Frame(CFA_Y, -7)
          CFI R26 Frame(CFA_Y, -6)
          CFI R27 Frame(CFA_Y, -5)
          CFI R4 Frame(CFA_Y, -4)
          CFI R5 Frame(CFA_Y, -3)
          CFI R6 Frame(CFA_Y, -2)
          CFI R7 Frame(CFA_Y, -1)
          CFI CFA_SP SP+4
          CFI CFA_Y Y+8
          CFI Block cfiCond515 Using cfiCommon0
          CFI (cfiCond515) Function PEREP
          CFI (cfiCond515) Conditional ??CrossCallReturnLabel_173, ??CrossCallReturnLabel_39
          CFI (cfiCond515) R24 Frame(CFA_Y, -8)
          CFI (cfiCond515) R25 Frame(CFA_Y, -7)
          CFI (cfiCond515) R26 Frame(CFA_Y, -6)
          CFI (cfiCond515) R27 Frame(CFA_Y, -5)
          CFI (cfiCond515) R4 Frame(CFA_Y, -4)
          CFI (cfiCond515) R5 Frame(CFA_Y, -3)
          CFI (cfiCond515) R6 Frame(CFA_Y, -2)
          CFI (cfiCond515) R7 Frame(CFA_Y, -1)
          CFI (cfiCond515) CFA_SP SP+6
          CFI (cfiCond515) CFA_Y Y+8
          CFI Block cfiCond516 Using cfiCommon0
          CFI (cfiCond516) Function PEREP
          CFI (cfiCond516) Conditional ??CrossCallReturnLabel_173, ??CrossCallReturnLabel_40
          CFI (cfiCond516) R24 Frame(CFA_Y, -8)
          CFI (cfiCond516) R25 Frame(CFA_Y, -7)
          CFI (cfiCond516) R26 Frame(CFA_Y, -6)
          CFI (cfiCond516) R27 Frame(CFA_Y, -5)
          CFI (cfiCond516) R4 Frame(CFA_Y, -4)
          CFI (cfiCond516) R5 Frame(CFA_Y, -3)
          CFI (cfiCond516) R6 Frame(CFA_Y, -2)
          CFI (cfiCond516) R7 Frame(CFA_Y, -1)
          CFI (cfiCond516) CFA_SP SP+6
          CFI (cfiCond516) CFA_Y Y+8
          CFI Block cfiCond517 Using cfiCommon0
          CFI (cfiCond517) Function writeCOD
          CFI (cfiCond517) Conditional ??CrossCallReturnLabel_171
          CFI (cfiCond517) R24 Frame(CFA_Y, -1)
          CFI (cfiCond517) CFA_SP SP+4
          CFI (cfiCond517) CFA_Y Y+1
          CFI Block cfiCond518 Using cfiCommon0
          CFI (cfiCond518) Function diag
          CFI (cfiCond518) Conditional ??CrossCallReturnLabel_172
          CFI (cfiCond518) R24 Frame(CFA_Y, -2)
          CFI (cfiCond518) R25 Frame(CFA_Y, -1)
          CFI (cfiCond518) CFA_SP SP+4
          CFI (cfiCond518) CFA_Y Y+2
          CFI Block cfiPicker519 Using cfiCommon2
          CFI (cfiPicker519) NoFunction
          CFI (cfiPicker519) Picker
        LDI     R16, 2
        MUL     R24, R16
        RET
          CFI EndBlock cfiCond514
          CFI EndBlock cfiCond515
          CFI EndBlock cfiCond516
          CFI EndBlock cfiCond517
          CFI EndBlock cfiCond518
          CFI EndBlock cfiPicker519

        RSEG CODE:CODE:NOROOT(1)
?Subroutine80:
          CFI Block cfiCond520 Using cfiCommon0
          CFI Function writeCOD
          CFI Conditional ??CrossCallReturnLabel_353
          CFI R24 Frame(CFA_Y, -1)
          CFI CFA_SP SP+4
          CFI CFA_Y Y+1
          CFI Block cfiCond521 Using cfiCommon0
          CFI (cfiCond521) Function writeCOD
          CFI (cfiCond521) Conditional ??CrossCallReturnLabel_354
          CFI (cfiCond521) R24 Frame(CFA_Y, -1)
          CFI (cfiCond521) CFA_SP SP+4
          CFI (cfiCond521) CFA_Y Y+1
          CFI Block cfiPicker522 Using cfiCommon2
          CFI (cfiPicker522) NoFunction
          CFI (cfiPicker522) Picker
        MOVW    R21:R20, R19:R18
          CFI EndBlock cfiCond520
          CFI EndBlock cfiCond521
          CFI EndBlock cfiPicker522
        REQUIRE ??Subroutine133_0
        ;               // Fall through to label ??Subroutine133_0

        RSEG CODE:CODE:NOROOT(1)
??Subroutine133_0:
          CFI Block cfiCond523 Using cfiCommon0
          CFI Function writeCOD
          CFI Conditional ??CrossCallReturnLabel_355
          CFI R24 Frame(CFA_Y, -1)
          CFI CFA_SP SP+4
          CFI CFA_Y Y+1
          CFI Block cfiCond524 Using cfiCommon0
          CFI (cfiCond524) Function writeCOD
          CFI (cfiCond524) Conditional ??CrossCallReturnLabel_353
          CFI (cfiCond524) R24 Frame(CFA_Y, -1)
          CFI (cfiCond524) CFA_SP SP+4
          CFI (cfiCond524) CFA_Y Y+1
          CFI Block cfiCond525 Using cfiCommon0
          CFI (cfiCond525) Function writeCOD
          CFI (cfiCond525) Conditional ??CrossCallReturnLabel_354
          CFI (cfiCond525) R24 Frame(CFA_Y, -1)
          CFI (cfiCond525) CFA_SP SP+4
          CFI (cfiCond525) CFA_Y Y+1
          CFI Block cfiPicker526 Using cfiCommon2
          CFI (cfiPicker526) NoFunction
          CFI (cfiPicker526) Picker
        RCALL   __eeput16_16
        LDI     R16, 47
        LDI     R17, 117
        SUBI    R16, 1
        SBCI    R17, 0
        BRNE    $-4
        RJMP    $+2
        NOP
        RET
          CFI EndBlock cfiCond523
          CFI EndBlock cfiCond524
          CFI EndBlock cfiCond525
          CFI EndBlock cfiPicker526

        RSEG CODE:CODE:NOROOT(1)
?Subroutine79:
          CFI Block cfiCond527 Using cfiCommon0
          CFI Function proverka
          CFI Conditional ??CrossCallReturnLabel_143
          CFI CFA_SP SP+4
          CFI Block cfiCond528 Using cfiCommon0
          CFI (cfiCond528) Function writeCOD
          CFI (cfiCond528) Conditional ??CrossCallReturnLabel_144
          CFI (cfiCond528) R24 Frame(CFA_Y, -1)
          CFI (cfiCond528) CFA_SP SP+4
          CFI (cfiCond528) CFA_Y Y+1
          CFI Block cfiPicker529 Using cfiCommon2
          CFI (cfiPicker529) NoFunction
          CFI (cfiPicker529) Picker
        LDI     R18, LOW(k)
        LDI     R19, (k) >> 8
        ADD     R18, R0
        ADC     R19, R1
        RET
          CFI EndBlock cfiCond527
          CFI EndBlock cfiCond528
          CFI EndBlock cfiPicker529

        RSEG CODE:CODE:NOROOT(1)
?Subroutine42:
          CFI Block cfiCond530 Using cfiCommon0
          CFI Function PEREP
          CFI Conditional ??CrossCallReturnLabel_356
          CFI R24 Frame(CFA_Y, -8)
          CFI R25 Frame(CFA_Y, -7)
          CFI R26 Frame(CFA_Y, -6)
          CFI R27 Frame(CFA_Y, -5)
          CFI R4 Frame(CFA_Y, -4)
          CFI R5 Frame(CFA_Y, -3)
          CFI R6 Frame(CFA_Y, -2)
          CFI R7 Frame(CFA_Y, -1)
          CFI CFA_SP SP+4
          CFI CFA_Y Y+8
          CFI Block cfiCond531 Using cfiCommon0
          CFI (cfiCond531) Function coding
          CFI (cfiCond531) Conditional ??CrossCallReturnLabel_357
          CFI (cfiCond531) R24 Frame(CFA_Y, -10)
          CFI (cfiCond531) R25 Frame(CFA_Y, -9)
          CFI (cfiCond531) R26 Frame(CFA_Y, -8)
          CFI (cfiCond531) R27 Frame(CFA_Y, -7)
          CFI (cfiCond531) R4 Frame(CFA_Y, -6)
          CFI (cfiCond531) R5 Frame(CFA_Y, -5)
          CFI (cfiCond531) R6 Frame(CFA_Y, -4)
          CFI (cfiCond531) R7 Frame(CFA_Y, -3)
          CFI (cfiCond531) R8 Frame(CFA_Y, -2)
          CFI (cfiCond531) R9 Frame(CFA_Y, -1)
          CFI (cfiCond531) CFA_SP SP+4
          CFI (cfiCond531) CFA_Y Y+10
          CFI Block cfiPicker532 Using cfiCommon2
          CFI (cfiPicker532) NoFunction
          CFI (cfiPicker532) Picker
        RCALL   rprintfStr
          CFI EndBlock cfiCond530
          CFI EndBlock cfiCond531
          CFI EndBlock cfiPicker532
        REQUIRE ??Subroutine134_0
        ;               // Fall through to label ??Subroutine134_0

        RSEG CODE:CODE:NOROOT(1)
??Subroutine134_0:
          CFI Block cfiCond533 Using cfiCommon0
          CFI Function coding
          CFI Conditional ??CrossCallReturnLabel_358
          CFI R24 Frame(CFA_Y, -10)
          CFI R25 Frame(CFA_Y, -9)
          CFI R26 Frame(CFA_Y, -8)
          CFI R27 Frame(CFA_Y, -7)
          CFI R4 Frame(CFA_Y, -6)
          CFI R5 Frame(CFA_Y, -5)
          CFI R6 Frame(CFA_Y, -4)
          CFI R7 Frame(CFA_Y, -3)
          CFI R8 Frame(CFA_Y, -2)
          CFI R9 Frame(CFA_Y, -1)
          CFI CFA_SP SP+4
          CFI CFA_Y Y+10
          CFI Block cfiCond534 Using cfiCommon0
          CFI (cfiCond534) Function coding
          CFI (cfiCond534) Conditional ??CrossCallReturnLabel_359
          CFI (cfiCond534) R24 Frame(CFA_Y, -10)
          CFI (cfiCond534) R25 Frame(CFA_Y, -9)
          CFI (cfiCond534) R26 Frame(CFA_Y, -8)
          CFI (cfiCond534) R27 Frame(CFA_Y, -7)
          CFI (cfiCond534) R4 Frame(CFA_Y, -6)
          CFI (cfiCond534) R5 Frame(CFA_Y, -5)
          CFI (cfiCond534) R6 Frame(CFA_Y, -4)
          CFI (cfiCond534) R7 Frame(CFA_Y, -3)
          CFI (cfiCond534) R8 Frame(CFA_Y, -2)
          CFI (cfiCond534) R9 Frame(CFA_Y, -1)
          CFI (cfiCond534) CFA_SP SP+4
          CFI (cfiCond534) CFA_Y Y+10
          CFI Block cfiCond535 Using cfiCommon0
          CFI (cfiCond535) Function coding
          CFI (cfiCond535) Conditional ??CrossCallReturnLabel_360
          CFI (cfiCond535) R24 Frame(CFA_Y, -10)
          CFI (cfiCond535) R25 Frame(CFA_Y, -9)
          CFI (cfiCond535) R26 Frame(CFA_Y, -8)
          CFI (cfiCond535) R27 Frame(CFA_Y, -7)
          CFI (cfiCond535) R4 Frame(CFA_Y, -6)
          CFI (cfiCond535) R5 Frame(CFA_Y, -5)
          CFI (cfiCond535) R6 Frame(CFA_Y, -4)
          CFI (cfiCond535) R7 Frame(CFA_Y, -3)
          CFI (cfiCond535) R8 Frame(CFA_Y, -2)
          CFI (cfiCond535) R9 Frame(CFA_Y, -1)
          CFI (cfiCond535) CFA_SP SP+4
          CFI (cfiCond535) CFA_Y Y+10
          CFI Block cfiCond536 Using cfiCommon0
          CFI (cfiCond536) Function coding
          CFI (cfiCond536) Conditional ??CrossCallReturnLabel_361
          CFI (cfiCond536) R24 Frame(CFA_Y, -10)
          CFI (cfiCond536) R25 Frame(CFA_Y, -9)
          CFI (cfiCond536) R26 Frame(CFA_Y, -8)
          CFI (cfiCond536) R27 Frame(CFA_Y, -7)
          CFI (cfiCond536) R4 Frame(CFA_Y, -6)
          CFI (cfiCond536) R5 Frame(CFA_Y, -5)
          CFI (cfiCond536) R6 Frame(CFA_Y, -4)
          CFI (cfiCond536) R7 Frame(CFA_Y, -3)
          CFI (cfiCond536) R8 Frame(CFA_Y, -2)
          CFI (cfiCond536) R9 Frame(CFA_Y, -1)
          CFI (cfiCond536) CFA_SP SP+4
          CFI (cfiCond536) CFA_Y Y+10
          CFI Block cfiCond537 Using cfiCommon0
          CFI (cfiCond537) Function writeCOD
          CFI (cfiCond537) Conditional ??CrossCallReturnLabel_362
          CFI (cfiCond537) R24 Frame(CFA_Y, -1)
          CFI (cfiCond537) CFA_SP SP+4
          CFI (cfiCond537) CFA_Y Y+1
          CFI Block cfiCond538 Using cfiCommon0
          CFI (cfiCond538) Function PEREP
          CFI (cfiCond538) Conditional ??CrossCallReturnLabel_356
          CFI (cfiCond538) R24 Frame(CFA_Y, -8)
          CFI (cfiCond538) R25 Frame(CFA_Y, -7)
          CFI (cfiCond538) R26 Frame(CFA_Y, -6)
          CFI (cfiCond538) R27 Frame(CFA_Y, -5)
          CFI (cfiCond538) R4 Frame(CFA_Y, -4)
          CFI (cfiCond538) R5 Frame(CFA_Y, -3)
          CFI (cfiCond538) R6 Frame(CFA_Y, -2)
          CFI (cfiCond538) R7 Frame(CFA_Y, -1)
          CFI (cfiCond538) CFA_SP SP+4
          CFI (cfiCond538) CFA_Y Y+8
          CFI Block cfiCond539 Using cfiCommon0
          CFI (cfiCond539) Function coding
          CFI (cfiCond539) Conditional ??CrossCallReturnLabel_357
          CFI (cfiCond539) R24 Frame(CFA_Y, -10)
          CFI (cfiCond539) R25 Frame(CFA_Y, -9)
          CFI (cfiCond539) R26 Frame(CFA_Y, -8)
          CFI (cfiCond539) R27 Frame(CFA_Y, -7)
          CFI (cfiCond539) R4 Frame(CFA_Y, -6)
          CFI (cfiCond539) R5 Frame(CFA_Y, -5)
          CFI (cfiCond539) R6 Frame(CFA_Y, -4)
          CFI (cfiCond539) R7 Frame(CFA_Y, -3)
          CFI (cfiCond539) R8 Frame(CFA_Y, -2)
          CFI (cfiCond539) R9 Frame(CFA_Y, -1)
          CFI (cfiCond539) CFA_SP SP+4
          CFI (cfiCond539) CFA_Y Y+10
          CFI Block cfiPicker540 Using cfiCommon2
          CFI (cfiPicker540) NoFunction
          CFI (cfiPicker540) Picker
        LDI     R30, LOW(cod3)
        LDI     R31, (cod3) >> 8
        RET
          CFI EndBlock cfiCond533
          CFI EndBlock cfiCond534
          CFI EndBlock cfiCond535
          CFI EndBlock cfiCond536
          CFI EndBlock cfiCond537
          CFI EndBlock cfiCond538
          CFI EndBlock cfiCond539
          CFI EndBlock cfiPicker540

        RSEG CODE:CODE:NOROOT(1)
?Subroutine40:
          CFI Block cfiCond541 Using cfiCommon0
          CFI Function PEREP
          CFI Conditional ??CrossCallReturnLabel_363
          CFI R24 Frame(CFA_Y, -8)
          CFI R25 Frame(CFA_Y, -7)
          CFI R26 Frame(CFA_Y, -6)
          CFI R27 Frame(CFA_Y, -5)
          CFI R4 Frame(CFA_Y, -4)
          CFI R5 Frame(CFA_Y, -3)
          CFI R6 Frame(CFA_Y, -2)
          CFI R7 Frame(CFA_Y, -1)
          CFI CFA_SP SP+4
          CFI CFA_Y Y+8
          CFI Block cfiCond542 Using cfiCommon0
          CFI (cfiCond542) Function coding
          CFI (cfiCond542) Conditional ??CrossCallReturnLabel_364
          CFI (cfiCond542) R24 Frame(CFA_Y, -10)
          CFI (cfiCond542) R25 Frame(CFA_Y, -9)
          CFI (cfiCond542) R26 Frame(CFA_Y, -8)
          CFI (cfiCond542) R27 Frame(CFA_Y, -7)
          CFI (cfiCond542) R4 Frame(CFA_Y, -6)
          CFI (cfiCond542) R5 Frame(CFA_Y, -5)
          CFI (cfiCond542) R6 Frame(CFA_Y, -4)
          CFI (cfiCond542) R7 Frame(CFA_Y, -3)
          CFI (cfiCond542) R8 Frame(CFA_Y, -2)
          CFI (cfiCond542) R9 Frame(CFA_Y, -1)
          CFI (cfiCond542) CFA_SP SP+4
          CFI (cfiCond542) CFA_Y Y+10
          CFI Block cfiPicker543 Using cfiCommon2
          CFI (cfiPicker543) NoFunction
          CFI (cfiPicker543) Picker
        RCALL   rprintfStr
          CFI EndBlock cfiCond541
          CFI EndBlock cfiCond542
          CFI EndBlock cfiPicker543
        REQUIRE ??Subroutine135_0
        ;               // Fall through to label ??Subroutine135_0

        RSEG CODE:CODE:NOROOT(1)
??Subroutine135_0:
          CFI Block cfiCond544 Using cfiCommon0
          CFI Function coding
          CFI Conditional ??CrossCallReturnLabel_365
          CFI R24 Frame(CFA_Y, -10)
          CFI R25 Frame(CFA_Y, -9)
          CFI R26 Frame(CFA_Y, -8)
          CFI R27 Frame(CFA_Y, -7)
          CFI R4 Frame(CFA_Y, -6)
          CFI R5 Frame(CFA_Y, -5)
          CFI R6 Frame(CFA_Y, -4)
          CFI R7 Frame(CFA_Y, -3)
          CFI R8 Frame(CFA_Y, -2)
          CFI R9 Frame(CFA_Y, -1)
          CFI CFA_SP SP+4
          CFI CFA_Y Y+10
          CFI Block cfiCond545 Using cfiCommon0
          CFI (cfiCond545) Function coding
          CFI (cfiCond545) Conditional ??CrossCallReturnLabel_366
          CFI (cfiCond545) R24 Frame(CFA_Y, -10)
          CFI (cfiCond545) R25 Frame(CFA_Y, -9)
          CFI (cfiCond545) R26 Frame(CFA_Y, -8)
          CFI (cfiCond545) R27 Frame(CFA_Y, -7)
          CFI (cfiCond545) R4 Frame(CFA_Y, -6)
          CFI (cfiCond545) R5 Frame(CFA_Y, -5)
          CFI (cfiCond545) R6 Frame(CFA_Y, -4)
          CFI (cfiCond545) R7 Frame(CFA_Y, -3)
          CFI (cfiCond545) R8 Frame(CFA_Y, -2)
          CFI (cfiCond545) R9 Frame(CFA_Y, -1)
          CFI (cfiCond545) CFA_SP SP+4
          CFI (cfiCond545) CFA_Y Y+10
          CFI Block cfiCond546 Using cfiCommon0
          CFI (cfiCond546) Function coding
          CFI (cfiCond546) Conditional ??CrossCallReturnLabel_367
          CFI (cfiCond546) R24 Frame(CFA_Y, -10)
          CFI (cfiCond546) R25 Frame(CFA_Y, -9)
          CFI (cfiCond546) R26 Frame(CFA_Y, -8)
          CFI (cfiCond546) R27 Frame(CFA_Y, -7)
          CFI (cfiCond546) R4 Frame(CFA_Y, -6)
          CFI (cfiCond546) R5 Frame(CFA_Y, -5)
          CFI (cfiCond546) R6 Frame(CFA_Y, -4)
          CFI (cfiCond546) R7 Frame(CFA_Y, -3)
          CFI (cfiCond546) R8 Frame(CFA_Y, -2)
          CFI (cfiCond546) R9 Frame(CFA_Y, -1)
          CFI (cfiCond546) CFA_SP SP+4
          CFI (cfiCond546) CFA_Y Y+10
          CFI Block cfiCond547 Using cfiCommon0
          CFI (cfiCond547) Function coding
          CFI (cfiCond547) Conditional ??CrossCallReturnLabel_368
          CFI (cfiCond547) R24 Frame(CFA_Y, -10)
          CFI (cfiCond547) R25 Frame(CFA_Y, -9)
          CFI (cfiCond547) R26 Frame(CFA_Y, -8)
          CFI (cfiCond547) R27 Frame(CFA_Y, -7)
          CFI (cfiCond547) R4 Frame(CFA_Y, -6)
          CFI (cfiCond547) R5 Frame(CFA_Y, -5)
          CFI (cfiCond547) R6 Frame(CFA_Y, -4)
          CFI (cfiCond547) R7 Frame(CFA_Y, -3)
          CFI (cfiCond547) R8 Frame(CFA_Y, -2)
          CFI (cfiCond547) R9 Frame(CFA_Y, -1)
          CFI (cfiCond547) CFA_SP SP+4
          CFI (cfiCond547) CFA_Y Y+10
          CFI Block cfiCond548 Using cfiCommon0
          CFI (cfiCond548) Function coding
          CFI (cfiCond548) Conditional ??CrossCallReturnLabel_369
          CFI (cfiCond548) R24 Frame(CFA_Y, -10)
          CFI (cfiCond548) R25 Frame(CFA_Y, -9)
          CFI (cfiCond548) R26 Frame(CFA_Y, -8)
          CFI (cfiCond548) R27 Frame(CFA_Y, -7)
          CFI (cfiCond548) R4 Frame(CFA_Y, -6)
          CFI (cfiCond548) R5 Frame(CFA_Y, -5)
          CFI (cfiCond548) R6 Frame(CFA_Y, -4)
          CFI (cfiCond548) R7 Frame(CFA_Y, -3)
          CFI (cfiCond548) R8 Frame(CFA_Y, -2)
          CFI (cfiCond548) R9 Frame(CFA_Y, -1)
          CFI (cfiCond548) CFA_SP SP+4
          CFI (cfiCond548) CFA_Y Y+10
          CFI Block cfiCond549 Using cfiCommon0
          CFI (cfiCond549) Function coding
          CFI (cfiCond549) Conditional ??CrossCallReturnLabel_370
          CFI (cfiCond549) R24 Frame(CFA_Y, -10)
          CFI (cfiCond549) R25 Frame(CFA_Y, -9)
          CFI (cfiCond549) R26 Frame(CFA_Y, -8)
          CFI (cfiCond549) R27 Frame(CFA_Y, -7)
          CFI (cfiCond549) R4 Frame(CFA_Y, -6)
          CFI (cfiCond549) R5 Frame(CFA_Y, -5)
          CFI (cfiCond549) R6 Frame(CFA_Y, -4)
          CFI (cfiCond549) R7 Frame(CFA_Y, -3)
          CFI (cfiCond549) R8 Frame(CFA_Y, -2)
          CFI (cfiCond549) R9 Frame(CFA_Y, -1)
          CFI (cfiCond549) CFA_SP SP+4
          CFI (cfiCond549) CFA_Y Y+10
          CFI Block cfiCond550 Using cfiCommon0
          CFI (cfiCond550) Function writeCOD
          CFI (cfiCond550) Conditional ??CrossCallReturnLabel_371
          CFI (cfiCond550) R24 Frame(CFA_Y, -1)
          CFI (cfiCond550) CFA_SP SP+4
          CFI (cfiCond550) CFA_Y Y+1
          CFI Block cfiCond551 Using cfiCommon0
          CFI (cfiCond551) Function PEREP
          CFI (cfiCond551) Conditional ??CrossCallReturnLabel_363
          CFI (cfiCond551) R24 Frame(CFA_Y, -8)
          CFI (cfiCond551) R25 Frame(CFA_Y, -7)
          CFI (cfiCond551) R26 Frame(CFA_Y, -6)
          CFI (cfiCond551) R27 Frame(CFA_Y, -5)
          CFI (cfiCond551) R4 Frame(CFA_Y, -4)
          CFI (cfiCond551) R5 Frame(CFA_Y, -3)
          CFI (cfiCond551) R6 Frame(CFA_Y, -2)
          CFI (cfiCond551) R7 Frame(CFA_Y, -1)
          CFI (cfiCond551) CFA_SP SP+4
          CFI (cfiCond551) CFA_Y Y+8
          CFI Block cfiCond552 Using cfiCommon0
          CFI (cfiCond552) Function coding
          CFI (cfiCond552) Conditional ??CrossCallReturnLabel_364
          CFI (cfiCond552) R24 Frame(CFA_Y, -10)
          CFI (cfiCond552) R25 Frame(CFA_Y, -9)
          CFI (cfiCond552) R26 Frame(CFA_Y, -8)
          CFI (cfiCond552) R27 Frame(CFA_Y, -7)
          CFI (cfiCond552) R4 Frame(CFA_Y, -6)
          CFI (cfiCond552) R5 Frame(CFA_Y, -5)
          CFI (cfiCond552) R6 Frame(CFA_Y, -4)
          CFI (cfiCond552) R7 Frame(CFA_Y, -3)
          CFI (cfiCond552) R8 Frame(CFA_Y, -2)
          CFI (cfiCond552) R9 Frame(CFA_Y, -1)
          CFI (cfiCond552) CFA_SP SP+4
          CFI (cfiCond552) CFA_Y Y+10
          CFI Block cfiPicker553 Using cfiCommon2
          CFI (cfiPicker553) NoFunction
          CFI (cfiPicker553) Picker
        LDI     R30, LOW(cod2)
        LDI     R31, (cod2) >> 8
        RET
          CFI EndBlock cfiCond544
          CFI EndBlock cfiCond545
          CFI EndBlock cfiCond546
          CFI EndBlock cfiCond547
          CFI EndBlock cfiCond548
          CFI EndBlock cfiCond549
          CFI EndBlock cfiCond550
          CFI EndBlock cfiCond551
          CFI EndBlock cfiCond552
          CFI EndBlock cfiPicker553

        RSEG CODE:CODE:NOROOT(1)
?Subroutine102:
          CFI Block cfiCond554 Using cfiCommon0
          CFI Function PEREP
          CFI Conditional ??CrossCallReturnLabel_216, ??CrossCallReturnLabel_302
          CFI R24 Frame(CFA_Y, -8)
          CFI R25 Frame(CFA_Y, -7)
          CFI R26 Frame(CFA_Y, -6)
          CFI R27 Frame(CFA_Y, -5)
          CFI R4 Frame(CFA_Y, -4)
          CFI R5 Frame(CFA_Y, -3)
          CFI R6 Frame(CFA_Y, -2)
          CFI R7 Frame(CFA_Y, -1)
          CFI CFA_SP SP+6
          CFI CFA_Y Y+8
          CFI Block cfiCond555 Using cfiCommon0
          CFI (cfiCond555) Function coding
          CFI (cfiCond555) Conditional ??CrossCallReturnLabel_216, ??CrossCallReturnLabel_301
          CFI (cfiCond555) R24 Frame(CFA_Y, -10)
          CFI (cfiCond555) R25 Frame(CFA_Y, -9)
          CFI (cfiCond555) R26 Frame(CFA_Y, -8)
          CFI (cfiCond555) R27 Frame(CFA_Y, -7)
          CFI (cfiCond555) R4 Frame(CFA_Y, -6)
          CFI (cfiCond555) R5 Frame(CFA_Y, -5)
          CFI (cfiCond555) R6 Frame(CFA_Y, -4)
          CFI (cfiCond555) R7 Frame(CFA_Y, -3)
          CFI (cfiCond555) R8 Frame(CFA_Y, -2)
          CFI (cfiCond555) R9 Frame(CFA_Y, -1)
          CFI (cfiCond555) CFA_SP SP+6
          CFI (cfiCond555) CFA_Y Y+10
          CFI Block cfiCond556 Using cfiCommon0
          CFI (cfiCond556) Function PEREP
          CFI (cfiCond556) Conditional ??CrossCallReturnLabel_215, ??CrossCallReturnLabel_14
          CFI (cfiCond556) R24 Frame(CFA_Y, -8)
          CFI (cfiCond556) R25 Frame(CFA_Y, -7)
          CFI (cfiCond556) R26 Frame(CFA_Y, -6)
          CFI (cfiCond556) R27 Frame(CFA_Y, -5)
          CFI (cfiCond556) R4 Frame(CFA_Y, -4)
          CFI (cfiCond556) R5 Frame(CFA_Y, -3)
          CFI (cfiCond556) R6 Frame(CFA_Y, -2)
          CFI (cfiCond556) R7 Frame(CFA_Y, -1)
          CFI (cfiCond556) CFA_SP SP+6
          CFI (cfiCond556) CFA_Y Y+8
          CFI Block cfiCond557 Using cfiCommon0
          CFI (cfiCond557) Function main
          CFI (cfiCond557) Conditional ??CrossCallReturnLabel_215, ??CrossCallReturnLabel_13
          CFI (cfiCond557) R24 Frame(CFA_Y, -1)
          CFI (cfiCond557) CFA_SP SP+6
          CFI (cfiCond557) CFA_Y Y+1
          CFI Block cfiCond558 Using cfiCommon0
          CFI (cfiCond558) Function coding
          CFI (cfiCond558) Conditional ??CrossCallReturnLabel_208
          CFI (cfiCond558) R24 Frame(CFA_Y, -10)
          CFI (cfiCond558) R25 Frame(CFA_Y, -9)
          CFI (cfiCond558) R26 Frame(CFA_Y, -8)
          CFI (cfiCond558) R27 Frame(CFA_Y, -7)
          CFI (cfiCond558) R4 Frame(CFA_Y, -6)
          CFI (cfiCond558) R5 Frame(CFA_Y, -5)
          CFI (cfiCond558) R6 Frame(CFA_Y, -4)
          CFI (cfiCond558) R7 Frame(CFA_Y, -3)
          CFI (cfiCond558) R8 Frame(CFA_Y, -2)
          CFI (cfiCond558) R9 Frame(CFA_Y, -1)
          CFI (cfiCond558) CFA_SP SP+4
          CFI (cfiCond558) CFA_Y Y+10
          CFI Block cfiCond559 Using cfiCommon0
          CFI (cfiCond559) Function coding
          CFI (cfiCond559) Conditional ??CrossCallReturnLabel_209
          CFI (cfiCond559) R24 Frame(CFA_Y, -10)
          CFI (cfiCond559) R25 Frame(CFA_Y, -9)
          CFI (cfiCond559) R26 Frame(CFA_Y, -8)
          CFI (cfiCond559) R27 Frame(CFA_Y, -7)
          CFI (cfiCond559) R4 Frame(CFA_Y, -6)
          CFI (cfiCond559) R5 Frame(CFA_Y, -5)
          CFI (cfiCond559) R6 Frame(CFA_Y, -4)
          CFI (cfiCond559) R7 Frame(CFA_Y, -3)
          CFI (cfiCond559) R8 Frame(CFA_Y, -2)
          CFI (cfiCond559) R9 Frame(CFA_Y, -1)
          CFI (cfiCond559) CFA_SP SP+4
          CFI (cfiCond559) CFA_Y Y+10
          CFI Block cfiCond560 Using cfiCommon0
          CFI (cfiCond560) Function coding
          CFI (cfiCond560) Conditional ??CrossCallReturnLabel_210
          CFI (cfiCond560) R24 Frame(CFA_Y, -10)
          CFI (cfiCond560) R25 Frame(CFA_Y, -9)
          CFI (cfiCond560) R26 Frame(CFA_Y, -8)
          CFI (cfiCond560) R27 Frame(CFA_Y, -7)
          CFI (cfiCond560) R4 Frame(CFA_Y, -6)
          CFI (cfiCond560) R5 Frame(CFA_Y, -5)
          CFI (cfiCond560) R6 Frame(CFA_Y, -4)
          CFI (cfiCond560) R7 Frame(CFA_Y, -3)
          CFI (cfiCond560) R8 Frame(CFA_Y, -2)
          CFI (cfiCond560) R9 Frame(CFA_Y, -1)
          CFI (cfiCond560) CFA_SP SP+4
          CFI (cfiCond560) CFA_Y Y+10
          CFI Block cfiCond561 Using cfiCommon0
          CFI (cfiCond561) Function coding
          CFI (cfiCond561) Conditional ??CrossCallReturnLabel_211
          CFI (cfiCond561) R24 Frame(CFA_Y, -10)
          CFI (cfiCond561) R25 Frame(CFA_Y, -9)
          CFI (cfiCond561) R26 Frame(CFA_Y, -8)
          CFI (cfiCond561) R27 Frame(CFA_Y, -7)
          CFI (cfiCond561) R4 Frame(CFA_Y, -6)
          CFI (cfiCond561) R5 Frame(CFA_Y, -5)
          CFI (cfiCond561) R6 Frame(CFA_Y, -4)
          CFI (cfiCond561) R7 Frame(CFA_Y, -3)
          CFI (cfiCond561) R8 Frame(CFA_Y, -2)
          CFI (cfiCond561) R9 Frame(CFA_Y, -1)
          CFI (cfiCond561) CFA_SP SP+4
          CFI (cfiCond561) CFA_Y Y+10
          CFI Block cfiCond562 Using cfiCommon0
          CFI (cfiCond562) Function coding
          CFI (cfiCond562) Conditional ??CrossCallReturnLabel_212
          CFI (cfiCond562) R24 Frame(CFA_Y, -10)
          CFI (cfiCond562) R25 Frame(CFA_Y, -9)
          CFI (cfiCond562) R26 Frame(CFA_Y, -8)
          CFI (cfiCond562) R27 Frame(CFA_Y, -7)
          CFI (cfiCond562) R4 Frame(CFA_Y, -6)
          CFI (cfiCond562) R5 Frame(CFA_Y, -5)
          CFI (cfiCond562) R6 Frame(CFA_Y, -4)
          CFI (cfiCond562) R7 Frame(CFA_Y, -3)
          CFI (cfiCond562) R8 Frame(CFA_Y, -2)
          CFI (cfiCond562) R9 Frame(CFA_Y, -1)
          CFI (cfiCond562) CFA_SP SP+4
          CFI (cfiCond562) CFA_Y Y+10
          CFI Block cfiCond563 Using cfiCommon0
          CFI (cfiCond563) Function coding
          CFI (cfiCond563) Conditional ??CrossCallReturnLabel_213
          CFI (cfiCond563) R24 Frame(CFA_Y, -10)
          CFI (cfiCond563) R25 Frame(CFA_Y, -9)
          CFI (cfiCond563) R26 Frame(CFA_Y, -8)
          CFI (cfiCond563) R27 Frame(CFA_Y, -7)
          CFI (cfiCond563) R4 Frame(CFA_Y, -6)
          CFI (cfiCond563) R5 Frame(CFA_Y, -5)
          CFI (cfiCond563) R6 Frame(CFA_Y, -4)
          CFI (cfiCond563) R7 Frame(CFA_Y, -3)
          CFI (cfiCond563) R8 Frame(CFA_Y, -2)
          CFI (cfiCond563) R9 Frame(CFA_Y, -1)
          CFI (cfiCond563) CFA_SP SP+4
          CFI (cfiCond563) CFA_Y Y+10
          CFI Block cfiCond564 Using cfiCommon0
          CFI (cfiCond564) Function writeCOD
          CFI (cfiCond564) Conditional ??CrossCallReturnLabel_214
          CFI (cfiCond564) R24 Frame(CFA_Y, -1)
          CFI (cfiCond564) CFA_SP SP+4
          CFI (cfiCond564) CFA_Y Y+1
          CFI Block cfiCond565 Using cfiCommon0
          CFI (cfiCond565) Function proverka
          CFI (cfiCond565) Conditional ??CrossCallReturnLabel_217, ??CrossCallReturnLabel_229
          CFI (cfiCond565) CFA_SP SP+6
          CFI Block cfiCond566 Using cfiCommon0
          CFI (cfiCond566) Function analizCOD
          CFI (cfiCond566) Conditional ??CrossCallReturnLabel_217, ??CrossCallReturnLabel_230
          CFI (cfiCond566) R24 Frame(CFA_Y, -2)
          CFI (cfiCond566) R25 Frame(CFA_Y, -1)
          CFI (cfiCond566) CFA_SP SP+6
          CFI (cfiCond566) CFA_Y Y+2
          CFI Block cfiPicker567 Using cfiCommon2
          CFI (cfiPicker567) NoFunction
          CFI (cfiPicker567) Picker
        LDI     R30, LOW(cod1)
        LDI     R31, (cod1) >> 8
        RET
          CFI EndBlock cfiCond554
          CFI EndBlock cfiCond555
          CFI EndBlock cfiCond556
          CFI EndBlock cfiCond557
          CFI EndBlock cfiCond558
          CFI EndBlock cfiCond559
          CFI EndBlock cfiCond560
          CFI EndBlock cfiCond561
          CFI EndBlock cfiCond562
          CFI EndBlock cfiCond563
          CFI EndBlock cfiCond564
          CFI EndBlock cfiCond565
          CFI EndBlock cfiCond566
          CFI EndBlock cfiPicker567
//  407 
//  408 
//  409 
//  410  

        RSEG CODE:CODE:NOROOT(1)
//  411 uchar analizCOD ()
analizCOD:
          CFI Block cfiBlock568 Using cfiCommon0
          CFI Function analizCOD
//  412 {
        RCALL   ?PROLOGUE2_L09
          CFI R25 Frame(CFA_Y, -1)
          CFI R24 Frame(CFA_Y, -2)
          CFI CFA_Y Y+2
//  413  uint i;
//  414   for (i=0; i<MAXEEP-4; i++) 
        LDI     R24, 0
        LDI     R25, 0
//  415   {
//  416    // if ((kbuf[i])==cod1)  if ((kbuf[i+1])==cod2) if ((kbuf[i+2])==cod3) return(i);
//  417     if ((k[i])==cod1)  if ((k[i+1])==cod2) if ((k[i+2])==cod3) return(i);   
??analizCOD_0:
        MOVW    R17:R16, R25:R24
        LSL     R16
        ROL     R17
        LDI     R18, LOW(k)
        LDI     R19, (k) >> 8
        ADD     R18, R16
        ADC     R19, R17
        RCALL   ?Subroutine35
??CrossCallReturnLabel_230:
        BRNE    ??analizCOD_1
        RCALL   ?Subroutine39
??CrossCallReturnLabel_48:
        BRNE    ??analizCOD_1
        RCALL   ?Subroutine41
??CrossCallReturnLabel_50:
        BRNE    ??analizCOD_1
        MOV     R16, R24
        RJMP    ??analizCOD_2
//  418   }
??analizCOD_1:
        ADIW    R25:R24, 1
        CPI     R24, 116
        LDI     R16, 0
        CPC     R25, R16
        BRCS    ??analizCOD_0
          CFI EndBlock cfiBlock568
//  419 
//  420 return(0);
??analizCOD_2:
        REQUIRE ?Subroutine123
        ;               // Fall through to label ?Subroutine123
//  421 }

        RSEG CODE:CODE:NOROOT(1)
?Subroutine123:
          CFI Block cfiBlock569 Using cfiCommon0
          CFI NoFunction
          CFI CFA_Y Y+2
          CFI R24 Frame(CFA_Y, -2)
          CFI R25 Frame(CFA_Y, -1)
        LDI     R30, 2
        RJMP    ?EPILOGUE_B2_L09
          CFI EndBlock cfiBlock569

        RSEG CODE:CODE:NOROOT(1)
?Subroutine41:
          CFI Block cfiCond570 Using cfiCommon0
          CFI Function proverka
          CFI Conditional ??CrossCallReturnLabel_49
          CFI CFA_SP SP+4
          CFI Block cfiCond571 Using cfiCommon0
          CFI (cfiCond571) Function analizCOD
          CFI (cfiCond571) Conditional ??CrossCallReturnLabel_50
          CFI (cfiCond571) R24 Frame(CFA_Y, -2)
          CFI (cfiCond571) R25 Frame(CFA_Y, -1)
          CFI (cfiCond571) CFA_SP SP+4
          CFI (cfiCond571) CFA_Y Y+2
          CFI Block cfiPicker572 Using cfiCommon2
          CFI (cfiPicker572) NoFunction
          CFI (cfiPicker572) Picker
        SUBI    R18, 252
        SBCI    R19, 255
        MOVW    R21:R20, R19:R18
        RCALL   __eeget16_16
        LDI     R30, LOW(cod3)
        LDI     R31, (cod3) >> 8
        LD      R18, Z
        LDD     R19, Z+1
        CP      R16, R18
        CPC     R17, R19
        RET
          CFI EndBlock cfiCond570
          CFI EndBlock cfiCond571
          CFI EndBlock cfiPicker572

        RSEG CODE:CODE:NOROOT(1)
?Subroutine39:
          CFI Block cfiCond573 Using cfiCommon0
          CFI Function proverka
          CFI Conditional ??CrossCallReturnLabel_47
          CFI CFA_SP SP+4
          CFI Block cfiCond574 Using cfiCommon0
          CFI (cfiCond574) Function analizCOD
          CFI (cfiCond574) Conditional ??CrossCallReturnLabel_48
          CFI (cfiCond574) R24 Frame(CFA_Y, -2)
          CFI (cfiCond574) R25 Frame(CFA_Y, -1)
          CFI (cfiCond574) CFA_SP SP+4
          CFI (cfiCond574) CFA_Y Y+2
          CFI Block cfiPicker575 Using cfiCommon2
          CFI (cfiPicker575) NoFunction
          CFI (cfiPicker575) Picker
        MOVW    R21:R20, R19:R18
        SUBI    R20, 254
        SBCI    R21, 255
        RCALL   __eeget16_16
        LDI     R30, LOW(cod2)
        LDI     R31, (cod2) >> 8
        RJMP    ?Subroutine109
          CFI EndBlock cfiCond573
          CFI EndBlock cfiCond574
          CFI EndBlock cfiPicker575

        RSEG CODE:CODE:NOROOT(1)
?Subroutine35:
          CFI Block cfiCond576 Using cfiCommon0
          CFI Function proverka
          CFI Conditional ??CrossCallReturnLabel_229
          CFI CFA_SP SP+4
          CFI Block cfiCond577 Using cfiCommon0
          CFI (cfiCond577) Function analizCOD
          CFI (cfiCond577) Conditional ??CrossCallReturnLabel_230
          CFI (cfiCond577) R24 Frame(CFA_Y, -2)
          CFI (cfiCond577) R25 Frame(CFA_Y, -1)
          CFI (cfiCond577) CFA_SP SP+4
          CFI (cfiCond577) CFA_Y Y+2
          CFI Block cfiPicker578 Using cfiCommon2
          CFI (cfiPicker578) NoFunction
          CFI (cfiPicker578) Picker
        MOVW    R21:R20, R19:R18
        RCALL   __eeget16_16
        RCALL   ?Subroutine102
          CFI EndBlock cfiCond576
          CFI EndBlock cfiCond577
          CFI EndBlock cfiPicker578
??CrossCallReturnLabel_217:
        REQUIRE ?Subroutine109
        ;               // Fall through to label ?Subroutine109

        RSEG CODE:CODE:NOROOT(1)
?Subroutine109:
          CFI Block cfiCond579 Using cfiCommon0
          CFI Function proverka
          CFI Conditional ??CrossCallReturnLabel_47
          CFI CFA_SP SP+4
          CFI Block cfiCond580 Using cfiCommon0
          CFI (cfiCond580) Function analizCOD
          CFI (cfiCond580) Conditional ??CrossCallReturnLabel_48
          CFI (cfiCond580) R24 Frame(CFA_Y, -2)
          CFI (cfiCond580) R25 Frame(CFA_Y, -1)
          CFI (cfiCond580) CFA_SP SP+4
          CFI (cfiCond580) CFA_Y Y+2
          CFI Block cfiCond581 Using cfiCommon0
          CFI (cfiCond581) Function proverka
          CFI (cfiCond581) Conditional ??CrossCallReturnLabel_229
          CFI (cfiCond581) CFA_SP SP+4
          CFI Block cfiCond582 Using cfiCommon0
          CFI (cfiCond582) Function analizCOD
          CFI (cfiCond582) Conditional ??CrossCallReturnLabel_230
          CFI (cfiCond582) R24 Frame(CFA_Y, -2)
          CFI (cfiCond582) R25 Frame(CFA_Y, -1)
          CFI (cfiCond582) CFA_SP SP+4
          CFI (cfiCond582) CFA_Y Y+2
          CFI Block cfiPicker583 Using cfiCommon2
          CFI (cfiPicker583) NoFunction
          CFI (cfiPicker583) Picker
        LD      R20, Z
        LDD     R21, Z+1
        CP      R16, R20
        CPC     R17, R21
        RET
          CFI EndBlock cfiCond579
          CFI EndBlock cfiCond580
          CFI EndBlock cfiCond581
          CFI EndBlock cfiCond582
          CFI EndBlock cfiPicker583
//  422 
//  423 
//  424 

        RSEG CODE:CODE:NOROOT(1)
//  425 void resled(void)
resled:
          CFI Block cfiBlock584 Using cfiCommon0
          CFI Function resled
//  426 {
//  427   RES(PORTB,0);RES(PORTB,1);RES(PORTB,2);RES(PORTB,3); if (mode==0)RES(PORTB,4);
        RCALL   ?Subroutine81
??CrossCallReturnLabel_145:
        RCALL   ?Subroutine66
??CrossCallReturnLabel_262:
        BRNE    ??resled_0
        CBI     0x18, 0x04
//  428 }
??resled_0:
        RET
          CFI EndBlock cfiBlock584
        REQUIRE _A_PORTB

        RSEG CODE:CODE:NOROOT(1)
?Subroutine66:
          CFI Block cfiCond585 Using cfiCommon0
          CFI Function main
          CFI Conditional ??CrossCallReturnLabel_260
          CFI R24 Frame(CFA_Y, -1)
          CFI CFA_SP SP+4
          CFI CFA_Y Y+1
          CFI Block cfiCond586 Using cfiCommon0
          CFI (cfiCond586) Function source
          CFI (cfiCond586) Conditional ??CrossCallReturnLabel_261
          CFI (cfiCond586) CFA_SP SP+4
          CFI Block cfiCond587 Using cfiCommon0
          CFI (cfiCond587) Function resled
          CFI (cfiCond587) Conditional ??CrossCallReturnLabel_262
          CFI (cfiCond587) CFA_SP SP+4
          CFI Block cfiCond588 Using cfiCommon0
          CFI (cfiCond588) Function resOUT
          CFI (cfiCond588) Conditional ??CrossCallReturnLabel_263
          CFI (cfiCond588) CFA_SP SP+4
          CFI Block cfiPicker589 Using cfiCommon2
          CFI (cfiPicker589) NoFunction
          CFI (cfiPicker589) Picker
        LDS     R16, ??mode
        RJMP    ?Subroutine117
          CFI EndBlock cfiCond585
          CFI EndBlock cfiCond586
          CFI EndBlock cfiCond587
          CFI EndBlock cfiCond588
          CFI EndBlock cfiPicker589
//  429 
//  430 

        RSEG CODE:CODE:NOROOT(1)
//  431 void resOUT(void)
resOUT:
          CFI Block cfiBlock590 Using cfiCommon0
          CFI Function resOUT
//  432 {
//  433   RES(PORTC,1);RES(PORTC,2);RES(PORTC,3);RES(PORTC,4); if (mode==0)RES(PORTC,5);
        CBI     0x15, 0x01
        CBI     0x15, 0x02
        CBI     0x15, 0x03
        CBI     0x15, 0x04
        RCALL   ?Subroutine66
??CrossCallReturnLabel_263:
        BRNE    ??resOUT_0
        CBI     0x15, 0x05
          CFI EndBlock cfiBlock590
//  434   p2;//что бы не было перекрытия источников
??resOUT_0:
        REQUIRE ?Subroutine71
        REQUIRE _A_PORTC
        ;               // Fall through to label ?Subroutine71
//  435 }

        RSEG CODE:CODE:NOROOT(1)
?Subroutine71:
          CFI Block cfiCond591 Using cfiCommon0
          CFI Function main_logic
          CFI Conditional ??CrossCallReturnLabel_122
          CFI CFA_SP SP+4
          CFI Block cfiCond592 Using cfiCommon0
          CFI (cfiCond592) Function main_logic
          CFI (cfiCond592) Conditional ??CrossCallReturnLabel_123
          CFI (cfiCond592) CFA_SP SP+4
          CFI Block cfiCond593 Using cfiCommon0
          CFI (cfiCond593) Function main_logic
          CFI (cfiCond593) Conditional ??CrossCallReturnLabel_124
          CFI (cfiCond593) CFA_SP SP+4
          CFI Block cfiBlock594 Using cfiCommon0
          CFI (cfiBlock594) NoFunction
          CFI Block cfiPicker595 Using cfiCommon2
          CFI (cfiPicker595) NoFunction
          CFI (cfiPicker595) Picker
        LDI     R16, 255
        LDI     R17, 112
        LDI     R18, 2
        SUBI    R16, 1
        SBCI    R17, 0
        SBCI    R18, 0
        BRNE    $-6
        RJMP    $+2
        NOP
        RET
          CFI EndBlock cfiCond591
          CFI EndBlock cfiCond592
          CFI EndBlock cfiCond593
          CFI EndBlock cfiBlock594
          CFI EndBlock cfiPicker595
//  436 
//  437 
//  438  

        RSEG CODE:CODE:NOROOT(1)
//  439 void led_all(bool a)
led_all:
          CFI Block cfiBlock596 Using cfiCommon0
          CFI Function led_all
//  440 {
//  441  if (a)
        TST     R16
        BREQ    ??led_all_0
//  442  {
//  443    SET(PORTB,0);SET(PORTB,1);SET(PORTB,2);SET(PORTB,3);SET(PORTB,4);SET(PORTB,5);
        SBI     0x18, 0x00
        SBI     0x18, 0x01
        SBI     0x18, 0x02
        SBI     0x18, 0x03
        SBI     0x18, 0x04
        SBI     0x18, 0x05
//  444    /*AC_ON; */SET(PORTD,7);
        RJMP    ?Subroutine118
//  445  }
//  446  else
//  447   {
//  448    RES(PORTB,0);RES(PORTB,1);RES(PORTB,2);RES(PORTB,3);RES(PORTB,4);RES(PORTB,5);
??led_all_0:
        RCALL   ?Subroutine81
??CrossCallReturnLabel_146:
        CBI     0x18, 0x04
        CBI     0x18, 0x05
//  449    AC_OFF; RES(PORTD,7);
        CBI     0x12, 0x06
        CBI     0x12, 0x07
//  450  } 
//  451 }
        RET
          CFI EndBlock cfiBlock596
        REQUIRE _A_PORTB
        REQUIRE _A_PORTD

        RSEG CODE:CODE:NOROOT(1)
?Subroutine81:
          CFI Block cfiCond597 Using cfiCommon0
          CFI Function resled
          CFI Conditional ??CrossCallReturnLabel_145
          CFI CFA_SP SP+4
          CFI Block cfiCond598 Using cfiCommon0
          CFI (cfiCond598) Function led_all
          CFI (cfiCond598) Conditional ??CrossCallReturnLabel_146
          CFI (cfiCond598) CFA_SP SP+4
          CFI Block cfiPicker599 Using cfiCommon2
          CFI (cfiPicker599) NoFunction
          CFI (cfiPicker599) Picker
        CBI     0x18, 0x00
        CBI     0x18, 0x01
        CBI     0x18, 0x02
        CBI     0x18, 0x03
        RET
          CFI EndBlock cfiCond597
          CFI EndBlock cfiCond598
          CFI EndBlock cfiPicker599
//  452 
//  453 

        RSEG CODE:CODE:NOROOT(1)
//  454 void gro(uchar a)
gro:
          CFI Block cfiBlock600 Using cfiCommon0
          CFI Function gro
//  455 {
        MOV     R17, R16
//  456   if (modegro!=1) {
        RCALL   ?Subroutine63
??CrossCallReturnLabel_271:
        BREQ    ??gro_0
//  457   if (a==1) {SET(PORTC,0); delay_us(100);RES(PORTC,0);}
        CPI     R17, 1
        BRNE    ??gro_1
        SBI     0x15, 0x00
        RCALL   ?Subroutine82
??CrossCallReturnLabel_147:
        RJMP    ??gro_2
//  458   if (a==2) {SET(PORTD,3); delay_us(100);RES(PORTD,3);}  
??gro_1:
        CPI     R17, 2
        BRNE    ??gro_3
        SBI     0x12, 0x03
        RCALL   ?Subroutine82
??CrossCallReturnLabel_148:
        RJMP    ??gro_4
//  459                   }
//  460   else  { 
//  461     if (a==1) { if (gro1)  { gro1=0; RES(PORTC,0);  } else { gro1=1; SET(PORTC,0);  } }
??gro_0:
        CPI     R17, 1
        BRNE    ??gro_5
        LDS     R16, ??gro1
        TST     R16
        BREQ    ??gro_6
        LDI     R16, 0
        STS     ??gro1, R16
??gro_2:
        CBI     0x15, 0x00
        RET
??gro_6:
        LDI     R16, 1
        STS     ??gro1, R16
        SBI     0x15, 0x00
        RET
//  462     if (a==2) { if (gro2)  { gro2=0; RES(PORTD,3);  } else { gro2=1; SET(PORTD,3);  } }
??gro_5:
        CPI     R17, 2
        BRNE    ??gro_3
        LDS     R16, ??gro2
        TST     R16
        BREQ    ??gro_7
        LDI     R16, 0
        STS     ??gro2, R16
??gro_4:
        CBI     0x12, 0x03
        RET
??gro_7:
        LDI     R16, 1
        STS     ??gro2, R16
        SBI     0x12, 0x03
//  463         }
//  464 }
??gro_3:
        RET
          CFI EndBlock cfiBlock600
        REQUIRE _A_PORTC
        REQUIRE _A_PORTD

        RSEG CODE:CODE:NOROOT(1)
?Subroutine82:
          CFI Block cfiCond601 Using cfiCommon0
          CFI Function gro
          CFI Conditional ??CrossCallReturnLabel_147
          CFI CFA_SP SP+4
          CFI Block cfiCond602 Using cfiCommon0
          CFI (cfiCond602) Function gro
          CFI (cfiCond602) Conditional ??CrossCallReturnLabel_148
          CFI (cfiCond602) CFA_SP SP+4
          CFI Block cfiPicker603 Using cfiCommon2
          CFI (cfiPicker603) NoFunction
          CFI (cfiPicker603) Picker
        LDI     R16, 133
        DEC     R16
        BRNE    $-2
        NOP
        RET
          CFI EndBlock cfiCond601
          CFI EndBlock cfiCond602
          CFI EndBlock cfiPicker603

        RSEG CODE:CODE:NOROOT(1)
?Subroutine63:
          CFI Block cfiCond604 Using cfiCommon0
          CFI Function main
          CFI Conditional ??CrossCallReturnLabel_268
          CFI R24 Frame(CFA_Y, -1)
          CFI CFA_SP SP+4
          CFI CFA_Y Y+1
          CFI Block cfiCond605 Using cfiCommon0
          CFI (cfiCond605) Function main
          CFI (cfiCond605) Conditional ??CrossCallReturnLabel_269
          CFI (cfiCond605) R24 Frame(CFA_Y, -1)
          CFI (cfiCond605) CFA_SP SP+4
          CFI (cfiCond605) CFA_Y Y+1
          CFI Block cfiCond606 Using cfiCommon0
          CFI (cfiCond606) Function main
          CFI (cfiCond606) Conditional ??CrossCallReturnLabel_270
          CFI (cfiCond606) R24 Frame(CFA_Y, -1)
          CFI (cfiCond606) CFA_SP SP+4
          CFI (cfiCond606) CFA_Y Y+1
          CFI Block cfiCond607 Using cfiCommon0
          CFI (cfiCond607) Function gro
          CFI (cfiCond607) Conditional ??CrossCallReturnLabel_271
          CFI (cfiCond607) CFA_SP SP+4
          CFI Block cfiPicker608 Using cfiCommon2
          CFI (cfiPicker608) NoFunction
          CFI (cfiPicker608) Picker
        RCALL   ?Subroutine104
          CFI EndBlock cfiCond604
          CFI EndBlock cfiCond605
          CFI EndBlock cfiCond606
          CFI EndBlock cfiCond607
          CFI EndBlock cfiPicker608
??CrossCallReturnLabel_218:
        REQUIRE ?Subroutine119
        ;               // Fall through to label ?Subroutine119

        RSEG CODE:CODE:NOROOT(1)
?Subroutine119:
          CFI Block cfiCond609 Using cfiCommon0
          CFI Function main
          CFI Conditional ??CrossCallReturnLabel_268
          CFI R24 Frame(CFA_Y, -1)
          CFI CFA_SP SP+4
          CFI CFA_Y Y+1
          CFI Block cfiCond610 Using cfiCommon0
          CFI (cfiCond610) Function main
          CFI (cfiCond610) Conditional ??CrossCallReturnLabel_269
          CFI (cfiCond610) R24 Frame(CFA_Y, -1)
          CFI (cfiCond610) CFA_SP SP+4
          CFI (cfiCond610) CFA_Y Y+1
          CFI Block cfiCond611 Using cfiCommon0
          CFI (cfiCond611) Function main
          CFI (cfiCond611) Conditional ??CrossCallReturnLabel_270
          CFI (cfiCond611) R24 Frame(CFA_Y, -1)
          CFI (cfiCond611) CFA_SP SP+4
          CFI (cfiCond611) CFA_Y Y+1
          CFI Block cfiCond612 Using cfiCommon0
          CFI (cfiCond612) Function gro
          CFI (cfiCond612) Conditional ??CrossCallReturnLabel_271
          CFI (cfiCond612) CFA_SP SP+4
          CFI Block cfiCond613 Using cfiCommon0
          CFI (cfiCond613) Function main_logic
          CFI (cfiCond613) Conditional ??CrossCallReturnLabel_272
          CFI (cfiCond613) CFA_SP SP+4
          CFI Block cfiCond614 Using cfiCommon0
          CFI (cfiCond614) Function main_logic
          CFI (cfiCond614) Conditional ??CrossCallReturnLabel_273
          CFI (cfiCond614) CFA_SP SP+4
          CFI Block cfiCond615 Using cfiCommon0
          CFI (cfiCond615) Function main_logic
          CFI (cfiCond615) Conditional ??CrossCallReturnLabel_274
          CFI (cfiCond615) CFA_SP SP+4
          CFI Block cfiCond616 Using cfiCommon0
          CFI (cfiCond616) Function diag
          CFI (cfiCond616) Conditional ??CrossCallReturnLabel_275
          CFI (cfiCond616) R24 Frame(CFA_Y, -2)
          CFI (cfiCond616) R25 Frame(CFA_Y, -1)
          CFI (cfiCond616) CFA_SP SP+4
          CFI (cfiCond616) CFA_Y Y+2
          CFI Block cfiPicker617 Using cfiCommon2
          CFI (cfiPicker617) NoFunction
          CFI (cfiPicker617) Picker
        CPI     R16, 1
        RET
          CFI EndBlock cfiCond609
          CFI EndBlock cfiCond610
          CFI EndBlock cfiCond611
          CFI EndBlock cfiCond612
          CFI EndBlock cfiCond613
          CFI EndBlock cfiCond614
          CFI EndBlock cfiCond615
          CFI EndBlock cfiCond616
          CFI EndBlock cfiPicker617

        RSEG CODE:CODE:NOROOT(1)
?Subroutine104:
          CFI Block cfiCond618 Using cfiCommon0
          CFI Function main
          CFI Conditional ??CrossCallReturnLabel_219, ??CrossCallReturnLabel_257
          CFI R24 Frame(CFA_Y, -1)
          CFI CFA_SP SP+6
          CFI CFA_Y Y+1
          CFI Block cfiCond619 Using cfiCommon0
          CFI (cfiCond619) Function main
          CFI (cfiCond619) Conditional ??CrossCallReturnLabel_219, ??CrossCallReturnLabel_258
          CFI (cfiCond619) R24 Frame(CFA_Y, -1)
          CFI (cfiCond619) CFA_SP SP+6
          CFI (cfiCond619) CFA_Y Y+1
          CFI Block cfiCond620 Using cfiCommon0
          CFI (cfiCond620) Function main
          CFI (cfiCond620) Conditional ??CrossCallReturnLabel_219, ??CrossCallReturnLabel_259
          CFI (cfiCond620) R24 Frame(CFA_Y, -1)
          CFI (cfiCond620) CFA_SP SP+6
          CFI (cfiCond620) CFA_Y Y+1
          CFI Block cfiCond621 Using cfiCommon0
          CFI (cfiCond621) Function main
          CFI (cfiCond621) Conditional ??CrossCallReturnLabel_218, ??CrossCallReturnLabel_268
          CFI (cfiCond621) R24 Frame(CFA_Y, -1)
          CFI (cfiCond621) CFA_SP SP+6
          CFI (cfiCond621) CFA_Y Y+1
          CFI Block cfiCond622 Using cfiCommon0
          CFI (cfiCond622) Function main
          CFI (cfiCond622) Conditional ??CrossCallReturnLabel_218, ??CrossCallReturnLabel_269
          CFI (cfiCond622) R24 Frame(CFA_Y, -1)
          CFI (cfiCond622) CFA_SP SP+6
          CFI (cfiCond622) CFA_Y Y+1
          CFI Block cfiCond623 Using cfiCommon0
          CFI (cfiCond623) Function main
          CFI (cfiCond623) Conditional ??CrossCallReturnLabel_218, ??CrossCallReturnLabel_270
          CFI (cfiCond623) R24 Frame(CFA_Y, -1)
          CFI (cfiCond623) CFA_SP SP+6
          CFI (cfiCond623) CFA_Y Y+1
          CFI Block cfiCond624 Using cfiCommon0
          CFI (cfiCond624) Function gro
          CFI (cfiCond624) Conditional ??CrossCallReturnLabel_218, ??CrossCallReturnLabel_271
          CFI (cfiCond624) CFA_SP SP+6
          CFI Block cfiPicker625 Using cfiCommon2
          CFI (cfiPicker625) NoFunction
          CFI (cfiPicker625) Picker
        LDI     R20, LOW(modegro)
        LDI     R21, (modegro) >> 8
        RJMP    __eeget8_16
          CFI EndBlock cfiCond618
          CFI EndBlock cfiCond619
          CFI EndBlock cfiCond620
          CFI EndBlock cfiCond621
          CFI EndBlock cfiCond622
          CFI EndBlock cfiCond623
          CFI EndBlock cfiCond624
          CFI EndBlock cfiPicker625
//  465 
//  466 
//  467 
//  468 
//  469 
//  470 
//  471 //инициализация портов

        RSEG CODE:CODE:NOROOT(1)
//  472 void iniPORTS()
iniPORTS:
          CFI Block cfiBlock626 Using cfiCommon0
          CFI Function iniPORTS
//  473 {
//  474   
//  475  
//  476   //DDRx=0 - ВХОДЫ   PORTx = 0xFF; //подключаем нагрузочные резисторы
//  477  //---------------------------------------------------------------
//  478  //DDRx=0xFF - ВЫХОДЫ    PORTx = 0; //устанавливаем 0 на выходе
//  479  
//  480   
//  481  DDRD = b(11011000);// 0xD8;  //PD3 4 6 7 ВЫХОДЫ  b11011000
        LDI     R16, 216
        OUT     0x11, R16
//  482  PORTD = (uchar)~(b(11011000)); 
        LDI     R16, 39
        OUT     0x12, R16
//  483 
//  484  
//  485  DDRB = 0x3F; //порт B - выход    6,7-кварц
        LDI     R16, 63
        OUT     0x17, R16
//  486  PORTB = 0x00; 
        LDI     R16, 0
        OUT     0x18, R16
//  487   
//  488   
//  489   DDRC =0xFF; 
        LDI     R16, 255
        OUT     0x14, R16
//  490   PORTC = 0x00; //устанавливаем 0 на выходе
        LDI     R16, 0
        OUT     0x15, R16
//  491   
//  492  
//  493 // Timer(s)/Counter(s) Interrupt(s) initialization
//  494 TIMSK=0x00;  
        OUT     0x39, R16
//  495 TCNT0=0x00;
        OUT     0x32, R16
//  496 OCR1A=0x00;
        LDI     R17, 0
        OUT     0x2B, R16
        OUT     0x2A, R16
//  497 OCR1B=0x00;
        OUT     0x29, R16
        OUT     0x28, R16
//  498 TCCR1A=0x00;
        OUT     0x2F, R16
//  499   SET(TIMSK,TOIE1);//разреш прерывание при переполнении
        IN      R16, 0x39
        ORI     R16, 0x04
        OUT     0x39, R16
//  500    TCCR1B=0; TIFR = 0xFF;  
        OUT     0x2E, R17
        LDI     R16, 255
        OUT     0x38, R16
//  501 TCNT1H=0x00;
        OUT     0x2D, R17
//  502 TCNT1L=0x00;
        OUT     0x2C, R17
//  503 ICR1H=0x00;
        OUT     0x27, R17
//  504 ICR1L=0x00;
        OUT     0x26, R17
//  505 OCR1AH=0;
        OUT     0x2B, R17
//  506 OCR1AL=0x00;
        OUT     0x2A, R17
//  507 OCR1BH=0x00;
        OUT     0x29, R17
//  508 OCR1BL=0x00;
        OUT     0x28, R17
//  509 
//  510 
//  511 // External Interrupt(s) initialization
//  512 // INT0: Off
//  513 // INT1: Off
//  514 // Interrupt on any change on pins PCINT0-7: Off
//  515 //GIMSK=0x00;
//  516 //MCUCR=0x00;
//  517 
//  518 SET(MCUCR,0); RES(MCUCR,1);//ПРЕРЫВАНИЕ ПО ИЗМЕНЕНИЮ УРОВНЯ INT0
        IN      R16, 0x35
        ORI     R16, 0x01
        OUT     0x35, R16
        IN      R16, 0x35
        ANDI    R16, 0xFD
        OUT     0x35, R16
//  519 SET(GICR,6);//РАЗРЕШАЕМ ПРЕРЫВАНИЕ INT0
        IN      R16, 0x3B
        ORI     R16, 0x40
        OUT     0x3B, R16
//  520 
//  521 
//  522 
//  523 
//  524 // Analog Comparator initialization
//  525 // Analog Comparator: Off
//  526 // Analog Comparator Input Capture by Timer/Counter 1: Off
//  527 ACSR=0x80;
        LDI     R16, 128
        OUT     0x08, R16
//  528 //DIDR=0x00;
//  529 
//  530 } 
        RET
          CFI EndBlock cfiBlock626
        REQUIRE _A_DDRD
        REQUIRE _A_PORTD
        REQUIRE _A_DDRB
        REQUIRE _A_PORTB
        REQUIRE _A_DDRC
        REQUIRE _A_PORTC
        REQUIRE _A_TIMSK
        REQUIRE _A_TCNT0
        REQUIRE _A_OCR1A
        REQUIRE _A_OCR1B
        REQUIRE _A_TCCR1A
        REQUIRE _A_TCCR1B
        REQUIRE _A_TIFR
        REQUIRE _A_TCNT1
        REQUIRE _A_ICR1
        REQUIRE _A_MCUCR
        REQUIRE _A_GICR
        REQUIRE _A_ACSR
//  531 //************************************************************************
//  532  
//  533 

        RSEG CODE:CODE:NOROOT(1)
//  534 void diag()
diag:
          CFI Block cfiBlock627 Using cfiCommon0
          CFI Function diag
//  535 {
        FUNCALL diag, USART_GetChar
        LOCFRAME CSTACK, 2, STACK
        LOCFRAME RSTACK, 2, STACK
        ARGFRAME RSTACK, 0, STACK
        FUNCALL diag, rprintfStr
        LOCFRAME CSTACK, 2, STACK
        LOCFRAME RSTACK, 2, STACK
        ARGFRAME RSTACK, 0, STACK
        FUNCALL diag, USART_SendChar
        LOCFRAME CSTACK, 2, STACK
        LOCFRAME RSTACK, 2, STACK
        ARGFRAME RSTACK, 0, STACK
        FUNCALL diag, USART_SendChar
        LOCFRAME CSTACK, 2, STACK
        LOCFRAME RSTACK, 2, STACK
        ARGFRAME RSTACK, 0, STACK
        FUNCALL diag, rprintfStr
        LOCFRAME CSTACK, 2, STACK
        LOCFRAME RSTACK, 2, STACK
        ARGFRAME RSTACK, 0, STACK
        FUNCALL diag, USART_SendChar
        LOCFRAME CSTACK, 2, STACK
        LOCFRAME RSTACK, 2, STACK
        ARGFRAME RSTACK, 0, STACK
        FUNCALL diag, rprintfFloat
        LOCFRAME CSTACK, 2, STACK
        LOCFRAME RSTACK, 2, STACK
        ARGFRAME RSTACK, 0, STACK
        FUNCALL diag, rprintfStr
        LOCFRAME CSTACK, 2, STACK
        LOCFRAME RSTACK, 2, STACK
        ARGFRAME RSTACK, 0, STACK
        FUNCALL diag, rprintfFloat
        LOCFRAME CSTACK, 2, STACK
        LOCFRAME RSTACK, 2, STACK
        ARGFRAME RSTACK, 0, STACK
        FUNCALL diag, USART_SendChar
        LOCFRAME CSTACK, 2, STACK
        LOCFRAME RSTACK, 2, STACK
        ARGFRAME RSTACK, 0, STACK
        FUNCALL diag, rprintfStr
        LOCFRAME CSTACK, 2, STACK
        LOCFRAME RSTACK, 2, STACK
        ARGFRAME RSTACK, 0, STACK
        FUNCALL diag, USART_SendChar
        LOCFRAME CSTACK, 2, STACK
        LOCFRAME RSTACK, 2, STACK
        ARGFRAME RSTACK, 0, STACK
        FUNCALL diag, rprintfStr
        LOCFRAME CSTACK, 2, STACK
        LOCFRAME RSTACK, 2, STACK
        ARGFRAME RSTACK, 0, STACK
        FUNCALL diag, rprintfStr
        LOCFRAME CSTACK, 2, STACK
        LOCFRAME RSTACK, 2, STACK
        ARGFRAME RSTACK, 0, STACK
        FUNCALL diag, rprintfStr
        LOCFRAME CSTACK, 2, STACK
        LOCFRAME RSTACK, 2, STACK
        ARGFRAME RSTACK, 0, STACK
        FUNCALL diag, USART_SendChar
        LOCFRAME CSTACK, 2, STACK
        LOCFRAME RSTACK, 2, STACK
        ARGFRAME RSTACK, 0, STACK
        RCALL   ?PROLOGUE2_L09
          CFI R25 Frame(CFA_Y, -1)
          CFI R24 Frame(CFA_Y, -2)
          CFI CFA_Y Y+2
//  536   
//  537   uchar sym = USART_GetChar(); //читаем буфер
        RCALL   USART_GetChar
        MOV     R25, R16
//  538   if (sym=='0') { pr=1;  rprintfStr("- vkluchen kratkiy viviod -");  ent;   }
        CPI     R16, 48
        BRNE    ??diag_0
        LDI     R16, 1
        STS     pr, R16
        LDI     R16, LOW(`?<Constant "- vkluchen kratkiy vi...">`)
        LDI     R17, (`?<Constant "- vkluchen kratkiy vi...">`) >> 8
        RCALL   ?Subroutine44
??CrossCallReturnLabel_237:
        RJMP    ??diag_1
//  539 
//  540   if (sym=='e') {
??diag_0:
        CPI     R16, 101
        BRNE    ??diag_2
//  541     ent;rprintfStr(" ==  EEPROM read == ");ent;
        RCALL   ?Subroutine112
??CrossCallReturnLabel_242:
        LDI     R16, LOW(`?<Constant " ==  EEPROM read == ">`)
        LDI     R17, (`?<Constant " ==  EEPROM read == ">`) >> 8
        RCALL   ?Subroutine44
//  542     for (uchar i=0; i<MAXEEP-1; i++) { 
??CrossCallReturnLabel_238:
        LDI     R24, 0
//  543       rprintfFloat(4, i );   rprintfStr(" > ");
??diag_3:
        MOV     R16, R24
        RCALL   ?Subroutine21
??CrossCallReturnLabel_190:
        RCALL   ?Subroutine113
??CrossCallReturnLabel_290:
        LDI     R16, 4
        RCALL   rprintfFloat
        LDI     R16, LOW(`?<Constant " > ">`)
        LDI     R17, (`?<Constant " > ">`) >> 8
        RCALL   rprintfStr
//  544        rprintfFloat(9, k[i] ); ent;
        RCALL   ?Subroutine93
//  545                                       }
??CrossCallReturnLabel_172:
        LDI     R20, LOW(k)
        LDI     R21, (k) >> 8
        ADD     R20, R0
        ADC     R21, R1
        RCALL   __eeget16_16
        RCALL   ?Subroutine43
??CrossCallReturnLabel_202:
        INC     R24
        CPI     R24, 119
        BRCC    ??diag_1
        RJMP    ??diag_3
//  546                 }
//  547   
//  548   if (sym) 
??diag_2:
        TST     R16
        BREQ    ??CrossCallReturnLabel_239
//  549   {             //если что-то приняли, то 
//  550       rprintfStr(" get: ");
??diag_1:
        LDI     R16, LOW(`?<Constant " get: ">`)
        LDI     R17, (`?<Constant " get: ">`) >> 8
        RCALL   rprintfStr
//  551       USART_SendChar(sym); 
        MOV     R16, R25
        RCALL   USART_SendChar
//  552 
//  553       if (mode==1) rprintfStr("  regim  no source5 >");  
        RCALL   ?Subroutine67
??CrossCallReturnLabel_275:
        BRNE    ??diag_4
        LDI     R16, LOW(`?<Constant "  regim  no source5 >">`)
        LDI     R17, (`?<Constant "  regim  no source5 >">`) >> 8
        RCALL   rprintfStr
//  554       if (mode_programming==1) rprintfStr("  regim  PROGRAMMING !!  READY >");  
??diag_4:
        LDS     R16, ??mode_programming
        TST     R16
        BREQ    ??diag_5
        LDI     R16, LOW(`?<Constant "  regim  PROGRAMMING ...">`)
        LDI     R17, (`?<Constant "  regim  PROGRAMMING ...">`) >> 8
        RJMP    ??diag_6
//  555       else rprintfStr("  regim  normal  READY >");  
??diag_5:
        LDI     R16, LOW(`?<Constant "  regim  normal  READY >">`)
        LDI     R17, (`?<Constant "  regim  normal  READY >">`) >> 8
//  556        ent;   
//  557   }
??diag_6:
        RCALL   ?Subroutine44
//  558 }
??CrossCallReturnLabel_239:
        RJMP    ?Subroutine123
          CFI EndBlock cfiBlock627

        RSEG CODE:CODE:NOROOT(1)
?Subroutine67:
          CFI Block cfiCond628 Using cfiCommon0
          CFI Function main_logic
          CFI Conditional ??CrossCallReturnLabel_272
          CFI CFA_SP SP+4
          CFI Block cfiCond629 Using cfiCommon0
          CFI (cfiCond629) Function main_logic
          CFI (cfiCond629) Conditional ??CrossCallReturnLabel_273
          CFI (cfiCond629) CFA_SP SP+4
          CFI Block cfiCond630 Using cfiCommon0
          CFI (cfiCond630) Function main_logic
          CFI (cfiCond630) Conditional ??CrossCallReturnLabel_274
          CFI (cfiCond630) CFA_SP SP+4
          CFI Block cfiCond631 Using cfiCommon0
          CFI (cfiCond631) Function diag
          CFI (cfiCond631) Conditional ??CrossCallReturnLabel_275
          CFI (cfiCond631) R24 Frame(CFA_Y, -2)
          CFI (cfiCond631) R25 Frame(CFA_Y, -1)
          CFI (cfiCond631) CFA_SP SP+4
          CFI (cfiCond631) CFA_Y Y+2
          CFI Block cfiPicker632 Using cfiCommon2
          CFI (cfiPicker632) NoFunction
          CFI (cfiPicker632) Picker
        LDS     R16, ??mode
        RJMP    ?Subroutine119
          CFI EndBlock cfiCond628
          CFI EndBlock cfiCond629
          CFI EndBlock cfiCond630
          CFI EndBlock cfiCond631
          CFI EndBlock cfiPicker632

        RSEG CODE:CODE:NOROOT(1)
?Subroutine44:
          CFI Block cfiCond633 Using cfiCommon0
          CFI Function writeCOD
          CFI Conditional ??CrossCallReturnLabel_236
          CFI R24 Frame(CFA_Y, -1)
          CFI CFA_SP SP+4
          CFI CFA_Y Y+1
          CFI Block cfiCond634 Using cfiCommon0
          CFI (cfiCond634) Function diag
          CFI (cfiCond634) Conditional ??CrossCallReturnLabel_237
          CFI (cfiCond634) R24 Frame(CFA_Y, -2)
          CFI (cfiCond634) R25 Frame(CFA_Y, -1)
          CFI (cfiCond634) CFA_SP SP+4
          CFI (cfiCond634) CFA_Y Y+2
          CFI Block cfiCond635 Using cfiCommon0
          CFI (cfiCond635) Function diag
          CFI (cfiCond635) Conditional ??CrossCallReturnLabel_238
          CFI (cfiCond635) R24 Frame(CFA_Y, -2)
          CFI (cfiCond635) R25 Frame(CFA_Y, -1)
          CFI (cfiCond635) CFA_SP SP+4
          CFI (cfiCond635) CFA_Y Y+2
          CFI Block cfiCond636 Using cfiCommon0
          CFI (cfiCond636) Function diag
          CFI (cfiCond636) Conditional ??CrossCallReturnLabel_239
          CFI (cfiCond636) R24 Frame(CFA_Y, -2)
          CFI (cfiCond636) R25 Frame(CFA_Y, -1)
          CFI (cfiCond636) CFA_SP SP+4
          CFI (cfiCond636) CFA_Y Y+2
          CFI Block cfiPicker637 Using cfiCommon2
          CFI (cfiPicker637) NoFunction
          CFI (cfiPicker637) Picker
        RCALL   rprintfStr
          CFI EndBlock cfiCond633
          CFI EndBlock cfiCond634
          CFI EndBlock cfiCond635
          CFI EndBlock cfiCond636
          CFI EndBlock cfiPicker637
        REQUIRE ?Subroutine112
        ;               // Fall through to label ?Subroutine112

        RSEG CODE:CODE:NOROOT(1)
?Subroutine112:
          CFI Block cfiCond638 Using cfiCommon0
          CFI Function PEREP
          CFI Conditional ??CrossCallReturnLabel_240
          CFI R24 Frame(CFA_Y, -8)
          CFI R25 Frame(CFA_Y, -7)
          CFI R26 Frame(CFA_Y, -6)
          CFI R27 Frame(CFA_Y, -5)
          CFI R4 Frame(CFA_Y, -4)
          CFI R5 Frame(CFA_Y, -3)
          CFI R6 Frame(CFA_Y, -2)
          CFI R7 Frame(CFA_Y, -1)
          CFI CFA_SP SP+4
          CFI CFA_Y Y+8
          CFI Block cfiCond639 Using cfiCommon0
          CFI (cfiCond639) Function main_logic
          CFI (cfiCond639) Conditional ??CrossCallReturnLabel_241
          CFI (cfiCond639) CFA_SP SP+4
          CFI Block cfiCond640 Using cfiCommon0
          CFI (cfiCond640) Function diag
          CFI (cfiCond640) Conditional ??CrossCallReturnLabel_242
          CFI (cfiCond640) R24 Frame(CFA_Y, -2)
          CFI (cfiCond640) R25 Frame(CFA_Y, -1)
          CFI (cfiCond640) CFA_SP SP+4
          CFI (cfiCond640) CFA_Y Y+2
          CFI Block cfiCond641 Using cfiCommon0
          CFI (cfiCond641) Function writeCOD
          CFI (cfiCond641) Conditional ??CrossCallReturnLabel_236
          CFI (cfiCond641) R24 Frame(CFA_Y, -1)
          CFI (cfiCond641) CFA_SP SP+4
          CFI (cfiCond641) CFA_Y Y+1
          CFI Block cfiCond642 Using cfiCommon0
          CFI (cfiCond642) Function diag
          CFI (cfiCond642) Conditional ??CrossCallReturnLabel_237
          CFI (cfiCond642) R24 Frame(CFA_Y, -2)
          CFI (cfiCond642) R25 Frame(CFA_Y, -1)
          CFI (cfiCond642) CFA_SP SP+4
          CFI (cfiCond642) CFA_Y Y+2
          CFI Block cfiCond643 Using cfiCommon0
          CFI (cfiCond643) Function diag
          CFI (cfiCond643) Conditional ??CrossCallReturnLabel_238
          CFI (cfiCond643) R24 Frame(CFA_Y, -2)
          CFI (cfiCond643) R25 Frame(CFA_Y, -1)
          CFI (cfiCond643) CFA_SP SP+4
          CFI (cfiCond643) CFA_Y Y+2
          CFI Block cfiCond644 Using cfiCommon0
          CFI (cfiCond644) Function diag
          CFI (cfiCond644) Conditional ??CrossCallReturnLabel_239
          CFI (cfiCond644) R24 Frame(CFA_Y, -2)
          CFI (cfiCond644) R25 Frame(CFA_Y, -1)
          CFI (cfiCond644) CFA_SP SP+4
          CFI (cfiCond644) CFA_Y Y+2
          CFI Block cfiCond645 Using cfiCommon0
          CFI (cfiCond645) Function main_power
          CFI (cfiCond645) Conditional ??CrossCallReturnLabel_31
          CFI (cfiCond645) CFA_SP SP+4
          CFI Block cfiCond646 Using cfiCommon0
          CFI (cfiCond646) Function main_power
          CFI (cfiCond646) Conditional ??CrossCallReturnLabel_32
          CFI (cfiCond646) CFA_SP SP+4
          CFI Block cfiCond647 Using cfiCommon0
          CFI (cfiCond647) Function coding
          CFI (cfiCond647) Conditional ??CrossCallReturnLabel_203
          CFI (cfiCond647) R24 Frame(CFA_Y, -10)
          CFI (cfiCond647) R25 Frame(CFA_Y, -9)
          CFI (cfiCond647) R26 Frame(CFA_Y, -8)
          CFI (cfiCond647) R27 Frame(CFA_Y, -7)
          CFI (cfiCond647) R4 Frame(CFA_Y, -6)
          CFI (cfiCond647) R5 Frame(CFA_Y, -5)
          CFI (cfiCond647) R6 Frame(CFA_Y, -4)
          CFI (cfiCond647) R7 Frame(CFA_Y, -3)
          CFI (cfiCond647) R8 Frame(CFA_Y, -2)
          CFI (cfiCond647) R9 Frame(CFA_Y, -1)
          CFI (cfiCond647) CFA_SP SP+4
          CFI (cfiCond647) CFA_Y Y+10
          CFI Block cfiCond648 Using cfiCommon0
          CFI (cfiCond648) Function diag
          CFI (cfiCond648) Conditional ??CrossCallReturnLabel_202
          CFI (cfiCond648) R24 Frame(CFA_Y, -2)
          CFI (cfiCond648) R25 Frame(CFA_Y, -1)
          CFI (cfiCond648) CFA_SP SP+4
          CFI (cfiCond648) CFA_Y Y+2
          CFI Block cfiPicker649 Using cfiCommon2
          CFI (cfiPicker649) NoFunction
          CFI (cfiPicker649) Picker
        LDI     R16, 13
        RJMP    USART_SendChar
          CFI EndBlock cfiCond638
          CFI EndBlock cfiCond639
          CFI EndBlock cfiCond640
          CFI EndBlock cfiCond641
          CFI EndBlock cfiCond642
          CFI EndBlock cfiCond643
          CFI EndBlock cfiCond644
          CFI EndBlock cfiCond645
          CFI EndBlock cfiCond646
          CFI EndBlock cfiCond647
          CFI EndBlock cfiCond648
          CFI EndBlock cfiPicker649

        RSEG CODE:CODE:NOROOT(1)
?Subroutine43:
          CFI Block cfiCond650 Using cfiCommon0
          CFI Function coding
          CFI Conditional ??CrossCallReturnLabel_203
          CFI R24 Frame(CFA_Y, -10)
          CFI R25 Frame(CFA_Y, -9)
          CFI R26 Frame(CFA_Y, -8)
          CFI R27 Frame(CFA_Y, -7)
          CFI R4 Frame(CFA_Y, -6)
          CFI R5 Frame(CFA_Y, -5)
          CFI R6 Frame(CFA_Y, -4)
          CFI R7 Frame(CFA_Y, -3)
          CFI R8 Frame(CFA_Y, -2)
          CFI R9 Frame(CFA_Y, -1)
          CFI CFA_SP SP+4
          CFI CFA_Y Y+10
          CFI Block cfiCond651 Using cfiCommon0
          CFI (cfiCond651) Function diag
          CFI (cfiCond651) Conditional ??CrossCallReturnLabel_202
          CFI (cfiCond651) R24 Frame(CFA_Y, -2)
          CFI (cfiCond651) R25 Frame(CFA_Y, -1)
          CFI (cfiCond651) CFA_SP SP+4
          CFI (cfiCond651) CFA_Y Y+2
          CFI Block cfiPicker652 Using cfiCommon2
          CFI (cfiPicker652) NoFunction
          CFI (cfiPicker652) Picker
        RCALL   ?Subroutine111
          CFI EndBlock cfiCond650
          CFI EndBlock cfiCond651
          CFI EndBlock cfiPicker652
??CrossCallReturnLabel_292:
        REQUIRE ?Subroutine100
        ;               // Fall through to label ?Subroutine100

        RSEG CODE:CODE:NOROOT(1)
?Subroutine100:
          CFI Block cfiCond653 Using cfiCommon0
          CFI Function main_power
          CFI Conditional ??CrossCallReturnLabel_31
          CFI CFA_SP SP+4
          CFI Block cfiCond654 Using cfiCommon0
          CFI (cfiCond654) Function main_power
          CFI (cfiCond654) Conditional ??CrossCallReturnLabel_32
          CFI (cfiCond654) CFA_SP SP+4
          CFI Block cfiCond655 Using cfiCommon0
          CFI (cfiCond655) Function coding
          CFI (cfiCond655) Conditional ??CrossCallReturnLabel_203
          CFI (cfiCond655) R24 Frame(CFA_Y, -10)
          CFI (cfiCond655) R25 Frame(CFA_Y, -9)
          CFI (cfiCond655) R26 Frame(CFA_Y, -8)
          CFI (cfiCond655) R27 Frame(CFA_Y, -7)
          CFI (cfiCond655) R4 Frame(CFA_Y, -6)
          CFI (cfiCond655) R5 Frame(CFA_Y, -5)
          CFI (cfiCond655) R6 Frame(CFA_Y, -4)
          CFI (cfiCond655) R7 Frame(CFA_Y, -3)
          CFI (cfiCond655) R8 Frame(CFA_Y, -2)
          CFI (cfiCond655) R9 Frame(CFA_Y, -1)
          CFI (cfiCond655) CFA_SP SP+4
          CFI (cfiCond655) CFA_Y Y+10
          CFI Block cfiCond656 Using cfiCommon0
          CFI (cfiCond656) Function diag
          CFI (cfiCond656) Conditional ??CrossCallReturnLabel_202
          CFI (cfiCond656) R24 Frame(CFA_Y, -2)
          CFI (cfiCond656) R25 Frame(CFA_Y, -1)
          CFI (cfiCond656) CFA_SP SP+4
          CFI (cfiCond656) CFA_Y Y+2
          CFI Block cfiPicker657 Using cfiCommon2
          CFI (cfiPicker657) NoFunction
          CFI (cfiPicker657) Picker
        LDI     R16, 9
        RCALL   rprintfFloat
        RJMP    ?Subroutine112
          CFI EndBlock cfiCond653
          CFI EndBlock cfiCond654
          CFI EndBlock cfiCond655
          CFI EndBlock cfiCond656
          CFI EndBlock cfiPicker657
//  559 
// F:\Dulov\RemoteAmp\SoftTimers.c
//    1 
//    2 #include <stdbool.h>//поддержка bool
//    3 #include "iom8.h"//<ioavr.h>
//    4 #include <inavr.h>
//    5 #include <intrinsics.h>
//    6 #include "init.h"
//    7 #include "SoftTimers.h"

        RSEG NEAR_I:DATA:NOROOT(0)
        REQUIRE `?<Segment init: NEAR_I>`
// static unsigned char port
??port:
        DS8 1
        REQUIRE `?<Initializer for port>`
//    8 
//    9 //***************************************************************************
//   10 //
//   11 //***************************************************************************

        RSEG NEAR_Z:DATA:NOROOT(0)
        REQUIRE `?<Segment init: NEAR_Z>`
//   12 timers tm1,tm2;
tm1:
        DS8 7

        RSEG NEAR_Z:DATA:NOROOT(0)
        REQUIRE `?<Segment init: NEAR_Z>`
tm2:
        DS8 7

        RSEG NEAR_Z:DATA:NOROOT(0)
        REQUIRE `?<Segment init: NEAR_Z>`
//   13 static uchar raz;
??raz:
        DS8 1
//   14 static uchar port;

        RSEG NEAR_Z:DATA:NOROOT(0)
        REQUIRE `?<Segment init: NEAR_Z>`
//   15 static uchar razct;
??razct:
        DS8 1
//   16 
//   17 /*
//   18 #pragma vector = TIMER0_OVF_vect 
//   19 __interrupt void funTIMER0_OVF_vect(void)
//   20 {
//   21    
//   22  
//   23 }
//   24 */
//   25 

        RSEG CODE:CODE:NOROOT(1)
//   26 void TimerSet(timers *t, uint tm)
TimerSet:
          CFI Block cfiBlock658 Using cfiCommon0
          CFI Function TimerSet
//   27 {
//   28   t->out=0;
        LDI     R20, 0
        MOVW    R31:R30, R17:R16
        STD     Z+6, R20
//   29   t->ct=0;
        STD     Z+2, R20
        STD     Z+3, R20
//   30   t->time=tm;
        STD     Z+4, R18
        STD     Z+5, R19
//   31   t->x=0;
        ST      Z, R20
        STD     Z+1, R20
//   32 }
        RET
          CFI EndBlock cfiBlock658
//   33 

        RSEG CODE:CODE:NOROOT(1)
//   34 void TimerTick( timers *t)
TimerTick:
          CFI Block cfiBlock659 Using cfiCommon0
          CFI Function TimerTick
//   35 {
//   36   if (t->out) return;
        MOVW    R31:R30, R17:R16
        LDD     R18, Z+6
        TST     R18
        BRNE    ??TimerTick_0
//   37   t->x++;
        RCALL   ?Subroutine59
??CrossCallReturnLabel_90:
        SUBI    R18, 255
        SBCI    R19, 255
        ST      Z, R18
        STD     Z+1, R19
//   38   if (t->x>=CALIBR) { t->x=0; t->ct++;}
        CPI     R18, 124
        SBCI    R19, 21
        BRCS    ??TimerTick_1
        LDI     R18, 0
        ST      Z, R18
        STD     Z+1, R18
        LDD     R18, Z+2
        LDD     R19, Z+3
        SUBI    R18, 255
        SBCI    R19, 255
        STD     Z+2, R18
        STD     Z+3, R19
//   39   if (t->ct >t->time ) t->out=1;
??TimerTick_1:
        LDD     R18, Z+4
        LDD     R19, Z+5
        LDD     R20, Z+2
        LDD     R21, Z+3
        CP      R18, R20
        CPC     R19, R21
        BRCC    ??TimerTick_0
        LDI     R18, 1
        STD     Z+6, R18
//   40 }
??TimerTick_0:
        RET
          CFI EndBlock cfiBlock659
//   41 //**************************************************************
//   42 //**************************************************************
//   43 //void ResetT1(void)/
//   44 //{
//   45 //  T1=0;T1x=0;  T1out=0;
//   46 //}
//   47   
//   48 
//   49 //void iniT1(ulong max)
//   50 //{
//   51  //инициализация таймера Т0 - прерывания каждую ms
//   52  // TIMSK = (1<<OCIE0);
//   53  // TCCR0 = (1<<WGM01)|(0<<WGM00)|(0<<COM01)|(0<<COM00)|(0<<CS02)|(1<<CS01)|(1<<CS00);
//   54  // TCNT0 = 0;
//   55  // OCR0 = 0x7d;
//   56 
//   57   //T1max=max; ResetT1();
//   58 //}
//   59 
//   60 
//   61 //void WorkT1(void)
//   62 //{
//   63 //  if (T1out) return;
//   64 //  T1x++; if (T1x>=CALIBR) { T1x=0; T1++; }
//   65 //  if (T1>=T1max) T1out=1;
//   66 //}
//   67 
//   68 //**************************************************************
//   69 //**************************************************************
//   70 /*
//   71 //void ResetT2(void)/
//   72 {
//   73   T2=0;T2x=0;  T2out=0;
//   74 }
//   75   
//   76 
//   77 void iniT2(ulong max)
//   78 {
//   79  //инициализация таймера Т0 - прерывания каждую ms
//   80  // TIMSK = (1<<OCIE0);
//   81  // TCCR0 = (1<<WGM01)|(0<<WGM00)|(0<<COM01)|(0<<COM00)|(0<<CS02)|(1<<CS01)|(1<<CS00);
//   82  // TCNT0 = 0;
//   83  // OCR0 = 0x7d;
//   84 
//   85   T2max=max; ResetT2();
//   86 }
//   87 
//   88 
//   89 void WorkT2(void)
//   90 {
//   91   if (T2out) return;
//   92   T2x++; if (T2x>=(CALIBR/1000)) { T2x=0; T2++; }
//   93   if (T2>=T2max) T2out=1;
//   94 }
//   95 
//   96 
//   97 |*/
//   98 
//   99 
//  100 
//  101 
//  102 
//  103 
//  104 

        RSEG CODE:CODE:NOROOT(1)
//  105 void migINI(uchar sel,  uchar razp, bool prton)//мигание sel - кол-во раз
migINI:
          CFI Block cfiBlock660 Using cfiCommon0
          CFI Function migINI
//  106 {
        FUNCALL migINI, TimerSet
        LOCFRAME CSTACK, 0, STACK
        LOCFRAME RSTACK, 2, STACK
        ARGFRAME RSTACK, 0, STACK
        MOV     R19, R16
        MOVW    R21:R20, R17:R16
//  107   SET(PORTB,sel);//вкл-ем для ускорения индикации
        RCALL   ?Subroutine7
//  108   
//  109   
//  110   if (port!=255) {  //если все еще мигает
??CrossCallReturnLabel_276:
        LDS     R16, ??port
        CPI     R16, 255
        BREQ    ??migINI_0
//  111      
//  112     if (prton)SET(PORTB,port); //фиксируем чтобы горел
        LDS     R20, ??port
        RCALL   ?Subroutine110
??CrossCallReturnLabel_231:
        TST     R18
        BREQ    ??migINI_1
        IN      R17, 0x18
        OR      R17, R16
        RJMP    ??migINI_2
//  113     else RES(PORTB,port);
??migINI_1:
        COM     R16
        IN      R17, 0x18
        AND     R17, R16
??migINI_2:
        OUT     0x18, R17
//  114                 }
//  115   
//  116   
//  117   raz=razp;  port=sel; razct=0;
??migINI_0:
        STS     ??raz, R21
        STS     ??port, R19
        LDI     R16, 0
        STS     ??razct, R16
//  118   
//  119   
//  120   TimerSet(&tm2,5);
        LDI     R18, 5
        RCALL   ?Subroutine96
//  121   tm2.out=1;
??CrossCallReturnLabel_189:
        LDI     R16, 1
        STS     (tm2 + 6), R16
//  122   //iniT2(5);
//  123   //T2out=1;
//  124   
//  125 }
        RET
          CFI EndBlock cfiBlock660
        REQUIRE _A_PORTB

        RSEG CODE:CODE:NOROOT(1)
?Subroutine110:
          CFI Block cfiCond661 Using cfiCommon0
          CFI Function coding
          CFI Conditional ??CrossCallReturnLabel_233, ??CrossCallReturnLabel_5
          CFI R24 Frame(CFA_Y, -10)
          CFI R25 Frame(CFA_Y, -9)
          CFI R26 Frame(CFA_Y, -8)
          CFI R27 Frame(CFA_Y, -7)
          CFI R4 Frame(CFA_Y, -6)
          CFI R5 Frame(CFA_Y, -5)
          CFI R6 Frame(CFA_Y, -4)
          CFI R7 Frame(CFA_Y, -3)
          CFI R8 Frame(CFA_Y, -2)
          CFI R9 Frame(CFA_Y, -1)
          CFI CFA_SP SP+6
          CFI CFA_Y Y+10
          CFI Block cfiCond662 Using cfiCommon0
          CFI (cfiCond662) Function coding
          CFI (cfiCond662) Conditional ??CrossCallReturnLabel_233, ??CrossCallReturnLabel_6
          CFI (cfiCond662) R24 Frame(CFA_Y, -10)
          CFI (cfiCond662) R25 Frame(CFA_Y, -9)
          CFI (cfiCond662) R26 Frame(CFA_Y, -8)
          CFI (cfiCond662) R27 Frame(CFA_Y, -7)
          CFI (cfiCond662) R4 Frame(CFA_Y, -6)
          CFI (cfiCond662) R5 Frame(CFA_Y, -5)
          CFI (cfiCond662) R6 Frame(CFA_Y, -4)
          CFI (cfiCond662) R7 Frame(CFA_Y, -3)
          CFI (cfiCond662) R8 Frame(CFA_Y, -2)
          CFI (cfiCond662) R9 Frame(CFA_Y, -1)
          CFI (cfiCond662) CFA_SP SP+6
          CFI (cfiCond662) CFA_Y Y+10
          CFI Block cfiCond663 Using cfiCommon0
          CFI (cfiCond663) Function coding
          CFI (cfiCond663) Conditional ??CrossCallReturnLabel_233, ??CrossCallReturnLabel_7
          CFI (cfiCond663) R24 Frame(CFA_Y, -10)
          CFI (cfiCond663) R25 Frame(CFA_Y, -9)
          CFI (cfiCond663) R26 Frame(CFA_Y, -8)
          CFI (cfiCond663) R27 Frame(CFA_Y, -7)
          CFI (cfiCond663) R4 Frame(CFA_Y, -6)
          CFI (cfiCond663) R5 Frame(CFA_Y, -5)
          CFI (cfiCond663) R6 Frame(CFA_Y, -4)
          CFI (cfiCond663) R7 Frame(CFA_Y, -3)
          CFI (cfiCond663) R8 Frame(CFA_Y, -2)
          CFI (cfiCond663) R9 Frame(CFA_Y, -1)
          CFI (cfiCond663) CFA_SP SP+6
          CFI (cfiCond663) CFA_Y Y+10
          CFI Block cfiCond664 Using cfiCommon0
          CFI (cfiCond664) Function coding
          CFI (cfiCond664) Conditional ??CrossCallReturnLabel_232, ??CrossCallReturnLabel_2
          CFI (cfiCond664) R24 Frame(CFA_Y, -10)
          CFI (cfiCond664) R25 Frame(CFA_Y, -9)
          CFI (cfiCond664) R26 Frame(CFA_Y, -8)
          CFI (cfiCond664) R27 Frame(CFA_Y, -7)
          CFI (cfiCond664) R4 Frame(CFA_Y, -6)
          CFI (cfiCond664) R5 Frame(CFA_Y, -5)
          CFI (cfiCond664) R6 Frame(CFA_Y, -4)
          CFI (cfiCond664) R7 Frame(CFA_Y, -3)
          CFI (cfiCond664) R8 Frame(CFA_Y, -2)
          CFI (cfiCond664) R9 Frame(CFA_Y, -1)
          CFI (cfiCond664) CFA_SP SP+6
          CFI (cfiCond664) CFA_Y Y+10
          CFI Block cfiCond665 Using cfiCommon0
          CFI (cfiCond665) Function coding
          CFI (cfiCond665) Conditional ??CrossCallReturnLabel_232, ??CrossCallReturnLabel_3
          CFI (cfiCond665) R24 Frame(CFA_Y, -10)
          CFI (cfiCond665) R25 Frame(CFA_Y, -9)
          CFI (cfiCond665) R26 Frame(CFA_Y, -8)
          CFI (cfiCond665) R27 Frame(CFA_Y, -7)
          CFI (cfiCond665) R4 Frame(CFA_Y, -6)
          CFI (cfiCond665) R5 Frame(CFA_Y, -5)
          CFI (cfiCond665) R6 Frame(CFA_Y, -4)
          CFI (cfiCond665) R7 Frame(CFA_Y, -3)
          CFI (cfiCond665) R8 Frame(CFA_Y, -2)
          CFI (cfiCond665) R9 Frame(CFA_Y, -1)
          CFI (cfiCond665) CFA_SP SP+6
          CFI (cfiCond665) CFA_Y Y+10
          CFI Block cfiCond666 Using cfiCommon0
          CFI (cfiCond666) Function coding
          CFI (cfiCond666) Conditional ??CrossCallReturnLabel_232, ??CrossCallReturnLabel_4
          CFI (cfiCond666) R24 Frame(CFA_Y, -10)
          CFI (cfiCond666) R25 Frame(CFA_Y, -9)
          CFI (cfiCond666) R26 Frame(CFA_Y, -8)
          CFI (cfiCond666) R27 Frame(CFA_Y, -7)
          CFI (cfiCond666) R4 Frame(CFA_Y, -6)
          CFI (cfiCond666) R5 Frame(CFA_Y, -5)
          CFI (cfiCond666) R6 Frame(CFA_Y, -4)
          CFI (cfiCond666) R7 Frame(CFA_Y, -3)
          CFI (cfiCond666) R8 Frame(CFA_Y, -2)
          CFI (cfiCond666) R9 Frame(CFA_Y, -1)
          CFI (cfiCond666) CFA_SP SP+6
          CFI (cfiCond666) CFA_Y Y+10
          CFI Block cfiCond667 Using cfiCommon0
          CFI (cfiCond667) Function migINI
          CFI (cfiCond667) Conditional ??CrossCallReturnLabel_231
          CFI (cfiCond667) CFA_SP SP+4
          CFI Block cfiCond668 Using cfiCommon0
          CFI (cfiCond668) Function migINI
          CFI (cfiCond668) Conditional ??CrossCallReturnLabel_234, ??CrossCallReturnLabel_276
          CFI (cfiCond668) CFA_SP SP+6
          CFI Block cfiCond669 Using cfiCommon0
          CFI (cfiCond669) Function migWORK
          CFI (cfiCond669) Conditional ??CrossCallReturnLabel_234, ??CrossCallReturnLabel_277
          CFI (cfiCond669) CFA_SP SP+6
          CFI Block cfiCond670 Using cfiCommon0
          CFI (cfiCond670) Function main_logic
          CFI (cfiCond670) Conditional ??CrossCallReturnLabel_235, ??CrossCallReturnLabel_280, ??CrossCallReturnLabel_243
          CFI (cfiCond670) CFA_SP SP+8
          CFI Block cfiCond671 Using cfiCommon0
          CFI (cfiCond671) Function main_logic
          CFI (cfiCond671) Conditional ??CrossCallReturnLabel_235, ??CrossCallReturnLabel_280, ??CrossCallReturnLabel_244
          CFI (cfiCond671) CFA_SP SP+8
          CFI Block cfiCond672 Using cfiCommon0
          CFI (cfiCond672) Function main_logic
          CFI (cfiCond672) Conditional ??CrossCallReturnLabel_235, ??CrossCallReturnLabel_278
          CFI (cfiCond672) CFA_SP SP+6
          CFI Block cfiCond673 Using cfiCommon0
          CFI (cfiCond673) Function migWORK
          CFI (cfiCond673) Conditional ??CrossCallReturnLabel_235, ??CrossCallReturnLabel_279
          CFI (cfiCond673) CFA_SP SP+6
          CFI Block cfiPicker674 Using cfiCommon2
          CFI (cfiPicker674) NoFunction
          CFI (cfiPicker674) Picker
        LDI     R16, 1
        LDI     R17, 0
        RJMP    ?S_SHL_L02
          CFI EndBlock cfiCond661
          CFI EndBlock cfiCond662
          CFI EndBlock cfiCond663
          CFI EndBlock cfiCond664
          CFI EndBlock cfiCond665
          CFI EndBlock cfiCond666
          CFI EndBlock cfiCond667
          CFI EndBlock cfiCond668
          CFI EndBlock cfiCond669
          CFI EndBlock cfiCond670
          CFI EndBlock cfiCond671
          CFI EndBlock cfiCond672
          CFI EndBlock cfiCond673
          CFI EndBlock cfiPicker674
//  126 

        RSEG CODE:CODE:NOROOT(1)
//  127 void migWORK(void)//мигание 
migWORK:
          CFI Block cfiBlock675 Using cfiCommon0
          CFI Function migWORK
//  128 {
//  129   static bool sost=0;
//  130   TimerTick(&tm2); // WorkT2();
        FUNCALL migWORK, TimerTick
        LOCFRAME CSTACK, 0, STACK
        LOCFRAME RSTACK, 2, STACK
        ARGFRAME RSTACK, 0, STACK
        FUNCALL migWORK, TimerSet
        LOCFRAME CSTACK, 0, STACK
        LOCFRAME RSTACK, 2, STACK
        ARGFRAME RSTACK, 0, STACK
        FUNCALL migWORK, TimerSet
        LOCFRAME CSTACK, 0, STACK
        LOCFRAME RSTACK, 2, STACK
        ARGFRAME RSTACK, 0, STACK
        LDI     R16, LOW(tm2)
        LDI     R17, (tm2) >> 8
        RCALL   TimerTick
//  131   if (tm2.out==1 && port!=255)  {
        LDS     R16, (tm2 + 6)
        TST     R16
        BREQ    ??CrossCallReturnLabel_279
        LDS     R16, ??port
        CPI     R16, 255
        BREQ    ??CrossCallReturnLabel_279
//  132        if (sost!=1)  {sost=1; TimerSet(&tm2,200); SET(PORTB,port); razct++;}
        LDS     R16, ??sost
        TST     R16
        BRNE    ??migWORK_0
        LDI     R16, 1
        RCALL   ?Subroutine45
??CrossCallReturnLabel_51:
        RCALL   ?Subroutine7
??CrossCallReturnLabel_277:
        LDI     R30, LOW(??razct)
        LDI     R31, (??razct) >> 8
        RCALL   ?Subroutine92
??CrossCallReturnLabel_309:
        RJMP    ??CrossCallReturnLabel_279
//  133   else if (sost!=0)  {sost=0; TimerSet(&tm2,200); RES(PORTB,port);}
??migWORK_0:
        LDI     R16, 0
        RCALL   ?Subroutine45
//  134                               }
??CrossCallReturnLabel_52:
        RCALL   ?Subroutine83
//  135   if (razct>=raz) {  tm2.out=1; port=255;}
??CrossCallReturnLabel_279:
        LDS     R16, ??razct
        LDS     R17, ??raz
        CP      R16, R17
        BRCS    ??migWORK_1
        LDI     R16, 1
        STS     (tm2 + 6), R16
        LDI     R16, 255
        STS     ??port, R16
//  136 }
??migWORK_1:
        RET
          CFI EndBlock cfiBlock675
        REQUIRE _A_PORTB

        RSEG CODE:CODE:NOROOT(1)
?Subroutine45:
          CFI Block cfiCond676 Using cfiCommon0
          CFI Function migWORK
          CFI Conditional ??CrossCallReturnLabel_51
          CFI CFA_SP SP+4
          CFI Block cfiCond677 Using cfiCommon0
          CFI (cfiCond677) Function migWORK
          CFI (cfiCond677) Conditional ??CrossCallReturnLabel_52
          CFI (cfiCond677) CFA_SP SP+4
          CFI Block cfiPicker678 Using cfiCommon2
          CFI (cfiPicker678) NoFunction
          CFI (cfiPicker678) Picker
        STS     ??sost, R16
        LDI     R18, 200
        RCALL   ?Subroutine96
??CrossCallReturnLabel_188:
        LDS     R20, ??port
        RET
          CFI EndBlock cfiCond676
          CFI EndBlock cfiCond677
          CFI EndBlock cfiPicker678

        RSEG CODE:CODE:NOROOT(1)
?Subroutine96:
          CFI Block cfiCond679 Using cfiCommon0
          CFI Function migINI
          CFI Conditional ??CrossCallReturnLabel_189
          CFI CFA_SP SP+4
          CFI Block cfiCond680 Using cfiCommon0
          CFI (cfiCond680) Function migWORK
          CFI (cfiCond680) Conditional ??CrossCallReturnLabel_188, ??CrossCallReturnLabel_51
          CFI (cfiCond680) CFA_SP SP+6
          CFI Block cfiCond681 Using cfiCommon0
          CFI (cfiCond681) Function migWORK
          CFI (cfiCond681) Conditional ??CrossCallReturnLabel_188, ??CrossCallReturnLabel_52
          CFI (cfiCond681) CFA_SP SP+6
          CFI Block cfiPicker682 Using cfiCommon2
          CFI (cfiPicker682) NoFunction
          CFI (cfiPicker682) Picker
        LDI     R19, 0
        LDI     R16, LOW(tm2)
        LDI     R17, (tm2) >> 8
        RJMP    TimerSet
          CFI EndBlock cfiCond679
          CFI EndBlock cfiCond680
          CFI EndBlock cfiCond681
          CFI EndBlock cfiPicker682

        RSEG CODE:CODE:NOROOT(1)
?Subroutine7:
          CFI Block cfiCond683 Using cfiCommon0
          CFI Function migINI
          CFI Conditional ??CrossCallReturnLabel_276
          CFI CFA_SP SP+4
          CFI Block cfiCond684 Using cfiCommon0
          CFI (cfiCond684) Function migWORK
          CFI (cfiCond684) Conditional ??CrossCallReturnLabel_277
          CFI (cfiCond684) CFA_SP SP+4
          CFI Block cfiPicker685 Using cfiCommon2
          CFI (cfiPicker685) NoFunction
          CFI (cfiPicker685) Picker
        RCALL   ?Subroutine110
??CrossCallReturnLabel_234:
        IN      R17, 0x18
        OR      R17, R16
          CFI EndBlock cfiCond683
          CFI EndBlock cfiCond684
          CFI EndBlock cfiPicker685
        REQUIRE ?Subroutine120
        ;               // Fall through to label ?Subroutine120

        RSEG CODE:CODE:NOROOT(1)
?Subroutine120:
          CFI Block cfiCond686 Using cfiCommon0
          CFI Function migINI
          CFI Conditional ??CrossCallReturnLabel_276
          CFI CFA_SP SP+4
          CFI Block cfiCond687 Using cfiCommon0
          CFI (cfiCond687) Function migWORK
          CFI (cfiCond687) Conditional ??CrossCallReturnLabel_277
          CFI (cfiCond687) CFA_SP SP+4
          CFI Block cfiCond688 Using cfiCommon0
          CFI (cfiCond688) Function main_logic
          CFI (cfiCond688) Conditional ??CrossCallReturnLabel_280, ??CrossCallReturnLabel_243
          CFI (cfiCond688) CFA_SP SP+6
          CFI Block cfiCond689 Using cfiCommon0
          CFI (cfiCond689) Function main_logic
          CFI (cfiCond689) Conditional ??CrossCallReturnLabel_280, ??CrossCallReturnLabel_244
          CFI (cfiCond689) CFA_SP SP+6
          CFI Block cfiCond690 Using cfiCommon0
          CFI (cfiCond690) Function main_logic
          CFI (cfiCond690) Conditional ??CrossCallReturnLabel_278
          CFI (cfiCond690) CFA_SP SP+4
          CFI Block cfiCond691 Using cfiCommon0
          CFI (cfiCond691) Function migWORK
          CFI (cfiCond691) Conditional ??CrossCallReturnLabel_279
          CFI (cfiCond691) CFA_SP SP+4
          CFI Block cfiPicker692 Using cfiCommon2
          CFI (cfiPicker692) NoFunction
          CFI (cfiPicker692) Picker
        OUT     0x18, R17
        RET
          CFI EndBlock cfiCond686
          CFI EndBlock cfiCond687
          CFI EndBlock cfiCond688
          CFI EndBlock cfiCond689
          CFI EndBlock cfiCond690
          CFI EndBlock cfiCond691
          CFI EndBlock cfiPicker692

        RSEG CODE:CODE:NOROOT(1)
?Subroutine83:
          CFI Block cfiCond693 Using cfiCommon0
          CFI Function main_logic
          CFI Conditional ??CrossCallReturnLabel_280, ??CrossCallReturnLabel_243
          CFI CFA_SP SP+6
          CFI Block cfiCond694 Using cfiCommon0
          CFI (cfiCond694) Function main_logic
          CFI (cfiCond694) Conditional ??CrossCallReturnLabel_280, ??CrossCallReturnLabel_244
          CFI (cfiCond694) CFA_SP SP+6
          CFI Block cfiCond695 Using cfiCommon0
          CFI (cfiCond695) Function main_logic
          CFI (cfiCond695) Conditional ??CrossCallReturnLabel_278
          CFI (cfiCond695) CFA_SP SP+4
          CFI Block cfiCond696 Using cfiCommon0
          CFI (cfiCond696) Function migWORK
          CFI (cfiCond696) Conditional ??CrossCallReturnLabel_279
          CFI (cfiCond696) CFA_SP SP+4
          CFI Block cfiPicker697 Using cfiCommon2
          CFI (cfiPicker697) NoFunction
          CFI (cfiPicker697) Picker
        RCALL   ?Subroutine110
??CrossCallReturnLabel_235:
        COM     R16
        IN      R17, 0x18
        AND     R17, R16
        RJMP    ?Subroutine120
          CFI EndBlock cfiCond693
          CFI EndBlock cfiCond694
          CFI EndBlock cfiCond695
          CFI EndBlock cfiCond696
          CFI EndBlock cfiPicker697

        RSEG NEAR_Z:DATA:NOROOT(0)
        REQUIRE `?<Segment init: NEAR_Z>`
??sost:
        DS8 1
//  137 //uchar migSEL(void){ return(port);} //возвращает текущий мигающий порт
//  138 //**************************************************************
//  139 //**************************************************************
// F:\Dulov\remoteamp\usart.c
//    1 #include "usart.h"
//    2 //#include <math.h>
//    3 //#include <intrinsics.h>
//    4 
//    5 #include "init.h"
//    6 
//    7 //однобайтный буфер

        RSEG NEAR_Z:DATA:NOROOT(0)
        REQUIRE `?<Segment init: NEAR_Z>`
//    8 volatile unsigned char usartRxBuf = 0;
usartRxBuf:
        DS8 1

        RSEG NEAR_Z:DATA:NOROOT(0)
        REQUIRE `?<Segment init: NEAR_Z>`
//    9 volatile static bool usarton;
??usarton:
        DS8 1
//   10 
//   11 //инициализация usart`a

        RSEG CODE:CODE:NOROOT(1)
//   12 void USART_Init()
USART_Init:
          CFI Block cfiBlock698 Using cfiCommon0
          CFI Function USART_Init
//   13 {
//   14   UBRRH = 0;
        LDI     R16, 0
        OUT     0x20, R16
//   15   UBRRL = ((F_CPU/9600UL)-1)/16;//    26;//78; //скорость обмена 9600 бод
        LDI     R16, 25
        OUT     0x09, R16
//   16   UCSRB = (1<<RXCIE)|(1<<RXEN)|(1<<TXEN); //разр. прерыв при приеме, разр приема, разр передачи.
        LDI     R16, 152
        OUT     0x0A, R16
//   17   UCSRC = (1<<URSEL)|(1<<UCSZ1)|(1<<UCSZ0); //размер слова 8 разрядов
        LDI     R16, 134
        OUT     0x20, R16
//   18 }
        RET
          CFI EndBlock cfiBlock698
        REQUIRE _A_UBRRH
        REQUIRE _A_UBRRL
        REQUIRE _A_UCSRB
//   19 
//   20 //отправка символа по usart`у

        RSEG CODE:CODE:NOROOT(1)
//   21 void USART_SendChar(unsigned char sym)
USART_SendChar:
          CFI Block cfiBlock699 Using cfiCommon0
          CFI Function USART_SendChar
//   22 {
//   23   if (!usarton) return;
        LDS     R17, ??usarton
        TST     R17
        BREQ    ??USART_SendChar_0
//   24   while(!(UCSRA & (1<<UDRE)));
??USART_SendChar_1:
        SBIS    0x0B, 0x05
        RJMP    ??USART_SendChar_1
//   25   UDR = sym;
        OUT     0x0C, R16
//   26 }
??USART_SendChar_0:
        RET
          CFI EndBlock cfiBlock699
        REQUIRE _A_UCSRA
        REQUIRE _A_UDR
//   27 
//   28 //чтение буфера

        RSEG CODE:CODE:NOROOT(1)
//   29 __monitor unsigned char USART_GetChar(void)
USART_GetChar:
          CFI Block cfiBlock700 Using cfiCommon0
          CFI Function USART_GetChar
//   30 {
        IN      R18, 0x3F
        CLI
//   31   unsigned char tmp = usartRxBuf;
        LDS     R16, usartRxBuf
//   32   usartRxBuf = 0;
        LDI     R17, 0
        STS     usartRxBuf, R17
//   33   return tmp;  
        OUT     0x3F, R18
        RET
          CFI EndBlock cfiBlock700
//   34 }
//   35 
//   36 //прием символа по usart`у в буфер
//   37 #pragma vector=USART_RXC_vect

        RSEG CODE:CODE:NOROOT(1)
//   38 __interrupt void usart_rxc_my(void) 
usart_rxc_my:
          CFI Block cfiBlock701 Using cfiCommon1
          CFI Function usart_rxc_my
//   39 {
        ST      -Y, R16
          CFI R16 Frame(CFA_Y, -1)
          CFI CFA_Y Y+1
//   40   usartRxBuf = UDR; 
        IN      R16, 0x0C
        STS     usartRxBuf, R16
//   41 } 
        RJMP    ?Subroutine121
          CFI EndBlock cfiBlock701
        REQUIRE _A_UDR
//   42 
//   43 // *** rprintfStr ***
//   44 // prints a null-terminated string stored in RAM

        RSEG CODE:CODE:NOROOT(1)
//   45 void rprintfStr(char str[])
rprintfStr:
          CFI Block cfiBlock702 Using cfiCommon0
          CFI Function rprintfStr
//   46 {        
        FUNCALL rprintfStr, USART_SendChar
        LOCFRAME CSTACK, 4, STACK
        LOCFRAME RSTACK, 2, STACK
        ARGFRAME RSTACK, 0, STACK
        RCALL   ?PROLOGUE4_L09
          CFI R27 Frame(CFA_Y, -1)
          CFI R26 Frame(CFA_Y, -2)
          CFI R25 Frame(CFA_Y, -3)
          CFI R24 Frame(CFA_Y, -4)
          CFI CFA_Y Y+4
        MOVW    R27:R26, R17:R16
//   47     if (!usarton) return;
        LDS     R16, ??usarton
        TST     R16
        BREQ    ??rprintfStr_0
//   48 	// send a string stored in RAM
//   49 	// check to make sure we have a good pointer
//   50 	if (!str) return;
        MOV     R16, R26
        OR      R16, R17
        BRNE    ??rprintfStr_1
        RJMP    ??rprintfStr_0
//   51 
//   52 	// print the string until a null-terminator
//   53 	while (*str)
//   54 		USART_SendChar(*str++);
??rprintfStr_2:
        RCALL   USART_SendChar
??rprintfStr_1:
        LD      R16, X+
        TST     R16
        BRNE    ??rprintfStr_2
//   55 }
??rprintfStr_0:
        LDI     R30, 4
        RJMP    ?EPILOGUE_B4_L09
          CFI EndBlock cfiBlock702
//   56 
//   57 // *** rprintfFloat ***Pascal Stang - Copyright (C) 2000-2002
//   58 // floating-point print

        RSEG CODE:CODE:NOROOT(1)
//   59 void rprintfFloat(char numDigits, double x)
rprintfFloat:
          CFI Block cfiBlock703 Using cfiCommon0
          CFI Function rprintfFloat
//   60 {
        FUNCALL rprintfFloat, USART_SendChar
        LOCFRAME CSTACK, 12, STACK
        LOCFRAME RSTACK, 2, STACK
        ARGFRAME RSTACK, 0, STACK
        FUNCALL rprintfFloat, USART_SendChar
        LOCFRAME CSTACK, 12, STACK
        LOCFRAME RSTACK, 2, STACK
        ARGFRAME RSTACK, 0, STACK
        FUNCALL rprintfFloat, USART_SendChar
        LOCFRAME CSTACK, 12, STACK
        LOCFRAME RSTACK, 2, STACK
        ARGFRAME RSTACK, 0, STACK
        FUNCALL rprintfFloat, USART_SendChar
        LOCFRAME CSTACK, 12, STACK
        LOCFRAME RSTACK, 2, STACK
        ARGFRAME RSTACK, 0, STACK
        FUNCALL rprintfFloat, USART_SendChar
        LOCFRAME CSTACK, 12, STACK
        LOCFRAME RSTACK, 2, STACK
        ARGFRAME RSTACK, 0, STACK
        RCALL   ?PROLOGUE12_L09
          CFI R11 Frame(CFA_Y, -1)
          CFI R10 Frame(CFA_Y, -2)
          CFI R9 Frame(CFA_Y, -3)
          CFI R8 Frame(CFA_Y, -4)
          CFI R7 Frame(CFA_Y, -5)
          CFI R6 Frame(CFA_Y, -6)
          CFI R5 Frame(CFA_Y, -7)
          CFI R4 Frame(CFA_Y, -8)
          CFI R27 Frame(CFA_Y, -9)
          CFI R26 Frame(CFA_Y, -10)
          CFI R25 Frame(CFA_Y, -11)
          CFI R24 Frame(CFA_Y, -12)
          CFI CFA_Y Y+12
        REQUIRE ?Register_R4_is_cg_reg
        REQUIRE ?Register_R5_is_cg_reg
        REQUIRE ?Register_R6_is_cg_reg
        REQUIRE ?Register_R7_is_cg_reg
        REQUIRE ?Register_R8_is_cg_reg
        REQUIRE ?Register_R9_is_cg_reg
        REQUIRE ?Register_R10_is_cg_reg
        REQUIRE ?Register_R11_is_cg_reg
        MOV     R11, R16
        MOVW    R5:R4, R21:R20
        MOVW    R7:R6, R23:R22
//   61     if (!usarton) return;
        LDS     R16, ??usarton
        TST     R16
        BRNE    $+2+2
        RJMP    ??rprintfFloat_0
//   62 	unsigned char firstplace = 0;
        CLR     R10
//   63 	unsigned char negative;
//   64 	unsigned char i, digit;
//   65 	double place = 1.0;
        LDI     R24, 0
        LDI     R25, 0
        LDI     R26, 128
        LDI     R27, 63
//   66 	
//   67 	// save sign
//   68 	negative = (x<0);
        RCALL   ?Subroutine54
??CrossCallReturnLabel_77:
        RCALL   ?Subroutine98
??CrossCallReturnLabel_194:
        RCALL   ?F_CMP_LT_L04
        CLR     R8
        BRCC    ??rprintfFloat_1
        INC     R8
//   69 	// convert to absolute value
//   70 	x = (x>0)?(x):(-x);
??rprintfFloat_1:
        LDI     R20, 1
        RCALL   ?F_CMP_GE_L04
        BRCS    ??rprintfFloat_2
        EOR     R7, R26
//   71 	
//   72 	// find starting digit place
//   73 	for(i=0; i<15; i++)
??rprintfFloat_2:
        LDI     R16, 15
        MOV     R9, R16
//   74 	{
//   75 		if((x/place) < 10.0)
??rprintfFloat_3:
        RCALL   ?Subroutine50
??CrossCallReturnLabel_65:
        RCALL   ?Subroutine55
??CrossCallReturnLabel_78:
        RCALL   ?F_CMP_LT_L04
        BRCS    ??rprintfFloat_4
//   76 			break;
//   77 		else
//   78 			place *= 10.0;
        MOVW    R17:R16, R25:R24
        MOVW    R19:R18, R27:R26
        RCALL   ?F_MUL_L04
        MOVW    R25:R24, R17:R16
        MOVW    R27:R26, R19:R18
//   79 	}
        DEC     R9
        BRNE    ??rprintfFloat_3
//   80 	// print polarity character
//   81 	if(negative)
??rprintfFloat_4:
        BST     R8, 0
        BRTC    ??rprintfFloat_5
//   82 		USART_SendChar('-');
        LDI     R16, 45
        RJMP    ??rprintfFloat_6
//   83 	else
//   84 		USART_SendChar('+');
??rprintfFloat_5:
        LDI     R16, 43
??rprintfFloat_6:
        RCALL   USART_SendChar
//   85 
//   86 	// print digits
//   87 	for(i=0; i<numDigits; i++)
        CLR     R9
        RJMP    ??rprintfFloat_7
//   88 	{
//   89 		digit = (unsigned char)(x/place);
//   90 
//   91 		if(digit | firstplace | (place == 1.0))
//   92 		{
//   93 			firstplace = 1;
//   94 			USART_SendChar(digit+0x30);
//   95 		}
//   96 		else
//   97 			USART_SendChar(' ');
??rprintfFloat_8:
        LDI     R16, 32
??rprintfFloat_9:
        RCALL   USART_SendChar
//   98 		
//   99 		if(place == 1.0)
        RCALL   ?Subroutine48
??CrossCallReturnLabel_60:
        BRNE    ??rprintfFloat_10
//  100 		{
//  101 			USART_SendChar('.');
        LDI     R16, 46
        RCALL   USART_SendChar
//  102 		}
//  103 		
//  104 		x -= (digit*place);
??rprintfFloat_10:
        MOV     R16, R8
        RCALL   ?Subroutine21
??CrossCallReturnLabel_191:
        MOVW    R21:R20, R25:R24
        MOVW    R23:R22, R27:R26
        RCALL   ?F_MUL_L04
        RCALL   ?Subroutine113
??CrossCallReturnLabel_291:
        RCALL   ?Subroutine98
??CrossCallReturnLabel_195:
        RCALL   ?F_SUB_L04
        MOVW    R5:R4, R17:R16
        MOVW    R7:R6, R19:R18
//  105 		place /= 10.0;
        RCALL   ?Subroutine55
??CrossCallReturnLabel_79:
        MOVW    R17:R16, R25:R24
        MOVW    R19:R18, R27:R26
        RCALL   ?F_DIV_L04
        MOVW    R25:R24, R17:R16
        MOVW    R27:R26, R19:R18
        INC     R9
??rprintfFloat_7:
        CP      R9, R11
        BRCC    ??rprintfFloat_0
        RCALL   ?Subroutine50
??CrossCallReturnLabel_66:
        RCALL   ?F2SL_L04
        MOV     R8, R16
        RCALL   ?Subroutine48
??CrossCallReturnLabel_61:
        BRNE    ??rprintfFloat_11
        LDI     R16, 1
        RJMP    ??rprintfFloat_12
??rprintfFloat_11:
        LDI     R16, 0
??rprintfFloat_12:
        MOV     R17, R8
        OR      R17, R10
        OR      R17, R16
        BREQ    ??rprintfFloat_8
        CLR     R10
        INC     R10
        MOV     R16, R8
        SUBI    R16, 208
        RJMP    ??rprintfFloat_9
//  106 	}
//  107 }
??rprintfFloat_0:
        LDI     R30, 12
        RJMP    ?EPILOGUE_B12_L09
          CFI EndBlock cfiBlock703

        RSEG CODE:CODE:NOROOT(1)
?Subroutine55:
          CFI Block cfiCond704 Using cfiCommon0
          CFI Function rprintfFloat
          CFI Conditional ??CrossCallReturnLabel_78
          CFI R24 Frame(CFA_Y, -12)
          CFI R25 Frame(CFA_Y, -11)
          CFI R26 Frame(CFA_Y, -10)
          CFI R27 Frame(CFA_Y, -9)
          CFI R4 Frame(CFA_Y, -8)
          CFI R5 Frame(CFA_Y, -7)
          CFI R6 Frame(CFA_Y, -6)
          CFI R7 Frame(CFA_Y, -5)
          CFI R8 Frame(CFA_Y, -4)
          CFI R9 Frame(CFA_Y, -3)
          CFI R10 Frame(CFA_Y, -2)
          CFI R11 Frame(CFA_Y, -1)
          CFI CFA_SP SP+4
          CFI CFA_Y Y+12
          CFI Block cfiCond705 Using cfiCommon0
          CFI (cfiCond705) Function rprintfFloat
          CFI (cfiCond705) Conditional ??CrossCallReturnLabel_79
          CFI (cfiCond705) R24 Frame(CFA_Y, -12)
          CFI (cfiCond705) R25 Frame(CFA_Y, -11)
          CFI (cfiCond705) R26 Frame(CFA_Y, -10)
          CFI (cfiCond705) R27 Frame(CFA_Y, -9)
          CFI (cfiCond705) R4 Frame(CFA_Y, -8)
          CFI (cfiCond705) R5 Frame(CFA_Y, -7)
          CFI (cfiCond705) R6 Frame(CFA_Y, -6)
          CFI (cfiCond705) R7 Frame(CFA_Y, -5)
          CFI (cfiCond705) R8 Frame(CFA_Y, -4)
          CFI (cfiCond705) R9 Frame(CFA_Y, -3)
          CFI (cfiCond705) R10 Frame(CFA_Y, -2)
          CFI (cfiCond705) R11 Frame(CFA_Y, -1)
          CFI (cfiCond705) CFA_SP SP+4
          CFI (cfiCond705) CFA_Y Y+12
          CFI Block cfiPicker706 Using cfiCommon2
          CFI (cfiPicker706) NoFunction
          CFI (cfiPicker706) Picker
        RCALL   ?Subroutine101
??CrossCallReturnLabel_207:
        LDI     R22, 32
        LDI     R23, 65
        RET
          CFI EndBlock cfiCond704
          CFI EndBlock cfiCond705
          CFI EndBlock cfiPicker706

        RSEG CODE:CODE:NOROOT(1)
?Subroutine54:
          CFI Block cfiCond707 Using cfiCommon0
          CFI Function PEREP
          CFI Conditional ??CrossCallReturnLabel_76
          CFI R24 Frame(CFA_Y, -8)
          CFI R25 Frame(CFA_Y, -7)
          CFI R26 Frame(CFA_Y, -6)
          CFI R27 Frame(CFA_Y, -5)
          CFI R4 Frame(CFA_Y, -4)
          CFI R5 Frame(CFA_Y, -3)
          CFI R6 Frame(CFA_Y, -2)
          CFI R7 Frame(CFA_Y, -1)
          CFI CFA_SP SP+4
          CFI CFA_Y Y+8
          CFI Block cfiCond708 Using cfiCommon0
          CFI (cfiCond708) Function rprintfFloat
          CFI (cfiCond708) Conditional ??CrossCallReturnLabel_77
          CFI (cfiCond708) R24 Frame(CFA_Y, -12)
          CFI (cfiCond708) R25 Frame(CFA_Y, -11)
          CFI (cfiCond708) R26 Frame(CFA_Y, -10)
          CFI (cfiCond708) R27 Frame(CFA_Y, -9)
          CFI (cfiCond708) R4 Frame(CFA_Y, -8)
          CFI (cfiCond708) R5 Frame(CFA_Y, -7)
          CFI (cfiCond708) R6 Frame(CFA_Y, -6)
          CFI (cfiCond708) R7 Frame(CFA_Y, -5)
          CFI (cfiCond708) R8 Frame(CFA_Y, -4)
          CFI (cfiCond708) R9 Frame(CFA_Y, -3)
          CFI (cfiCond708) R10 Frame(CFA_Y, -2)
          CFI (cfiCond708) R11 Frame(CFA_Y, -1)
          CFI (cfiCond708) CFA_SP SP+4
          CFI (cfiCond708) CFA_Y Y+12
          CFI Block cfiPicker709 Using cfiCommon2
          CFI (cfiPicker709) NoFunction
          CFI (cfiPicker709) Picker
        RCALL   ?Subroutine101
??CrossCallReturnLabel_206:
        LDI     R22, 0
        LDI     R23, 0
        RET
          CFI EndBlock cfiCond707
          CFI EndBlock cfiCond708
          CFI EndBlock cfiPicker709

        RSEG CODE:CODE:NOROOT(1)
?Subroutine101:
          CFI Block cfiCond710 Using cfiCommon0
          CFI Function coding
          CFI Conditional ??CrossCallReturnLabel_204, ??CrossCallReturnLabel_2
          CFI R24 Frame(CFA_Y, -10)
          CFI R25 Frame(CFA_Y, -9)
          CFI R26 Frame(CFA_Y, -8)
          CFI R27 Frame(CFA_Y, -7)
          CFI R4 Frame(CFA_Y, -6)
          CFI R5 Frame(CFA_Y, -5)
          CFI R6 Frame(CFA_Y, -4)
          CFI R7 Frame(CFA_Y, -3)
          CFI R8 Frame(CFA_Y, -2)
          CFI R9 Frame(CFA_Y, -1)
          CFI CFA_SP SP+6
          CFI CFA_Y Y+10
          CFI Block cfiCond711 Using cfiCommon0
          CFI (cfiCond711) Function coding
          CFI (cfiCond711) Conditional ??CrossCallReturnLabel_204, ??CrossCallReturnLabel_3
          CFI (cfiCond711) R24 Frame(CFA_Y, -10)
          CFI (cfiCond711) R25 Frame(CFA_Y, -9)
          CFI (cfiCond711) R26 Frame(CFA_Y, -8)
          CFI (cfiCond711) R27 Frame(CFA_Y, -7)
          CFI (cfiCond711) R4 Frame(CFA_Y, -6)
          CFI (cfiCond711) R5 Frame(CFA_Y, -5)
          CFI (cfiCond711) R6 Frame(CFA_Y, -4)
          CFI (cfiCond711) R7 Frame(CFA_Y, -3)
          CFI (cfiCond711) R8 Frame(CFA_Y, -2)
          CFI (cfiCond711) R9 Frame(CFA_Y, -1)
          CFI (cfiCond711) CFA_SP SP+6
          CFI (cfiCond711) CFA_Y Y+10
          CFI Block cfiCond712 Using cfiCommon0
          CFI (cfiCond712) Function coding
          CFI (cfiCond712) Conditional ??CrossCallReturnLabel_204, ??CrossCallReturnLabel_4
          CFI (cfiCond712) R24 Frame(CFA_Y, -10)
          CFI (cfiCond712) R25 Frame(CFA_Y, -9)
          CFI (cfiCond712) R26 Frame(CFA_Y, -8)
          CFI (cfiCond712) R27 Frame(CFA_Y, -7)
          CFI (cfiCond712) R4 Frame(CFA_Y, -6)
          CFI (cfiCond712) R5 Frame(CFA_Y, -5)
          CFI (cfiCond712) R6 Frame(CFA_Y, -4)
          CFI (cfiCond712) R7 Frame(CFA_Y, -3)
          CFI (cfiCond712) R8 Frame(CFA_Y, -2)
          CFI (cfiCond712) R9 Frame(CFA_Y, -1)
          CFI (cfiCond712) CFA_SP SP+6
          CFI (cfiCond712) CFA_Y Y+10
          CFI Block cfiCond713 Using cfiCommon0
          CFI (cfiCond713) Function rprintfFloat
          CFI (cfiCond713) Conditional ??CrossCallReturnLabel_207, ??CrossCallReturnLabel_78
          CFI (cfiCond713) R24 Frame(CFA_Y, -12)
          CFI (cfiCond713) R25 Frame(CFA_Y, -11)
          CFI (cfiCond713) R26 Frame(CFA_Y, -10)
          CFI (cfiCond713) R27 Frame(CFA_Y, -9)
          CFI (cfiCond713) R4 Frame(CFA_Y, -8)
          CFI (cfiCond713) R5 Frame(CFA_Y, -7)
          CFI (cfiCond713) R6 Frame(CFA_Y, -6)
          CFI (cfiCond713) R7 Frame(CFA_Y, -5)
          CFI (cfiCond713) R8 Frame(CFA_Y, -4)
          CFI (cfiCond713) R9 Frame(CFA_Y, -3)
          CFI (cfiCond713) R10 Frame(CFA_Y, -2)
          CFI (cfiCond713) R11 Frame(CFA_Y, -1)
          CFI (cfiCond713) CFA_SP SP+6
          CFI (cfiCond713) CFA_Y Y+12
          CFI Block cfiCond714 Using cfiCommon0
          CFI (cfiCond714) Function rprintfFloat
          CFI (cfiCond714) Conditional ??CrossCallReturnLabel_207, ??CrossCallReturnLabel_79
          CFI (cfiCond714) R24 Frame(CFA_Y, -12)
          CFI (cfiCond714) R25 Frame(CFA_Y, -11)
          CFI (cfiCond714) R26 Frame(CFA_Y, -10)
          CFI (cfiCond714) R27 Frame(CFA_Y, -9)
          CFI (cfiCond714) R4 Frame(CFA_Y, -8)
          CFI (cfiCond714) R5 Frame(CFA_Y, -7)
          CFI (cfiCond714) R6 Frame(CFA_Y, -6)
          CFI (cfiCond714) R7 Frame(CFA_Y, -5)
          CFI (cfiCond714) R8 Frame(CFA_Y, -4)
          CFI (cfiCond714) R9 Frame(CFA_Y, -3)
          CFI (cfiCond714) R10 Frame(CFA_Y, -2)
          CFI (cfiCond714) R11 Frame(CFA_Y, -1)
          CFI (cfiCond714) CFA_SP SP+6
          CFI (cfiCond714) CFA_Y Y+12
          CFI Block cfiCond715 Using cfiCommon0
          CFI (cfiCond715) Function PEREP
          CFI (cfiCond715) Conditional ??CrossCallReturnLabel_206, ??CrossCallReturnLabel_76
          CFI (cfiCond715) R24 Frame(CFA_Y, -8)
          CFI (cfiCond715) R25 Frame(CFA_Y, -7)
          CFI (cfiCond715) R26 Frame(CFA_Y, -6)
          CFI (cfiCond715) R27 Frame(CFA_Y, -5)
          CFI (cfiCond715) R4 Frame(CFA_Y, -4)
          CFI (cfiCond715) R5 Frame(CFA_Y, -3)
          CFI (cfiCond715) R6 Frame(CFA_Y, -2)
          CFI (cfiCond715) R7 Frame(CFA_Y, -1)
          CFI (cfiCond715) CFA_SP SP+6
          CFI (cfiCond715) CFA_Y Y+8
          CFI Block cfiCond716 Using cfiCommon0
          CFI (cfiCond716) Function rprintfFloat
          CFI (cfiCond716) Conditional ??CrossCallReturnLabel_206, ??CrossCallReturnLabel_77
          CFI (cfiCond716) R24 Frame(CFA_Y, -12)
          CFI (cfiCond716) R25 Frame(CFA_Y, -11)
          CFI (cfiCond716) R26 Frame(CFA_Y, -10)
          CFI (cfiCond716) R27 Frame(CFA_Y, -9)
          CFI (cfiCond716) R4 Frame(CFA_Y, -8)
          CFI (cfiCond716) R5 Frame(CFA_Y, -7)
          CFI (cfiCond716) R6 Frame(CFA_Y, -6)
          CFI (cfiCond716) R7 Frame(CFA_Y, -5)
          CFI (cfiCond716) R8 Frame(CFA_Y, -4)
          CFI (cfiCond716) R9 Frame(CFA_Y, -3)
          CFI (cfiCond716) R10 Frame(CFA_Y, -2)
          CFI (cfiCond716) R11 Frame(CFA_Y, -1)
          CFI (cfiCond716) CFA_SP SP+6
          CFI (cfiCond716) CFA_Y Y+12
          CFI Block cfiCond717 Using cfiCommon0
          CFI (cfiCond717) Function rprintfFloat
          CFI (cfiCond717) Conditional ??CrossCallReturnLabel_205, ??CrossCallReturnLabel_60
          CFI (cfiCond717) R24 Frame(CFA_Y, -12)
          CFI (cfiCond717) R25 Frame(CFA_Y, -11)
          CFI (cfiCond717) R26 Frame(CFA_Y, -10)
          CFI (cfiCond717) R27 Frame(CFA_Y, -9)
          CFI (cfiCond717) R4 Frame(CFA_Y, -8)
          CFI (cfiCond717) R5 Frame(CFA_Y, -7)
          CFI (cfiCond717) R6 Frame(CFA_Y, -6)
          CFI (cfiCond717) R7 Frame(CFA_Y, -5)
          CFI (cfiCond717) R8 Frame(CFA_Y, -4)
          CFI (cfiCond717) R9 Frame(CFA_Y, -3)
          CFI (cfiCond717) R10 Frame(CFA_Y, -2)
          CFI (cfiCond717) R11 Frame(CFA_Y, -1)
          CFI (cfiCond717) CFA_SP SP+6
          CFI (cfiCond717) CFA_Y Y+12
          CFI Block cfiCond718 Using cfiCommon0
          CFI (cfiCond718) Function rprintfFloat
          CFI (cfiCond718) Conditional ??CrossCallReturnLabel_205, ??CrossCallReturnLabel_61
          CFI (cfiCond718) R24 Frame(CFA_Y, -12)
          CFI (cfiCond718) R25 Frame(CFA_Y, -11)
          CFI (cfiCond718) R26 Frame(CFA_Y, -10)
          CFI (cfiCond718) R27 Frame(CFA_Y, -9)
          CFI (cfiCond718) R4 Frame(CFA_Y, -8)
          CFI (cfiCond718) R5 Frame(CFA_Y, -7)
          CFI (cfiCond718) R6 Frame(CFA_Y, -6)
          CFI (cfiCond718) R7 Frame(CFA_Y, -5)
          CFI (cfiCond718) R8 Frame(CFA_Y, -4)
          CFI (cfiCond718) R9 Frame(CFA_Y, -3)
          CFI (cfiCond718) R10 Frame(CFA_Y, -2)
          CFI (cfiCond718) R11 Frame(CFA_Y, -1)
          CFI (cfiCond718) CFA_SP SP+6
          CFI (cfiCond718) CFA_Y Y+12
          CFI Block cfiPicker719 Using cfiCommon2
          CFI (cfiPicker719) NoFunction
          CFI (cfiPicker719) Picker
        LDI     R20, 0
        LDI     R21, 0
        RET
          CFI EndBlock cfiCond710
          CFI EndBlock cfiCond711
          CFI EndBlock cfiCond712
          CFI EndBlock cfiCond713
          CFI EndBlock cfiCond714
          CFI EndBlock cfiCond715
          CFI EndBlock cfiCond716
          CFI EndBlock cfiCond717
          CFI EndBlock cfiCond718
          CFI EndBlock cfiPicker719

        RSEG CODE:CODE:NOROOT(1)
?Subroutine50:
          CFI Block cfiCond720 Using cfiCommon0
          CFI Function rprintfFloat
          CFI Conditional ??CrossCallReturnLabel_65
          CFI R24 Frame(CFA_Y, -12)
          CFI R25 Frame(CFA_Y, -11)
          CFI R26 Frame(CFA_Y, -10)
          CFI R27 Frame(CFA_Y, -9)
          CFI R4 Frame(CFA_Y, -8)
          CFI R5 Frame(CFA_Y, -7)
          CFI R6 Frame(CFA_Y, -6)
          CFI R7 Frame(CFA_Y, -5)
          CFI R8 Frame(CFA_Y, -4)
          CFI R9 Frame(CFA_Y, -3)
          CFI R10 Frame(CFA_Y, -2)
          CFI R11 Frame(CFA_Y, -1)
          CFI CFA_SP SP+4
          CFI CFA_Y Y+12
          CFI Block cfiCond721 Using cfiCommon0
          CFI (cfiCond721) Function rprintfFloat
          CFI (cfiCond721) Conditional ??CrossCallReturnLabel_66
          CFI (cfiCond721) R24 Frame(CFA_Y, -12)
          CFI (cfiCond721) R25 Frame(CFA_Y, -11)
          CFI (cfiCond721) R26 Frame(CFA_Y, -10)
          CFI (cfiCond721) R27 Frame(CFA_Y, -9)
          CFI (cfiCond721) R4 Frame(CFA_Y, -8)
          CFI (cfiCond721) R5 Frame(CFA_Y, -7)
          CFI (cfiCond721) R6 Frame(CFA_Y, -6)
          CFI (cfiCond721) R7 Frame(CFA_Y, -5)
          CFI (cfiCond721) R8 Frame(CFA_Y, -4)
          CFI (cfiCond721) R9 Frame(CFA_Y, -3)
          CFI (cfiCond721) R10 Frame(CFA_Y, -2)
          CFI (cfiCond721) R11 Frame(CFA_Y, -1)
          CFI (cfiCond721) CFA_SP SP+4
          CFI (cfiCond721) CFA_Y Y+12
          CFI Block cfiPicker722 Using cfiCommon2
          CFI (cfiPicker722) NoFunction
          CFI (cfiPicker722) Picker
        MOVW    R21:R20, R25:R24
        MOVW    R23:R22, R27:R26
        RCALL   ?Subroutine98
??CrossCallReturnLabel_198:
        RJMP    ?F_DIV_L04
          CFI EndBlock cfiCond720
          CFI EndBlock cfiCond721
          CFI EndBlock cfiPicker722

        RSEG CODE:CODE:NOROOT(1)
?Subroutine48:
          CFI Block cfiCond723 Using cfiCommon0
          CFI Function rprintfFloat
          CFI Conditional ??CrossCallReturnLabel_60
          CFI R24 Frame(CFA_Y, -12)
          CFI R25 Frame(CFA_Y, -11)
          CFI R26 Frame(CFA_Y, -10)
          CFI R27 Frame(CFA_Y, -9)
          CFI R4 Frame(CFA_Y, -8)
          CFI R5 Frame(CFA_Y, -7)
          CFI R6 Frame(CFA_Y, -6)
          CFI R7 Frame(CFA_Y, -5)
          CFI R8 Frame(CFA_Y, -4)
          CFI R9 Frame(CFA_Y, -3)
          CFI R10 Frame(CFA_Y, -2)
          CFI R11 Frame(CFA_Y, -1)
          CFI CFA_SP SP+4
          CFI CFA_Y Y+12
          CFI Block cfiCond724 Using cfiCommon0
          CFI (cfiCond724) Function rprintfFloat
          CFI (cfiCond724) Conditional ??CrossCallReturnLabel_61
          CFI (cfiCond724) R24 Frame(CFA_Y, -12)
          CFI (cfiCond724) R25 Frame(CFA_Y, -11)
          CFI (cfiCond724) R26 Frame(CFA_Y, -10)
          CFI (cfiCond724) R27 Frame(CFA_Y, -9)
          CFI (cfiCond724) R4 Frame(CFA_Y, -8)
          CFI (cfiCond724) R5 Frame(CFA_Y, -7)
          CFI (cfiCond724) R6 Frame(CFA_Y, -6)
          CFI (cfiCond724) R7 Frame(CFA_Y, -5)
          CFI (cfiCond724) R8 Frame(CFA_Y, -4)
          CFI (cfiCond724) R9 Frame(CFA_Y, -3)
          CFI (cfiCond724) R10 Frame(CFA_Y, -2)
          CFI (cfiCond724) R11 Frame(CFA_Y, -1)
          CFI (cfiCond724) CFA_SP SP+4
          CFI (cfiCond724) CFA_Y Y+12
          CFI Block cfiPicker725 Using cfiCommon2
          CFI (cfiPicker725) NoFunction
          CFI (cfiPicker725) Picker
        RCALL   ?Subroutine101
??CrossCallReturnLabel_205:
        LDI     R22, 128
        LDI     R23, 63
        MOVW    R17:R16, R25:R24
        MOVW    R19:R18, R27:R26
        RJMP    ?F_CMP_EQ_L04
          CFI EndBlock cfiCond723
          CFI EndBlock cfiCond724
          CFI EndBlock cfiPicker725

        RSEG CODE:CODE:NOROOT(1)
?Subroutine21:
          CFI Block cfiCond726 Using cfiCommon0
          CFI Function diag
          CFI Conditional ??CrossCallReturnLabel_190
          CFI R24 Frame(CFA_Y, -2)
          CFI R25 Frame(CFA_Y, -1)
          CFI CFA_SP SP+4
          CFI CFA_Y Y+2
          CFI Block cfiCond727 Using cfiCommon0
          CFI (cfiCond727) Function rprintfFloat
          CFI (cfiCond727) Conditional ??CrossCallReturnLabel_191
          CFI (cfiCond727) R24 Frame(CFA_Y, -12)
          CFI (cfiCond727) R25 Frame(CFA_Y, -11)
          CFI (cfiCond727) R26 Frame(CFA_Y, -10)
          CFI (cfiCond727) R27 Frame(CFA_Y, -9)
          CFI (cfiCond727) R4 Frame(CFA_Y, -8)
          CFI (cfiCond727) R5 Frame(CFA_Y, -7)
          CFI (cfiCond727) R6 Frame(CFA_Y, -6)
          CFI (cfiCond727) R7 Frame(CFA_Y, -5)
          CFI (cfiCond727) R8 Frame(CFA_Y, -4)
          CFI (cfiCond727) R9 Frame(CFA_Y, -3)
          CFI (cfiCond727) R10 Frame(CFA_Y, -2)
          CFI (cfiCond727) R11 Frame(CFA_Y, -1)
          CFI (cfiCond727) CFA_SP SP+4
          CFI (cfiCond727) CFA_Y Y+12
          CFI Block cfiPicker728 Using cfiCommon2
          CFI (cfiPicker728) NoFunction
          CFI (cfiPicker728) Picker
        LDI     R17, 0
        LDI     R18, 0
          CFI EndBlock cfiCond726
          CFI EndBlock cfiCond727
          CFI EndBlock cfiPicker728
        REQUIRE ?Subroutine97
        ;               // Fall through to label ?Subroutine97

        RSEG CODE:CODE:NOROOT(1)
?Subroutine97:
          CFI Block cfiCond729 Using cfiCommon0
          CFI Function PEREP
          CFI Conditional ??CrossCallReturnLabel_192, ??CrossCallReturnLabel_39
          CFI R24 Frame(CFA_Y, -8)
          CFI R25 Frame(CFA_Y, -7)
          CFI R26 Frame(CFA_Y, -6)
          CFI R27 Frame(CFA_Y, -5)
          CFI R4 Frame(CFA_Y, -4)
          CFI R5 Frame(CFA_Y, -3)
          CFI R6 Frame(CFA_Y, -2)
          CFI R7 Frame(CFA_Y, -1)
          CFI CFA_SP SP+6
          CFI CFA_Y Y+8
          CFI Block cfiCond730 Using cfiCommon0
          CFI (cfiCond730) Function PEREP
          CFI (cfiCond730) Conditional ??CrossCallReturnLabel_192, ??CrossCallReturnLabel_40
          CFI (cfiCond730) R24 Frame(CFA_Y, -8)
          CFI (cfiCond730) R25 Frame(CFA_Y, -7)
          CFI (cfiCond730) R26 Frame(CFA_Y, -6)
          CFI (cfiCond730) R27 Frame(CFA_Y, -5)
          CFI (cfiCond730) R4 Frame(CFA_Y, -4)
          CFI (cfiCond730) R5 Frame(CFA_Y, -3)
          CFI (cfiCond730) R6 Frame(CFA_Y, -2)
          CFI (cfiCond730) R7 Frame(CFA_Y, -1)
          CFI (cfiCond730) CFA_SP SP+6
          CFI (cfiCond730) CFA_Y Y+8
          CFI Block cfiCond731 Using cfiCommon0
          CFI (cfiCond731) Function coding
          CFI (cfiCond731) Conditional ??CrossCallReturnLabel_193, ??CrossCallReturnLabel_58
          CFI (cfiCond731) R24 Frame(CFA_Y, -10)
          CFI (cfiCond731) R25 Frame(CFA_Y, -9)
          CFI (cfiCond731) R26 Frame(CFA_Y, -8)
          CFI (cfiCond731) R27 Frame(CFA_Y, -7)
          CFI (cfiCond731) R4 Frame(CFA_Y, -6)
          CFI (cfiCond731) R5 Frame(CFA_Y, -5)
          CFI (cfiCond731) R6 Frame(CFA_Y, -4)
          CFI (cfiCond731) R7 Frame(CFA_Y, -3)
          CFI (cfiCond731) R8 Frame(CFA_Y, -2)
          CFI (cfiCond731) R9 Frame(CFA_Y, -1)
          CFI (cfiCond731) CFA_SP SP+6
          CFI (cfiCond731) CFA_Y Y+10
          CFI Block cfiCond732 Using cfiCommon0
          CFI (cfiCond732) Function coding
          CFI (cfiCond732) Conditional ??CrossCallReturnLabel_193, ??CrossCallReturnLabel_59
          CFI (cfiCond732) R24 Frame(CFA_Y, -10)
          CFI (cfiCond732) R25 Frame(CFA_Y, -9)
          CFI (cfiCond732) R26 Frame(CFA_Y, -8)
          CFI (cfiCond732) R27 Frame(CFA_Y, -7)
          CFI (cfiCond732) R4 Frame(CFA_Y, -6)
          CFI (cfiCond732) R5 Frame(CFA_Y, -5)
          CFI (cfiCond732) R6 Frame(CFA_Y, -4)
          CFI (cfiCond732) R7 Frame(CFA_Y, -3)
          CFI (cfiCond732) R8 Frame(CFA_Y, -2)
          CFI (cfiCond732) R9 Frame(CFA_Y, -1)
          CFI (cfiCond732) CFA_SP SP+6
          CFI (cfiCond732) CFA_Y Y+10
          CFI Block cfiCond733 Using cfiCommon0
          CFI (cfiCond733) Function diag
          CFI (cfiCond733) Conditional ??CrossCallReturnLabel_190
          CFI (cfiCond733) R24 Frame(CFA_Y, -2)
          CFI (cfiCond733) R25 Frame(CFA_Y, -1)
          CFI (cfiCond733) CFA_SP SP+4
          CFI (cfiCond733) CFA_Y Y+2
          CFI Block cfiCond734 Using cfiCommon0
          CFI (cfiCond734) Function rprintfFloat
          CFI (cfiCond734) Conditional ??CrossCallReturnLabel_191
          CFI (cfiCond734) R24 Frame(CFA_Y, -12)
          CFI (cfiCond734) R25 Frame(CFA_Y, -11)
          CFI (cfiCond734) R26 Frame(CFA_Y, -10)
          CFI (cfiCond734) R27 Frame(CFA_Y, -9)
          CFI (cfiCond734) R4 Frame(CFA_Y, -8)
          CFI (cfiCond734) R5 Frame(CFA_Y, -7)
          CFI (cfiCond734) R6 Frame(CFA_Y, -6)
          CFI (cfiCond734) R7 Frame(CFA_Y, -5)
          CFI (cfiCond734) R8 Frame(CFA_Y, -4)
          CFI (cfiCond734) R9 Frame(CFA_Y, -3)
          CFI (cfiCond734) R10 Frame(CFA_Y, -2)
          CFI (cfiCond734) R11 Frame(CFA_Y, -1)
          CFI (cfiCond734) CFA_SP SP+4
          CFI (cfiCond734) CFA_Y Y+12
          CFI Block cfiPicker735 Using cfiCommon2
          CFI (cfiPicker735) NoFunction
          CFI (cfiPicker735) Picker
        LDI     R19, 0
        RJMP    ?UL2F_L04
          CFI EndBlock cfiCond729
          CFI EndBlock cfiCond730
          CFI EndBlock cfiCond731
          CFI EndBlock cfiCond732
          CFI EndBlock cfiCond733
          CFI EndBlock cfiCond734
          CFI EndBlock cfiPicker735

        ASEGN ABSOLUTE:DATA:NOROOT,01cH
__?EECR:

        ASEGN ABSOLUTE:DATA:NOROOT,01dH
__?EEDR:

        ASEGN ABSOLUTE:DATA:NOROOT,01eH
__?EEARL:

        ASEGN ABSOLUTE:DATA:NOROOT,01fH
__?EEARH:

        COMMON INTVEC:CODE:ROOT(1)
        ORG 2
`??funINT0_vect??INTVEC 2`:
        RJMP    funINT0_vect

        COMMON INTVEC:CODE:ROOT(1)
        ORG 16
`??funTIMER1_OVF_vect??INTVEC 16`:
        RJMP    funTIMER1_OVF_vect

        COMMON INTVEC:CODE:ROOT(1)
        ORG 22
`??usart_rxc_my??INTVEC 22`:
        RJMP    usart_rxc_my

        RSEG NEAR_ID:CODE:NOROOT(0)
`?<Initializer for <Constant " error ct big =">`:
        DC8 " error ct big ="

        RSEG INITTAB:CODE:NOROOT(0)
`?<Segment init: NEAR_I>`:
        DC16    SFE(NEAR_I) - SFB(NEAR_I)
        DC16    SFB(NEAR_I)
        DC16    SFB(NEAR_ID)
        REQUIRE ?need_segment_init

        RSEG NEAR_ID:CODE:NOROOT(0)
`?<Initializer for <Constant "  /   cod1= ">>`:
        DC8 "  /   cod1= "

        RSEG NEAR_ID:CODE:NOROOT(0)
`?<Initializer for <Constant "/   cod2= ">>`:
        DC8 "/   cod2= "

        RSEG NEAR_ID:CODE:NOROOT(0)
`?<Initializer for <Constant "/   cod3= ">>`:
        DC8 "/   cod3= "

        RSEG NEAR_ID:CODE:NOROOT(0)
`?<Initializer for <Constant "  / abslen= ">>`:
        DC8 "  / abslen= "

        RSEG NEAR_ID:CODE:NOROOT(0)
`?<Initializer for <Constant "  / len= ">>`:
        DC8 "  / len= "

        RSEG NEAR_ID:CODE:NOROOT(0)
`?<Initializer for <Constant "  ">>`:
        DC8 "  "

        RSEG NEAR_ID:CODE:NOROOT(0)
`?<Initializer for <Constant "  / cod1= ">>`:
        DC8 "  / cod1= "

        RSEG NEAR_ID:CODE:NOROOT(0)
`?<Initializer for <Constant " / cod2= ">>`:
        DC8 " / cod2= "

        RSEG NEAR_ID:CODE:NOROOT(0)
`?<Initializer for <Constant " / cod3= ">>`:
        DC8 " / cod3= "

        RSEG NEAR_ID:CODE:NOROOT(0)
`?<Initializer for <Constant "/ minlen=">>`:
        DC8 "/ minlen="

        RSEG NEAR_ID:CODE:NOROOT(0)
`?<Initializer for <Constant "OFF>adr=">>`:
        DC8 "OFF>adr="

        RSEG NEAR_ID:CODE:NOROOT(0)
`?<Initializer for <Constant "ON>adr=">>`:
        DC8 "ON>adr="

        RSEG NEAR_ID:CODE:NOROOT(0)
`?<Initializer for <Constant "normal>command fi`:
        DC8 "normal>command find  adr="

        RSEG NEAR_ID:CODE:NOROOT(0)
`?<Initializer for <Constant "write ..">>`:
        DC8 "write .."

        RSEG NEAR_ID:CODE:NOROOT(0)
`?<Initializer for <Constant "OK !   ">>`:
        DC8 "OK !   "

        RSEG NEAR_ID:CODE:NOROOT(0)
`?<Initializer for <Constant "- vkluchen kratki`:
        DC8 "- vkluchen kratkiy viviod -"

        RSEG NEAR_ID:CODE:NOROOT(0)
`?<Initializer for <Constant " ==  EEPROM read `:
        DC8 " ==  EEPROM read == "

        RSEG NEAR_ID:CODE:NOROOT(0)
`?<Initializer for <Constant " > ">>`:
        DC8 " > "

        RSEG NEAR_ID:CODE:NOROOT(0)
`?<Initializer for <Constant " get: ">>`:
        DC8 " get: "

        RSEG NEAR_ID:CODE:NOROOT(0)
`?<Initializer for <Constant "  regim  no sourc`:
        DC8 "  regim  no source5 >"

        RSEG NEAR_ID:CODE:NOROOT(0)
`?<Initializer for <Constant "  regim  PROGRAMM`:
        DC8 "  regim  PROGRAMMING !!  READY >"

        RSEG NEAR_ID:CODE:NOROOT(0)
`?<Initializer for <Constant "  regim  normal  `:
        DC8 "  regim  normal  READY >"

        RSEG INITTAB:CODE:NOROOT(0)
`?<Segment init: NEAR_Z>`:
        DC16    SFE(NEAR_Z) - SFB(NEAR_Z)
        DC16    SFB(NEAR_Z)
        DC16    0
        REQUIRE ?need_segment_init

        RSEG NEAR_ID:CODE:NOROOT(0)
`?<Initializer for ind>`:
        DC8 1

        RSEG NEAR_ID:CODE:NOROOT(0)
`?<Initializer for tON>`:
        DC16 20000

        RSEG NEAR_ID:CODE:NOROOT(0)
`?<Initializer for lastsel>`:
        DC8 1

        RSEG NEAR_ID:CODE:NOROOT(0)
`?<Initializer for sel>`:
        DC8 1

        RSEG NEAR_ID:CODE:NOROOT(0)
`?<Initializer for port>`:
        DC8 255

        END
// 
//    28 bytes in segment ABSOLUTE
// 4 470 bytes in segment CODE
//   242 bytes in segment EEPROM_N
//    12 bytes in segment INITTAB
//     6 bytes in segment INTVEC
//   324 bytes in segment NEAR_I
//   324 bytes in segment NEAR_ID
//   461 bytes in segment NEAR_Z
// 
// 4 794 bytes of CODE  memory (+ 18 bytes shared)
//   785 bytes of DATA  memory (+ 28 bytes shared)
//   242 bytes of XDATA memory
//
//Errors: none
//Warnings: none
