///////////////////////////////////////////////////////////////////////////////
//
// IAR C/C++ Compiler V6.40.1.741 for Atmel AVR           23/Feb/2017  17:57:32
// Copyright 1996-2014 IAR Systems AB.
//
//    Source file  =  F:\Dulov\RemoteAMP\du.c
//    Command line =  
//        F:\Dulov\RemoteAMP\du.c --cpu=m8 -ms -o
//        F:\Dulov\RemoteAMP\Release\Obj\ -D NDEBUG -lC
//        F:\Dulov\RemoteAMP\Release\List\ -lA F:\Dulov\RemoteAMP\Release\List\
//        --initializers_in_flash --no_clustering -DENABLE_BIT_DEFINITIONS -e
//        --eeprom_size 512 --dlib --dlib_config "C:\Program Files\IAR
//        Systems\Embedded Workbench 6.5\avr\LIB\DLIB\dlAVR-1s-ec_mul-n.h" -Ohz
//        --mfc F:\Dulov\RemoteAMP\main.c F:\Dulov\RemoteAMP\SoftTimers.c
//        F:\Dulov\RemoteAMP\usart.c
//    List file    =  F:\Dulov\RemoteAMP\Release\List\du.s90
//
///////////////////////////////////////////////////////////////////////////////

        NAME du

        RTMODEL "__64bit_doubles", "disabled"
        RTMODEL "__SystemLibrary", "DLib"
        RTMODEL "__cpu", "1"
        RTMODEL "__cpu_name", "ATmega8"
        RTMODEL "__enhanced_core", "enabled"
        RTMODEL "__has_elpm", "false"
        RTMODEL "__memory_model", "2"
        RTMODEL "__rt_version", "3"

        RSEG CSTACK:DATA:NOROOT(0)
        RSEG RSTACK:DATA:NOROOT(0)

        EXTERN ?EPILOGUE_B10_L09
        EXTERN ?EPILOGUE_B12_L09
        EXTERN ?EPILOGUE_B2_L09
        EXTERN ?EPILOGUE_B4_L09
        EXTERN ?EPILOGUE_B8_L09
        EXTERN ?F2SL_L04
        EXTERN ?F_CMP_EQ_L04
        EXTERN ?F_CMP_GE_L04
        EXTERN ?F_CMP_LT_L04
        EXTERN ?F_DIV_L04
        EXTERN ?F_MUL_L04
        EXTERN ?F_SUB_L04
        EXTERN ?L_EC_MUL_L03
        EXTERN ?PROLOGUE10_L09
        EXTERN ?PROLOGUE12_L09
        EXTERN ?PROLOGUE2_L09
        EXTERN ?PROLOGUE4_L09
        EXTERN ?PROLOGUE8_L09
        EXTERN ?Register_R10_is_cg_reg
        EXTERN ?Register_R11_is_cg_reg
        EXTERN ?Register_R4_is_cg_reg
        EXTERN ?Register_R5_is_cg_reg
        EXTERN ?Register_R6_is_cg_reg
        EXTERN ?Register_R7_is_cg_reg
        EXTERN ?Register_R8_is_cg_reg
        EXTERN ?Register_R9_is_cg_reg
        EXTERN ?S_SHL_L02
        EXTERN ?UL2F_L04
        EXTERN ?need_segment_init
        EXTERN __eeget16_16
        EXTERN __eeget8_16
        EXTERN __eeput16_16
        EXTERN __eeput8_16

        PUBWEAK `?<Segment init: NEAR_I>`
        PUBWEAK `?<Segment init: NEAR_Z>`
        PUBWEAK `??TIMER2ovf??INTVEC 8`
        PUBWEAK `??funINT0_vect??INTVEC 2`
        PUBWEAK `??funTIMER1_OVF_vect??INTVEC 16`
        PUBWEAK `??usart_rxc_my??INTVEC 22`
        PUBLIC PEREP
        FUNCTION PEREP,021201H
        ARGFRAME RSTACK, 0, STACK
        LOCFRAME CSTACK, 8, STACK
        LOCFRAME RSTACK, 4, STACK
        PUBLIC TIMER2ovf
        FUNCTION TIMER2ovf,021233H
        ARGFRAME CSTACK, 0, STACK
        LOCFRAME CSTACK, 15, STACK
        LOCFRAME RSTACK, 2, STACK
        PUBLIC TimerSet
        FUNCTION TimerSet,0203H
        ARGFRAME RSTACK, 0, STACK
        LOCFRAME RSTACK, 4, STACK
        PUBLIC TimerTick
        FUNCTION TimerTick,0203H
        ARGFRAME RSTACK, 0, STACK
        LOCFRAME RSTACK, 2, STACK
        PUBLIC USART_GetChar
        FUNCTION USART_GetChar,0203H
        ARGFRAME RSTACK, 0, STACK
        LOCFRAME RSTACK, 2, STACK
        PUBLIC USART_Init
        FUNCTION USART_Init,0201H
        ARGFRAME RSTACK, 0, STACK
        LOCFRAME RSTACK, 2, STACK
        PUBLIC USART_SendChar
        FUNCTION USART_SendChar,0203H
        ARGFRAME RSTACK, 0, STACK
        LOCFRAME RSTACK, 2, STACK
        PUBWEAK _A_ACSR
        PUBWEAK _A_DDRB
        PUBWEAK _A_DDRC
        PUBWEAK _A_DDRD
        PUBWEAK _A_GICR
        PUBWEAK _A_ICR1
        PUBWEAK _A_MCUCR
        PUBWEAK _A_OCR1A
        PUBWEAK _A_OCR1B
        PUBWEAK _A_PIND
        PUBWEAK _A_PORTB
        PUBWEAK _A_PORTC
        PUBWEAK _A_PORTD
        PUBWEAK _A_TCCR1A
        PUBWEAK _A_TCCR1B
        PUBWEAK _A_TCCR2
        PUBWEAK _A_TCNT0
        PUBWEAK _A_TCNT1
        PUBWEAK _A_TCNT2
        PUBWEAK _A_TIFR
        PUBWEAK _A_TIMSK
        PUBWEAK _A_UBRRH
        PUBWEAK _A_UBRRL
        PUBWEAK _A_UCSRA
        PUBWEAK _A_UCSRB
        PUBWEAK _A_UDR
        PUBWEAK __?EEARH
        PUBWEAK __?EEARL
        PUBWEAK __?EECR
        PUBWEAK __?EEDR
        PUBLIC analizCOD
        FUNCTION analizCOD,0203H
        ARGFRAME RSTACK, 0, STACK
        LOCFRAME CSTACK, 2, STACK
        LOCFRAME RSTACK, 4, STACK
        PUBLIC analiz_INT
        FUNCTION analiz_INT,0201H
        ARGFRAME RSTACK, 0, STACK
        LOCFRAME RSTACK, 2, STACK
        PUBLIC aoff
        PUBLIC c1
        PUBLIC c2
        PUBLIC c3
        PUBLIC cod1
        PUBLIC cod2
        PUBLIC cod3
        PUBLIC cod4
        PUBLIC cod_ok
        PUBLIC coding
        FUNCTION coding,021203H
        ARGFRAME RSTACK, 0, STACK
        LOCFRAME CSTACK, 10, STACK
        LOCFRAME RSTACK, 4, STACK
        PUBLIC ct
        PUBLIC diag
        FUNCTION diag,021203H
        ARGFRAME RSTACK, 0, STACK
        LOCFRAME CSTACK, 2, STACK
        LOCFRAME RSTACK, 4, STACK
        PUBLIC dim1
        PUBLIC dim2
        PUBLIC du_init
        FUNCTION du_init,0203H
        ARGFRAME RSTACK, 0, STACK
        LOCFRAME RSTACK, 2, STACK
        PUBLIC fmode
        PUBLIC funINT0_vect
        FUNCTION funINT0_vect,0233H
        ARGFRAME CSTACK, 0, STACK
        LOCFRAME CSTACK, 2, STACK
        LOCFRAME RSTACK, 2, STACK
        PUBLIC funTIMER1_OVF_vect
        FUNCTION funTIMER1_OVF_vect,0233H
        ARGFRAME CSTACK, 0, STACK
        LOCFRAME CSTACK, 2, STACK
        LOCFRAME RSTACK, 2, STACK
        PUBLIC getadr
        FUNCTION getadr,0203H
        ARGFRAME RSTACK, 0, STACK
        LOCFRAME RSTACK, 2, STACK
        PUBLIC gro
        FUNCTION gro,0203H
        ARGFRAME RSTACK, 0, STACK
        LOCFRAME RSTACK, 4, STACK
        PUBLIC ind
        PUBLIC iniPORTS
        FUNCTION iniPORTS,0203H
        ARGFRAME RSTACK, 0, STACK
        LOCFRAME RSTACK, 2, STACK
        PUBLIC k
        PUBLIC led_all
        FUNCTION led_all,0203H
        ARGFRAME RSTACK, 0, STACK
        LOCFRAME RSTACK, 2, STACK
        PUBLIC led_test
        FUNCTION led_test,021201H
        ARGFRAME RSTACK, 0, STACK
        LOCFRAME CSTACK, 1, STACK
        LOCFRAME RSTACK, 2, STACK
        PUBLIC len
        PUBLIC main
        FUNCTION main,021a03H
        ARGFRAME CSTACK, 0, STACK
        LOCFRAME CSTACK, 1, STACK
        LOCFRAME RSTACK, 4, STACK
        PUBLIC main_logic
        FUNCTION main_logic,021203H
        ARGFRAME RSTACK, 0, STACK
        LOCFRAME RSTACK, 4, STACK
        PUBLIC main_power
        FUNCTION main_power,021203H
        ARGFRAME RSTACK, 0, STACK
        LOCFRAME RSTACK, 4, STACK
        PUBLIC migINI
        FUNCTION migINI,021203H
        ARGFRAME RSTACK, 0, STACK
        LOCFRAME RSTACK, 4, STACK
        PUBLIC migWORK
        FUNCTION migWORK,021203H
        ARGFRAME RSTACK, 0, STACK
        LOCFRAME RSTACK, 4, STACK
        PUBLIC minimallen
        PUBLIC modegro
        PUBLIC mute
        PUBLIC on
        PUBLIC onok
        PUBLIC pr
        PUBLIC programming
        FUNCTION programming,021203H
        ARGFRAME RSTACK, 0, STACK
        LOCFRAME CSTACK, 1, STACK
        LOCFRAME RSTACK, 2, STACK
        PUBLIC proverka
        FUNCTION proverka,0203H
        ARGFRAME RSTACK, 0, STACK
        LOCFRAME RSTACK, 4, STACK
        PUBLIC pult
        FUNCTION pult,021201H
        ARGFRAME RSTACK, 0, STACK
        LOCFRAME RSTACK, 2, STACK
        PUBLIC pultadr
        PUBLIC remote_main
        FUNCTION remote_main,021201H
        ARGFRAME RSTACK, 0, STACK
        LOCFRAME RSTACK, 2, STACK
        PUBLIC resOUT
        FUNCTION resOUT,0203H
        ARGFRAME RSTACK, 0, STACK
        LOCFRAME RSTACK, 2, STACK
        PUBLIC resled
        FUNCTION resled,0203H
        ARGFRAME RSTACK, 0, STACK
        LOCFRAME RSTACK, 2, STACK
        PUBLIC rprintfFloat
        FUNCTION rprintfFloat,021203H
        ARGFRAME RSTACK, 0, STACK
        LOCFRAME CSTACK, 12, STACK
        LOCFRAME RSTACK, 4, STACK
        PUBLIC rprintfStr
        FUNCTION rprintfStr,021203H
        ARGFRAME RSTACK, 0, STACK
        LOCFRAME CSTACK, 4, STACK
        LOCFRAME RSTACK, 2, STACK
        PUBLIC source
        FUNCTION source,021203H
        ARGFRAME RSTACK, 0, STACK
        LOCFRAME RSTACK, 2, STACK
        PUBLIC tON
        PUBLIC timerzad
        PUBLIC tm1
        PUBLIC tm2
        PUBLIC tm3
        PUBLIC usartRxBuf
        PUBLIC usart_rxc_my
        FUNCTION usart_rxc_my,0233H
        ARGFRAME CSTACK, 0, STACK
        LOCFRAME CSTACK, 2, STACK
        LOCFRAME RSTACK, 2, STACK
        PUBLIC writeCOD
        FUNCTION writeCOD,021203H
        ARGFRAME RSTACK, 0, STACK
        LOCFRAME CSTACK, 1, STACK
        LOCFRAME RSTACK, 4, STACK
        PUBLIC zader
        
          CFI Names cfiNames0
          CFI StackFrame CFA_Y Y DATA
          CFI StackFrame CFA_SP SP DATA
          CFI VirtualResource ?RetPad:1, ?RetHigh:8, ?RetLow:8, ?Ret:17
          CFI Resource R0:8, R1:8, R2:8, R3:8, R4:8, R5:8, R6:8, R7:8, R8:8, R9:8
          CFI Resource R10:8, R11:8, R12:8, R13:8, R14:8, R15:8, R16:8, R17:8
          CFI Resource R18:8, R19:8, R20:8, R21:8, R22:8, R23:8, R24:8, R25:8
          CFI Resource R26:8, R27:8, R28:8, R29:8, R30:8, R31:8
          CFI Resource ?RetHighByteMask:8, SP:16, SPH:8, SPL:8, Y:16
          CFI ResourceParts ?Ret ?RetHigh, ?RetLow, ?RetPad
          CFI ResourceParts SP SPH, SPL
          CFI ResourceParts Y R29, R28
          CFI EndNames cfiNames0
        
          CFI Common cfiCommon0 Using cfiNames0
          CFI CodeAlign 1
          CFI DataAlign 1
          CFI ReturnAddress ?Ret CODE
          CFI CFA_Y Y+0
          CFI CFA_SP SP+2
          CFI ?RetPad 0
          CFI ?RetHigh and(load(1, DATA, sub(CFA_SP, 1)), ?RetHighByteMask)
          CFI ?RetLow Frame(CFA_SP, 0)
          CFI ?Ret Concat
          CFI R0 Undefined
          CFI R1 Undefined
          CFI R2 Undefined
          CFI R3 Undefined
          CFI R4 SameValue
          CFI R5 SameValue
          CFI R6 SameValue
          CFI R7 SameValue
          CFI R8 SameValue
          CFI R9 SameValue
          CFI R10 SameValue
          CFI R11 SameValue
          CFI R12 SameValue
          CFI R13 SameValue
          CFI R14 SameValue
          CFI R15 SameValue
          CFI R16 Undefined
          CFI R17 Undefined
          CFI R18 Undefined
          CFI R19 Undefined
          CFI R20 Undefined
          CFI R21 Undefined
          CFI R22 Undefined
          CFI R23 Undefined
          CFI R24 SameValue
          CFI R25 SameValue
          CFI R26 SameValue
          CFI R27 SameValue
          CFI R28 Undefined
          CFI R29 Undefined
          CFI R30 Undefined
          CFI R31 Undefined
          CFI ?RetHighByteMask SameValue
          CFI SPH Undefined
          CFI SPL Undefined
          CFI EndCommon cfiCommon0
        
        
          CFI Common cfiCommon1 Using cfiNames0
          CFI CodeAlign 1
          CFI DataAlign 1
          CFI ReturnAddress ?Ret CODE
          CFI CFA_Y Y+0
          CFI CFA_SP SP+2
          CFI ?RetPad 0
          CFI ?RetHigh and(load(1, DATA, sub(CFA_SP, 1)), ?RetHighByteMask)
          CFI ?RetLow Frame(CFA_SP, 0)
          CFI ?Ret Concat
          CFI R0 SameValue
          CFI R1 SameValue
          CFI R2 SameValue
          CFI R3 SameValue
          CFI R4 SameValue
          CFI R5 SameValue
          CFI R6 SameValue
          CFI R7 SameValue
          CFI R8 SameValue
          CFI R9 SameValue
          CFI R10 SameValue
          CFI R11 SameValue
          CFI R12 SameValue
          CFI R13 SameValue
          CFI R14 SameValue
          CFI R15 SameValue
          CFI R16 SameValue
          CFI R17 SameValue
          CFI R18 SameValue
          CFI R19 SameValue
          CFI R20 SameValue
          CFI R21 SameValue
          CFI R22 SameValue
          CFI R23 SameValue
          CFI R24 SameValue
          CFI R25 SameValue
          CFI R26 SameValue
          CFI R27 SameValue
          CFI R28 Undefined
          CFI R29 Undefined
          CFI R30 SameValue
          CFI R31 SameValue
          CFI ?RetHighByteMask SameValue
          CFI SPH Undefined
          CFI SPL Undefined
          CFI EndCommon cfiCommon1
        
        
          CFI Common cfiCommon2 Using cfiNames0
          CFI CodeAlign 1
          CFI DataAlign 1
          CFI ReturnAddress ?Ret CODE
          CFI CFA_Y Notused
          CFI CFA_SP SP+2
          CFI ?RetPad 0
          CFI ?RetHigh and(load(1, DATA, sub(CFA_SP, 1)), ?RetHighByteMask)
          CFI ?RetLow Frame(CFA_SP, 0)
          CFI ?Ret Concat
          CFI R0 SameValue
          CFI R1 SameValue
          CFI R2 SameValue
          CFI R3 SameValue
          CFI R4 SameValue
          CFI R5 SameValue
          CFI R6 SameValue
          CFI R7 SameValue
          CFI R8 SameValue
          CFI R9 SameValue
          CFI R10 SameValue
          CFI R11 SameValue
          CFI R12 SameValue
          CFI R13 SameValue
          CFI R14 SameValue
          CFI R15 SameValue
          CFI R16 SameValue
          CFI R17 SameValue
          CFI R18 SameValue
          CFI R19 SameValue
          CFI R20 SameValue
          CFI R21 SameValue
          CFI R22 SameValue
          CFI R23 SameValue
          CFI R24 SameValue
          CFI R25 SameValue
          CFI R26 SameValue
          CFI R27 SameValue
          CFI R28 Undefined
          CFI R29 Undefined
          CFI R30 SameValue
          CFI R31 SameValue
          CFI ?RetHighByteMask SameValue
          CFI SPH Undefined
          CFI SPL Undefined
          CFI Y SameValue
          CFI EndCommon cfiCommon2
        
TIMER2ovf           SYMBOL "TIMER2ovf"
`??TIMER2ovf??INTVEC 8` SYMBOL "??INTVEC 8", TIMER2ovf
funINT0_vect        SYMBOL "funINT0_vect"
`??funINT0_vect??INTVEC 2` SYMBOL "??INTVEC 2", funINT0_vect
funTIMER1_OVF_vect  SYMBOL "funTIMER1_OVF_vect"
`??funTIMER1_OVF_vect??INTVEC 16` SYMBOL "??INTVEC 16", funTIMER1_OVF_vect
usart_rxc_my        SYMBOL "usart_rxc_my"
`??usart_rxc_my??INTVEC 22` SYMBOL "??INTVEC 22", usart_rxc_my

// F:\Dulov\RemoteAMP\du.c
//    1 //***************************************************************************
//    2 //
//    3 //  Author(s)...: dav COBRA 
//    4 //
//    5 //  Target(s)...: ATMega8
//    6 //
//    7 //  Compiler....: 6 40
//    8 //
//    9 //  Description.: Универсальный ДЕКОДЕР ДУ v1.25
//   10 //
//   11 //  Data........: 2014
//   12 //
//   13 //***************************************************************************
//   14 #include <stdbool.h>//поддержка bool
//   15 #include "iom8.h"//<ioavr.h>

        ASEGN ABSOLUTE:DATA:NOROOT,028H
// union <unnamed> volatile __io _A_ACSR
_A_ACSR:
        DS8 1

        ASEGN ABSOLUTE:DATA:NOROOT,029H
// union <unnamed> volatile __io _A_UBRRL
_A_UBRRL:
        DS8 1

        ASEGN ABSOLUTE:DATA:NOROOT,02aH
// union <unnamed> volatile __io _A_UCSRB
_A_UCSRB:
        DS8 1

        ASEGN ABSOLUTE:DATA:NOROOT,02bH
// union <unnamed> volatile __io _A_UCSRA
_A_UCSRA:
        DS8 1

        ASEGN ABSOLUTE:DATA:NOROOT,02cH
// union <unnamed> volatile __io _A_UDR
_A_UDR:
        DS8 1

        ASEGN ABSOLUTE:DATA:NOROOT,030H
// union <unnamed> volatile __io _A_PIND
_A_PIND:
        DS8 1

        ASEGN ABSOLUTE:DATA:NOROOT,031H
// union <unnamed> volatile __io _A_DDRD
_A_DDRD:
        DS8 1

        ASEGN ABSOLUTE:DATA:NOROOT,032H
// union <unnamed> volatile __io _A_PORTD
_A_PORTD:
        DS8 1

        ASEGN ABSOLUTE:DATA:NOROOT,034H
// union <unnamed> volatile __io _A_DDRC
_A_DDRC:
        DS8 1

        ASEGN ABSOLUTE:DATA:NOROOT,035H
// union <unnamed> volatile __io _A_PORTC
_A_PORTC:
        DS8 1

        ASEGN ABSOLUTE:DATA:NOROOT,037H
// union <unnamed> volatile __io _A_DDRB
_A_DDRB:
        DS8 1

        ASEGN ABSOLUTE:DATA:NOROOT,038H
// union <unnamed> volatile __io _A_PORTB
_A_PORTB:
        DS8 1

        ASEGN ABSOLUTE:DATA:NOROOT,040H
// union <unnamed> volatile __io _A_UBRRH
_A_UBRRH:
        DS8 1

        ASEGN ABSOLUTE:DATA:NOROOT,044H
// union <unnamed> volatile __io _A_TCNT2
_A_TCNT2:
        DS8 1

        ASEGN ABSOLUTE:DATA:NOROOT,045H
// union <unnamed> volatile __io _A_TCCR2
_A_TCCR2:
        DS8 1

        ASEGN ABSOLUTE:DATA:NOROOT,046H
// union <unnamed> volatile __io _A_ICR1
_A_ICR1:
        DS8 2

        ASEGN ABSOLUTE:DATA:NOROOT,048H
// union <unnamed> volatile __io _A_OCR1B
_A_OCR1B:
        DS8 2

        ASEGN ABSOLUTE:DATA:NOROOT,04aH
// union <unnamed> volatile __io _A_OCR1A
_A_OCR1A:
        DS8 2

        ASEGN ABSOLUTE:DATA:NOROOT,04cH
// union <unnamed> volatile __io _A_TCNT1
_A_TCNT1:
        DS8 2

        ASEGN ABSOLUTE:DATA:NOROOT,04eH
// union <unnamed> volatile __io _A_TCCR1B
_A_TCCR1B:
        DS8 1

        ASEGN ABSOLUTE:DATA:NOROOT,04fH
// union <unnamed> volatile __io _A_TCCR1A
_A_TCCR1A:
        DS8 1

        ASEGN ABSOLUTE:DATA:NOROOT,052H
// union <unnamed> volatile __io _A_TCNT0
_A_TCNT0:
        DS8 1

        ASEGN ABSOLUTE:DATA:NOROOT,055H
// union <unnamed> volatile __io _A_MCUCR
_A_MCUCR:
        DS8 1

        ASEGN ABSOLUTE:DATA:NOROOT,058H
// union <unnamed> volatile __io _A_TIFR
_A_TIFR:
        DS8 1

        ASEGN ABSOLUTE:DATA:NOROOT,059H
// union <unnamed> volatile __io _A_TIMSK
_A_TIMSK:
        DS8 1

        ASEGN ABSOLUTE:DATA:NOROOT,05bH
// union <unnamed> volatile __io _A_GICR
_A_GICR:
        DS8 1
//   16 #include <inavr.h>
//   17 #include <intrinsics.h> 
//   18 #include "init.h"
//   19 #include "usart.h"
//   20 #include "main.h"
//   21 #include "eeprom.h"

        RSEG EEPROM_N:XDATA:NOROOT(0)
// unsigned int __eeprom k[120]
k:
        DS8 240

        RSEG EEPROM_N:XDATA:NOROOT(0)
// unsigned char __eeprom fmode
fmode:
        DS8 1

        RSEG EEPROM_N:XDATA:NOROOT(0)
// unsigned char __eeprom modegro
modegro:
        DS8 1

        RSEG NEAR_Z:DATA:NOROOT(0)
        REQUIRE `?<Segment init: NEAR_Z>`
// unsigned int cod1
cod1:
        DS8 2

        RSEG NEAR_Z:DATA:NOROOT(0)
        REQUIRE `?<Segment init: NEAR_Z>`
// unsigned int cod2
cod2:
        DS8 2

        RSEG NEAR_Z:DATA:NOROOT(0)
        REQUIRE `?<Segment init: NEAR_Z>`
// unsigned int cod3
cod3:
        DS8 2

        RSEG NEAR_Z:DATA:NOROOT(0)
        REQUIRE `?<Segment init: NEAR_Z>`
// unsigned int cod4
cod4:
        DS8 2
//   22 #include "du.h"
//   23 

        RSEG NEAR_Z:DATA:NOROOT(0)
        REQUIRE `?<Segment init: NEAR_Z>`
//   24   static uchar  perepoln=0;//кол-во переполнений счетчика
??perepoln:
        DS8 1

        RSEG NEAR_Z:DATA:NOROOT(0)
        REQUIRE `?<Segment init: NEAR_Z>`
//   25   static uchar t1=0,t2=0;
??t1:
        DS8 1

        RSEG NEAR_Z:DATA:NOROOT(0)
        REQUIRE `?<Segment init: NEAR_Z>`
??t2:
        DS8 1

        RSEG NEAR_Z:DATA:NOROOT(0)
        REQUIRE `?<Segment init: NEAR_Z>`
//   26   static bool ini; 
??ini:
        DS8 1

        RSEG NEAR_Z:DATA:NOROOT(0)
        REQUIRE `?<Segment init: NEAR_Z>`
//   27   uint dim1[MAX],dim2[MAX];
dim1:
        DS8 100

        RSEG NEAR_Z:DATA:NOROOT(0)
        REQUIRE `?<Segment init: NEAR_Z>`
dim2:
        DS8 100

        RSEG NEAR_Z:DATA:NOROOT(0)
        REQUIRE `?<Segment init: NEAR_Z>`
//   28   char ct=0;
ct:
        DS8 1

        RSEG NEAR_Z:DATA:NOROOT(0)
        REQUIRE `?<Segment init: NEAR_Z>`
//   29   uint minimallen;    
minimallen:
        DS8 2

        RSEG NEAR_Z:DATA:NOROOT(0)
        REQUIRE `?<Segment init: NEAR_Z>`
//   30   float len[MAX];
len:
        DS8 200

        RSEG NEAR_Z:DATA:NOROOT(0)
        REQUIRE `?<Segment init: NEAR_Z>`
//   31   static bool intok,big;
??intok:
        DS8 1

        RSEG NEAR_Z:DATA:NOROOT(0)
        REQUIRE `?<Segment init: NEAR_Z>`
??big:
        DS8 1
//   32  

        RSEG NEAR_Z:DATA:NOROOT(0)
        REQUIRE `?<Segment init: NEAR_Z>`
//   33   bool cod_ok=0;
cod_ok:
        DS8 1

        RSEG NEAR_Z:DATA:NOROOT(0)
        REQUIRE `?<Segment init: NEAR_Z>`
//   34   uchar c1,c2,c3;
c1:
        DS8 1

        RSEG NEAR_Z:DATA:NOROOT(0)
        REQUIRE `?<Segment init: NEAR_Z>`
c2:
        DS8 1

        RSEG NEAR_Z:DATA:NOROOT(0)
        REQUIRE `?<Segment init: NEAR_Z>`
c3:
        DS8 1

        RSEG NEAR_I:DATA:NOROOT(0)
        REQUIRE `?<Segment init: NEAR_I>`
`?<Constant " error ct big =">`:
        DS8 16
        REQUIRE `?<Initializer for <Constant " error ct big =">`

        RSEG NEAR_I:DATA:NOROOT(0)
        REQUIRE `?<Segment init: NEAR_I>`
`?<Constant "  /   cod1= ">`:
        DS8 13
        REQUIRE `?<Initializer for <Constant "  /   cod1= ">>`

        RSEG NEAR_I:DATA:NOROOT(0)
        REQUIRE `?<Segment init: NEAR_I>`
`?<Constant "/   cod2= ">`:
        DS8 11
        REQUIRE `?<Initializer for <Constant "/   cod2= ">>`

        RSEG NEAR_I:DATA:NOROOT(0)
        REQUIRE `?<Segment init: NEAR_I>`
`?<Constant "/   cod3= ">`:
        DS8 11
        REQUIRE `?<Initializer for <Constant "/   cod3= ">>`

        RSEG NEAR_I:DATA:NOROOT(0)
        REQUIRE `?<Segment init: NEAR_I>`
`?<Constant "  / abslen= ">`:
        DS8 13
        REQUIRE `?<Initializer for <Constant "  / abslen= ">>`

        RSEG NEAR_I:DATA:NOROOT(0)
        REQUIRE `?<Segment init: NEAR_I>`
`?<Constant "  / len= ">`:
        DS8 10
        REQUIRE `?<Initializer for <Constant "  / len= ">>`

        RSEG NEAR_I:DATA:NOROOT(0)
        REQUIRE `?<Segment init: NEAR_I>`
`?<Constant "  ">`:
        DS8 3
        REQUIRE `?<Initializer for <Constant "  ">>`

        RSEG NEAR_I:DATA:NOROOT(0)
        REQUIRE `?<Segment init: NEAR_I>`
`?<Constant "  / cod1= ">`:
        DS8 11
        REQUIRE `?<Initializer for <Constant "  / cod1= ">>`

        RSEG NEAR_I:DATA:NOROOT(0)
        REQUIRE `?<Segment init: NEAR_I>`
`?<Constant " / cod2= ">`:
        DS8 10
        REQUIRE `?<Initializer for <Constant " / cod2= ">>`

        RSEG NEAR_I:DATA:NOROOT(0)
        REQUIRE `?<Segment init: NEAR_I>`
`?<Constant " / cod3= ">`:
        DS8 10
        REQUIRE `?<Initializer for <Constant " / cod3= ">>`

        RSEG NEAR_I:DATA:NOROOT(0)
        REQUIRE `?<Segment init: NEAR_I>`
`?<Constant "/ minlen=">`:
        DS8 10
        REQUIRE `?<Initializer for <Constant "/ minlen=">>`

        RSEG NEAR_I:DATA:NOROOT(0)
        REQUIRE `?<Segment init: NEAR_I>`
`?<Constant "OFF>adr=">`:
        DS8 9
        REQUIRE `?<Initializer for <Constant "OFF>adr=">>`

        RSEG NEAR_I:DATA:NOROOT(0)
        REQUIRE `?<Segment init: NEAR_I>`
`?<Constant "ON>adr=">`:
        DS8 8
        REQUIRE `?<Initializer for <Constant "ON>adr=">>`

        RSEG NEAR_I:DATA:NOROOT(0)
        REQUIRE `?<Segment init: NEAR_I>`
`?<Constant "normal>command find  ...">`:
        DS8 26
        REQUIRE `?<Initializer for <Constant "normal>command fi`

        RSEG NEAR_I:DATA:NOROOT(0)
        REQUIRE `?<Segment init: NEAR_I>`
`?<Constant "write ..">`:
        DS8 9
        REQUIRE `?<Initializer for <Constant "write ..">>`

        RSEG NEAR_I:DATA:NOROOT(0)
        REQUIRE `?<Segment init: NEAR_I>`
`?<Constant "OK !   ">`:
        DS8 8
        REQUIRE `?<Initializer for <Constant "OK !   ">>`

        RSEG NEAR_I:DATA:NOROOT(0)
        REQUIRE `?<Segment init: NEAR_I>`
`?<Constant "- vkluchen kratkiy vi...">`:
        DS8 28
        REQUIRE `?<Initializer for <Constant "- vkluchen kratki`

        RSEG NEAR_I:DATA:NOROOT(0)
        REQUIRE `?<Segment init: NEAR_I>`
`?<Constant " ==  EEPROM read == ">`:
        DS8 21
        REQUIRE `?<Initializer for <Constant " ==  EEPROM read `

        RSEG NEAR_I:DATA:NOROOT(0)
        REQUIRE `?<Segment init: NEAR_I>`
`?<Constant " > ">`:
        DS8 4
        REQUIRE `?<Initializer for <Constant " > ">>`

        RSEG NEAR_I:DATA:NOROOT(0)
        REQUIRE `?<Segment init: NEAR_I>`
`?<Constant " get: ">`:
        DS8 7
        REQUIRE `?<Initializer for <Constant " get: ">>`

        RSEG NEAR_I:DATA:NOROOT(0)
        REQUIRE `?<Segment init: NEAR_I>`
`?<Constant "  regim  no source5 >">`:
        DS8 22
        REQUIRE `?<Initializer for <Constant "  regim  no sourc`

        RSEG NEAR_I:DATA:NOROOT(0)
        REQUIRE `?<Segment init: NEAR_I>`
`?<Constant "  regim  PROGRAMMING ...">`:
        DS8 33
        REQUIRE `?<Initializer for <Constant "  regim  PROGRAMM`

        RSEG NEAR_I:DATA:NOROOT(0)
        REQUIRE `?<Segment init: NEAR_I>`
`?<Constant "  regim  normal  READY >">`:
        DS8 25
        REQUIRE `?<Initializer for <Constant "  regim  normal  `

        RSEG NEAR_I:DATA:NOROOT(0)
        REQUIRE `?<Segment init: NEAR_I>`
//   35   char ind=1;
ind:
        DS8 1
        REQUIRE `?<Initializer for ind>`
//   36 
//   37  //*****************************************************************
//   38  // init
//   39  //*****************************************************************

        RSEG CODE:CODE:NOROOT(1)
//   40    void du_init(void)
du_init:
          CFI Block cfiBlock0 Using cfiCommon0
          CFI Function du_init
//   41    {
//   42      ini=1;  intok=0;
        LDI     R16, 1
        STS     ??ini, R16
        LDI     R16, 0
        STS     ??intok, R16
//   43      //TCCR1B = (0<<CS02)|(1<<CS01)|(1<<CS00); //пуск таймера
//   44      TCCR1B = (0<<CS02)|(0<<CS01)|(1<<CS00); //пуск таймера
        LDI     R16, 1
        OUT     0x2E, R16
//   45      ct=0;
        LDI     R16, 0
        STS     ct, R16
//   46    }
        RET
          CFI EndBlock cfiBlock0
        REQUIRE _A_TCCR1B
//   47  //*****************************************************************
//   48  //  INT
//   49  //*****************************************************************
//   50 //прерывание при изменении сигнала на ноге
//   51 #pragma vector = INT0_vect

        RSEG CODE:CODE:NOROOT(1)
//   52 __interrupt void funINT0_vect(void)
funINT0_vect:
          CFI Block cfiBlock1 Using cfiCommon1
          CFI Function funINT0_vect
//   53 {
        ST      -Y, R17
          CFI R17 Frame(CFA_Y, -1)
          CFI CFA_Y Y+1
        ST      -Y, R16
          CFI R16 Frame(CFA_Y, -2)
          CFI CFA_Y Y+2
        IN      R17, 0x3F
//   54   intok=1; 
        LDI     R16, 1
        STS     ??intok, R16
//   55   //if (readint!=0){  last=TCNT1L;   readint=0; }
//   56   t1 = TCNT1L;  t2 = TCNT1H; 
        IN      R16, 0x2C
        STS     ??t1, R16
        IN      R16, 0x2D
        STS     ??t2, R16
//   57   if (t1!=0) { TCNT1H=0;TCNT1L=0;}
        LDS     R16, ??t1
        TST     R16
        BREQ    ??funINT0_vect_0
        LDI     R16, 0
        OUT     0x2D, R16
        OUT     0x2C, R16
//   58      
//   59 }
??funINT0_vect_0:
        OUT     0x3F, R17
        LD      R16, Y+
          CFI R16 SameValue
          CFI CFA_Y Y+1
        LD      R17, Y+
          CFI R17 SameValue
          CFI CFA_Y Y+0
        RETI
          CFI EndBlock cfiBlock1
        REQUIRE _A_TCNT1
//   60 //*****************************************************************
//   61 //  Анализ прерывания
//   62 //*****************************************************************

        RSEG CODE:CODE:NOROOT(1)
//   63 void analiz_INT()
analiz_INT:
          CFI Block cfiBlock2 Using cfiCommon0
          CFI Function analiz_INT
//   64 {
//   65    static bool state;
//   66        if (state==1) {RES(PORTB,5); state=0; }   else {SET(PORTB,5); state=1;}
        LDS     R16, ??state
        TST     R16
        BREQ    ??analiz_INT_0
        CBI     0x18, 0x05
        LDI     R16, 0
        RJMP    ??analiz_INT_1
??analiz_INT_0:
        SBI     0x18, 0x05
        LDI     R16, 1
??analiz_INT_1:
        STS     ??state, R16
//   67 
//   68         dim1[ct]=t1;  dim2[ct]=t2; ct++;
        RCALL   ?Subroutine20
??CrossCallReturnLabel_29:
        LDI     R17, 2
        MUL     R16, R17
        LDS     R16, ??t1
        LDI     R17, 0
        RCALL   ?Subroutine87
??CrossCallReturnLabel_143:
        RCALL   ??Subroutine132_0
??CrossCallReturnLabel_310:
        LDS     R16, ??t2
        RCALL   ?Subroutine88
??CrossCallReturnLabel_146:
        RCALL   ??Subroutine132_0
??CrossCallReturnLabel_311:
        LDI     R30, LOW(ct)
        LDI     R31, (ct) >> 8
        RCALL   ?Subroutine92
//   69         if (ct>=MAX-1) ct--;  //слишком длинная посылка переписываем каждый раз последний
??CrossCallReturnLabel_305:
        CPI     R16, 49
        BRCS    ??analiz_INT_2
        DEC     R16
        ST      Z, R16
//   70         intok=0;
??analiz_INT_2:
        STS     ??intok, R17
//   71 
//   72 
//   73 }
        RET
          CFI EndBlock cfiBlock2
        REQUIRE _A_PORTB

        RSEG NEAR_Z:DATA:NOROOT(0)
        REQUIRE `?<Segment init: NEAR_Z>`
??state:
        DS8 1
//   74 //*****************************************************************
//   75 //  Конец кода на приемнике
//   76 //*****************************************************************

        RSEG CODE:CODE:NOROOT(1)
//   77 void PEREP()
PEREP:
          CFI Block cfiBlock3 Using cfiCommon0
          CFI Function PEREP
//   78 {
        FUNCALL PEREP, rprintfStr
        LOCFRAME CSTACK, 8, STACK
        LOCFRAME RSTACK, 2, STACK
        ARGFRAME RSTACK, 0, STACK
        FUNCALL PEREP, rprintfFloat
        LOCFRAME CSTACK, 8, STACK
        LOCFRAME RSTACK, 2, STACK
        ARGFRAME RSTACK, 0, STACK
        FUNCALL PEREP, coding
        LOCFRAME CSTACK, 8, STACK
        LOCFRAME RSTACK, 2, STACK
        ARGFRAME RSTACK, 0, STACK
        FUNCALL PEREP, rprintfStr
        LOCFRAME CSTACK, 8, STACK
        LOCFRAME RSTACK, 2, STACK
        ARGFRAME RSTACK, 0, STACK
        FUNCALL PEREP, rprintfFloat
        LOCFRAME CSTACK, 8, STACK
        LOCFRAME RSTACK, 2, STACK
        ARGFRAME RSTACK, 0, STACK
        FUNCALL PEREP, rprintfStr
        LOCFRAME CSTACK, 8, STACK
        LOCFRAME RSTACK, 2, STACK
        ARGFRAME RSTACK, 0, STACK
        FUNCALL PEREP, rprintfFloat
        LOCFRAME CSTACK, 8, STACK
        LOCFRAME RSTACK, 2, STACK
        ARGFRAME RSTACK, 0, STACK
        FUNCALL PEREP, rprintfStr
        LOCFRAME CSTACK, 8, STACK
        LOCFRAME RSTACK, 2, STACK
        ARGFRAME RSTACK, 0, STACK
        FUNCALL PEREP, rprintfFloat
        LOCFRAME CSTACK, 8, STACK
        LOCFRAME RSTACK, 2, STACK
        ARGFRAME RSTACK, 0, STACK
        FUNCALL PEREP, USART_SendChar
        LOCFRAME CSTACK, 8, STACK
        LOCFRAME RSTACK, 2, STACK
        ARGFRAME RSTACK, 0, STACK
        RCALL   ?PROLOGUE8_L09
          CFI R7 Frame(CFA_Y, -1)
          CFI R6 Frame(CFA_Y, -2)
          CFI R5 Frame(CFA_Y, -3)
          CFI R4 Frame(CFA_Y, -4)
          CFI R27 Frame(CFA_Y, -5)
          CFI R26 Frame(CFA_Y, -6)
          CFI R25 Frame(CFA_Y, -7)
          CFI R24 Frame(CFA_Y, -8)
          CFI CFA_Y Y+8
        REQUIRE ?Register_R4_is_cg_reg
        REQUIRE ?Register_R5_is_cg_reg
        REQUIRE ?Register_R6_is_cg_reg
        REQUIRE ?Register_R7_is_cg_reg
//   79  static bool state2;
//   80  uchar i;
//   81  
//   82   //if (state2==1) {RES(PORTB,2); state2=0; }   else {SET(PORTB,2); state2=1;}
//   83        
//   84       cod1=0;cod2=0;cod3=0; 
        RCALL   ?Subroutine10
//   85       c1=0; c2=0; c3=0;  //sst=0;
??CrossCallReturnLabel_14:
        STS     c1, R16
        STS     c2, R16
        STS     c3, R16
//   86       minimallen=65535;   
        LDI     R16, 255
        RCALL   ?Subroutine90
??CrossCallReturnLabel_157:
        RCALL   ?Subroutine89
//   87      
//   88       if (ct>(MAX-1)) {  rprintfStr(" error ct big ="); rprintfFloat(6,  ct); }
??CrossCallReturnLabel_149:
        RCALL   ?Subroutine20
??CrossCallReturnLabel_30:
        CPI     R16, 50
        BRCS    ??CrossCallReturnLabel_294
        LDI     R16, LOW(`?<Constant " error ct big =">`)
        LDI     R17, (`?<Constant " error ct big =">`) >> 8
        RCALL   rprintfStr
        RCALL   ?Subroutine20
??CrossCallReturnLabel_31:
        RCALL   ?Subroutine19
//   89                 
//   90       if ((ct>5 && big==0)|| big==1) 
??CrossCallReturnLabel_294:
        RCALL   ?Subroutine20
??CrossCallReturnLabel_32:
        CPI     R16, 6
        BRCS    ??PEREP_0
        LDS     R16, ??big
        TST     R16
        BREQ    ??PEREP_1
??PEREP_0:
        LDS     R16, ??big
        TST     R16
        BREQ    ??PEREP_2
//   91       {//от 5 посылок анализируем остальное шум
//   92         
//   93           for (i=1; i<ct; i++) //ищем миимальную длину
??PEREP_1:
        LDI     R24, 1
        RJMP    ??PEREP_3
//   94           {  
//   95                 len[i]=( dim1[i]+ (256*dim2[i])  );           
??PEREP_4:
        RCALL   ?Subroutine22
??CrossCallReturnLabel_35:
        LDI     R16, 4
        MUL     R24, R16
        RCALL   ??Subroutine127_0
??CrossCallReturnLabel_279:
        ST      Z, R4
        STD     Z+1, R17
        STD     Z+2, R18
        STD     Z+3, R19
//   96                 if (len[i]>900  && len[i]<(float)minimallen)  minimallen=(uint)len[i];
        LDI     R20, 1
        LDI     R21, 0
        LDI     R22, 97
        LDI     R23, 68
        MOV     R16, R4
        RCALL   ?F_CMP_GE_L04
        BRCC    ??CrossCallReturnLabel_312
        RCALL   ?Subroutine30
??CrossCallReturnLabel_187:
        RCALL   ?F_CMP_LT_L04
        BRCC    ??CrossCallReturnLabel_312
        RCALL   ?F2SL_L04
        RCALL   ?Subroutine90
//   97           }
??CrossCallReturnLabel_158:
        RCALL   ??Subroutine132_0
??CrossCallReturnLabel_312:
        INC     R24
??PEREP_3:
        RCALL   ?Subroutine20
??CrossCallReturnLabel_33:
        CP      R24, R16
        BRCS    ??PEREP_4
//   98      
//   99            for (i=1; i<ct; i++) 
        LDI     R24, 1
        RJMP    ??PEREP_5
//  100            { //for 
//  101              uint tr;
//  102              tr=( dim1[i]+ (256*dim2[i]));
//  103              len[i]=(float)tr/minimallen;       
??PEREP_6:
        RCALL   ?Subroutine22
??CrossCallReturnLabel_36:
        RCALL   ?Subroutine30
??CrossCallReturnLabel_188:
        RCALL   ?F_DIV_L04
        LDI     R20, 4
        RCALL   ?Subroutine26
??CrossCallReturnLabel_280:
        RCALL   ??Subroutine132_0
??CrossCallReturnLabel_313:
        STD     Z+2, R18
        STD     Z+3, R19
//  104              if (len[i]!=0)   coding(i, pr);
        RCALL   ?Subroutine50
??CrossCallReturnLabel_277:
        RCALL   ?F_CMP_EQ_L04
        BREQ    ??PEREP_7
        LDS     R18, pr
        MOV     R16, R24
        LDI     R17, 0
        RCALL   coding
//  105            }//for
??PEREP_7:
        INC     R24
??PEREP_5:
        RCALL   ?Subroutine20
//  106       }//от 5 посылок анализируем 
??CrossCallReturnLabel_34:
        CP      R24, R16
        BRCS    ??PEREP_6
//  107       
//  108       //очистка
//  109        for (i=0; i<MAX; i++) {dim1[i]=0;dim2[i]=0;len[i]=0;}
??PEREP_2:
        LDI     R24, 0
        LDI     R20, 4
??PEREP_8:
        RCALL   ?Subroutine93
??CrossCallReturnLabel_161:
        LDI     R16, 0
        RCALL   ?Subroutine87
??CrossCallReturnLabel_144:
        RCALL   ?Subroutine89
??CrossCallReturnLabel_150:
        RCALL   ?Subroutine88
??CrossCallReturnLabel_147:
        RCALL   ?Subroutine89
??CrossCallReturnLabel_151:
        RCALL   ?Subroutine26
??CrossCallReturnLabel_281:
        RCALL   ?Subroutine89
??CrossCallReturnLabel_152:
        STD     Z+2, R16
        STD     Z+3, R16
        INC     R24
        CPI     R24, 50
        BRCS    ??PEREP_8
//  110        perepoln=0;  t1=0; t2=0; ct=0; big=0;     
        STS     ??perepoln, R16
        STS     ??t1, R16
        STS     ??t2, R16
        STS     ct, R16
        STS     ??big, R16
//  111        
//  112     if (pr==1 && cod_ok!=0)     
        LDS     R16, pr
        CPI     R16, 1
        BRNE    ??CrossCallReturnLabel_233
        LDS     R16, cod_ok
        TST     R16
        BREQ    ??CrossCallReturnLabel_233
//  113      {//diag
//  114               rprintfStr("  /   cod1= ");
        LDI     R16, LOW(`?<Constant "  /   cod1= ">`)
        LDI     R17, (`?<Constant "  /   cod1= ">`) >> 8
        RCALL   ?Subroutine28
//  115               rprintfFloat(6,  cod1);
//  116               rprintfStr("/   cod2= ");
??CrossCallReturnLabel_300:
        LDI     R16, LOW(`?<Constant "/   cod2= ">`)
        LDI     R17, (`?<Constant "/   cod2= ">`) >> 8
        RCALL   ?Subroutine40
//  117               rprintfFloat(6,  cod2);
??CrossCallReturnLabel_362:
        RCALL   ??Subroutine129_0
//  118               rprintfStr("/   cod3= ");
??CrossCallReturnLabel_298:
        LDI     R16, LOW(`?<Constant "/   cod3= ">`)
        LDI     R17, (`?<Constant "/   cod3= ">`) >> 8
        RCALL   ?Subroutine42
//  119               rprintfFloat(6,  cod3);
??CrossCallReturnLabel_355:
        RCALL   ??Subroutine129_0
//  120               ent;
??CrossCallReturnLabel_297:
        RCALL   ?Subroutine113
//  121                                 
//  122      }//diag
//  123  
//  124 }
??CrossCallReturnLabel_233:
        LDI     R30, 8
        RJMP    ?EPILOGUE_B8_L09
          CFI EndBlock cfiBlock3

        RSEG CODE:CODE:NOROOT(1)
?Subroutine88:
          CFI Block cfiCond4 Using cfiCommon0
          CFI Function analiz_INT
          CFI Conditional ??CrossCallReturnLabel_146
          CFI CFA_SP SP+4
          CFI Block cfiCond5 Using cfiCommon0
          CFI (cfiCond5) Function PEREP
          CFI (cfiCond5) Conditional ??CrossCallReturnLabel_147
          CFI (cfiCond5) R24 Frame(CFA_Y, -8)
          CFI (cfiCond5) R25 Frame(CFA_Y, -7)
          CFI (cfiCond5) R26 Frame(CFA_Y, -6)
          CFI (cfiCond5) R27 Frame(CFA_Y, -5)
          CFI (cfiCond5) R4 Frame(CFA_Y, -4)
          CFI (cfiCond5) R5 Frame(CFA_Y, -3)
          CFI (cfiCond5) R6 Frame(CFA_Y, -2)
          CFI (cfiCond5) R7 Frame(CFA_Y, -1)
          CFI (cfiCond5) CFA_SP SP+4
          CFI (cfiCond5) CFA_Y Y+8
          CFI Block cfiCond6 Using cfiCommon0
          CFI (cfiCond6) Function PEREP
          CFI (cfiCond6) Conditional ??CrossCallReturnLabel_148, ??CrossCallReturnLabel_35
          CFI (cfiCond6) R24 Frame(CFA_Y, -8)
          CFI (cfiCond6) R25 Frame(CFA_Y, -7)
          CFI (cfiCond6) R26 Frame(CFA_Y, -6)
          CFI (cfiCond6) R27 Frame(CFA_Y, -5)
          CFI (cfiCond6) R4 Frame(CFA_Y, -4)
          CFI (cfiCond6) R5 Frame(CFA_Y, -3)
          CFI (cfiCond6) R6 Frame(CFA_Y, -2)
          CFI (cfiCond6) R7 Frame(CFA_Y, -1)
          CFI (cfiCond6) CFA_SP SP+6
          CFI (cfiCond6) CFA_Y Y+8
          CFI Block cfiCond7 Using cfiCommon0
          CFI (cfiCond7) Function PEREP
          CFI (cfiCond7) Conditional ??CrossCallReturnLabel_148, ??CrossCallReturnLabel_36
          CFI (cfiCond7) R24 Frame(CFA_Y, -8)
          CFI (cfiCond7) R25 Frame(CFA_Y, -7)
          CFI (cfiCond7) R26 Frame(CFA_Y, -6)
          CFI (cfiCond7) R27 Frame(CFA_Y, -5)
          CFI (cfiCond7) R4 Frame(CFA_Y, -4)
          CFI (cfiCond7) R5 Frame(CFA_Y, -3)
          CFI (cfiCond7) R6 Frame(CFA_Y, -2)
          CFI (cfiCond7) R7 Frame(CFA_Y, -1)
          CFI (cfiCond7) CFA_SP SP+6
          CFI (cfiCond7) CFA_Y Y+8
          CFI Block cfiPicker8 Using cfiCommon2
          CFI (cfiPicker8) NoFunction
          CFI (cfiPicker8) Picker
        MOVW    R31:R30, R1:R0
        SUBI    R30, LOW((-(dim2) & 0xFFFF))
        SBCI    R31, (-(dim2) & 0xFFFF) >> 8
        RET
          CFI EndBlock cfiCond4
          CFI EndBlock cfiCond5
          CFI EndBlock cfiCond6
          CFI EndBlock cfiCond7
          CFI EndBlock cfiPicker8

        RSEG CODE:CODE:NOROOT(1)
?Subroutine87:
          CFI Block cfiCond9 Using cfiCommon0
          CFI Function analiz_INT
          CFI Conditional ??CrossCallReturnLabel_143
          CFI CFA_SP SP+4
          CFI Block cfiCond10 Using cfiCommon0
          CFI (cfiCond10) Function PEREP
          CFI (cfiCond10) Conditional ??CrossCallReturnLabel_144
          CFI (cfiCond10) R24 Frame(CFA_Y, -8)
          CFI (cfiCond10) R25 Frame(CFA_Y, -7)
          CFI (cfiCond10) R26 Frame(CFA_Y, -6)
          CFI (cfiCond10) R27 Frame(CFA_Y, -5)
          CFI (cfiCond10) R4 Frame(CFA_Y, -4)
          CFI (cfiCond10) R5 Frame(CFA_Y, -3)
          CFI (cfiCond10) R6 Frame(CFA_Y, -2)
          CFI (cfiCond10) R7 Frame(CFA_Y, -1)
          CFI (cfiCond10) CFA_SP SP+4
          CFI (cfiCond10) CFA_Y Y+8
          CFI Block cfiCond11 Using cfiCommon0
          CFI (cfiCond11) Function PEREP
          CFI (cfiCond11) Conditional ??CrossCallReturnLabel_145, ??CrossCallReturnLabel_35
          CFI (cfiCond11) R24 Frame(CFA_Y, -8)
          CFI (cfiCond11) R25 Frame(CFA_Y, -7)
          CFI (cfiCond11) R26 Frame(CFA_Y, -6)
          CFI (cfiCond11) R27 Frame(CFA_Y, -5)
          CFI (cfiCond11) R4 Frame(CFA_Y, -4)
          CFI (cfiCond11) R5 Frame(CFA_Y, -3)
          CFI (cfiCond11) R6 Frame(CFA_Y, -2)
          CFI (cfiCond11) R7 Frame(CFA_Y, -1)
          CFI (cfiCond11) CFA_SP SP+6
          CFI (cfiCond11) CFA_Y Y+8
          CFI Block cfiCond12 Using cfiCommon0
          CFI (cfiCond12) Function PEREP
          CFI (cfiCond12) Conditional ??CrossCallReturnLabel_145, ??CrossCallReturnLabel_36
          CFI (cfiCond12) R24 Frame(CFA_Y, -8)
          CFI (cfiCond12) R25 Frame(CFA_Y, -7)
          CFI (cfiCond12) R26 Frame(CFA_Y, -6)
          CFI (cfiCond12) R27 Frame(CFA_Y, -5)
          CFI (cfiCond12) R4 Frame(CFA_Y, -4)
          CFI (cfiCond12) R5 Frame(CFA_Y, -3)
          CFI (cfiCond12) R6 Frame(CFA_Y, -2)
          CFI (cfiCond12) R7 Frame(CFA_Y, -1)
          CFI (cfiCond12) CFA_SP SP+6
          CFI (cfiCond12) CFA_Y Y+8
          CFI Block cfiPicker13 Using cfiCommon2
          CFI (cfiPicker13) NoFunction
          CFI (cfiPicker13) Picker
        MOVW    R31:R30, R1:R0
        SUBI    R30, LOW((-(dim1) & 0xFFFF))
        SBCI    R31, (-(dim1) & 0xFFFF) >> 8
        RET
          CFI EndBlock cfiCond9
          CFI EndBlock cfiCond10
          CFI EndBlock cfiCond11
          CFI EndBlock cfiCond12
          CFI EndBlock cfiPicker13

        RSEG CODE:CODE:NOROOT(1)
?Subroutine50:
          CFI Block cfiCond14 Using cfiCommon0
          CFI Function PEREP
          CFI Conditional ??CrossCallReturnLabel_277
          CFI R24 Frame(CFA_Y, -8)
          CFI R25 Frame(CFA_Y, -7)
          CFI R26 Frame(CFA_Y, -6)
          CFI R27 Frame(CFA_Y, -5)
          CFI R4 Frame(CFA_Y, -4)
          CFI R5 Frame(CFA_Y, -3)
          CFI R6 Frame(CFA_Y, -2)
          CFI R7 Frame(CFA_Y, -1)
          CFI CFA_SP SP+4
          CFI CFA_Y Y+8
          CFI Block cfiCond15 Using cfiCommon0
          CFI (cfiCond15) Function rprintfFloat
          CFI (cfiCond15) Conditional ??CrossCallReturnLabel_278
          CFI (cfiCond15) R24 Frame(CFA_Y, -12)
          CFI (cfiCond15) R25 Frame(CFA_Y, -11)
          CFI (cfiCond15) R26 Frame(CFA_Y, -10)
          CFI (cfiCond15) R27 Frame(CFA_Y, -9)
          CFI (cfiCond15) R4 Frame(CFA_Y, -8)
          CFI (cfiCond15) R5 Frame(CFA_Y, -7)
          CFI (cfiCond15) R6 Frame(CFA_Y, -6)
          CFI (cfiCond15) R7 Frame(CFA_Y, -5)
          CFI (cfiCond15) R8 Frame(CFA_Y, -4)
          CFI (cfiCond15) R9 Frame(CFA_Y, -3)
          CFI (cfiCond15) R10 Frame(CFA_Y, -2)
          CFI (cfiCond15) R11 Frame(CFA_Y, -1)
          CFI (cfiCond15) CFA_SP SP+4
          CFI (cfiCond15) CFA_Y Y+12
          CFI Block cfiPicker16 Using cfiCommon2
          CFI (cfiPicker16) NoFunction
          CFI (cfiPicker16) Picker
        LDI     R20, 0
          CFI EndBlock cfiCond14
          CFI EndBlock cfiCond15
          CFI EndBlock cfiPicker16
        REQUIRE ??Subroutine126_0
        ;               // Fall through to label ??Subroutine126_0

        RSEG CODE:CODE:NOROOT(1)
??Subroutine126_0:
          CFI Block cfiCond17 Using cfiCommon0
          CFI Function TimerSet
          CFI Conditional ??CrossCallReturnLabel_276
          CFI CFA_SP SP+4
          CFI Block cfiCond18 Using cfiCommon0
          CFI (cfiCond18) Function PEREP
          CFI (cfiCond18) Conditional ??CrossCallReturnLabel_277
          CFI (cfiCond18) R24 Frame(CFA_Y, -8)
          CFI (cfiCond18) R25 Frame(CFA_Y, -7)
          CFI (cfiCond18) R26 Frame(CFA_Y, -6)
          CFI (cfiCond18) R27 Frame(CFA_Y, -5)
          CFI (cfiCond18) R4 Frame(CFA_Y, -4)
          CFI (cfiCond18) R5 Frame(CFA_Y, -3)
          CFI (cfiCond18) R6 Frame(CFA_Y, -2)
          CFI (cfiCond18) R7 Frame(CFA_Y, -1)
          CFI (cfiCond18) CFA_SP SP+4
          CFI (cfiCond18) CFA_Y Y+8
          CFI Block cfiCond19 Using cfiCommon0
          CFI (cfiCond19) Function rprintfFloat
          CFI (cfiCond19) Conditional ??CrossCallReturnLabel_278
          CFI (cfiCond19) R24 Frame(CFA_Y, -12)
          CFI (cfiCond19) R25 Frame(CFA_Y, -11)
          CFI (cfiCond19) R26 Frame(CFA_Y, -10)
          CFI (cfiCond19) R27 Frame(CFA_Y, -9)
          CFI (cfiCond19) R4 Frame(CFA_Y, -8)
          CFI (cfiCond19) R5 Frame(CFA_Y, -7)
          CFI (cfiCond19) R6 Frame(CFA_Y, -6)
          CFI (cfiCond19) R7 Frame(CFA_Y, -5)
          CFI (cfiCond19) R8 Frame(CFA_Y, -4)
          CFI (cfiCond19) R9 Frame(CFA_Y, -3)
          CFI (cfiCond19) R10 Frame(CFA_Y, -2)
          CFI (cfiCond19) R11 Frame(CFA_Y, -1)
          CFI (cfiCond19) CFA_SP SP+4
          CFI (cfiCond19) CFA_Y Y+12
          CFI Block cfiPicker20 Using cfiCommon2
          CFI (cfiPicker20) NoFunction
          CFI (cfiPicker20) Picker
        LDI     R21, 0
        LDI     R22, 0
        LDI     R23, 0
        RET
          CFI EndBlock cfiCond17
          CFI EndBlock cfiCond18
          CFI EndBlock cfiCond19
          CFI EndBlock cfiPicker20

        RSEG CODE:CODE:NOROOT(1)
?Subroutine30:
          CFI Block cfiCond21 Using cfiCommon0
          CFI Function PEREP
          CFI Conditional ??CrossCallReturnLabel_187
          CFI R24 Frame(CFA_Y, -8)
          CFI R25 Frame(CFA_Y, -7)
          CFI R26 Frame(CFA_Y, -6)
          CFI R27 Frame(CFA_Y, -5)
          CFI R4 Frame(CFA_Y, -4)
          CFI R5 Frame(CFA_Y, -3)
          CFI R6 Frame(CFA_Y, -2)
          CFI R7 Frame(CFA_Y, -1)
          CFI CFA_SP SP+4
          CFI CFA_Y Y+8
          CFI Block cfiCond22 Using cfiCommon0
          CFI (cfiCond22) Function PEREP
          CFI (cfiCond22) Conditional ??CrossCallReturnLabel_188
          CFI (cfiCond22) R24 Frame(CFA_Y, -8)
          CFI (cfiCond22) R25 Frame(CFA_Y, -7)
          CFI (cfiCond22) R26 Frame(CFA_Y, -6)
          CFI (cfiCond22) R27 Frame(CFA_Y, -5)
          CFI (cfiCond22) R4 Frame(CFA_Y, -4)
          CFI (cfiCond22) R5 Frame(CFA_Y, -3)
          CFI (cfiCond22) R6 Frame(CFA_Y, -2)
          CFI (cfiCond22) R7 Frame(CFA_Y, -1)
          CFI (cfiCond22) CFA_SP SP+4
          CFI (cfiCond22) CFA_Y Y+8
          CFI Block cfiPicker23 Using cfiCommon2
          CFI (cfiPicker23) NoFunction
          CFI (cfiPicker23) Picker
        RCALL   ?Subroutine90
??CrossCallReturnLabel_160:
        RCALL   ?Subroutine91
          CFI EndBlock cfiCond21
          CFI EndBlock cfiCond22
          CFI EndBlock cfiPicker23
??CrossCallReturnLabel_286:
        REQUIRE ?Subroutine98
        ;               // Fall through to label ?Subroutine98

        RSEG CODE:CODE:NOROOT(1)
?Subroutine98:
          CFI Block cfiCond24 Using cfiCommon0
          CFI Function PEREP
          CFI Conditional ??CrossCallReturnLabel_187
          CFI R24 Frame(CFA_Y, -8)
          CFI R25 Frame(CFA_Y, -7)
          CFI R26 Frame(CFA_Y, -6)
          CFI R27 Frame(CFA_Y, -5)
          CFI R4 Frame(CFA_Y, -4)
          CFI R5 Frame(CFA_Y, -3)
          CFI R6 Frame(CFA_Y, -2)
          CFI R7 Frame(CFA_Y, -1)
          CFI CFA_SP SP+4
          CFI CFA_Y Y+8
          CFI Block cfiCond25 Using cfiCommon0
          CFI (cfiCond25) Function PEREP
          CFI (cfiCond25) Conditional ??CrossCallReturnLabel_188
          CFI (cfiCond25) R24 Frame(CFA_Y, -8)
          CFI (cfiCond25) R25 Frame(CFA_Y, -7)
          CFI (cfiCond25) R26 Frame(CFA_Y, -6)
          CFI (cfiCond25) R27 Frame(CFA_Y, -5)
          CFI (cfiCond25) R4 Frame(CFA_Y, -4)
          CFI (cfiCond25) R5 Frame(CFA_Y, -3)
          CFI (cfiCond25) R6 Frame(CFA_Y, -2)
          CFI (cfiCond25) R7 Frame(CFA_Y, -1)
          CFI (cfiCond25) CFA_SP SP+4
          CFI (cfiCond25) CFA_Y Y+8
          CFI Block cfiCond26 Using cfiCommon0
          CFI (cfiCond26) Function rprintfFloat
          CFI (cfiCond26) Conditional ??CrossCallReturnLabel_185
          CFI (cfiCond26) R24 Frame(CFA_Y, -12)
          CFI (cfiCond26) R25 Frame(CFA_Y, -11)
          CFI (cfiCond26) R26 Frame(CFA_Y, -10)
          CFI (cfiCond26) R27 Frame(CFA_Y, -9)
          CFI (cfiCond26) R4 Frame(CFA_Y, -8)
          CFI (cfiCond26) R5 Frame(CFA_Y, -7)
          CFI (cfiCond26) R6 Frame(CFA_Y, -6)
          CFI (cfiCond26) R7 Frame(CFA_Y, -5)
          CFI (cfiCond26) R8 Frame(CFA_Y, -4)
          CFI (cfiCond26) R9 Frame(CFA_Y, -3)
          CFI (cfiCond26) R10 Frame(CFA_Y, -2)
          CFI (cfiCond26) R11 Frame(CFA_Y, -1)
          CFI (cfiCond26) CFA_SP SP+4
          CFI (cfiCond26) CFA_Y Y+12
          CFI Block cfiCond27 Using cfiCommon0
          CFI (cfiCond27) Function rprintfFloat
          CFI (cfiCond27) Conditional ??CrossCallReturnLabel_186
          CFI (cfiCond27) R24 Frame(CFA_Y, -12)
          CFI (cfiCond27) R25 Frame(CFA_Y, -11)
          CFI (cfiCond27) R26 Frame(CFA_Y, -10)
          CFI (cfiCond27) R27 Frame(CFA_Y, -9)
          CFI (cfiCond27) R4 Frame(CFA_Y, -8)
          CFI (cfiCond27) R5 Frame(CFA_Y, -7)
          CFI (cfiCond27) R6 Frame(CFA_Y, -6)
          CFI (cfiCond27) R7 Frame(CFA_Y, -5)
          CFI (cfiCond27) R8 Frame(CFA_Y, -4)
          CFI (cfiCond27) R9 Frame(CFA_Y, -3)
          CFI (cfiCond27) R10 Frame(CFA_Y, -2)
          CFI (cfiCond27) R11 Frame(CFA_Y, -1)
          CFI (cfiCond27) CFA_SP SP+4
          CFI (cfiCond27) CFA_Y Y+12
          CFI Block cfiCond28 Using cfiCommon0
          CFI (cfiCond28) Function rprintfFloat
          CFI (cfiCond28) Conditional ??CrossCallReturnLabel_189, ??CrossCallReturnLabel_61
          CFI (cfiCond28) R24 Frame(CFA_Y, -12)
          CFI (cfiCond28) R25 Frame(CFA_Y, -11)
          CFI (cfiCond28) R26 Frame(CFA_Y, -10)
          CFI (cfiCond28) R27 Frame(CFA_Y, -9)
          CFI (cfiCond28) R4 Frame(CFA_Y, -8)
          CFI (cfiCond28) R5 Frame(CFA_Y, -7)
          CFI (cfiCond28) R6 Frame(CFA_Y, -6)
          CFI (cfiCond28) R7 Frame(CFA_Y, -5)
          CFI (cfiCond28) R8 Frame(CFA_Y, -4)
          CFI (cfiCond28) R9 Frame(CFA_Y, -3)
          CFI (cfiCond28) R10 Frame(CFA_Y, -2)
          CFI (cfiCond28) R11 Frame(CFA_Y, -1)
          CFI (cfiCond28) CFA_SP SP+6
          CFI (cfiCond28) CFA_Y Y+12
          CFI Block cfiCond29 Using cfiCommon0
          CFI (cfiCond29) Function rprintfFloat
          CFI (cfiCond29) Conditional ??CrossCallReturnLabel_189, ??CrossCallReturnLabel_62
          CFI (cfiCond29) R24 Frame(CFA_Y, -12)
          CFI (cfiCond29) R25 Frame(CFA_Y, -11)
          CFI (cfiCond29) R26 Frame(CFA_Y, -10)
          CFI (cfiCond29) R27 Frame(CFA_Y, -9)
          CFI (cfiCond29) R4 Frame(CFA_Y, -8)
          CFI (cfiCond29) R5 Frame(CFA_Y, -7)
          CFI (cfiCond29) R6 Frame(CFA_Y, -6)
          CFI (cfiCond29) R7 Frame(CFA_Y, -5)
          CFI (cfiCond29) R8 Frame(CFA_Y, -4)
          CFI (cfiCond29) R9 Frame(CFA_Y, -3)
          CFI (cfiCond29) R10 Frame(CFA_Y, -2)
          CFI (cfiCond29) R11 Frame(CFA_Y, -1)
          CFI (cfiCond29) CFA_SP SP+6
          CFI (cfiCond29) CFA_Y Y+12
          CFI Block cfiPicker30 Using cfiCommon2
          CFI (cfiPicker30) NoFunction
          CFI (cfiPicker30) Picker
        MOVW    R17:R16, R5:R4
        MOVW    R19:R18, R7:R6
        RET
          CFI EndBlock cfiCond24
          CFI EndBlock cfiCond25
          CFI EndBlock cfiCond26
          CFI EndBlock cfiCond27
          CFI EndBlock cfiCond28
          CFI EndBlock cfiCond29
          CFI EndBlock cfiPicker30

        RSEG CODE:CODE:NOROOT(1)
?Subroutine91:
          CFI Block cfiCond31 Using cfiCommon0
          CFI Function PEREP
          CFI Conditional ??CrossCallReturnLabel_286, ??CrossCallReturnLabel_187
          CFI R24 Frame(CFA_Y, -8)
          CFI R25 Frame(CFA_Y, -7)
          CFI R26 Frame(CFA_Y, -6)
          CFI R27 Frame(CFA_Y, -5)
          CFI R4 Frame(CFA_Y, -4)
          CFI R5 Frame(CFA_Y, -3)
          CFI R6 Frame(CFA_Y, -2)
          CFI R7 Frame(CFA_Y, -1)
          CFI CFA_SP SP+6
          CFI CFA_Y Y+8
          CFI Block cfiCond32 Using cfiCommon0
          CFI (cfiCond32) Function PEREP
          CFI (cfiCond32) Conditional ??CrossCallReturnLabel_286, ??CrossCallReturnLabel_188
          CFI (cfiCond32) R24 Frame(CFA_Y, -8)
          CFI (cfiCond32) R25 Frame(CFA_Y, -7)
          CFI (cfiCond32) R26 Frame(CFA_Y, -6)
          CFI (cfiCond32) R27 Frame(CFA_Y, -5)
          CFI (cfiCond32) R4 Frame(CFA_Y, -4)
          CFI (cfiCond32) R5 Frame(CFA_Y, -3)
          CFI (cfiCond32) R6 Frame(CFA_Y, -2)
          CFI (cfiCond32) R7 Frame(CFA_Y, -1)
          CFI (cfiCond32) CFA_SP SP+6
          CFI (cfiCond32) CFA_Y Y+8
          CFI Block cfiCond33 Using cfiCommon0
          CFI (cfiCond33) Function PEREP
          CFI (cfiCond33) Conditional ??CrossCallReturnLabel_287, ??CrossCallReturnLabel_300
          CFI (cfiCond33) R24 Frame(CFA_Y, -8)
          CFI (cfiCond33) R25 Frame(CFA_Y, -7)
          CFI (cfiCond33) R26 Frame(CFA_Y, -6)
          CFI (cfiCond33) R27 Frame(CFA_Y, -5)
          CFI (cfiCond33) R4 Frame(CFA_Y, -4)
          CFI (cfiCond33) R5 Frame(CFA_Y, -3)
          CFI (cfiCond33) R6 Frame(CFA_Y, -2)
          CFI (cfiCond33) R7 Frame(CFA_Y, -1)
          CFI (cfiCond33) CFA_SP SP+6
          CFI (cfiCond33) CFA_Y Y+8
          CFI Block cfiCond34 Using cfiCommon0
          CFI (cfiCond34) Function coding
          CFI (cfiCond34) Conditional ??CrossCallReturnLabel_287, ??CrossCallReturnLabel_299
          CFI (cfiCond34) R24 Frame(CFA_Y, -10)
          CFI (cfiCond34) R25 Frame(CFA_Y, -9)
          CFI (cfiCond34) R26 Frame(CFA_Y, -8)
          CFI (cfiCond34) R27 Frame(CFA_Y, -7)
          CFI (cfiCond34) R4 Frame(CFA_Y, -6)
          CFI (cfiCond34) R5 Frame(CFA_Y, -5)
          CFI (cfiCond34) R6 Frame(CFA_Y, -4)
          CFI (cfiCond34) R7 Frame(CFA_Y, -3)
          CFI (cfiCond34) R8 Frame(CFA_Y, -2)
          CFI (cfiCond34) R9 Frame(CFA_Y, -1)
          CFI (cfiCond34) CFA_SP SP+6
          CFI (cfiCond34) CFA_Y Y+10
          CFI Block cfiCond35 Using cfiCommon0
          CFI (cfiCond35) Function PEREP
          CFI (cfiCond35) Conditional ??CrossCallReturnLabel_287, ??CrossCallReturnLabel_298
          CFI (cfiCond35) R24 Frame(CFA_Y, -8)
          CFI (cfiCond35) R25 Frame(CFA_Y, -7)
          CFI (cfiCond35) R26 Frame(CFA_Y, -6)
          CFI (cfiCond35) R27 Frame(CFA_Y, -5)
          CFI (cfiCond35) R4 Frame(CFA_Y, -4)
          CFI (cfiCond35) R5 Frame(CFA_Y, -3)
          CFI (cfiCond35) R6 Frame(CFA_Y, -2)
          CFI (cfiCond35) R7 Frame(CFA_Y, -1)
          CFI (cfiCond35) CFA_SP SP+6
          CFI (cfiCond35) CFA_Y Y+8
          CFI Block cfiCond36 Using cfiCommon0
          CFI (cfiCond36) Function PEREP
          CFI (cfiCond36) Conditional ??CrossCallReturnLabel_287, ??CrossCallReturnLabel_297
          CFI (cfiCond36) R24 Frame(CFA_Y, -8)
          CFI (cfiCond36) R25 Frame(CFA_Y, -7)
          CFI (cfiCond36) R26 Frame(CFA_Y, -6)
          CFI (cfiCond36) R27 Frame(CFA_Y, -5)
          CFI (cfiCond36) R4 Frame(CFA_Y, -4)
          CFI (cfiCond36) R5 Frame(CFA_Y, -3)
          CFI (cfiCond36) R6 Frame(CFA_Y, -2)
          CFI (cfiCond36) R7 Frame(CFA_Y, -1)
          CFI (cfiCond36) CFA_SP SP+6
          CFI (cfiCond36) CFA_Y Y+8
          CFI Block cfiCond37 Using cfiCommon0
          CFI (cfiCond37) Function coding
          CFI (cfiCond37) Conditional ??CrossCallReturnLabel_287, ??CrossCallReturnLabel_296
          CFI (cfiCond37) R24 Frame(CFA_Y, -10)
          CFI (cfiCond37) R25 Frame(CFA_Y, -9)
          CFI (cfiCond37) R26 Frame(CFA_Y, -8)
          CFI (cfiCond37) R27 Frame(CFA_Y, -7)
          CFI (cfiCond37) R4 Frame(CFA_Y, -6)
          CFI (cfiCond37) R5 Frame(CFA_Y, -5)
          CFI (cfiCond37) R6 Frame(CFA_Y, -4)
          CFI (cfiCond37) R7 Frame(CFA_Y, -3)
          CFI (cfiCond37) R8 Frame(CFA_Y, -2)
          CFI (cfiCond37) R9 Frame(CFA_Y, -1)
          CFI (cfiCond37) CFA_SP SP+6
          CFI (cfiCond37) CFA_Y Y+10
          CFI Block cfiCond38 Using cfiCommon0
          CFI (cfiCond38) Function coding
          CFI (cfiCond38) Conditional ??CrossCallReturnLabel_287, ??CrossCallReturnLabel_295
          CFI (cfiCond38) R24 Frame(CFA_Y, -10)
          CFI (cfiCond38) R25 Frame(CFA_Y, -9)
          CFI (cfiCond38) R26 Frame(CFA_Y, -8)
          CFI (cfiCond38) R27 Frame(CFA_Y, -7)
          CFI (cfiCond38) R4 Frame(CFA_Y, -6)
          CFI (cfiCond38) R5 Frame(CFA_Y, -5)
          CFI (cfiCond38) R6 Frame(CFA_Y, -4)
          CFI (cfiCond38) R7 Frame(CFA_Y, -3)
          CFI (cfiCond38) R8 Frame(CFA_Y, -2)
          CFI (cfiCond38) R9 Frame(CFA_Y, -1)
          CFI (cfiCond38) CFA_SP SP+6
          CFI (cfiCond38) CFA_Y Y+10
          CFI Block cfiPicker39 Using cfiCommon2
          CFI (cfiPicker39) NoFunction
          CFI (cfiPicker39) Picker
        LD      R16, Z
        LDD     R17, Z+1
        RJMP    ?Subroutine112
          CFI EndBlock cfiCond31
          CFI EndBlock cfiCond32
          CFI EndBlock cfiCond33
          CFI EndBlock cfiCond34
          CFI EndBlock cfiCond35
          CFI EndBlock cfiCond36
          CFI EndBlock cfiCond37
          CFI EndBlock cfiCond38
          CFI EndBlock cfiPicker39

        RSEG CODE:CODE:NOROOT(1)
?Subroutine90:
          CFI Block cfiCond40 Using cfiCommon0
          CFI Function PEREP
          CFI Conditional ??CrossCallReturnLabel_157
          CFI R24 Frame(CFA_Y, -8)
          CFI R25 Frame(CFA_Y, -7)
          CFI R26 Frame(CFA_Y, -6)
          CFI R27 Frame(CFA_Y, -5)
          CFI R4 Frame(CFA_Y, -4)
          CFI R5 Frame(CFA_Y, -3)
          CFI R6 Frame(CFA_Y, -2)
          CFI R7 Frame(CFA_Y, -1)
          CFI CFA_SP SP+4
          CFI CFA_Y Y+8
          CFI Block cfiCond41 Using cfiCommon0
          CFI (cfiCond41) Function PEREP
          CFI (cfiCond41) Conditional ??CrossCallReturnLabel_158
          CFI (cfiCond41) R24 Frame(CFA_Y, -8)
          CFI (cfiCond41) R25 Frame(CFA_Y, -7)
          CFI (cfiCond41) R26 Frame(CFA_Y, -6)
          CFI (cfiCond41) R27 Frame(CFA_Y, -5)
          CFI (cfiCond41) R4 Frame(CFA_Y, -4)
          CFI (cfiCond41) R5 Frame(CFA_Y, -3)
          CFI (cfiCond41) R6 Frame(CFA_Y, -2)
          CFI (cfiCond41) R7 Frame(CFA_Y, -1)
          CFI (cfiCond41) CFA_SP SP+4
          CFI (cfiCond41) CFA_Y Y+8
          CFI Block cfiCond42 Using cfiCommon0
          CFI (cfiCond42) Function PEREP
          CFI (cfiCond42) Conditional ??CrossCallReturnLabel_160, ??CrossCallReturnLabel_187
          CFI (cfiCond42) R24 Frame(CFA_Y, -8)
          CFI (cfiCond42) R25 Frame(CFA_Y, -7)
          CFI (cfiCond42) R26 Frame(CFA_Y, -6)
          CFI (cfiCond42) R27 Frame(CFA_Y, -5)
          CFI (cfiCond42) R4 Frame(CFA_Y, -4)
          CFI (cfiCond42) R5 Frame(CFA_Y, -3)
          CFI (cfiCond42) R6 Frame(CFA_Y, -2)
          CFI (cfiCond42) R7 Frame(CFA_Y, -1)
          CFI (cfiCond42) CFA_SP SP+6
          CFI (cfiCond42) CFA_Y Y+8
          CFI Block cfiCond43 Using cfiCommon0
          CFI (cfiCond43) Function PEREP
          CFI (cfiCond43) Conditional ??CrossCallReturnLabel_160, ??CrossCallReturnLabel_188
          CFI (cfiCond43) R24 Frame(CFA_Y, -8)
          CFI (cfiCond43) R25 Frame(CFA_Y, -7)
          CFI (cfiCond43) R26 Frame(CFA_Y, -6)
          CFI (cfiCond43) R27 Frame(CFA_Y, -5)
          CFI (cfiCond43) R4 Frame(CFA_Y, -4)
          CFI (cfiCond43) R5 Frame(CFA_Y, -3)
          CFI (cfiCond43) R6 Frame(CFA_Y, -2)
          CFI (cfiCond43) R7 Frame(CFA_Y, -1)
          CFI (cfiCond43) CFA_SP SP+6
          CFI (cfiCond43) CFA_Y Y+8
          CFI Block cfiCond44 Using cfiCommon0
          CFI (cfiCond44) Function coding
          CFI (cfiCond44) Conditional ??CrossCallReturnLabel_159
          CFI (cfiCond44) R24 Frame(CFA_Y, -10)
          CFI (cfiCond44) R25 Frame(CFA_Y, -9)
          CFI (cfiCond44) R26 Frame(CFA_Y, -8)
          CFI (cfiCond44) R27 Frame(CFA_Y, -7)
          CFI (cfiCond44) R4 Frame(CFA_Y, -6)
          CFI (cfiCond44) R5 Frame(CFA_Y, -5)
          CFI (cfiCond44) R6 Frame(CFA_Y, -4)
          CFI (cfiCond44) R7 Frame(CFA_Y, -3)
          CFI (cfiCond44) R8 Frame(CFA_Y, -2)
          CFI (cfiCond44) R9 Frame(CFA_Y, -1)
          CFI (cfiCond44) CFA_SP SP+4
          CFI (cfiCond44) CFA_Y Y+10
          CFI Block cfiPicker45 Using cfiCommon2
          CFI (cfiPicker45) NoFunction
          CFI (cfiPicker45) Picker
        LDI     R30, LOW(minimallen)
        LDI     R31, (minimallen) >> 8
        RET
          CFI EndBlock cfiCond40
          CFI EndBlock cfiCond41
          CFI EndBlock cfiCond42
          CFI EndBlock cfiCond43
          CFI EndBlock cfiCond44
          CFI EndBlock cfiPicker45

        RSEG CODE:CODE:NOROOT(1)
?Subroutine26:
          CFI Block cfiCond46 Using cfiCommon0
          CFI Function PEREP
          CFI Conditional ??CrossCallReturnLabel_280
          CFI R24 Frame(CFA_Y, -8)
          CFI R25 Frame(CFA_Y, -7)
          CFI R26 Frame(CFA_Y, -6)
          CFI R27 Frame(CFA_Y, -5)
          CFI R4 Frame(CFA_Y, -4)
          CFI R5 Frame(CFA_Y, -3)
          CFI R6 Frame(CFA_Y, -2)
          CFI R7 Frame(CFA_Y, -1)
          CFI CFA_SP SP+4
          CFI CFA_Y Y+8
          CFI Block cfiCond47 Using cfiCommon0
          CFI (cfiCond47) Function PEREP
          CFI (cfiCond47) Conditional ??CrossCallReturnLabel_281
          CFI (cfiCond47) R24 Frame(CFA_Y, -8)
          CFI (cfiCond47) R25 Frame(CFA_Y, -7)
          CFI (cfiCond47) R26 Frame(CFA_Y, -6)
          CFI (cfiCond47) R27 Frame(CFA_Y, -5)
          CFI (cfiCond47) R4 Frame(CFA_Y, -4)
          CFI (cfiCond47) R5 Frame(CFA_Y, -3)
          CFI (cfiCond47) R6 Frame(CFA_Y, -2)
          CFI (cfiCond47) R7 Frame(CFA_Y, -1)
          CFI (cfiCond47) CFA_SP SP+4
          CFI (cfiCond47) CFA_Y Y+8
          CFI Block cfiPicker48 Using cfiCommon2
          CFI (cfiPicker48) NoFunction
          CFI (cfiPicker48) Picker
        MUL     R24, R20
          CFI EndBlock cfiCond46
          CFI EndBlock cfiCond47
          CFI EndBlock cfiPicker48
        REQUIRE ??Subroutine127_0
        ;               // Fall through to label ??Subroutine127_0

        RSEG CODE:CODE:NOROOT(1)
??Subroutine127_0:
          CFI Block cfiCond49 Using cfiCommon0
          CFI Function PEREP
          CFI Conditional ??CrossCallReturnLabel_279
          CFI R24 Frame(CFA_Y, -8)
          CFI R25 Frame(CFA_Y, -7)
          CFI R26 Frame(CFA_Y, -6)
          CFI R27 Frame(CFA_Y, -5)
          CFI R4 Frame(CFA_Y, -4)
          CFI R5 Frame(CFA_Y, -3)
          CFI R6 Frame(CFA_Y, -2)
          CFI R7 Frame(CFA_Y, -1)
          CFI CFA_SP SP+4
          CFI CFA_Y Y+8
          CFI Block cfiCond50 Using cfiCommon0
          CFI (cfiCond50) Function PEREP
          CFI (cfiCond50) Conditional ??CrossCallReturnLabel_280
          CFI (cfiCond50) R24 Frame(CFA_Y, -8)
          CFI (cfiCond50) R25 Frame(CFA_Y, -7)
          CFI (cfiCond50) R26 Frame(CFA_Y, -6)
          CFI (cfiCond50) R27 Frame(CFA_Y, -5)
          CFI (cfiCond50) R4 Frame(CFA_Y, -4)
          CFI (cfiCond50) R5 Frame(CFA_Y, -3)
          CFI (cfiCond50) R6 Frame(CFA_Y, -2)
          CFI (cfiCond50) R7 Frame(CFA_Y, -1)
          CFI (cfiCond50) CFA_SP SP+4
          CFI (cfiCond50) CFA_Y Y+8
          CFI Block cfiCond51 Using cfiCommon0
          CFI (cfiCond51) Function PEREP
          CFI (cfiCond51) Conditional ??CrossCallReturnLabel_281
          CFI (cfiCond51) R24 Frame(CFA_Y, -8)
          CFI (cfiCond51) R25 Frame(CFA_Y, -7)
          CFI (cfiCond51) R26 Frame(CFA_Y, -6)
          CFI (cfiCond51) R27 Frame(CFA_Y, -5)
          CFI (cfiCond51) R4 Frame(CFA_Y, -4)
          CFI (cfiCond51) R5 Frame(CFA_Y, -3)
          CFI (cfiCond51) R6 Frame(CFA_Y, -2)
          CFI (cfiCond51) R7 Frame(CFA_Y, -1)
          CFI (cfiCond51) CFA_SP SP+4
          CFI (cfiCond51) CFA_Y Y+8
          CFI Block cfiPicker52 Using cfiCommon2
          CFI (cfiPicker52) NoFunction
          CFI (cfiPicker52) Picker
        MOVW    R31:R30, R1:R0
        SUBI    R30, LOW((-(len) & 0xFFFF))
        SBCI    R31, (-(len) & 0xFFFF) >> 8
        RET
          CFI EndBlock cfiCond49
          CFI EndBlock cfiCond50
          CFI EndBlock cfiCond51
          CFI EndBlock cfiPicker52

        RSEG CODE:CODE:NOROOT(1)
?Subroutine22:
          CFI Block cfiCond53 Using cfiCommon0
          CFI Function PEREP
          CFI Conditional ??CrossCallReturnLabel_35
          CFI R24 Frame(CFA_Y, -8)
          CFI R25 Frame(CFA_Y, -7)
          CFI R26 Frame(CFA_Y, -6)
          CFI R27 Frame(CFA_Y, -5)
          CFI R4 Frame(CFA_Y, -4)
          CFI R5 Frame(CFA_Y, -3)
          CFI R6 Frame(CFA_Y, -2)
          CFI R7 Frame(CFA_Y, -1)
          CFI CFA_SP SP+4
          CFI CFA_Y Y+8
          CFI Block cfiCond54 Using cfiCommon0
          CFI (cfiCond54) Function PEREP
          CFI (cfiCond54) Conditional ??CrossCallReturnLabel_36
          CFI (cfiCond54) R24 Frame(CFA_Y, -8)
          CFI (cfiCond54) R25 Frame(CFA_Y, -7)
          CFI (cfiCond54) R26 Frame(CFA_Y, -6)
          CFI (cfiCond54) R27 Frame(CFA_Y, -5)
          CFI (cfiCond54) R4 Frame(CFA_Y, -4)
          CFI (cfiCond54) R5 Frame(CFA_Y, -3)
          CFI (cfiCond54) R6 Frame(CFA_Y, -2)
          CFI (cfiCond54) R7 Frame(CFA_Y, -1)
          CFI (cfiCond54) CFA_SP SP+4
          CFI (cfiCond54) CFA_Y Y+8
          CFI Block cfiPicker55 Using cfiCommon2
          CFI (cfiPicker55) NoFunction
          CFI (cfiPicker55) Picker
        RCALL   ?Subroutine93
??CrossCallReturnLabel_164:
        RCALL   ?Subroutine87
??CrossCallReturnLabel_145:
        RCALL   ?Subroutine95
??CrossCallReturnLabel_176:
        RCALL   ?Subroutine88
??CrossCallReturnLabel_148:
        LD      R19, Z
        LDI     R18, 0
        ADD     R17, R19
        RCALL   ?Subroutine97
??CrossCallReturnLabel_183:
        MOVW    R5:R4, R17:R16
        MOVW    R7:R6, R19:R18
        RET
          CFI EndBlock cfiCond53
          CFI EndBlock cfiCond54
          CFI EndBlock cfiPicker55

        RSEG CODE:CODE:NOROOT(1)
?Subroutine20:
          CFI Block cfiCond56 Using cfiCommon0
          CFI Function analiz_INT
          CFI Conditional ??CrossCallReturnLabel_29
          CFI CFA_SP SP+4
          CFI Block cfiCond57 Using cfiCommon0
          CFI (cfiCond57) Function PEREP
          CFI (cfiCond57) Conditional ??CrossCallReturnLabel_30
          CFI (cfiCond57) R24 Frame(CFA_Y, -8)
          CFI (cfiCond57) R25 Frame(CFA_Y, -7)
          CFI (cfiCond57) R26 Frame(CFA_Y, -6)
          CFI (cfiCond57) R27 Frame(CFA_Y, -5)
          CFI (cfiCond57) R4 Frame(CFA_Y, -4)
          CFI (cfiCond57) R5 Frame(CFA_Y, -3)
          CFI (cfiCond57) R6 Frame(CFA_Y, -2)
          CFI (cfiCond57) R7 Frame(CFA_Y, -1)
          CFI (cfiCond57) CFA_SP SP+4
          CFI (cfiCond57) CFA_Y Y+8
          CFI Block cfiCond58 Using cfiCommon0
          CFI (cfiCond58) Function PEREP
          CFI (cfiCond58) Conditional ??CrossCallReturnLabel_31
          CFI (cfiCond58) R24 Frame(CFA_Y, -8)
          CFI (cfiCond58) R25 Frame(CFA_Y, -7)
          CFI (cfiCond58) R26 Frame(CFA_Y, -6)
          CFI (cfiCond58) R27 Frame(CFA_Y, -5)
          CFI (cfiCond58) R4 Frame(CFA_Y, -4)
          CFI (cfiCond58) R5 Frame(CFA_Y, -3)
          CFI (cfiCond58) R6 Frame(CFA_Y, -2)
          CFI (cfiCond58) R7 Frame(CFA_Y, -1)
          CFI (cfiCond58) CFA_SP SP+4
          CFI (cfiCond58) CFA_Y Y+8
          CFI Block cfiCond59 Using cfiCommon0
          CFI (cfiCond59) Function PEREP
          CFI (cfiCond59) Conditional ??CrossCallReturnLabel_32
          CFI (cfiCond59) R24 Frame(CFA_Y, -8)
          CFI (cfiCond59) R25 Frame(CFA_Y, -7)
          CFI (cfiCond59) R26 Frame(CFA_Y, -6)
          CFI (cfiCond59) R27 Frame(CFA_Y, -5)
          CFI (cfiCond59) R4 Frame(CFA_Y, -4)
          CFI (cfiCond59) R5 Frame(CFA_Y, -3)
          CFI (cfiCond59) R6 Frame(CFA_Y, -2)
          CFI (cfiCond59) R7 Frame(CFA_Y, -1)
          CFI (cfiCond59) CFA_SP SP+4
          CFI (cfiCond59) CFA_Y Y+8
          CFI Block cfiCond60 Using cfiCommon0
          CFI (cfiCond60) Function PEREP
          CFI (cfiCond60) Conditional ??CrossCallReturnLabel_33
          CFI (cfiCond60) R24 Frame(CFA_Y, -8)
          CFI (cfiCond60) R25 Frame(CFA_Y, -7)
          CFI (cfiCond60) R26 Frame(CFA_Y, -6)
          CFI (cfiCond60) R27 Frame(CFA_Y, -5)
          CFI (cfiCond60) R4 Frame(CFA_Y, -4)
          CFI (cfiCond60) R5 Frame(CFA_Y, -3)
          CFI (cfiCond60) R6 Frame(CFA_Y, -2)
          CFI (cfiCond60) R7 Frame(CFA_Y, -1)
          CFI (cfiCond60) CFA_SP SP+4
          CFI (cfiCond60) CFA_Y Y+8
          CFI Block cfiCond61 Using cfiCommon0
          CFI (cfiCond61) Function PEREP
          CFI (cfiCond61) Conditional ??CrossCallReturnLabel_34
          CFI (cfiCond61) R24 Frame(CFA_Y, -8)
          CFI (cfiCond61) R25 Frame(CFA_Y, -7)
          CFI (cfiCond61) R26 Frame(CFA_Y, -6)
          CFI (cfiCond61) R27 Frame(CFA_Y, -5)
          CFI (cfiCond61) R4 Frame(CFA_Y, -4)
          CFI (cfiCond61) R5 Frame(CFA_Y, -3)
          CFI (cfiCond61) R6 Frame(CFA_Y, -2)
          CFI (cfiCond61) R7 Frame(CFA_Y, -1)
          CFI (cfiCond61) CFA_SP SP+4
          CFI (cfiCond61) CFA_Y Y+8
          CFI Block cfiPicker62 Using cfiCommon2
          CFI (cfiPicker62) NoFunction
          CFI (cfiPicker62) Picker
        LDS     R16, ct
        RET
          CFI EndBlock cfiCond56
          CFI EndBlock cfiCond57
          CFI EndBlock cfiCond58
          CFI EndBlock cfiCond59
          CFI EndBlock cfiCond60
          CFI EndBlock cfiCond61
          CFI EndBlock cfiPicker62
//  125 
//  126 ///////////////////////////////////////////////////////////////
//  127 //  main
//  128 //////////////////////////////////////////////////////////////

        RSEG CODE:CODE:NOROOT(1)
//  129   bool remote_main() 
remote_main:
          CFI Block cfiBlock63 Using cfiCommon0
          CFI Function remote_main
//  130   {   
//  131     cod_ok=0;//признак готовности кода
        FUNCALL remote_main, du_init
        LOCFRAME CSTACK, 0, STACK
        LOCFRAME RSTACK, 2, STACK
        ARGFRAME RSTACK, 0, STACK
        FUNCALL remote_main, analiz_INT
        LOCFRAME CSTACK, 0, STACK
        LOCFRAME RSTACK, 2, STACK
        ARGFRAME RSTACK, 0, STACK
        FUNCALL remote_main, PEREP
        LOCFRAME CSTACK, 0, STACK
        LOCFRAME RSTACK, 2, STACK
        ARGFRAME RSTACK, 0, STACK
        LDI     R16, 0
        STS     cod_ok, R16
//  132     
//  133     if (ini!=1) du_init();    
        LDS     R16, ??ini
        TST     R16
        BRNE    ??remote_main_0
        RCALL   du_init
//  134     if (intok!=0) analiz_INT();  //INT событие произошло
??remote_main_0:
        LDS     R16, ??intok
        TST     R16
        BREQ    ??remote_main_1
        RCALL   analiz_INT
//  135     
//  136     if (perepoln!=0 ) 
??remote_main_1:
        LDS     R16, ??perepoln
        TST     R16
        BREQ    ??remote_main_2
//  137     {//получили переполнение, значит сигнал закончился
//  138       PEREP();
        RCALL   PEREP
//  139     }   
//  140      return(cod_ok);  
??remote_main_2:
        LDS     R16, cod_ok
        RET
          CFI EndBlock cfiBlock63
//  141   }
//  142 
//  143 
//  144 ///////////////////////////////////////////////////////////////////       
//  145 //                             кодировка
//  146 ///////////////////////////////////////////////////////////////////

        RSEG CODE:CODE:NOROOT(1)
//  147   void coding(uint i, uchar pr)  
coding:
          CFI Block cfiBlock64 Using cfiCommon0
          CFI Function coding
//  148   {
        FUNCALL coding, rprintfFloat
        LOCFRAME CSTACK, 10, STACK
        LOCFRAME RSTACK, 2, STACK
        ARGFRAME RSTACK, 0, STACK
        FUNCALL coding, rprintfStr
        LOCFRAME CSTACK, 10, STACK
        LOCFRAME RSTACK, 2, STACK
        ARGFRAME RSTACK, 0, STACK
        FUNCALL coding, rprintfFloat
        LOCFRAME CSTACK, 10, STACK
        LOCFRAME RSTACK, 2, STACK
        ARGFRAME RSTACK, 0, STACK
        FUNCALL coding, rprintfStr
        LOCFRAME CSTACK, 10, STACK
        LOCFRAME RSTACK, 2, STACK
        ARGFRAME RSTACK, 0, STACK
        FUNCALL coding, rprintfFloat
        LOCFRAME CSTACK, 10, STACK
        LOCFRAME RSTACK, 2, STACK
        ARGFRAME RSTACK, 0, STACK
        FUNCALL coding, rprintfStr
        LOCFRAME CSTACK, 10, STACK
        LOCFRAME RSTACK, 2, STACK
        ARGFRAME RSTACK, 0, STACK
        FUNCALL coding, rprintfStr
        LOCFRAME CSTACK, 10, STACK
        LOCFRAME RSTACK, 2, STACK
        ARGFRAME RSTACK, 0, STACK
        FUNCALL coding, rprintfFloat
        LOCFRAME CSTACK, 10, STACK
        LOCFRAME RSTACK, 2, STACK
        ARGFRAME RSTACK, 0, STACK
        FUNCALL coding, rprintfStr
        LOCFRAME CSTACK, 10, STACK
        LOCFRAME RSTACK, 2, STACK
        ARGFRAME RSTACK, 0, STACK
        FUNCALL coding, rprintfFloat
        LOCFRAME CSTACK, 10, STACK
        LOCFRAME RSTACK, 2, STACK
        ARGFRAME RSTACK, 0, STACK
        FUNCALL coding, rprintfStr
        LOCFRAME CSTACK, 10, STACK
        LOCFRAME RSTACK, 2, STACK
        ARGFRAME RSTACK, 0, STACK
        FUNCALL coding, rprintfFloat
        LOCFRAME CSTACK, 10, STACK
        LOCFRAME RSTACK, 2, STACK
        ARGFRAME RSTACK, 0, STACK
        FUNCALL coding, rprintfStr
        LOCFRAME CSTACK, 10, STACK
        LOCFRAME RSTACK, 2, STACK
        ARGFRAME RSTACK, 0, STACK
        FUNCALL coding, rprintfFloat
        LOCFRAME CSTACK, 10, STACK
        LOCFRAME RSTACK, 2, STACK
        ARGFRAME RSTACK, 0, STACK
        FUNCALL coding, USART_SendChar
        LOCFRAME CSTACK, 10, STACK
        LOCFRAME RSTACK, 2, STACK
        ARGFRAME RSTACK, 0, STACK
        RCALL   ?PROLOGUE10_L09
          CFI R9 Frame(CFA_Y, -1)
          CFI R8 Frame(CFA_Y, -2)
          CFI R7 Frame(CFA_Y, -3)
          CFI R6 Frame(CFA_Y, -4)
          CFI R5 Frame(CFA_Y, -5)
          CFI R4 Frame(CFA_Y, -6)
          CFI R27 Frame(CFA_Y, -7)
          CFI R26 Frame(CFA_Y, -8)
          CFI R25 Frame(CFA_Y, -9)
          CFI R24 Frame(CFA_Y, -10)
          CFI CFA_Y Y+10
        REQUIRE ?Register_R4_is_cg_reg
        REQUIRE ?Register_R5_is_cg_reg
        REQUIRE ?Register_R6_is_cg_reg
        REQUIRE ?Register_R8_is_cg_reg
        REQUIRE ?Register_R9_is_cg_reg
        MOVW    R25:R24, R17:R16
        MOV     R6, R18
//  149  
//  150     
//  151     float v=len[i];
        RCALL   ?Subroutine99
??CrossCallReturnLabel_190:
        LDI     R26, LOW(len)
        LDI     R27, (len) >> 8
        ADD     R26, R16
        ADC     R27, R17
        LD      R0, X+
        LD      R1, X+
        LD      R2, X+
        LD      R3, X
        SBIW    R27:R26, 3
//  152              
//  153             //  sst=sst+v;
//  154        if (i>1) {
        CPI     R24, 2
        LDI     R16, 0
        CPC     R25, R16
        BRCC    $+2+2
        RJMP    ??CrossCallReturnLabel_194
//  155           
//  156   //-------------   версия  больше-меньше  ------------------
//  157               //  if (len[i]>len[i-1])  cod1+=1;
//  158          
//  159              //  if (len[i]<=len[i-1]) cod1+=3;
//  160    /*        
//  161     if (ind==4) { 
//  162                        if (len[i]>len[i-1]) { SET(cod4,c4); }
//  163                       // else cod4<<=1;
//  164                        c4++;
//  165                        if (c4>=15) ind=5;
//  166                     }
//  167          
//  168               
//  169 
//  170            if (ind==3) { 
//  171                        if (len[i]>len[i-1]) { SET(cod3,c3); }
//  172                       // else cod3<<=1;
//  173                        c3++;
//  174                        if (c3>=15) ind=4;
//  175                     }
//  176         
//  177          
//  178            if (ind==2) { 
//  179                        if (len[i]>len[i-1]) { SET(cod2,c2); }
//  180                       // else cod2<<=1;
//  181                        c2++;
//  182                        if (c2>=15) ind=3;
//  183                     }
//  184          
//  185          if (ind==1) { 
//  186            if (len[i]>len[i-1]) { SET(cod1,c1); }
//  187                        //else cod1<<=1;
//  188                        c1++;
//  189                        if (c1>=15) ind=2;
//  190                     }
//  191          
//  192       */ 
//  193          
//  194        /*  
//  195          if (ind==4) { 
//  196            if (len[i]<3) { SET(cod4,c4);c4++; }
//  197            if (len[i]>=3 && len[i]<5)  {  c4++;  c4++;}
//  198            if (len[i]>=5 && len[i]<25) { SET(cod4,c4); c4++;    if (c4<=15)  SET(cod4,c4);  c4++;}
//  199            if (len[i]>=25)  {  c4++;  c4++; c4++;}
//  200                        if (c4>=15) ind=0;
//  201                      }
//  202       */
//  203          
//  204          
//  205       //-----   версия v2  по относительной длине -------  
//  206 #define   set1 SET(cod1,c1);c1++   
//  207 #define   set2 SET(cod2,c2);c2++  
//  208 #define   set3 SET(cod3,c3);c3++  
//  209          
//  210         
//  211        //ДЕЛАТЬ точность менее 0.5 опасно, т.к. ШУМ измерения
//  212           if (ind==3) { 
        MOVW    R5:R4, R25:R24
        LSL     R4
        ROL     R5
        LDS     R16, ind
        CPI     R16, 3
        BREQ    $+2+2
        RJMP    ??coding_0
//  213             
//  214             if (v<1.5) cod3=cod3+i;
        LDS     R20, c3
        RCALL   ?Subroutine1
??CrossCallReturnLabel_2:
        BRCC    ??coding_1
        RCALL   ??Subroutine137_0
??CrossCallReturnLabel_357:
        RCALL   ?Subroutine25
//  215            if (v>=1.5 && v<2) { set3; c3++;    } else
//  216            if (v>=2 && v<3)   { set3; cod3=cod3+i;  c3++; } else
??CrossCallReturnLabel_323:
        RCALL   ?Subroutine52
??CrossCallReturnLabel_63:
        BRCC    ??coding_2
        RCALL   ?Subroutine57
??CrossCallReturnLabel_74:
        BRCS    ??coding_3
//  217            if (v>=3 && v<5)   { set3; cod3=cod3+i+i;  c3++; if (c3<=14) {set3; cod3=cod3+i;   c3++; }  }   else                                  
??coding_2:
        RCALL   ?Subroutine58
??CrossCallReturnLabel_77:
        BRCC    ??coding_4
        RCALL   ?Subroutine59
??CrossCallReturnLabel_80:
        BRCC    ??coding_4
        RCALL   ??Subroutine137_0
??CrossCallReturnLabel_358:
        RCALL   ?Subroutine29
??CrossCallReturnLabel_37:
        RCALL   ??Subroutine132_0
??CrossCallReturnLabel_314:
        RCALL   ?Subroutine38
??CrossCallReturnLabel_284:
        ST      Z, R16
        CPI     R16, 15
        BRCC    ??coding_5
??coding_3:
        RCALL   ??Subroutine137_0
??CrossCallReturnLabel_359:
        RCALL   ?Subroutine60
??CrossCallReturnLabel_83:
        LDS     R20, c3
        RCALL   ?Subroutine2
??CrossCallReturnLabel_5:
        RJMP    ??CrossCallReturnLabel_315
??coding_1:
        RCALL   ?Subroutine54
??CrossCallReturnLabel_69:
        BRCC    ??CrossCallReturnLabel_323
        RCALL   ??Subroutine137_0
??CrossCallReturnLabel_360:
        RCALL   ?Subroutine94
??CrossCallReturnLabel_165:
        RCALL   ??Subroutine132_0
??CrossCallReturnLabel_315:
        RCALL   ?Subroutine38
??CrossCallReturnLabel_285:
        RJMP    ??coding_6
//  218            if (v>5 && v<7)    { c3++;   if (c3<=15)  c3++; }
??coding_4:
        RCALL   ?Subroutine49
??CrossCallReturnLabel_58:
        BRCC    ??coding_5
        RCALL   ?Subroutine53
??CrossCallReturnLabel_66:
        BRCC    ??coding_5
        LDI     R30, LOW(c3)
        LDI     R31, (c3) >> 8
        RCALL   ?Subroutine31
??CrossCallReturnLabel_40:
        BRCC    ??coding_5
        INC     R16
??coding_6:
        ST      Z, R16
//  219          
//  220             
//  221            if (c3>=16) {ind=1; cod1=cod1<<2; cod2=cod2<<2; c1=0; c2=0; c3=0;}//пошли по кругу
??coding_5:
        LDS     R16, c3
        CPI     R16, 16
        BRCC    $+2+2
        RJMP    ??coding_7
        LDI     R16, 1
        STS     ind, R16
        RCALL   ?Subroutine101
??CrossCallReturnLabel_195:
        RCALL   ?Subroutine33
??CrossCallReturnLabel_191:
        RCALL   ??Subroutine132_0
??CrossCallReturnLabel_316:
        RCALL   ??Subroutine138_0
??CrossCallReturnLabel_364:
        RCALL   ?Subroutine33
??CrossCallReturnLabel_192:
        RCALL   ??Subroutine132_0
??CrossCallReturnLabel_317:
        STS     c1, R21
        STS     c2, R21
        STS     c3, R21
        RJMP    ??coding_8
//  222         
//  223                      }
//  224          
//  225                 
//  226           if (ind==2) { 
??coding_0:
        CPI     R16, 2
        BRNE    ??coding_9
//  227           
//  228            if (v<1.5) cod2=cod2+i;
        LDS     R20, c2
        RCALL   ?Subroutine1
??CrossCallReturnLabel_3:
        BRCC    ??coding_10
        RCALL   ??Subroutine138_0
??CrossCallReturnLabel_365:
        RCALL   ?Subroutine25
//  229            if (v>=1.5 && v<2) { set2; c2++;  cod2=cod2+i;  } else
//  230            if (v>=2 && v<3)   { set2; cod2=cod2+i;  c2++; } else
??CrossCallReturnLabel_324:
        RCALL   ?Subroutine52
??CrossCallReturnLabel_64:
        BRCC    ??coding_11
        RCALL   ?Subroutine57
??CrossCallReturnLabel_75:
        BRCS    ??coding_12
//  231            if (v>=3 && v<5)   { set2; cod2=cod2+i+i;  c2++; if (c2<=14) { set2; cod2=cod2+i;  c2++; }  }   else                                  
??coding_11:
        RCALL   ?Subroutine58
??CrossCallReturnLabel_78:
        BRCC    ??coding_13
        RCALL   ?Subroutine59
??CrossCallReturnLabel_81:
        BRCC    ??coding_13
        RCALL   ??Subroutine138_0
??CrossCallReturnLabel_366:
        RCALL   ?Subroutine29
??CrossCallReturnLabel_38:
        RCALL   ?Subroutine23
??CrossCallReturnLabel_301:
        CPI     R16, 15
        BRCC    ??coding_14
??coding_12:
        RCALL   ??Subroutine138_0
??CrossCallReturnLabel_367:
        RCALL   ?Subroutine60
??CrossCallReturnLabel_84:
        LDS     R20, c2
        RCALL   ?Subroutine2
??CrossCallReturnLabel_6:
        LDI     R30, LOW(c2)
        LDI     R31, (c2) >> 8
        RCALL   ??Subroutine128_0
??CrossCallReturnLabel_282:
        RJMP    ??coding_15
??coding_10:
        RCALL   ?Subroutine54
??CrossCallReturnLabel_70:
        BRCC    ??CrossCallReturnLabel_324
        RCALL   ??Subroutine138_0
??CrossCallReturnLabel_368:
        RCALL   ?Subroutine94
??CrossCallReturnLabel_166:
        RCALL   ?Subroutine23
??CrossCallReturnLabel_302:
        RCALL   ??Subroutine138_0
??CrossCallReturnLabel_369:
        LD      R16, Z
        RCALL   ??Subroutine131_0
??CrossCallReturnLabel_321:
        RJMP    ??coding_14
//  232            if (v>5 && v<7)    { c2++;   if (c2<=15)  c2++; }
??coding_13:
        RCALL   ?Subroutine49
??CrossCallReturnLabel_59:
        BRCC    ??coding_14
        RCALL   ?Subroutine53
??CrossCallReturnLabel_67:
        BRCC    ??coding_14
        LDI     R30, LOW(c2)
        LDI     R31, (c2) >> 8
        RCALL   ?Subroutine31
??CrossCallReturnLabel_41:
        BRCC    ??coding_14
        INC     R16
??coding_15:
        ST      Z, R16
//  233          
//  234                 if (c2>=16) ind=3;
??coding_14:
        LDS     R16, c2
        CPI     R16, 16
        BRCS    ??coding_7
        LDI     R16, 3
        RJMP    ??coding_16
//  235                      }
//  236                 
//  237          if (ind==1) { 
??coding_9:
        CPI     R16, 1
        BRNE    ??coding_7
//  238            
//  239            if (v<1.5) cod1=cod1+i;
??coding_8:
        LDS     R20, c1
        RCALL   ?Subroutine1
??CrossCallReturnLabel_4:
        BRCC    ??coding_17
        RCALL   ?Subroutine101
??CrossCallReturnLabel_196:
        RCALL   ?Subroutine25
//  240            if (v>=1.5 && v<2) { set1; c1++;  cod1=cod1+i;  } else
//  241            if (v>=2 && v<3)   { set1; cod1=cod1+i;  c1++; } else
??CrossCallReturnLabel_325:
        RCALL   ?Subroutine52
??CrossCallReturnLabel_65:
        BRCC    ??coding_18
        RCALL   ?Subroutine57
??CrossCallReturnLabel_76:
        BRCS    ??coding_19
//  242            if (v>=3 && v<5)   { set1; cod1=cod1+i+i;  c1++; if (c1<=14) { set1; cod1=cod1+i; c1++; }  }   else                                  
??coding_18:
        RCALL   ?Subroutine58
??CrossCallReturnLabel_79:
        BRCC    ??coding_20
        RCALL   ?Subroutine59
??CrossCallReturnLabel_82:
        BRCC    ??coding_20
        RCALL   ?Subroutine101
??CrossCallReturnLabel_197:
        RCALL   ?Subroutine29
??CrossCallReturnLabel_39:
        RCALL   ?Subroutine24
??CrossCallReturnLabel_303:
        CPI     R16, 15
        BRCC    ??coding_21
??coding_19:
        RCALL   ?Subroutine101
??CrossCallReturnLabel_198:
        RCALL   ?Subroutine60
??CrossCallReturnLabel_85:
        LDS     R20, c1
        RCALL   ?Subroutine2
??CrossCallReturnLabel_7:
        LDI     R30, LOW(c1)
        LDI     R31, (c1) >> 8
        RCALL   ??Subroutine128_0
??CrossCallReturnLabel_283:
        RJMP    ??coding_22
??coding_17:
        RCALL   ?Subroutine54
??CrossCallReturnLabel_71:
        BRCC    ??CrossCallReturnLabel_325
        RCALL   ?Subroutine101
??CrossCallReturnLabel_199:
        RCALL   ?Subroutine94
??CrossCallReturnLabel_167:
        RCALL   ?Subroutine24
??CrossCallReturnLabel_304:
        RCALL   ?Subroutine101
??CrossCallReturnLabel_200:
        LD      R16, Z
        RCALL   ??Subroutine131_0
??CrossCallReturnLabel_322:
        RJMP    ??coding_21
//  243            if (v>5 && v<7)    { c1++;   if (c1<=15)  c1++; }
??coding_20:
        RCALL   ?Subroutine49
??CrossCallReturnLabel_60:
        BRCC    ??coding_21
        RCALL   ?Subroutine53
??CrossCallReturnLabel_68:
        BRCC    ??coding_21
        LDI     R30, LOW(c1)
        LDI     R31, (c1) >> 8
        RCALL   ?Subroutine31
??CrossCallReturnLabel_42:
        BRCC    ??coding_21
        INC     R16
??coding_22:
        ST      Z, R16
//  244          
//  245                 if (c1>=16) ind=2;
??coding_21:
        LDS     R16, c1
        CPI     R16, 16
        BRCS    ??coding_7
        LDI     R16, 2
??coding_16:
        STS     ind, R16
//  246                      }
//  247           
//  248          
//  249         
//  250          
//  251       
//  252              cod_ok=1;//код готов         
??coding_7:
        LDI     R16, 1
        STS     cod_ok, R16
//  253          
//  254          if (pr==0) {
        TST     R6
        BRNE    ??CrossCallReturnLabel_194
//  255                      rprintfFloat(2, i);
        MOVW    R17:R16, R25:R24
        LDI     R18, 0
        RCALL   ?Subroutine47
??CrossCallReturnLabel_54:
        LDI     R16, 2
        RCALL   rprintfFloat
//  256                      rprintfStr("  / abslen= ");
        LDI     R16, LOW(`?<Constant "  / abslen= ">`)
        LDI     R17, (`?<Constant "  / abslen= ">`) >> 8
        RCALL   rprintfStr
//  257                       rprintfFloat(9, dim1[i]+ (256*dim2[i])  );
        LSL     R24
        ROL     R25
        MOVW    R31:R30, R25:R24
        SUBI    R30, LOW((-(dim1) & 0xFFFF))
        SBCI    R31, (-(dim1) & 0xFFFF) >> 8
        RCALL   ?Subroutine95
??CrossCallReturnLabel_169:
        MOVW    R31:R30, R25:R24
        SUBI    R30, LOW((-(dim2) & 0xFFFF))
        SBCI    R31, (-(dim2) & 0xFFFF) >> 8
        LD      R19, Z
        LDI     R18, 0
        ADD     R17, R19
        RCALL   ?Subroutine47
??CrossCallReturnLabel_55:
        LDI     R16, 9
        RCALL   rprintfFloat
//  258                       rprintfStr("  / len= ");
        LDI     R16, LOW(`?<Constant "  / len= ">`)
        LDI     R17, (`?<Constant "  / len= ">`) >> 8
        RCALL   rprintfStr
//  259                   rprintfFloat(4,  len[i]);
        LD      R20, X+
        LD      R21, X+
        LD      R22, X+
        LD      R23, X
        LDI     R16, 4
        RCALL   rprintfFloat
//  260                    rprintfStr("  ");
        LDI     R16, LOW(`?<Constant "  ">`)
        LDI     R17, (`?<Constant "  ">`) >> 8
        RCALL   rprintfStr
//  261                  rprintfStr("  / cod1= ");
        LDI     R16, LOW(`?<Constant "  / cod1= ">`)
        LDI     R17, (`?<Constant "  / cod1= ">`) >> 8
        RCALL   ?Subroutine28
//  262                   rprintfFloat(6, cod1);
//  263                    rprintfStr(" / cod2= ");
??CrossCallReturnLabel_299:
        LDI     R16, LOW(`?<Constant " / cod2= ">`)
        LDI     R17, (`?<Constant " / cod2= ">`) >> 8
        RCALL   ?Subroutine40
//  264                   rprintfFloat(6,  cod2);
??CrossCallReturnLabel_363:
        RCALL   ??Subroutine129_0
//  265                    rprintfStr(" / cod3= ");
??CrossCallReturnLabel_296:
        LDI     R16, LOW(`?<Constant " / cod3= ">`)
        LDI     R17, (`?<Constant " / cod3= ">`) >> 8
        RCALL   ?Subroutine42
//  266                   rprintfFloat(6,  cod3);
??CrossCallReturnLabel_356:
        RCALL   ??Subroutine129_0
//  267                    rprintfStr("/ minlen=");
??CrossCallReturnLabel_295:
        LDI     R16, LOW(`?<Constant "/ minlen=">`)
        LDI     R17, (`?<Constant "/ minlen=">`) >> 8
        RCALL   rprintfStr
//  268                    rprintfFloat(9,   minimallen);
        RCALL   ?Subroutine90
//  269                    ent;
//  270                 }
//  271          
//  272          
//  273                    }
??CrossCallReturnLabel_159:
        RCALL   ?Subroutine95
??CrossCallReturnLabel_170:
        RCALL   ?Subroutine43
//  274        
//  275        
//  276        
//  277   
//  278   }
??CrossCallReturnLabel_194:
        LDI     R30, 10
        RJMP    ?EPILOGUE_B10_L09
          CFI EndBlock cfiBlock64

        RSEG CODE:CODE:NOROOT(1)
?Subroutine59:
          CFI Block cfiCond65 Using cfiCommon0
          CFI Function coding
          CFI Conditional ??CrossCallReturnLabel_80
          CFI R24 Frame(CFA_Y, -10)
          CFI R25 Frame(CFA_Y, -9)
          CFI R26 Frame(CFA_Y, -8)
          CFI R27 Frame(CFA_Y, -7)
          CFI R4 Frame(CFA_Y, -6)
          CFI R5 Frame(CFA_Y, -5)
          CFI R6 Frame(CFA_Y, -4)
          CFI R7 Frame(CFA_Y, -3)
          CFI R8 Frame(CFA_Y, -2)
          CFI R9 Frame(CFA_Y, -1)
          CFI CFA_SP SP+4
          CFI CFA_Y Y+10
          CFI Block cfiCond66 Using cfiCommon0
          CFI (cfiCond66) Function coding
          CFI (cfiCond66) Conditional ??CrossCallReturnLabel_81
          CFI (cfiCond66) R24 Frame(CFA_Y, -10)
          CFI (cfiCond66) R25 Frame(CFA_Y, -9)
          CFI (cfiCond66) R26 Frame(CFA_Y, -8)
          CFI (cfiCond66) R27 Frame(CFA_Y, -7)
          CFI (cfiCond66) R4 Frame(CFA_Y, -6)
          CFI (cfiCond66) R5 Frame(CFA_Y, -5)
          CFI (cfiCond66) R6 Frame(CFA_Y, -4)
          CFI (cfiCond66) R7 Frame(CFA_Y, -3)
          CFI (cfiCond66) R8 Frame(CFA_Y, -2)
          CFI (cfiCond66) R9 Frame(CFA_Y, -1)
          CFI (cfiCond66) CFA_SP SP+4
          CFI (cfiCond66) CFA_Y Y+10
          CFI Block cfiCond67 Using cfiCommon0
          CFI (cfiCond67) Function coding
          CFI (cfiCond67) Conditional ??CrossCallReturnLabel_82
          CFI (cfiCond67) R24 Frame(CFA_Y, -10)
          CFI (cfiCond67) R25 Frame(CFA_Y, -9)
          CFI (cfiCond67) R26 Frame(CFA_Y, -8)
          CFI (cfiCond67) R27 Frame(CFA_Y, -7)
          CFI (cfiCond67) R4 Frame(CFA_Y, -6)
          CFI (cfiCond67) R5 Frame(CFA_Y, -5)
          CFI (cfiCond67) R6 Frame(CFA_Y, -4)
          CFI (cfiCond67) R7 Frame(CFA_Y, -3)
          CFI (cfiCond67) R8 Frame(CFA_Y, -2)
          CFI (cfiCond67) R9 Frame(CFA_Y, -1)
          CFI (cfiCond67) CFA_SP SP+4
          CFI (cfiCond67) CFA_Y Y+10
          CFI Block cfiPicker68 Using cfiCommon2
          CFI (cfiPicker68) NoFunction
          CFI (cfiPicker68) Picker
        LDI     R22, 160
        RJMP    ?F_CMP_LT_L04
          CFI EndBlock cfiCond65
          CFI EndBlock cfiCond66
          CFI EndBlock cfiCond67
          CFI EndBlock cfiPicker68

        RSEG CODE:CODE:NOROOT(1)
?Subroutine58:
          CFI Block cfiCond69 Using cfiCommon0
          CFI Function coding
          CFI Conditional ??CrossCallReturnLabel_77
          CFI R24 Frame(CFA_Y, -10)
          CFI R25 Frame(CFA_Y, -9)
          CFI R26 Frame(CFA_Y, -8)
          CFI R27 Frame(CFA_Y, -7)
          CFI R4 Frame(CFA_Y, -6)
          CFI R5 Frame(CFA_Y, -5)
          CFI R6 Frame(CFA_Y, -4)
          CFI R7 Frame(CFA_Y, -3)
          CFI R8 Frame(CFA_Y, -2)
          CFI R9 Frame(CFA_Y, -1)
          CFI CFA_SP SP+4
          CFI CFA_Y Y+10
          CFI Block cfiCond70 Using cfiCommon0
          CFI (cfiCond70) Function coding
          CFI (cfiCond70) Conditional ??CrossCallReturnLabel_78
          CFI (cfiCond70) R24 Frame(CFA_Y, -10)
          CFI (cfiCond70) R25 Frame(CFA_Y, -9)
          CFI (cfiCond70) R26 Frame(CFA_Y, -8)
          CFI (cfiCond70) R27 Frame(CFA_Y, -7)
          CFI (cfiCond70) R4 Frame(CFA_Y, -6)
          CFI (cfiCond70) R5 Frame(CFA_Y, -5)
          CFI (cfiCond70) R6 Frame(CFA_Y, -4)
          CFI (cfiCond70) R7 Frame(CFA_Y, -3)
          CFI (cfiCond70) R8 Frame(CFA_Y, -2)
          CFI (cfiCond70) R9 Frame(CFA_Y, -1)
          CFI (cfiCond70) CFA_SP SP+4
          CFI (cfiCond70) CFA_Y Y+10
          CFI Block cfiCond71 Using cfiCommon0
          CFI (cfiCond71) Function coding
          CFI (cfiCond71) Conditional ??CrossCallReturnLabel_79
          CFI (cfiCond71) R24 Frame(CFA_Y, -10)
          CFI (cfiCond71) R25 Frame(CFA_Y, -9)
          CFI (cfiCond71) R26 Frame(CFA_Y, -8)
          CFI (cfiCond71) R27 Frame(CFA_Y, -7)
          CFI (cfiCond71) R4 Frame(CFA_Y, -6)
          CFI (cfiCond71) R5 Frame(CFA_Y, -5)
          CFI (cfiCond71) R6 Frame(CFA_Y, -4)
          CFI (cfiCond71) R7 Frame(CFA_Y, -3)
          CFI (cfiCond71) R8 Frame(CFA_Y, -2)
          CFI (cfiCond71) R9 Frame(CFA_Y, -1)
          CFI (cfiCond71) CFA_SP SP+4
          CFI (cfiCond71) CFA_Y Y+10
          CFI Block cfiPicker72 Using cfiCommon2
          CFI (cfiPicker72) NoFunction
          CFI (cfiPicker72) Picker
        LDI     R22, 64
        RJMP    ?F_CMP_GE_L04
          CFI EndBlock cfiCond69
          CFI EndBlock cfiCond70
          CFI EndBlock cfiCond71
          CFI EndBlock cfiPicker72

        RSEG CODE:CODE:NOROOT(1)
?Subroutine57:
          CFI Block cfiCond73 Using cfiCommon0
          CFI Function coding
          CFI Conditional ??CrossCallReturnLabel_74
          CFI R24 Frame(CFA_Y, -10)
          CFI R25 Frame(CFA_Y, -9)
          CFI R26 Frame(CFA_Y, -8)
          CFI R27 Frame(CFA_Y, -7)
          CFI R4 Frame(CFA_Y, -6)
          CFI R5 Frame(CFA_Y, -5)
          CFI R6 Frame(CFA_Y, -4)
          CFI R7 Frame(CFA_Y, -3)
          CFI R8 Frame(CFA_Y, -2)
          CFI R9 Frame(CFA_Y, -1)
          CFI CFA_SP SP+4
          CFI CFA_Y Y+10
          CFI Block cfiCond74 Using cfiCommon0
          CFI (cfiCond74) Function coding
          CFI (cfiCond74) Conditional ??CrossCallReturnLabel_75
          CFI (cfiCond74) R24 Frame(CFA_Y, -10)
          CFI (cfiCond74) R25 Frame(CFA_Y, -9)
          CFI (cfiCond74) R26 Frame(CFA_Y, -8)
          CFI (cfiCond74) R27 Frame(CFA_Y, -7)
          CFI (cfiCond74) R4 Frame(CFA_Y, -6)
          CFI (cfiCond74) R5 Frame(CFA_Y, -5)
          CFI (cfiCond74) R6 Frame(CFA_Y, -4)
          CFI (cfiCond74) R7 Frame(CFA_Y, -3)
          CFI (cfiCond74) R8 Frame(CFA_Y, -2)
          CFI (cfiCond74) R9 Frame(CFA_Y, -1)
          CFI (cfiCond74) CFA_SP SP+4
          CFI (cfiCond74) CFA_Y Y+10
          CFI Block cfiCond75 Using cfiCommon0
          CFI (cfiCond75) Function coding
          CFI (cfiCond75) Conditional ??CrossCallReturnLabel_76
          CFI (cfiCond75) R24 Frame(CFA_Y, -10)
          CFI (cfiCond75) R25 Frame(CFA_Y, -9)
          CFI (cfiCond75) R26 Frame(CFA_Y, -8)
          CFI (cfiCond75) R27 Frame(CFA_Y, -7)
          CFI (cfiCond75) R4 Frame(CFA_Y, -6)
          CFI (cfiCond75) R5 Frame(CFA_Y, -5)
          CFI (cfiCond75) R6 Frame(CFA_Y, -4)
          CFI (cfiCond75) R7 Frame(CFA_Y, -3)
          CFI (cfiCond75) R8 Frame(CFA_Y, -2)
          CFI (cfiCond75) R9 Frame(CFA_Y, -1)
          CFI (cfiCond75) CFA_SP SP+4
          CFI (cfiCond75) CFA_Y Y+10
          CFI Block cfiPicker76 Using cfiCommon2
          CFI (cfiPicker76) NoFunction
          CFI (cfiPicker76) Picker
        LDI     R22, 64
        RJMP    ?F_CMP_LT_L04
          CFI EndBlock cfiCond73
          CFI EndBlock cfiCond74
          CFI EndBlock cfiCond75
          CFI EndBlock cfiPicker76

        RSEG CODE:CODE:NOROOT(1)
?Subroutine54:
          CFI Block cfiCond77 Using cfiCommon0
          CFI Function coding
          CFI Conditional ??CrossCallReturnLabel_69
          CFI R24 Frame(CFA_Y, -10)
          CFI R25 Frame(CFA_Y, -9)
          CFI R26 Frame(CFA_Y, -8)
          CFI R27 Frame(CFA_Y, -7)
          CFI R4 Frame(CFA_Y, -6)
          CFI R5 Frame(CFA_Y, -5)
          CFI R6 Frame(CFA_Y, -4)
          CFI R7 Frame(CFA_Y, -3)
          CFI R8 Frame(CFA_Y, -2)
          CFI R9 Frame(CFA_Y, -1)
          CFI CFA_SP SP+4
          CFI CFA_Y Y+10
          CFI Block cfiCond78 Using cfiCommon0
          CFI (cfiCond78) Function coding
          CFI (cfiCond78) Conditional ??CrossCallReturnLabel_70
          CFI (cfiCond78) R24 Frame(CFA_Y, -10)
          CFI (cfiCond78) R25 Frame(CFA_Y, -9)
          CFI (cfiCond78) R26 Frame(CFA_Y, -8)
          CFI (cfiCond78) R27 Frame(CFA_Y, -7)
          CFI (cfiCond78) R4 Frame(CFA_Y, -6)
          CFI (cfiCond78) R5 Frame(CFA_Y, -5)
          CFI (cfiCond78) R6 Frame(CFA_Y, -4)
          CFI (cfiCond78) R7 Frame(CFA_Y, -3)
          CFI (cfiCond78) R8 Frame(CFA_Y, -2)
          CFI (cfiCond78) R9 Frame(CFA_Y, -1)
          CFI (cfiCond78) CFA_SP SP+4
          CFI (cfiCond78) CFA_Y Y+10
          CFI Block cfiCond79 Using cfiCommon0
          CFI (cfiCond79) Function coding
          CFI (cfiCond79) Conditional ??CrossCallReturnLabel_71
          CFI (cfiCond79) R24 Frame(CFA_Y, -10)
          CFI (cfiCond79) R25 Frame(CFA_Y, -9)
          CFI (cfiCond79) R26 Frame(CFA_Y, -8)
          CFI (cfiCond79) R27 Frame(CFA_Y, -7)
          CFI (cfiCond79) R4 Frame(CFA_Y, -6)
          CFI (cfiCond79) R5 Frame(CFA_Y, -5)
          CFI (cfiCond79) R6 Frame(CFA_Y, -4)
          CFI (cfiCond79) R7 Frame(CFA_Y, -3)
          CFI (cfiCond79) R8 Frame(CFA_Y, -2)
          CFI (cfiCond79) R9 Frame(CFA_Y, -1)
          CFI (cfiCond79) CFA_SP SP+4
          CFI (cfiCond79) CFA_Y Y+10
          CFI Block cfiPicker80 Using cfiCommon2
          CFI (cfiPicker80) NoFunction
          CFI (cfiPicker80) Picker
        LDI     R22, 0
        LDI     R23, 64
        RJMP    ?F_CMP_LT_L04
          CFI EndBlock cfiCond77
          CFI EndBlock cfiCond78
          CFI EndBlock cfiCond79
          CFI EndBlock cfiPicker80

        RSEG CODE:CODE:NOROOT(1)
?Subroutine53:
          CFI Block cfiCond81 Using cfiCommon0
          CFI Function coding
          CFI Conditional ??CrossCallReturnLabel_66
          CFI R24 Frame(CFA_Y, -10)
          CFI R25 Frame(CFA_Y, -9)
          CFI R26 Frame(CFA_Y, -8)
          CFI R27 Frame(CFA_Y, -7)
          CFI R4 Frame(CFA_Y, -6)
          CFI R5 Frame(CFA_Y, -5)
          CFI R6 Frame(CFA_Y, -4)
          CFI R7 Frame(CFA_Y, -3)
          CFI R8 Frame(CFA_Y, -2)
          CFI R9 Frame(CFA_Y, -1)
          CFI CFA_SP SP+4
          CFI CFA_Y Y+10
          CFI Block cfiCond82 Using cfiCommon0
          CFI (cfiCond82) Function coding
          CFI (cfiCond82) Conditional ??CrossCallReturnLabel_67
          CFI (cfiCond82) R24 Frame(CFA_Y, -10)
          CFI (cfiCond82) R25 Frame(CFA_Y, -9)
          CFI (cfiCond82) R26 Frame(CFA_Y, -8)
          CFI (cfiCond82) R27 Frame(CFA_Y, -7)
          CFI (cfiCond82) R4 Frame(CFA_Y, -6)
          CFI (cfiCond82) R5 Frame(CFA_Y, -5)
          CFI (cfiCond82) R6 Frame(CFA_Y, -4)
          CFI (cfiCond82) R7 Frame(CFA_Y, -3)
          CFI (cfiCond82) R8 Frame(CFA_Y, -2)
          CFI (cfiCond82) R9 Frame(CFA_Y, -1)
          CFI (cfiCond82) CFA_SP SP+4
          CFI (cfiCond82) CFA_Y Y+10
          CFI Block cfiCond83 Using cfiCommon0
          CFI (cfiCond83) Function coding
          CFI (cfiCond83) Conditional ??CrossCallReturnLabel_68
          CFI (cfiCond83) R24 Frame(CFA_Y, -10)
          CFI (cfiCond83) R25 Frame(CFA_Y, -9)
          CFI (cfiCond83) R26 Frame(CFA_Y, -8)
          CFI (cfiCond83) R27 Frame(CFA_Y, -7)
          CFI (cfiCond83) R4 Frame(CFA_Y, -6)
          CFI (cfiCond83) R5 Frame(CFA_Y, -5)
          CFI (cfiCond83) R6 Frame(CFA_Y, -4)
          CFI (cfiCond83) R7 Frame(CFA_Y, -3)
          CFI (cfiCond83) R8 Frame(CFA_Y, -2)
          CFI (cfiCond83) R9 Frame(CFA_Y, -1)
          CFI (cfiCond83) CFA_SP SP+4
          CFI (cfiCond83) CFA_Y Y+10
          CFI Block cfiPicker84 Using cfiCommon2
          CFI (cfiPicker84) NoFunction
          CFI (cfiPicker84) Picker
        LDI     R20, 0
        LDI     R22, 224
        RJMP    ?F_CMP_LT_L04
          CFI EndBlock cfiCond81
          CFI EndBlock cfiCond82
          CFI EndBlock cfiCond83
          CFI EndBlock cfiPicker84

        RSEG CODE:CODE:NOROOT(1)
?Subroutine52:
          CFI Block cfiCond85 Using cfiCommon0
          CFI Function coding
          CFI Conditional ??CrossCallReturnLabel_63
          CFI R24 Frame(CFA_Y, -10)
          CFI R25 Frame(CFA_Y, -9)
          CFI R26 Frame(CFA_Y, -8)
          CFI R27 Frame(CFA_Y, -7)
          CFI R4 Frame(CFA_Y, -6)
          CFI R5 Frame(CFA_Y, -5)
          CFI R6 Frame(CFA_Y, -4)
          CFI R7 Frame(CFA_Y, -3)
          CFI R8 Frame(CFA_Y, -2)
          CFI R9 Frame(CFA_Y, -1)
          CFI CFA_SP SP+4
          CFI CFA_Y Y+10
          CFI Block cfiCond86 Using cfiCommon0
          CFI (cfiCond86) Function coding
          CFI (cfiCond86) Conditional ??CrossCallReturnLabel_64
          CFI (cfiCond86) R24 Frame(CFA_Y, -10)
          CFI (cfiCond86) R25 Frame(CFA_Y, -9)
          CFI (cfiCond86) R26 Frame(CFA_Y, -8)
          CFI (cfiCond86) R27 Frame(CFA_Y, -7)
          CFI (cfiCond86) R4 Frame(CFA_Y, -6)
          CFI (cfiCond86) R5 Frame(CFA_Y, -5)
          CFI (cfiCond86) R6 Frame(CFA_Y, -4)
          CFI (cfiCond86) R7 Frame(CFA_Y, -3)
          CFI (cfiCond86) R8 Frame(CFA_Y, -2)
          CFI (cfiCond86) R9 Frame(CFA_Y, -1)
          CFI (cfiCond86) CFA_SP SP+4
          CFI (cfiCond86) CFA_Y Y+10
          CFI Block cfiCond87 Using cfiCommon0
          CFI (cfiCond87) Function coding
          CFI (cfiCond87) Conditional ??CrossCallReturnLabel_65
          CFI (cfiCond87) R24 Frame(CFA_Y, -10)
          CFI (cfiCond87) R25 Frame(CFA_Y, -9)
          CFI (cfiCond87) R26 Frame(CFA_Y, -8)
          CFI (cfiCond87) R27 Frame(CFA_Y, -7)
          CFI (cfiCond87) R4 Frame(CFA_Y, -6)
          CFI (cfiCond87) R5 Frame(CFA_Y, -5)
          CFI (cfiCond87) R6 Frame(CFA_Y, -4)
          CFI (cfiCond87) R7 Frame(CFA_Y, -3)
          CFI (cfiCond87) R8 Frame(CFA_Y, -2)
          CFI (cfiCond87) R9 Frame(CFA_Y, -1)
          CFI (cfiCond87) CFA_SP SP+4
          CFI (cfiCond87) CFA_Y Y+10
          CFI Block cfiPicker88 Using cfiCommon2
          CFI (cfiPicker88) NoFunction
          CFI (cfiPicker88) Picker
        LDI     R22, 0
        LDI     R23, 64
        MOVW    R17:R16, R1:R0
        RJMP    ?F_CMP_GE_L04
          CFI EndBlock cfiCond85
          CFI EndBlock cfiCond86
          CFI EndBlock cfiCond87
          CFI EndBlock cfiPicker88

        RSEG CODE:CODE:NOROOT(1)
?Subroutine49:
          CFI Block cfiCond89 Using cfiCommon0
          CFI Function coding
          CFI Conditional ??CrossCallReturnLabel_58
          CFI R24 Frame(CFA_Y, -10)
          CFI R25 Frame(CFA_Y, -9)
          CFI R26 Frame(CFA_Y, -8)
          CFI R27 Frame(CFA_Y, -7)
          CFI R4 Frame(CFA_Y, -6)
          CFI R5 Frame(CFA_Y, -5)
          CFI R6 Frame(CFA_Y, -4)
          CFI R7 Frame(CFA_Y, -3)
          CFI R8 Frame(CFA_Y, -2)
          CFI R9 Frame(CFA_Y, -1)
          CFI CFA_SP SP+4
          CFI CFA_Y Y+10
          CFI Block cfiCond90 Using cfiCommon0
          CFI (cfiCond90) Function coding
          CFI (cfiCond90) Conditional ??CrossCallReturnLabel_59
          CFI (cfiCond90) R24 Frame(CFA_Y, -10)
          CFI (cfiCond90) R25 Frame(CFA_Y, -9)
          CFI (cfiCond90) R26 Frame(CFA_Y, -8)
          CFI (cfiCond90) R27 Frame(CFA_Y, -7)
          CFI (cfiCond90) R4 Frame(CFA_Y, -6)
          CFI (cfiCond90) R5 Frame(CFA_Y, -5)
          CFI (cfiCond90) R6 Frame(CFA_Y, -4)
          CFI (cfiCond90) R7 Frame(CFA_Y, -3)
          CFI (cfiCond90) R8 Frame(CFA_Y, -2)
          CFI (cfiCond90) R9 Frame(CFA_Y, -1)
          CFI (cfiCond90) CFA_SP SP+4
          CFI (cfiCond90) CFA_Y Y+10
          CFI Block cfiCond91 Using cfiCommon0
          CFI (cfiCond91) Function coding
          CFI (cfiCond91) Conditional ??CrossCallReturnLabel_60
          CFI (cfiCond91) R24 Frame(CFA_Y, -10)
          CFI (cfiCond91) R25 Frame(CFA_Y, -9)
          CFI (cfiCond91) R26 Frame(CFA_Y, -8)
          CFI (cfiCond91) R27 Frame(CFA_Y, -7)
          CFI (cfiCond91) R4 Frame(CFA_Y, -6)
          CFI (cfiCond91) R5 Frame(CFA_Y, -5)
          CFI (cfiCond91) R6 Frame(CFA_Y, -4)
          CFI (cfiCond91) R7 Frame(CFA_Y, -3)
          CFI (cfiCond91) R8 Frame(CFA_Y, -2)
          CFI (cfiCond91) R9 Frame(CFA_Y, -1)
          CFI (cfiCond91) CFA_SP SP+4
          CFI (cfiCond91) CFA_Y Y+10
          CFI Block cfiPicker92 Using cfiCommon2
          CFI (cfiPicker92) NoFunction
          CFI (cfiPicker92) Picker
        LDI     R20, 1
        LDI     R22, 160
        RJMP    ?F_CMP_GE_L04
          CFI EndBlock cfiCond89
          CFI EndBlock cfiCond90
          CFI EndBlock cfiCond91
          CFI EndBlock cfiPicker92

        RSEG CODE:CODE:NOROOT(1)
?Subroutine47:
          CFI Block cfiCond93 Using cfiCommon0
          CFI Function coding
          CFI Conditional ??CrossCallReturnLabel_54
          CFI R24 Frame(CFA_Y, -10)
          CFI R25 Frame(CFA_Y, -9)
          CFI R26 Frame(CFA_Y, -8)
          CFI R27 Frame(CFA_Y, -7)
          CFI R4 Frame(CFA_Y, -6)
          CFI R5 Frame(CFA_Y, -5)
          CFI R6 Frame(CFA_Y, -4)
          CFI R7 Frame(CFA_Y, -3)
          CFI R8 Frame(CFA_Y, -2)
          CFI R9 Frame(CFA_Y, -1)
          CFI CFA_SP SP+4
          CFI CFA_Y Y+10
          CFI Block cfiCond94 Using cfiCommon0
          CFI (cfiCond94) Function coding
          CFI (cfiCond94) Conditional ??CrossCallReturnLabel_55
          CFI (cfiCond94) R24 Frame(CFA_Y, -10)
          CFI (cfiCond94) R25 Frame(CFA_Y, -9)
          CFI (cfiCond94) R26 Frame(CFA_Y, -8)
          CFI (cfiCond94) R27 Frame(CFA_Y, -7)
          CFI (cfiCond94) R4 Frame(CFA_Y, -6)
          CFI (cfiCond94) R5 Frame(CFA_Y, -5)
          CFI (cfiCond94) R6 Frame(CFA_Y, -4)
          CFI (cfiCond94) R7 Frame(CFA_Y, -3)
          CFI (cfiCond94) R8 Frame(CFA_Y, -2)
          CFI (cfiCond94) R9 Frame(CFA_Y, -1)
          CFI (cfiCond94) CFA_SP SP+4
          CFI (cfiCond94) CFA_Y Y+10
          CFI Block cfiPicker95 Using cfiCommon2
          CFI (cfiPicker95) NoFunction
          CFI (cfiPicker95) Picker
        RCALL   ?Subroutine97
??CrossCallReturnLabel_184:
        RJMP    ?Subroutine114
          CFI EndBlock cfiCond93
          CFI EndBlock cfiCond94
          CFI EndBlock cfiPicker95

        RSEG CODE:CODE:NOROOT(1)
?Subroutine38:
          CFI Block cfiCond96 Using cfiCommon0
          CFI Function coding
          CFI Conditional ??CrossCallReturnLabel_284
          CFI R24 Frame(CFA_Y, -10)
          CFI R25 Frame(CFA_Y, -9)
          CFI R26 Frame(CFA_Y, -8)
          CFI R27 Frame(CFA_Y, -7)
          CFI R4 Frame(CFA_Y, -6)
          CFI R5 Frame(CFA_Y, -5)
          CFI R6 Frame(CFA_Y, -4)
          CFI R7 Frame(CFA_Y, -3)
          CFI R8 Frame(CFA_Y, -2)
          CFI R9 Frame(CFA_Y, -1)
          CFI CFA_SP SP+4
          CFI CFA_Y Y+10
          CFI Block cfiCond97 Using cfiCommon0
          CFI (cfiCond97) Function coding
          CFI (cfiCond97) Conditional ??CrossCallReturnLabel_285
          CFI (cfiCond97) R24 Frame(CFA_Y, -10)
          CFI (cfiCond97) R25 Frame(CFA_Y, -9)
          CFI (cfiCond97) R26 Frame(CFA_Y, -8)
          CFI (cfiCond97) R27 Frame(CFA_Y, -7)
          CFI (cfiCond97) R4 Frame(CFA_Y, -6)
          CFI (cfiCond97) R5 Frame(CFA_Y, -5)
          CFI (cfiCond97) R6 Frame(CFA_Y, -4)
          CFI (cfiCond97) R7 Frame(CFA_Y, -3)
          CFI (cfiCond97) R8 Frame(CFA_Y, -2)
          CFI (cfiCond97) R9 Frame(CFA_Y, -1)
          CFI (cfiCond97) CFA_SP SP+4
          CFI (cfiCond97) CFA_Y Y+10
          CFI Block cfiPicker98 Using cfiCommon2
          CFI (cfiPicker98) NoFunction
          CFI (cfiPicker98) Picker
        LDI     R30, LOW(c3)
        LDI     R31, (c3) >> 8
          CFI EndBlock cfiCond96
          CFI EndBlock cfiCond97
          CFI EndBlock cfiPicker98
        REQUIRE ??Subroutine128_0
        ;               // Fall through to label ??Subroutine128_0

        RSEG CODE:CODE:NOROOT(1)
??Subroutine128_0:
          CFI Block cfiCond99 Using cfiCommon0
          CFI Function coding
          CFI Conditional ??CrossCallReturnLabel_282
          CFI R24 Frame(CFA_Y, -10)
          CFI R25 Frame(CFA_Y, -9)
          CFI R26 Frame(CFA_Y, -8)
          CFI R27 Frame(CFA_Y, -7)
          CFI R4 Frame(CFA_Y, -6)
          CFI R5 Frame(CFA_Y, -5)
          CFI R6 Frame(CFA_Y, -4)
          CFI R7 Frame(CFA_Y, -3)
          CFI R8 Frame(CFA_Y, -2)
          CFI R9 Frame(CFA_Y, -1)
          CFI CFA_SP SP+4
          CFI CFA_Y Y+10
          CFI Block cfiCond100 Using cfiCommon0
          CFI (cfiCond100) Function coding
          CFI (cfiCond100) Conditional ??CrossCallReturnLabel_283
          CFI (cfiCond100) R24 Frame(CFA_Y, -10)
          CFI (cfiCond100) R25 Frame(CFA_Y, -9)
          CFI (cfiCond100) R26 Frame(CFA_Y, -8)
          CFI (cfiCond100) R27 Frame(CFA_Y, -7)
          CFI (cfiCond100) R4 Frame(CFA_Y, -6)
          CFI (cfiCond100) R5 Frame(CFA_Y, -5)
          CFI (cfiCond100) R6 Frame(CFA_Y, -4)
          CFI (cfiCond100) R7 Frame(CFA_Y, -3)
          CFI (cfiCond100) R8 Frame(CFA_Y, -2)
          CFI (cfiCond100) R9 Frame(CFA_Y, -1)
          CFI (cfiCond100) CFA_SP SP+4
          CFI (cfiCond100) CFA_Y Y+10
          CFI Block cfiCond101 Using cfiCommon0
          CFI (cfiCond101) Function coding
          CFI (cfiCond101) Conditional ??CrossCallReturnLabel_284
          CFI (cfiCond101) R24 Frame(CFA_Y, -10)
          CFI (cfiCond101) R25 Frame(CFA_Y, -9)
          CFI (cfiCond101) R26 Frame(CFA_Y, -8)
          CFI (cfiCond101) R27 Frame(CFA_Y, -7)
          CFI (cfiCond101) R4 Frame(CFA_Y, -6)
          CFI (cfiCond101) R5 Frame(CFA_Y, -5)
          CFI (cfiCond101) R6 Frame(CFA_Y, -4)
          CFI (cfiCond101) R7 Frame(CFA_Y, -3)
          CFI (cfiCond101) R8 Frame(CFA_Y, -2)
          CFI (cfiCond101) R9 Frame(CFA_Y, -1)
          CFI (cfiCond101) CFA_SP SP+4
          CFI (cfiCond101) CFA_Y Y+10
          CFI Block cfiCond102 Using cfiCommon0
          CFI (cfiCond102) Function coding
          CFI (cfiCond102) Conditional ??CrossCallReturnLabel_285
          CFI (cfiCond102) R24 Frame(CFA_Y, -10)
          CFI (cfiCond102) R25 Frame(CFA_Y, -9)
          CFI (cfiCond102) R26 Frame(CFA_Y, -8)
          CFI (cfiCond102) R27 Frame(CFA_Y, -7)
          CFI (cfiCond102) R4 Frame(CFA_Y, -6)
          CFI (cfiCond102) R5 Frame(CFA_Y, -5)
          CFI (cfiCond102) R6 Frame(CFA_Y, -4)
          CFI (cfiCond102) R7 Frame(CFA_Y, -3)
          CFI (cfiCond102) R8 Frame(CFA_Y, -2)
          CFI (cfiCond102) R9 Frame(CFA_Y, -1)
          CFI (cfiCond102) CFA_SP SP+4
          CFI (cfiCond102) CFA_Y Y+10
          CFI Block cfiPicker103 Using cfiCommon2
          CFI (cfiPicker103) NoFunction
          CFI (cfiPicker103) Picker
        LD      R16, Z
        SUBI    R16, 254
        RET
          CFI EndBlock cfiCond99
          CFI EndBlock cfiCond100
          CFI EndBlock cfiCond101
          CFI EndBlock cfiCond102
          CFI EndBlock cfiPicker103

        RSEG CODE:CODE:NOROOT(1)
?Subroutine33:
          CFI Block cfiCond104 Using cfiCommon0
          CFI Function coding
          CFI Conditional ??CrossCallReturnLabel_191
          CFI R24 Frame(CFA_Y, -10)
          CFI R25 Frame(CFA_Y, -9)
          CFI R26 Frame(CFA_Y, -8)
          CFI R27 Frame(CFA_Y, -7)
          CFI R4 Frame(CFA_Y, -6)
          CFI R5 Frame(CFA_Y, -5)
          CFI R6 Frame(CFA_Y, -4)
          CFI R7 Frame(CFA_Y, -3)
          CFI R8 Frame(CFA_Y, -2)
          CFI R9 Frame(CFA_Y, -1)
          CFI CFA_SP SP+4
          CFI CFA_Y Y+10
          CFI Block cfiCond105 Using cfiCommon0
          CFI (cfiCond105) Function coding
          CFI (cfiCond105) Conditional ??CrossCallReturnLabel_192
          CFI (cfiCond105) R24 Frame(CFA_Y, -10)
          CFI (cfiCond105) R25 Frame(CFA_Y, -9)
          CFI (cfiCond105) R26 Frame(CFA_Y, -8)
          CFI (cfiCond105) R27 Frame(CFA_Y, -7)
          CFI (cfiCond105) R4 Frame(CFA_Y, -6)
          CFI (cfiCond105) R5 Frame(CFA_Y, -5)
          CFI (cfiCond105) R6 Frame(CFA_Y, -4)
          CFI (cfiCond105) R7 Frame(CFA_Y, -3)
          CFI (cfiCond105) R8 Frame(CFA_Y, -2)
          CFI (cfiCond105) R9 Frame(CFA_Y, -1)
          CFI (cfiCond105) CFA_SP SP+4
          CFI (cfiCond105) CFA_Y Y+10
          CFI Block cfiPicker106 Using cfiCommon2
          CFI (cfiPicker106) NoFunction
          CFI (cfiPicker106) Picker
        RCALL   ?Subroutine95
          CFI EndBlock cfiCond104
          CFI EndBlock cfiCond105
          CFI EndBlock cfiPicker106
??CrossCallReturnLabel_178:
        REQUIRE ?Subroutine99
        ;               // Fall through to label ?Subroutine99

        RSEG CODE:CODE:NOROOT(1)
?Subroutine99:
          CFI Block cfiCond107 Using cfiCommon0
          CFI Function coding
          CFI Conditional ??CrossCallReturnLabel_190
          CFI R24 Frame(CFA_Y, -10)
          CFI R25 Frame(CFA_Y, -9)
          CFI R26 Frame(CFA_Y, -8)
          CFI R27 Frame(CFA_Y, -7)
          CFI R4 Frame(CFA_Y, -6)
          CFI R5 Frame(CFA_Y, -5)
          CFI R6 Frame(CFA_Y, -4)
          CFI R7 Frame(CFA_Y, -3)
          CFI R8 Frame(CFA_Y, -2)
          CFI R9 Frame(CFA_Y, -1)
          CFI CFA_SP SP+4
          CFI CFA_Y Y+10
          CFI Block cfiCond108 Using cfiCommon0
          CFI (cfiCond108) Function coding
          CFI (cfiCond108) Conditional ??CrossCallReturnLabel_191
          CFI (cfiCond108) R24 Frame(CFA_Y, -10)
          CFI (cfiCond108) R25 Frame(CFA_Y, -9)
          CFI (cfiCond108) R26 Frame(CFA_Y, -8)
          CFI (cfiCond108) R27 Frame(CFA_Y, -7)
          CFI (cfiCond108) R4 Frame(CFA_Y, -6)
          CFI (cfiCond108) R5 Frame(CFA_Y, -5)
          CFI (cfiCond108) R6 Frame(CFA_Y, -4)
          CFI (cfiCond108) R7 Frame(CFA_Y, -3)
          CFI (cfiCond108) R8 Frame(CFA_Y, -2)
          CFI (cfiCond108) R9 Frame(CFA_Y, -1)
          CFI (cfiCond108) CFA_SP SP+4
          CFI (cfiCond108) CFA_Y Y+10
          CFI Block cfiCond109 Using cfiCommon0
          CFI (cfiCond109) Function coding
          CFI (cfiCond109) Conditional ??CrossCallReturnLabel_192
          CFI (cfiCond109) R24 Frame(CFA_Y, -10)
          CFI (cfiCond109) R25 Frame(CFA_Y, -9)
          CFI (cfiCond109) R26 Frame(CFA_Y, -8)
          CFI (cfiCond109) R27 Frame(CFA_Y, -7)
          CFI (cfiCond109) R4 Frame(CFA_Y, -6)
          CFI (cfiCond109) R5 Frame(CFA_Y, -5)
          CFI (cfiCond109) R6 Frame(CFA_Y, -4)
          CFI (cfiCond109) R7 Frame(CFA_Y, -3)
          CFI (cfiCond109) R8 Frame(CFA_Y, -2)
          CFI (cfiCond109) R9 Frame(CFA_Y, -1)
          CFI (cfiCond109) CFA_SP SP+4
          CFI (cfiCond109) CFA_Y Y+10
          CFI Block cfiPicker110 Using cfiCommon2
          CFI (cfiPicker110) NoFunction
          CFI (cfiPicker110) Picker
        LSL     R16
        ROL     R17
        LSL     R16
        ROL     R17
        RET
          CFI EndBlock cfiCond107
          CFI EndBlock cfiCond108
          CFI EndBlock cfiCond109
          CFI EndBlock cfiPicker110

        RSEG CODE:CODE:NOROOT(1)
?Subroutine94:
          CFI Block cfiCond111 Using cfiCommon0
          CFI Function coding
          CFI Conditional ??CrossCallReturnLabel_165
          CFI R24 Frame(CFA_Y, -10)
          CFI R25 Frame(CFA_Y, -9)
          CFI R26 Frame(CFA_Y, -8)
          CFI R27 Frame(CFA_Y, -7)
          CFI R4 Frame(CFA_Y, -6)
          CFI R5 Frame(CFA_Y, -5)
          CFI R6 Frame(CFA_Y, -4)
          CFI R7 Frame(CFA_Y, -3)
          CFI R8 Frame(CFA_Y, -2)
          CFI R9 Frame(CFA_Y, -1)
          CFI CFA_SP SP+4
          CFI CFA_Y Y+10
          CFI Block cfiCond112 Using cfiCommon0
          CFI (cfiCond112) Function coding
          CFI (cfiCond112) Conditional ??CrossCallReturnLabel_166
          CFI (cfiCond112) R24 Frame(CFA_Y, -10)
          CFI (cfiCond112) R25 Frame(CFA_Y, -9)
          CFI (cfiCond112) R26 Frame(CFA_Y, -8)
          CFI (cfiCond112) R27 Frame(CFA_Y, -7)
          CFI (cfiCond112) R4 Frame(CFA_Y, -6)
          CFI (cfiCond112) R5 Frame(CFA_Y, -5)
          CFI (cfiCond112) R6 Frame(CFA_Y, -4)
          CFI (cfiCond112) R7 Frame(CFA_Y, -3)
          CFI (cfiCond112) R8 Frame(CFA_Y, -2)
          CFI (cfiCond112) R9 Frame(CFA_Y, -1)
          CFI (cfiCond112) CFA_SP SP+4
          CFI (cfiCond112) CFA_Y Y+10
          CFI Block cfiCond113 Using cfiCommon0
          CFI (cfiCond113) Function coding
          CFI (cfiCond113) Conditional ??CrossCallReturnLabel_167
          CFI (cfiCond113) R24 Frame(CFA_Y, -10)
          CFI (cfiCond113) R25 Frame(CFA_Y, -9)
          CFI (cfiCond113) R26 Frame(CFA_Y, -8)
          CFI (cfiCond113) R27 Frame(CFA_Y, -7)
          CFI (cfiCond113) R4 Frame(CFA_Y, -6)
          CFI (cfiCond113) R5 Frame(CFA_Y, -5)
          CFI (cfiCond113) R6 Frame(CFA_Y, -4)
          CFI (cfiCond113) R7 Frame(CFA_Y, -3)
          CFI (cfiCond113) R8 Frame(CFA_Y, -2)
          CFI (cfiCond113) R9 Frame(CFA_Y, -1)
          CFI (cfiCond113) CFA_SP SP+4
          CFI (cfiCond113) CFA_Y Y+10
          CFI Block cfiCond114 Using cfiCommon0
          CFI (cfiCond114) Function coding
          CFI (cfiCond114) Conditional ??CrossCallReturnLabel_168, ??CrossCallReturnLabel_37
          CFI (cfiCond114) R24 Frame(CFA_Y, -10)
          CFI (cfiCond114) R25 Frame(CFA_Y, -9)
          CFI (cfiCond114) R26 Frame(CFA_Y, -8)
          CFI (cfiCond114) R27 Frame(CFA_Y, -7)
          CFI (cfiCond114) R4 Frame(CFA_Y, -6)
          CFI (cfiCond114) R5 Frame(CFA_Y, -5)
          CFI (cfiCond114) R6 Frame(CFA_Y, -4)
          CFI (cfiCond114) R7 Frame(CFA_Y, -3)
          CFI (cfiCond114) R8 Frame(CFA_Y, -2)
          CFI (cfiCond114) R9 Frame(CFA_Y, -1)
          CFI (cfiCond114) CFA_SP SP+6
          CFI (cfiCond114) CFA_Y Y+10
          CFI Block cfiCond115 Using cfiCommon0
          CFI (cfiCond115) Function coding
          CFI (cfiCond115) Conditional ??CrossCallReturnLabel_168, ??CrossCallReturnLabel_38
          CFI (cfiCond115) R24 Frame(CFA_Y, -10)
          CFI (cfiCond115) R25 Frame(CFA_Y, -9)
          CFI (cfiCond115) R26 Frame(CFA_Y, -8)
          CFI (cfiCond115) R27 Frame(CFA_Y, -7)
          CFI (cfiCond115) R4 Frame(CFA_Y, -6)
          CFI (cfiCond115) R5 Frame(CFA_Y, -5)
          CFI (cfiCond115) R6 Frame(CFA_Y, -4)
          CFI (cfiCond115) R7 Frame(CFA_Y, -3)
          CFI (cfiCond115) R8 Frame(CFA_Y, -2)
          CFI (cfiCond115) R9 Frame(CFA_Y, -1)
          CFI (cfiCond115) CFA_SP SP+6
          CFI (cfiCond115) CFA_Y Y+10
          CFI Block cfiCond116 Using cfiCommon0
          CFI (cfiCond116) Function coding
          CFI (cfiCond116) Conditional ??CrossCallReturnLabel_168, ??CrossCallReturnLabel_39
          CFI (cfiCond116) R24 Frame(CFA_Y, -10)
          CFI (cfiCond116) R25 Frame(CFA_Y, -9)
          CFI (cfiCond116) R26 Frame(CFA_Y, -8)
          CFI (cfiCond116) R27 Frame(CFA_Y, -7)
          CFI (cfiCond116) R4 Frame(CFA_Y, -6)
          CFI (cfiCond116) R5 Frame(CFA_Y, -5)
          CFI (cfiCond116) R6 Frame(CFA_Y, -4)
          CFI (cfiCond116) R7 Frame(CFA_Y, -3)
          CFI (cfiCond116) R8 Frame(CFA_Y, -2)
          CFI (cfiCond116) R9 Frame(CFA_Y, -1)
          CFI (cfiCond116) CFA_SP SP+6
          CFI (cfiCond116) CFA_Y Y+10
          CFI Block cfiPicker117 Using cfiCommon2
          CFI (cfiPicker117) NoFunction
          CFI (cfiPicker117) Picker
        LD      R16, Z
        LDD     R17, Z+1
        OR      R16, R8
        OR      R17, R9
        RET
          CFI EndBlock cfiCond111
          CFI EndBlock cfiCond112
          CFI EndBlock cfiCond113
          CFI EndBlock cfiCond114
          CFI EndBlock cfiCond115
          CFI EndBlock cfiCond116
          CFI EndBlock cfiPicker117

        RSEG CODE:CODE:NOROOT(1)
?Subroutine31:
          CFI Block cfiCond118 Using cfiCommon0
          CFI Function coding
          CFI Conditional ??CrossCallReturnLabel_40
          CFI R24 Frame(CFA_Y, -10)
          CFI R25 Frame(CFA_Y, -9)
          CFI R26 Frame(CFA_Y, -8)
          CFI R27 Frame(CFA_Y, -7)
          CFI R4 Frame(CFA_Y, -6)
          CFI R5 Frame(CFA_Y, -5)
          CFI R6 Frame(CFA_Y, -4)
          CFI R7 Frame(CFA_Y, -3)
          CFI R8 Frame(CFA_Y, -2)
          CFI R9 Frame(CFA_Y, -1)
          CFI CFA_SP SP+4
          CFI CFA_Y Y+10
          CFI Block cfiCond119 Using cfiCommon0
          CFI (cfiCond119) Function coding
          CFI (cfiCond119) Conditional ??CrossCallReturnLabel_41
          CFI (cfiCond119) R24 Frame(CFA_Y, -10)
          CFI (cfiCond119) R25 Frame(CFA_Y, -9)
          CFI (cfiCond119) R26 Frame(CFA_Y, -8)
          CFI (cfiCond119) R27 Frame(CFA_Y, -7)
          CFI (cfiCond119) R4 Frame(CFA_Y, -6)
          CFI (cfiCond119) R5 Frame(CFA_Y, -5)
          CFI (cfiCond119) R6 Frame(CFA_Y, -4)
          CFI (cfiCond119) R7 Frame(CFA_Y, -3)
          CFI (cfiCond119) R8 Frame(CFA_Y, -2)
          CFI (cfiCond119) R9 Frame(CFA_Y, -1)
          CFI (cfiCond119) CFA_SP SP+4
          CFI (cfiCond119) CFA_Y Y+10
          CFI Block cfiCond120 Using cfiCommon0
          CFI (cfiCond120) Function coding
          CFI (cfiCond120) Conditional ??CrossCallReturnLabel_42
          CFI (cfiCond120) R24 Frame(CFA_Y, -10)
          CFI (cfiCond120) R25 Frame(CFA_Y, -9)
          CFI (cfiCond120) R26 Frame(CFA_Y, -8)
          CFI (cfiCond120) R27 Frame(CFA_Y, -7)
          CFI (cfiCond120) R4 Frame(CFA_Y, -6)
          CFI (cfiCond120) R5 Frame(CFA_Y, -5)
          CFI (cfiCond120) R6 Frame(CFA_Y, -4)
          CFI (cfiCond120) R7 Frame(CFA_Y, -3)
          CFI (cfiCond120) R8 Frame(CFA_Y, -2)
          CFI (cfiCond120) R9 Frame(CFA_Y, -1)
          CFI (cfiCond120) CFA_SP SP+4
          CFI (cfiCond120) CFA_Y Y+10
          CFI Block cfiPicker121 Using cfiCommon2
          CFI (cfiPicker121) NoFunction
          CFI (cfiPicker121) Picker
        RCALL   ?Subroutine92
??CrossCallReturnLabel_309:
        CPI     R16, 16
        RET
          CFI EndBlock cfiCond118
          CFI EndBlock cfiCond119
          CFI EndBlock cfiCond120
          CFI EndBlock cfiPicker121

        RSEG CODE:CODE:NOROOT(1)
?Subroutine29:
          CFI Block cfiCond122 Using cfiCommon0
          CFI Function coding
          CFI Conditional ??CrossCallReturnLabel_37
          CFI R24 Frame(CFA_Y, -10)
          CFI R25 Frame(CFA_Y, -9)
          CFI R26 Frame(CFA_Y, -8)
          CFI R27 Frame(CFA_Y, -7)
          CFI R4 Frame(CFA_Y, -6)
          CFI R5 Frame(CFA_Y, -5)
          CFI R6 Frame(CFA_Y, -4)
          CFI R7 Frame(CFA_Y, -3)
          CFI R8 Frame(CFA_Y, -2)
          CFI R9 Frame(CFA_Y, -1)
          CFI CFA_SP SP+4
          CFI CFA_Y Y+10
          CFI Block cfiCond123 Using cfiCommon0
          CFI (cfiCond123) Function coding
          CFI (cfiCond123) Conditional ??CrossCallReturnLabel_38
          CFI (cfiCond123) R24 Frame(CFA_Y, -10)
          CFI (cfiCond123) R25 Frame(CFA_Y, -9)
          CFI (cfiCond123) R26 Frame(CFA_Y, -8)
          CFI (cfiCond123) R27 Frame(CFA_Y, -7)
          CFI (cfiCond123) R4 Frame(CFA_Y, -6)
          CFI (cfiCond123) R5 Frame(CFA_Y, -5)
          CFI (cfiCond123) R6 Frame(CFA_Y, -4)
          CFI (cfiCond123) R7 Frame(CFA_Y, -3)
          CFI (cfiCond123) R8 Frame(CFA_Y, -2)
          CFI (cfiCond123) R9 Frame(CFA_Y, -1)
          CFI (cfiCond123) CFA_SP SP+4
          CFI (cfiCond123) CFA_Y Y+10
          CFI Block cfiCond124 Using cfiCommon0
          CFI (cfiCond124) Function coding
          CFI (cfiCond124) Conditional ??CrossCallReturnLabel_39
          CFI (cfiCond124) R24 Frame(CFA_Y, -10)
          CFI (cfiCond124) R25 Frame(CFA_Y, -9)
          CFI (cfiCond124) R26 Frame(CFA_Y, -8)
          CFI (cfiCond124) R27 Frame(CFA_Y, -7)
          CFI (cfiCond124) R4 Frame(CFA_Y, -6)
          CFI (cfiCond124) R5 Frame(CFA_Y, -5)
          CFI (cfiCond124) R6 Frame(CFA_Y, -4)
          CFI (cfiCond124) R7 Frame(CFA_Y, -3)
          CFI (cfiCond124) R8 Frame(CFA_Y, -2)
          CFI (cfiCond124) R9 Frame(CFA_Y, -1)
          CFI (cfiCond124) CFA_SP SP+4
          CFI (cfiCond124) CFA_Y Y+10
          CFI Block cfiPicker125 Using cfiCommon2
          CFI (cfiPicker125) NoFunction
          CFI (cfiPicker125) Picker
        RCALL   ?Subroutine94
??CrossCallReturnLabel_168:
        ADD     R16, R4
        ADC     R17, R5
        RET
          CFI EndBlock cfiCond122
          CFI EndBlock cfiCond123
          CFI EndBlock cfiCond124
          CFI EndBlock cfiPicker125

        RSEG CODE:CODE:NOROOT(1)
?Subroutine28:
          CFI Block cfiCond126 Using cfiCommon0
          CFI Function PEREP
          CFI Conditional ??CrossCallReturnLabel_300
          CFI R24 Frame(CFA_Y, -8)
          CFI R25 Frame(CFA_Y, -7)
          CFI R26 Frame(CFA_Y, -6)
          CFI R27 Frame(CFA_Y, -5)
          CFI R4 Frame(CFA_Y, -4)
          CFI R5 Frame(CFA_Y, -3)
          CFI R6 Frame(CFA_Y, -2)
          CFI R7 Frame(CFA_Y, -1)
          CFI CFA_SP SP+4
          CFI CFA_Y Y+8
          CFI Block cfiCond127 Using cfiCommon0
          CFI (cfiCond127) Function coding
          CFI (cfiCond127) Conditional ??CrossCallReturnLabel_299
          CFI (cfiCond127) R24 Frame(CFA_Y, -10)
          CFI (cfiCond127) R25 Frame(CFA_Y, -9)
          CFI (cfiCond127) R26 Frame(CFA_Y, -8)
          CFI (cfiCond127) R27 Frame(CFA_Y, -7)
          CFI (cfiCond127) R4 Frame(CFA_Y, -6)
          CFI (cfiCond127) R5 Frame(CFA_Y, -5)
          CFI (cfiCond127) R6 Frame(CFA_Y, -4)
          CFI (cfiCond127) R7 Frame(CFA_Y, -3)
          CFI (cfiCond127) R8 Frame(CFA_Y, -2)
          CFI (cfiCond127) R9 Frame(CFA_Y, -1)
          CFI (cfiCond127) CFA_SP SP+4
          CFI (cfiCond127) CFA_Y Y+10
          CFI Block cfiPicker128 Using cfiCommon2
          CFI (cfiPicker128) NoFunction
          CFI (cfiPicker128) Picker
        RCALL   rprintfStr
        RCALL   ?Subroutine101
          CFI EndBlock cfiCond126
          CFI EndBlock cfiCond127
          CFI EndBlock cfiPicker128
??CrossCallReturnLabel_203:
        REQUIRE ?Subroutine124
        REQUIRE ??Subroutine129_0
        ;               // Fall through to label ??Subroutine129_0

        RSEG CODE:CODE:NOROOT(1)
??Subroutine129_0:
          CFI Block cfiCond129 Using cfiCommon0
          CFI Function PEREP
          CFI Conditional ??CrossCallReturnLabel_298
          CFI R24 Frame(CFA_Y, -8)
          CFI R25 Frame(CFA_Y, -7)
          CFI R26 Frame(CFA_Y, -6)
          CFI R27 Frame(CFA_Y, -5)
          CFI R4 Frame(CFA_Y, -4)
          CFI R5 Frame(CFA_Y, -3)
          CFI R6 Frame(CFA_Y, -2)
          CFI R7 Frame(CFA_Y, -1)
          CFI CFA_SP SP+4
          CFI CFA_Y Y+8
          CFI Block cfiCond130 Using cfiCommon0
          CFI (cfiCond130) Function PEREP
          CFI (cfiCond130) Conditional ??CrossCallReturnLabel_297
          CFI (cfiCond130) R24 Frame(CFA_Y, -8)
          CFI (cfiCond130) R25 Frame(CFA_Y, -7)
          CFI (cfiCond130) R26 Frame(CFA_Y, -6)
          CFI (cfiCond130) R27 Frame(CFA_Y, -5)
          CFI (cfiCond130) R4 Frame(CFA_Y, -4)
          CFI (cfiCond130) R5 Frame(CFA_Y, -3)
          CFI (cfiCond130) R6 Frame(CFA_Y, -2)
          CFI (cfiCond130) R7 Frame(CFA_Y, -1)
          CFI (cfiCond130) CFA_SP SP+4
          CFI (cfiCond130) CFA_Y Y+8
          CFI Block cfiCond131 Using cfiCommon0
          CFI (cfiCond131) Function coding
          CFI (cfiCond131) Conditional ??CrossCallReturnLabel_296
          CFI (cfiCond131) R24 Frame(CFA_Y, -10)
          CFI (cfiCond131) R25 Frame(CFA_Y, -9)
          CFI (cfiCond131) R26 Frame(CFA_Y, -8)
          CFI (cfiCond131) R27 Frame(CFA_Y, -7)
          CFI (cfiCond131) R4 Frame(CFA_Y, -6)
          CFI (cfiCond131) R5 Frame(CFA_Y, -5)
          CFI (cfiCond131) R6 Frame(CFA_Y, -4)
          CFI (cfiCond131) R7 Frame(CFA_Y, -3)
          CFI (cfiCond131) R8 Frame(CFA_Y, -2)
          CFI (cfiCond131) R9 Frame(CFA_Y, -1)
          CFI (cfiCond131) CFA_SP SP+4
          CFI (cfiCond131) CFA_Y Y+10
          CFI Block cfiCond132 Using cfiCommon0
          CFI (cfiCond132) Function coding
          CFI (cfiCond132) Conditional ??CrossCallReturnLabel_295
          CFI (cfiCond132) R24 Frame(CFA_Y, -10)
          CFI (cfiCond132) R25 Frame(CFA_Y, -9)
          CFI (cfiCond132) R26 Frame(CFA_Y, -8)
          CFI (cfiCond132) R27 Frame(CFA_Y, -7)
          CFI (cfiCond132) R4 Frame(CFA_Y, -6)
          CFI (cfiCond132) R5 Frame(CFA_Y, -5)
          CFI (cfiCond132) R6 Frame(CFA_Y, -4)
          CFI (cfiCond132) R7 Frame(CFA_Y, -3)
          CFI (cfiCond132) R8 Frame(CFA_Y, -2)
          CFI (cfiCond132) R9 Frame(CFA_Y, -1)
          CFI (cfiCond132) CFA_SP SP+4
          CFI (cfiCond132) CFA_Y Y+10
          CFI Block cfiCond133 Using cfiCommon0
          CFI (cfiCond133) Function PEREP
          CFI (cfiCond133) Conditional ??CrossCallReturnLabel_300
          CFI (cfiCond133) R24 Frame(CFA_Y, -8)
          CFI (cfiCond133) R25 Frame(CFA_Y, -7)
          CFI (cfiCond133) R26 Frame(CFA_Y, -6)
          CFI (cfiCond133) R27 Frame(CFA_Y, -5)
          CFI (cfiCond133) R4 Frame(CFA_Y, -4)
          CFI (cfiCond133) R5 Frame(CFA_Y, -3)
          CFI (cfiCond133) R6 Frame(CFA_Y, -2)
          CFI (cfiCond133) R7 Frame(CFA_Y, -1)
          CFI (cfiCond133) CFA_SP SP+4
          CFI (cfiCond133) CFA_Y Y+8
          CFI Block cfiCond134 Using cfiCommon0
          CFI (cfiCond134) Function coding
          CFI (cfiCond134) Conditional ??CrossCallReturnLabel_299
          CFI (cfiCond134) R24 Frame(CFA_Y, -10)
          CFI (cfiCond134) R25 Frame(CFA_Y, -9)
          CFI (cfiCond134) R26 Frame(CFA_Y, -8)
          CFI (cfiCond134) R27 Frame(CFA_Y, -7)
          CFI (cfiCond134) R4 Frame(CFA_Y, -6)
          CFI (cfiCond134) R5 Frame(CFA_Y, -5)
          CFI (cfiCond134) R6 Frame(CFA_Y, -4)
          CFI (cfiCond134) R7 Frame(CFA_Y, -3)
          CFI (cfiCond134) R8 Frame(CFA_Y, -2)
          CFI (cfiCond134) R9 Frame(CFA_Y, -1)
          CFI (cfiCond134) CFA_SP SP+4
          CFI (cfiCond134) CFA_Y Y+10
          CFI Block cfiPicker135 Using cfiCommon2
          CFI (cfiPicker135) NoFunction
          CFI (cfiPicker135) Picker
        RCALL   ?Subroutine91
          CFI EndBlock cfiCond129
          CFI EndBlock cfiCond130
          CFI EndBlock cfiCond131
          CFI EndBlock cfiCond132
          CFI EndBlock cfiCond133
          CFI EndBlock cfiCond134
          CFI EndBlock cfiPicker135
??CrossCallReturnLabel_287:
        REQUIRE ?Subroutine124
        ;               // Fall through to label ?Subroutine124

        RSEG CODE:CODE:NOROOT(1)
?Subroutine124:
          CFI Block cfiCond136 Using cfiCommon0
          CFI Function PEREP
          CFI Conditional ??CrossCallReturnLabel_300
          CFI R24 Frame(CFA_Y, -8)
          CFI R25 Frame(CFA_Y, -7)
          CFI R26 Frame(CFA_Y, -6)
          CFI R27 Frame(CFA_Y, -5)
          CFI R4 Frame(CFA_Y, -4)
          CFI R5 Frame(CFA_Y, -3)
          CFI R6 Frame(CFA_Y, -2)
          CFI R7 Frame(CFA_Y, -1)
          CFI CFA_SP SP+4
          CFI CFA_Y Y+8
          CFI Block cfiCond137 Using cfiCommon0
          CFI (cfiCond137) Function coding
          CFI (cfiCond137) Conditional ??CrossCallReturnLabel_299
          CFI (cfiCond137) R24 Frame(CFA_Y, -10)
          CFI (cfiCond137) R25 Frame(CFA_Y, -9)
          CFI (cfiCond137) R26 Frame(CFA_Y, -8)
          CFI (cfiCond137) R27 Frame(CFA_Y, -7)
          CFI (cfiCond137) R4 Frame(CFA_Y, -6)
          CFI (cfiCond137) R5 Frame(CFA_Y, -5)
          CFI (cfiCond137) R6 Frame(CFA_Y, -4)
          CFI (cfiCond137) R7 Frame(CFA_Y, -3)
          CFI (cfiCond137) R8 Frame(CFA_Y, -2)
          CFI (cfiCond137) R9 Frame(CFA_Y, -1)
          CFI (cfiCond137) CFA_SP SP+4
          CFI (cfiCond137) CFA_Y Y+10
          CFI Block cfiCond138 Using cfiCommon0
          CFI (cfiCond138) Function PEREP
          CFI (cfiCond138) Conditional ??CrossCallReturnLabel_298
          CFI (cfiCond138) R24 Frame(CFA_Y, -8)
          CFI (cfiCond138) R25 Frame(CFA_Y, -7)
          CFI (cfiCond138) R26 Frame(CFA_Y, -6)
          CFI (cfiCond138) R27 Frame(CFA_Y, -5)
          CFI (cfiCond138) R4 Frame(CFA_Y, -4)
          CFI (cfiCond138) R5 Frame(CFA_Y, -3)
          CFI (cfiCond138) R6 Frame(CFA_Y, -2)
          CFI (cfiCond138) R7 Frame(CFA_Y, -1)
          CFI (cfiCond138) CFA_SP SP+4
          CFI (cfiCond138) CFA_Y Y+8
          CFI Block cfiCond139 Using cfiCommon0
          CFI (cfiCond139) Function PEREP
          CFI (cfiCond139) Conditional ??CrossCallReturnLabel_297
          CFI (cfiCond139) R24 Frame(CFA_Y, -8)
          CFI (cfiCond139) R25 Frame(CFA_Y, -7)
          CFI (cfiCond139) R26 Frame(CFA_Y, -6)
          CFI (cfiCond139) R27 Frame(CFA_Y, -5)
          CFI (cfiCond139) R4 Frame(CFA_Y, -4)
          CFI (cfiCond139) R5 Frame(CFA_Y, -3)
          CFI (cfiCond139) R6 Frame(CFA_Y, -2)
          CFI (cfiCond139) R7 Frame(CFA_Y, -1)
          CFI (cfiCond139) CFA_SP SP+4
          CFI (cfiCond139) CFA_Y Y+8
          CFI Block cfiCond140 Using cfiCommon0
          CFI (cfiCond140) Function coding
          CFI (cfiCond140) Conditional ??CrossCallReturnLabel_296
          CFI (cfiCond140) R24 Frame(CFA_Y, -10)
          CFI (cfiCond140) R25 Frame(CFA_Y, -9)
          CFI (cfiCond140) R26 Frame(CFA_Y, -8)
          CFI (cfiCond140) R27 Frame(CFA_Y, -7)
          CFI (cfiCond140) R4 Frame(CFA_Y, -6)
          CFI (cfiCond140) R5 Frame(CFA_Y, -5)
          CFI (cfiCond140) R6 Frame(CFA_Y, -4)
          CFI (cfiCond140) R7 Frame(CFA_Y, -3)
          CFI (cfiCond140) R8 Frame(CFA_Y, -2)
          CFI (cfiCond140) R9 Frame(CFA_Y, -1)
          CFI (cfiCond140) CFA_SP SP+4
          CFI (cfiCond140) CFA_Y Y+10
          CFI Block cfiCond141 Using cfiCommon0
          CFI (cfiCond141) Function coding
          CFI (cfiCond141) Conditional ??CrossCallReturnLabel_295
          CFI (cfiCond141) R24 Frame(CFA_Y, -10)
          CFI (cfiCond141) R25 Frame(CFA_Y, -9)
          CFI (cfiCond141) R26 Frame(CFA_Y, -8)
          CFI (cfiCond141) R27 Frame(CFA_Y, -7)
          CFI (cfiCond141) R4 Frame(CFA_Y, -6)
          CFI (cfiCond141) R5 Frame(CFA_Y, -5)
          CFI (cfiCond141) R6 Frame(CFA_Y, -4)
          CFI (cfiCond141) R7 Frame(CFA_Y, -3)
          CFI (cfiCond141) R8 Frame(CFA_Y, -2)
          CFI (cfiCond141) R9 Frame(CFA_Y, -1)
          CFI (cfiCond141) CFA_SP SP+4
          CFI (cfiCond141) CFA_Y Y+10
          CFI Block cfiCond142 Using cfiCommon0
          CFI (cfiCond142) Function PEREP
          CFI (cfiCond142) Conditional ??CrossCallReturnLabel_294
          CFI (cfiCond142) R24 Frame(CFA_Y, -8)
          CFI (cfiCond142) R25 Frame(CFA_Y, -7)
          CFI (cfiCond142) R26 Frame(CFA_Y, -6)
          CFI (cfiCond142) R27 Frame(CFA_Y, -5)
          CFI (cfiCond142) R4 Frame(CFA_Y, -4)
          CFI (cfiCond142) R5 Frame(CFA_Y, -3)
          CFI (cfiCond142) R6 Frame(CFA_Y, -2)
          CFI (cfiCond142) R7 Frame(CFA_Y, -1)
          CFI (cfiCond142) CFA_SP SP+4
          CFI (cfiCond142) CFA_Y Y+8
          CFI Block cfiCond143 Using cfiCommon0
          CFI (cfiCond143) Function main_logic
          CFI (cfiCond143) Conditional ??CrossCallReturnLabel_293
          CFI (cfiCond143) CFA_SP SP+4
          CFI Block cfiPicker144 Using cfiCommon2
          CFI (cfiPicker144) NoFunction
          CFI (cfiPicker144) Picker
        LDI     R16, 6
        RJMP    rprintfFloat
          CFI EndBlock cfiCond136
          CFI EndBlock cfiCond137
          CFI EndBlock cfiCond138
          CFI EndBlock cfiCond139
          CFI EndBlock cfiCond140
          CFI EndBlock cfiCond141
          CFI EndBlock cfiCond142
          CFI EndBlock cfiCond143
          CFI EndBlock cfiPicker144

        RSEG CODE:CODE:NOROOT(1)
?Subroutine24:
          CFI Block cfiCond145 Using cfiCommon0
          CFI Function coding
          CFI Conditional ??CrossCallReturnLabel_303
          CFI R24 Frame(CFA_Y, -10)
          CFI R25 Frame(CFA_Y, -9)
          CFI R26 Frame(CFA_Y, -8)
          CFI R27 Frame(CFA_Y, -7)
          CFI R4 Frame(CFA_Y, -6)
          CFI R5 Frame(CFA_Y, -5)
          CFI R6 Frame(CFA_Y, -4)
          CFI R7 Frame(CFA_Y, -3)
          CFI R8 Frame(CFA_Y, -2)
          CFI R9 Frame(CFA_Y, -1)
          CFI CFA_SP SP+4
          CFI CFA_Y Y+10
          CFI Block cfiCond146 Using cfiCommon0
          CFI (cfiCond146) Function coding
          CFI (cfiCond146) Conditional ??CrossCallReturnLabel_304
          CFI (cfiCond146) R24 Frame(CFA_Y, -10)
          CFI (cfiCond146) R25 Frame(CFA_Y, -9)
          CFI (cfiCond146) R26 Frame(CFA_Y, -8)
          CFI (cfiCond146) R27 Frame(CFA_Y, -7)
          CFI (cfiCond146) R4 Frame(CFA_Y, -6)
          CFI (cfiCond146) R5 Frame(CFA_Y, -5)
          CFI (cfiCond146) R6 Frame(CFA_Y, -4)
          CFI (cfiCond146) R7 Frame(CFA_Y, -3)
          CFI (cfiCond146) R8 Frame(CFA_Y, -2)
          CFI (cfiCond146) R9 Frame(CFA_Y, -1)
          CFI (cfiCond146) CFA_SP SP+4
          CFI (cfiCond146) CFA_Y Y+10
          CFI Block cfiPicker147 Using cfiCommon2
          CFI (cfiPicker147) NoFunction
          CFI (cfiPicker147) Picker
        ST      Z, R16
        STD     Z+1, R17
        LDI     R30, LOW(c1)
        LDI     R31, (c1) >> 8
          CFI EndBlock cfiCond145
          CFI EndBlock cfiCond146
          CFI EndBlock cfiPicker147
        REQUIRE ?Subroutine115
        ;               // Fall through to label ?Subroutine115

        RSEG CODE:CODE:NOROOT(1)
?Subroutine115:
          CFI Block cfiCond148 Using cfiCommon0
          CFI Function coding
          CFI Conditional ??CrossCallReturnLabel_303
          CFI R24 Frame(CFA_Y, -10)
          CFI R25 Frame(CFA_Y, -9)
          CFI R26 Frame(CFA_Y, -8)
          CFI R27 Frame(CFA_Y, -7)
          CFI R4 Frame(CFA_Y, -6)
          CFI R5 Frame(CFA_Y, -5)
          CFI R6 Frame(CFA_Y, -4)
          CFI R7 Frame(CFA_Y, -3)
          CFI R8 Frame(CFA_Y, -2)
          CFI R9 Frame(CFA_Y, -1)
          CFI CFA_SP SP+4
          CFI CFA_Y Y+10
          CFI Block cfiCond149 Using cfiCommon0
          CFI (cfiCond149) Function coding
          CFI (cfiCond149) Conditional ??CrossCallReturnLabel_304
          CFI (cfiCond149) R24 Frame(CFA_Y, -10)
          CFI (cfiCond149) R25 Frame(CFA_Y, -9)
          CFI (cfiCond149) R26 Frame(CFA_Y, -8)
          CFI (cfiCond149) R27 Frame(CFA_Y, -7)
          CFI (cfiCond149) R4 Frame(CFA_Y, -6)
          CFI (cfiCond149) R5 Frame(CFA_Y, -5)
          CFI (cfiCond149) R6 Frame(CFA_Y, -4)
          CFI (cfiCond149) R7 Frame(CFA_Y, -3)
          CFI (cfiCond149) R8 Frame(CFA_Y, -2)
          CFI (cfiCond149) R9 Frame(CFA_Y, -1)
          CFI (cfiCond149) CFA_SP SP+4
          CFI (cfiCond149) CFA_Y Y+10
          CFI Block cfiCond150 Using cfiCommon0
          CFI (cfiCond150) Function coding
          CFI (cfiCond150) Conditional ??CrossCallReturnLabel_301
          CFI (cfiCond150) R24 Frame(CFA_Y, -10)
          CFI (cfiCond150) R25 Frame(CFA_Y, -9)
          CFI (cfiCond150) R26 Frame(CFA_Y, -8)
          CFI (cfiCond150) R27 Frame(CFA_Y, -7)
          CFI (cfiCond150) R4 Frame(CFA_Y, -6)
          CFI (cfiCond150) R5 Frame(CFA_Y, -5)
          CFI (cfiCond150) R6 Frame(CFA_Y, -4)
          CFI (cfiCond150) R7 Frame(CFA_Y, -3)
          CFI (cfiCond150) R8 Frame(CFA_Y, -2)
          CFI (cfiCond150) R9 Frame(CFA_Y, -1)
          CFI (cfiCond150) CFA_SP SP+4
          CFI (cfiCond150) CFA_Y Y+10
          CFI Block cfiCond151 Using cfiCommon0
          CFI (cfiCond151) Function coding
          CFI (cfiCond151) Conditional ??CrossCallReturnLabel_302
          CFI (cfiCond151) R24 Frame(CFA_Y, -10)
          CFI (cfiCond151) R25 Frame(CFA_Y, -9)
          CFI (cfiCond151) R26 Frame(CFA_Y, -8)
          CFI (cfiCond151) R27 Frame(CFA_Y, -7)
          CFI (cfiCond151) R4 Frame(CFA_Y, -6)
          CFI (cfiCond151) R5 Frame(CFA_Y, -5)
          CFI (cfiCond151) R6 Frame(CFA_Y, -4)
          CFI (cfiCond151) R7 Frame(CFA_Y, -3)
          CFI (cfiCond151) R8 Frame(CFA_Y, -2)
          CFI (cfiCond151) R9 Frame(CFA_Y, -1)
          CFI (cfiCond151) CFA_SP SP+4
          CFI (cfiCond151) CFA_Y Y+10
          CFI Block cfiPicker152 Using cfiCommon2
          CFI (cfiPicker152) NoFunction
          CFI (cfiPicker152) Picker
        LD      R16, Z
        SUBI    R16, 254
          CFI EndBlock cfiCond148
          CFI EndBlock cfiCond149
          CFI EndBlock cfiCond150
          CFI EndBlock cfiCond151
          CFI EndBlock cfiPicker152
        REQUIRE ??Subroutine130_0
        ;               // Fall through to label ??Subroutine130_0

        RSEG CODE:CODE:NOROOT(1)
??Subroutine130_0:
          CFI Block cfiCond153 Using cfiCommon0
          CFI Function coding
          CFI Conditional ??CrossCallReturnLabel_309, ??CrossCallReturnLabel_40
          CFI R24 Frame(CFA_Y, -10)
          CFI R25 Frame(CFA_Y, -9)
          CFI R26 Frame(CFA_Y, -8)
          CFI R27 Frame(CFA_Y, -7)
          CFI R4 Frame(CFA_Y, -6)
          CFI R5 Frame(CFA_Y, -5)
          CFI R6 Frame(CFA_Y, -4)
          CFI R7 Frame(CFA_Y, -3)
          CFI R8 Frame(CFA_Y, -2)
          CFI R9 Frame(CFA_Y, -1)
          CFI CFA_SP SP+6
          CFI CFA_Y Y+10
          CFI Block cfiCond154 Using cfiCommon0
          CFI (cfiCond154) Function coding
          CFI (cfiCond154) Conditional ??CrossCallReturnLabel_309, ??CrossCallReturnLabel_41
          CFI (cfiCond154) R24 Frame(CFA_Y, -10)
          CFI (cfiCond154) R25 Frame(CFA_Y, -9)
          CFI (cfiCond154) R26 Frame(CFA_Y, -8)
          CFI (cfiCond154) R27 Frame(CFA_Y, -7)
          CFI (cfiCond154) R4 Frame(CFA_Y, -6)
          CFI (cfiCond154) R5 Frame(CFA_Y, -5)
          CFI (cfiCond154) R6 Frame(CFA_Y, -4)
          CFI (cfiCond154) R7 Frame(CFA_Y, -3)
          CFI (cfiCond154) R8 Frame(CFA_Y, -2)
          CFI (cfiCond154) R9 Frame(CFA_Y, -1)
          CFI (cfiCond154) CFA_SP SP+6
          CFI (cfiCond154) CFA_Y Y+10
          CFI Block cfiCond155 Using cfiCommon0
          CFI (cfiCond155) Function coding
          CFI (cfiCond155) Conditional ??CrossCallReturnLabel_309, ??CrossCallReturnLabel_42
          CFI (cfiCond155) R24 Frame(CFA_Y, -10)
          CFI (cfiCond155) R25 Frame(CFA_Y, -9)
          CFI (cfiCond155) R26 Frame(CFA_Y, -8)
          CFI (cfiCond155) R27 Frame(CFA_Y, -7)
          CFI (cfiCond155) R4 Frame(CFA_Y, -6)
          CFI (cfiCond155) R5 Frame(CFA_Y, -5)
          CFI (cfiCond155) R6 Frame(CFA_Y, -4)
          CFI (cfiCond155) R7 Frame(CFA_Y, -3)
          CFI (cfiCond155) R8 Frame(CFA_Y, -2)
          CFI (cfiCond155) R9 Frame(CFA_Y, -1)
          CFI (cfiCond155) CFA_SP SP+6
          CFI (cfiCond155) CFA_Y Y+10
          CFI Block cfiCond156 Using cfiCommon0
          CFI (cfiCond156) Function analiz_INT
          CFI (cfiCond156) Conditional ??CrossCallReturnLabel_305
          CFI (cfiCond156) CFA_SP SP+4
          CFI Block cfiCond157 Using cfiCommon0
          CFI (cfiCond157) Function main
          CFI (cfiCond157) Conditional ??CrossCallReturnLabel_306
          CFI (cfiCond157) R24 Frame(CFA_Y, -1)
          CFI (cfiCond157) CFA_SP SP+4
          CFI (cfiCond157) CFA_Y Y+1
          CFI Block cfiCond158 Using cfiCommon0
          CFI (cfiCond158) Function migWORK
          CFI (cfiCond158) Conditional ??CrossCallReturnLabel_307
          CFI (cfiCond158) CFA_SP SP+4
          CFI Block cfiCond159 Using cfiCommon0
          CFI (cfiCond159) Function programming
          CFI (cfiCond159) Conditional ??CrossCallReturnLabel_308, ??CrossCallReturnLabel_15
          CFI (cfiCond159) R24 Frame(CFA_Y, -1)
          CFI (cfiCond159) CFA_SP SP+6
          CFI (cfiCond159) CFA_Y Y+1
          CFI Block cfiCond160 Using cfiCommon0
          CFI (cfiCond160) Function programming
          CFI (cfiCond160) Conditional ??CrossCallReturnLabel_308, ??CrossCallReturnLabel_16
          CFI (cfiCond160) R24 Frame(CFA_Y, -1)
          CFI (cfiCond160) CFA_SP SP+6
          CFI (cfiCond160) CFA_Y Y+1
          CFI Block cfiCond161 Using cfiCommon0
          CFI (cfiCond161) Function coding
          CFI (cfiCond161) Conditional ??CrossCallReturnLabel_303
          CFI (cfiCond161) R24 Frame(CFA_Y, -10)
          CFI (cfiCond161) R25 Frame(CFA_Y, -9)
          CFI (cfiCond161) R26 Frame(CFA_Y, -8)
          CFI (cfiCond161) R27 Frame(CFA_Y, -7)
          CFI (cfiCond161) R4 Frame(CFA_Y, -6)
          CFI (cfiCond161) R5 Frame(CFA_Y, -5)
          CFI (cfiCond161) R6 Frame(CFA_Y, -4)
          CFI (cfiCond161) R7 Frame(CFA_Y, -3)
          CFI (cfiCond161) R8 Frame(CFA_Y, -2)
          CFI (cfiCond161) R9 Frame(CFA_Y, -1)
          CFI (cfiCond161) CFA_SP SP+4
          CFI (cfiCond161) CFA_Y Y+10
          CFI Block cfiCond162 Using cfiCommon0
          CFI (cfiCond162) Function coding
          CFI (cfiCond162) Conditional ??CrossCallReturnLabel_304
          CFI (cfiCond162) R24 Frame(CFA_Y, -10)
          CFI (cfiCond162) R25 Frame(CFA_Y, -9)
          CFI (cfiCond162) R26 Frame(CFA_Y, -8)
          CFI (cfiCond162) R27 Frame(CFA_Y, -7)
          CFI (cfiCond162) R4 Frame(CFA_Y, -6)
          CFI (cfiCond162) R5 Frame(CFA_Y, -5)
          CFI (cfiCond162) R6 Frame(CFA_Y, -4)
          CFI (cfiCond162) R7 Frame(CFA_Y, -3)
          CFI (cfiCond162) R8 Frame(CFA_Y, -2)
          CFI (cfiCond162) R9 Frame(CFA_Y, -1)
          CFI (cfiCond162) CFA_SP SP+4
          CFI (cfiCond162) CFA_Y Y+10
          CFI Block cfiCond163 Using cfiCommon0
          CFI (cfiCond163) Function coding
          CFI (cfiCond163) Conditional ??CrossCallReturnLabel_301
          CFI (cfiCond163) R24 Frame(CFA_Y, -10)
          CFI (cfiCond163) R25 Frame(CFA_Y, -9)
          CFI (cfiCond163) R26 Frame(CFA_Y, -8)
          CFI (cfiCond163) R27 Frame(CFA_Y, -7)
          CFI (cfiCond163) R4 Frame(CFA_Y, -6)
          CFI (cfiCond163) R5 Frame(CFA_Y, -5)
          CFI (cfiCond163) R6 Frame(CFA_Y, -4)
          CFI (cfiCond163) R7 Frame(CFA_Y, -3)
          CFI (cfiCond163) R8 Frame(CFA_Y, -2)
          CFI (cfiCond163) R9 Frame(CFA_Y, -1)
          CFI (cfiCond163) CFA_SP SP+4
          CFI (cfiCond163) CFA_Y Y+10
          CFI Block cfiCond164 Using cfiCommon0
          CFI (cfiCond164) Function coding
          CFI (cfiCond164) Conditional ??CrossCallReturnLabel_302
          CFI (cfiCond164) R24 Frame(CFA_Y, -10)
          CFI (cfiCond164) R25 Frame(CFA_Y, -9)
          CFI (cfiCond164) R26 Frame(CFA_Y, -8)
          CFI (cfiCond164) R27 Frame(CFA_Y, -7)
          CFI (cfiCond164) R4 Frame(CFA_Y, -6)
          CFI (cfiCond164) R5 Frame(CFA_Y, -5)
          CFI (cfiCond164) R6 Frame(CFA_Y, -4)
          CFI (cfiCond164) R7 Frame(CFA_Y, -3)
          CFI (cfiCond164) R8 Frame(CFA_Y, -2)
          CFI (cfiCond164) R9 Frame(CFA_Y, -1)
          CFI (cfiCond164) CFA_SP SP+4
          CFI (cfiCond164) CFA_Y Y+10
          CFI Block cfiPicker165 Using cfiCommon2
          CFI (cfiPicker165) NoFunction
          CFI (cfiPicker165) Picker
        ST      Z, R16
        RET
          CFI EndBlock cfiCond153
          CFI EndBlock cfiCond154
          CFI EndBlock cfiCond155
          CFI EndBlock cfiCond156
          CFI EndBlock cfiCond157
          CFI EndBlock cfiCond158
          CFI EndBlock cfiCond159
          CFI EndBlock cfiCond160
          CFI EndBlock cfiCond161
          CFI EndBlock cfiCond162
          CFI EndBlock cfiCond163
          CFI EndBlock cfiCond164
          CFI EndBlock cfiPicker165

        RSEG CODE:CODE:NOROOT(1)
?Subroutine23:
          CFI Block cfiCond166 Using cfiCommon0
          CFI Function coding
          CFI Conditional ??CrossCallReturnLabel_301
          CFI R24 Frame(CFA_Y, -10)
          CFI R25 Frame(CFA_Y, -9)
          CFI R26 Frame(CFA_Y, -8)
          CFI R27 Frame(CFA_Y, -7)
          CFI R4 Frame(CFA_Y, -6)
          CFI R5 Frame(CFA_Y, -5)
          CFI R6 Frame(CFA_Y, -4)
          CFI R7 Frame(CFA_Y, -3)
          CFI R8 Frame(CFA_Y, -2)
          CFI R9 Frame(CFA_Y, -1)
          CFI CFA_SP SP+4
          CFI CFA_Y Y+10
          CFI Block cfiCond167 Using cfiCommon0
          CFI (cfiCond167) Function coding
          CFI (cfiCond167) Conditional ??CrossCallReturnLabel_302
          CFI (cfiCond167) R24 Frame(CFA_Y, -10)
          CFI (cfiCond167) R25 Frame(CFA_Y, -9)
          CFI (cfiCond167) R26 Frame(CFA_Y, -8)
          CFI (cfiCond167) R27 Frame(CFA_Y, -7)
          CFI (cfiCond167) R4 Frame(CFA_Y, -6)
          CFI (cfiCond167) R5 Frame(CFA_Y, -5)
          CFI (cfiCond167) R6 Frame(CFA_Y, -4)
          CFI (cfiCond167) R7 Frame(CFA_Y, -3)
          CFI (cfiCond167) R8 Frame(CFA_Y, -2)
          CFI (cfiCond167) R9 Frame(CFA_Y, -1)
          CFI (cfiCond167) CFA_SP SP+4
          CFI (cfiCond167) CFA_Y Y+10
          CFI Block cfiPicker168 Using cfiCommon2
          CFI (cfiPicker168) NoFunction
          CFI (cfiPicker168) Picker
        ST      Z, R16
        STD     Z+1, R17
        LDI     R30, LOW(c2)
        LDI     R31, (c2) >> 8
        RJMP    ?Subroutine115
          CFI EndBlock cfiCond166
          CFI EndBlock cfiCond167
          CFI EndBlock cfiPicker168

        RSEG CODE:CODE:NOROOT(1)
?Subroutine2:
          CFI Block cfiCond169 Using cfiCommon0
          CFI Function coding
          CFI Conditional ??CrossCallReturnLabel_5
          CFI R24 Frame(CFA_Y, -10)
          CFI R25 Frame(CFA_Y, -9)
          CFI R26 Frame(CFA_Y, -8)
          CFI R27 Frame(CFA_Y, -7)
          CFI R4 Frame(CFA_Y, -6)
          CFI R5 Frame(CFA_Y, -5)
          CFI R6 Frame(CFA_Y, -4)
          CFI R7 Frame(CFA_Y, -3)
          CFI R8 Frame(CFA_Y, -2)
          CFI R9 Frame(CFA_Y, -1)
          CFI CFA_SP SP+4
          CFI CFA_Y Y+10
          CFI Block cfiCond170 Using cfiCommon0
          CFI (cfiCond170) Function coding
          CFI (cfiCond170) Conditional ??CrossCallReturnLabel_6
          CFI (cfiCond170) R24 Frame(CFA_Y, -10)
          CFI (cfiCond170) R25 Frame(CFA_Y, -9)
          CFI (cfiCond170) R26 Frame(CFA_Y, -8)
          CFI (cfiCond170) R27 Frame(CFA_Y, -7)
          CFI (cfiCond170) R4 Frame(CFA_Y, -6)
          CFI (cfiCond170) R5 Frame(CFA_Y, -5)
          CFI (cfiCond170) R6 Frame(CFA_Y, -4)
          CFI (cfiCond170) R7 Frame(CFA_Y, -3)
          CFI (cfiCond170) R8 Frame(CFA_Y, -2)
          CFI (cfiCond170) R9 Frame(CFA_Y, -1)
          CFI (cfiCond170) CFA_SP SP+4
          CFI (cfiCond170) CFA_Y Y+10
          CFI Block cfiCond171 Using cfiCommon0
          CFI (cfiCond171) Function coding
          CFI (cfiCond171) Conditional ??CrossCallReturnLabel_7
          CFI (cfiCond171) R24 Frame(CFA_Y, -10)
          CFI (cfiCond171) R25 Frame(CFA_Y, -9)
          CFI (cfiCond171) R26 Frame(CFA_Y, -8)
          CFI (cfiCond171) R27 Frame(CFA_Y, -7)
          CFI (cfiCond171) R4 Frame(CFA_Y, -6)
          CFI (cfiCond171) R5 Frame(CFA_Y, -5)
          CFI (cfiCond171) R6 Frame(CFA_Y, -4)
          CFI (cfiCond171) R7 Frame(CFA_Y, -3)
          CFI (cfiCond171) R8 Frame(CFA_Y, -2)
          CFI (cfiCond171) R9 Frame(CFA_Y, -1)
          CFI (cfiCond171) CFA_SP SP+4
          CFI (cfiCond171) CFA_Y Y+10
          CFI Block cfiPicker172 Using cfiCommon2
          CFI (cfiPicker172) NoFunction
          CFI (cfiPicker172) Picker
        RCALL   ?Subroutine111
??CrossCallReturnLabel_226:
        OR      R18, R16
        OR      R19, R17
        ADD     R18, R24
        ADC     R19, R25
        ST      Z, R18
        STD     Z+1, R19
        RET
          CFI EndBlock cfiCond169
          CFI EndBlock cfiCond170
          CFI EndBlock cfiCond171
          CFI EndBlock cfiPicker172

        RSEG CODE:CODE:NOROOT(1)
?Subroutine1:
          CFI Block cfiCond173 Using cfiCommon0
          CFI Function coding
          CFI Conditional ??CrossCallReturnLabel_2
          CFI R24 Frame(CFA_Y, -10)
          CFI R25 Frame(CFA_Y, -9)
          CFI R26 Frame(CFA_Y, -8)
          CFI R27 Frame(CFA_Y, -7)
          CFI R4 Frame(CFA_Y, -6)
          CFI R5 Frame(CFA_Y, -5)
          CFI R6 Frame(CFA_Y, -4)
          CFI R7 Frame(CFA_Y, -3)
          CFI R8 Frame(CFA_Y, -2)
          CFI R9 Frame(CFA_Y, -1)
          CFI CFA_SP SP+4
          CFI CFA_Y Y+10
          CFI Block cfiCond174 Using cfiCommon0
          CFI (cfiCond174) Function coding
          CFI (cfiCond174) Conditional ??CrossCallReturnLabel_3
          CFI (cfiCond174) R24 Frame(CFA_Y, -10)
          CFI (cfiCond174) R25 Frame(CFA_Y, -9)
          CFI (cfiCond174) R26 Frame(CFA_Y, -8)
          CFI (cfiCond174) R27 Frame(CFA_Y, -7)
          CFI (cfiCond174) R4 Frame(CFA_Y, -6)
          CFI (cfiCond174) R5 Frame(CFA_Y, -5)
          CFI (cfiCond174) R6 Frame(CFA_Y, -4)
          CFI (cfiCond174) R7 Frame(CFA_Y, -3)
          CFI (cfiCond174) R8 Frame(CFA_Y, -2)
          CFI (cfiCond174) R9 Frame(CFA_Y, -1)
          CFI (cfiCond174) CFA_SP SP+4
          CFI (cfiCond174) CFA_Y Y+10
          CFI Block cfiCond175 Using cfiCommon0
          CFI (cfiCond175) Function coding
          CFI (cfiCond175) Conditional ??CrossCallReturnLabel_4
          CFI (cfiCond175) R24 Frame(CFA_Y, -10)
          CFI (cfiCond175) R25 Frame(CFA_Y, -9)
          CFI (cfiCond175) R26 Frame(CFA_Y, -8)
          CFI (cfiCond175) R27 Frame(CFA_Y, -7)
          CFI (cfiCond175) R4 Frame(CFA_Y, -6)
          CFI (cfiCond175) R5 Frame(CFA_Y, -5)
          CFI (cfiCond175) R6 Frame(CFA_Y, -4)
          CFI (cfiCond175) R7 Frame(CFA_Y, -3)
          CFI (cfiCond175) R8 Frame(CFA_Y, -2)
          CFI (cfiCond175) R9 Frame(CFA_Y, -1)
          CFI (cfiCond175) CFA_SP SP+4
          CFI (cfiCond175) CFA_Y Y+10
          CFI Block cfiPicker176 Using cfiCommon2
          CFI (cfiPicker176) NoFunction
          CFI (cfiPicker176) Picker
        RCALL   ?Subroutine111
??CrossCallReturnLabel_225:
        MOVW    R9:R8, R17:R16
        LDI     R20, 0
        LDI     R21, 0
        LDI     R22, 192
        LDI     R23, 63
        MOVW    R17:R16, R1:R0
        MOVW    R19:R18, R3:R2
        RJMP    ?F_CMP_LT_L04
          CFI EndBlock cfiCond173
          CFI EndBlock cfiCond174
          CFI EndBlock cfiCond175
          CFI EndBlock cfiPicker176
//  279   
//  280 
//  281  //переполнился импульс более 130мс  (1/(4000000/8)*65535)
//  282 #pragma vector = TIMER1_OVF_vect

        RSEG CODE:CODE:NOROOT(1)
//  283 __interrupt void funTIMER1_OVF_vect(void)
funTIMER1_OVF_vect:
          CFI Block cfiBlock177 Using cfiCommon1
          CFI Function funTIMER1_OVF_vect
//  284 {
        ST      -Y, R16
          CFI R16 Frame(CFA_Y, -1)
          CFI CFA_Y Y+1
//  285    //TIFR = 0xFF; - в прерывании сбрасывется сам
//  286   
//  287   perepoln=1;   
        LDI     R16, 1
        STS     ??perepoln, R16
          CFI EndBlock cfiBlock177
//  288  
//  289 }
        REQUIRE ?Subroutine123
        ;               // Fall through to label ?Subroutine123

        RSEG CODE:CODE:NOROOT(1)
?Subroutine123:
          CFI Block cfiBlock178 Using cfiCommon1
          CFI NoFunction
          CFI CFA_Y Y+1
          CFI R16 Frame(CFA_Y, -1)
        LD      R16, Y+
          CFI CFA_Y Y+0
          CFI R16 SameValue
        RETI
          CFI EndBlock cfiBlock178
//  290 
//  291 
// F:\Dulov\RemoteAMP\main.c
//    1 //***************************************************************************
//    2 //  
//    3 //  Author(s)...: dav COBRA 
//    4 //  Target(s)...: ATMega8
//    5 //  Compiler....: 6 40
//    6 //  ТЕСТ1
//    7 //  Description.: Система  управления  для  Усилителя  Мощности   V-ниже
//    8 //  v1.1 - добавлена поддержка включения усилителя тыловых колонок вместо Source5
//    9 //       - изменена установка auto off
//   10 //  v1.2 - теперь во время мигания(только Source) светодиодов  команды пульта обрабатываются
//   11 //       - новая команда пульта - возврат в предыдущий source
//   12 //       - команды пульта можно продублировать на втором пульте, т.е. на каждую функцию 2 кнопки пульта
//   13 //       - вместо импульсов громкости можно формировать постоянный сигнал
//   14 //       - подправлены задержки
//   15 //       - обновлен алгоритм кодирования
//   16 // v1.22 - исправлена ошибка задержки вкл AC
//   17 // v1.23 - исправлен при включении включается SOURCE1 
//   18 // v1.24 - исправлен баг AUTOOFF на 30 минут 
//   19 // v1.25 - исправлен баг AUTOOFF при выключениии питания 
//   20 // v1.26 - refactoring, проверка на повторное программирование кнопки
//   21 //  Data........: 02 2017
//   22 //
//   23 //   - ВЫКЛЮЧИТЬ ОПЦИЮ clustering of variables В optimization compilator !!!!
//   24 //***************************************************************************
//   25 #include <iom8.h>//<ioavr.h>
//   26 //#include <inavr.h>  
//   27 #include <intrinsics.h>
//   28 #include "init.h"
//   29 #include "main.h"
//   30 #include "du.h"  
//   31 #include "SoftTimers.h" 
//   32 #include "keys.h"
//   33 //#include <stdlib.h>
//   34 //#include <math.h> 
//   35 #include "usart.h"
//   36 #include "eeprom.h"
//   37 //#include <stdarg.h>
//   38 //************************************************************************* 
//   39 #define AC_ON    SET(PORTD,6)
//   40 #define AC_OFF   RES(PORTD,6)
//   41 void diag(void);
//   42 void led_all(bool a);
//   43 void resled(void);
//   44 void source(void);
//   45 void resOUT(void);  
//   46 void gro(uchar a);
//   47 void main_logic(void);
//   48 void main_power(void);
//   49 void writeCOD(void);
//   50 uchar analizCOD(void);
//   51 void programming(uchar rez);
//   52 uchar getadr(void);
//   53 
//   54 

        RSEG NEAR_I:DATA:NOROOT(0)
        REQUIRE `?<Segment init: NEAR_I>`
//   55 uint tON=acon; 
tON:
        DS8 2
        REQUIRE `?<Initializer for tON>`

        RSEG NEAR_Z:DATA:NOROOT(0)
        REQUIRE `?<Segment init: NEAR_Z>`
//   56 uchar pr=0;
pr:
        DS8 1

        RSEG NEAR_Z:DATA:NOROOT(0)
        REQUIRE `?<Segment init: NEAR_Z>`
//   57 static bool get=0;
??get:
        DS8 1

        RSEG NEAR_Z:DATA:NOROOT(0)
        REQUIRE `?<Segment init: NEAR_Z>`
//   58 bool onok=0;  
onok:
        DS8 1

        RSEG NEAR_Z:DATA:NOROOT(0)
        REQUIRE `?<Segment init: NEAR_Z>`
//   59 bool on=0,mute=0;
on:
        DS8 1

        RSEG NEAR_Z:DATA:NOROOT(0)
        REQUIRE `?<Segment init: NEAR_Z>`
mute:
        DS8 1

        RSEG NEAR_Z:DATA:NOROOT(0)
        REQUIRE `?<Segment init: NEAR_Z>`
//   60 bool zader=0,aoff=0;
zader:
        DS8 1

        RSEG NEAR_Z:DATA:NOROOT(0)
        REQUIRE `?<Segment init: NEAR_Z>`
aoff:
        DS8 1

        RSEG NEAR_Z:DATA:NOROOT(0)
        REQUIRE `?<Segment init: NEAR_Z>`
//   61 uint timerzad; 
timerzad:
        DS8 2

        RSEG NEAR_Z:DATA:NOROOT(0)
        REQUIRE `?<Segment init: NEAR_Z>`
//   62 uchar pultadr;
pultadr:
        DS8 1

        RSEG NEAR_Z:DATA:NOROOT(0)
        REQUIRE `?<Segment init: NEAR_Z>`
//   63 static bool u=0,til=0,mode_programming=0; 
??u:
        DS8 1

        RSEG NEAR_Z:DATA:NOROOT(0)
        REQUIRE `?<Segment init: NEAR_Z>`
??til:
        DS8 1

        RSEG NEAR_Z:DATA:NOROOT(0)
        REQUIRE `?<Segment init: NEAR_Z>`
??mode_programming:
        DS8 1

        RSEG NEAR_Z:DATA:NOROOT(0)
        REQUIRE `?<Segment init: NEAR_Z>`
//   64 static  uchar mode=0,tekfunc=0; 
??mode:
        DS8 1

        RSEG NEAR_Z:DATA:NOROOT(0)
        REQUIRE `?<Segment init: NEAR_Z>`
??tekfunc:
        DS8 1

        RSEG NEAR_I:DATA:NOROOT(0)
        REQUIRE `?<Segment init: NEAR_I>`
//   65 static uchar lastsel=1,sel=1,gro1=0,gro2=0,regaoff=0;
??lastsel:
        DS8 1
        REQUIRE `?<Initializer for lastsel>`

        RSEG NEAR_I:DATA:NOROOT(0)
        REQUIRE `?<Segment init: NEAR_I>`
??sel:
        DS8 1
        REQUIRE `?<Initializer for sel>`

        RSEG NEAR_Z:DATA:NOROOT(0)
        REQUIRE `?<Segment init: NEAR_Z>`
??gro1:
        DS8 1

        RSEG NEAR_Z:DATA:NOROOT(0)
        REQUIRE `?<Segment init: NEAR_Z>`
??gro2:
        DS8 1

        RSEG NEAR_Z:DATA:NOROOT(0)
        REQUIRE `?<Segment init: NEAR_Z>`
??regaoff:
        DS8 1
//   66 

        RSEG CODE:CODE:NOROOT(1)
//   67 void led_test()
led_test:
          CFI Block cfiBlock179 Using cfiCommon0
          CFI Function led_test
//   68 {
        FUNCALL led_test, led_all
        LOCFRAME CSTACK, 1, STACK
        LOCFRAME RSTACK, 2, STACK
        ARGFRAME RSTACK, 0, STACK
        FUNCALL led_test, led_all
        LOCFRAME CSTACK, 1, STACK
        LOCFRAME RSTACK, 2, STACK
        ARGFRAME RSTACK, 0, STACK
        ST      -Y, R24
          CFI R24 Frame(CFA_Y, -1)
          CFI CFA_Y Y+1
//   69   for (uchar i=0; i<=6; i++){ led_all(1);  p9; led_all(0);}
        LDI     R24, 7
??led_test_0:
        RCALL   ??Subroutine135_0
??CrossCallReturnLabel_349:
        LDI     R16, 127
        LDI     R17, 252
        LDI     R18, 10
        SUBI    R16, 1
        SBCI    R17, 0
        SBCI    R18, 0
        BRNE    $-6
        RJMP    $+2
        NOP
        RCALL   ?Subroutine12
??CrossCallReturnLabel_20:
        DEC     R24
        BRNE    ??led_test_0
          CFI EndBlock cfiBlock179
//   70 }
        REQUIRE ?Subroutine117
        ;               // Fall through to label ?Subroutine117

        RSEG CODE:CODE:NOROOT(1)
?Subroutine117:
          CFI Block cfiBlock180 Using cfiCommon0
          CFI NoFunction
          CFI CFA_Y Y+1
          CFI R24 Frame(CFA_Y, -1)
        LD      R24, Y+
          CFI CFA_Y Y+0
          CFI R24 SameValue
        RET
          CFI EndBlock cfiBlock180
//   71 //***************************************************************************
//   72 //                  M  A  I  N
//   73 //***************************************************************************

        RSEG CODE:CODE:NOROOT(1)
//   74 int main( void )
main:
          CFI Block cfiBlock181 Using cfiCommon0
          CFI Function main
//   75 {//main
        FUNCALL main, TimerSet
        LOCFRAME CSTACK, 1, STACK
        LOCFRAME RSTACK, 2, STACK
        ARGFRAME RSTACK, 0, STACK
        FUNCALL main, iniPORTS
        LOCFRAME CSTACK, 1, STACK
        LOCFRAME RSTACK, 2, STACK
        ARGFRAME RSTACK, 0, STACK
        FUNCALL main, led_test
        LOCFRAME CSTACK, 1, STACK
        LOCFRAME RSTACK, 2, STACK
        ARGFRAME RSTACK, 0, STACK
        FUNCALL main, USART_Init
        LOCFRAME CSTACK, 1, STACK
        LOCFRAME RSTACK, 2, STACK
        ARGFRAME RSTACK, 0, STACK
        FUNCALL main, led_test
        LOCFRAME CSTACK, 1, STACK
        LOCFRAME RSTACK, 2, STACK
        ARGFRAME RSTACK, 0, STACK
        FUNCALL main, led_all
        LOCFRAME CSTACK, 1, STACK
        LOCFRAME RSTACK, 2, STACK
        ARGFRAME RSTACK, 0, STACK
        FUNCALL main, writeCOD
        LOCFRAME CSTACK, 1, STACK
        LOCFRAME RSTACK, 2, STACK
        ARGFRAME RSTACK, 0, STACK
        FUNCALL main, led_all
        LOCFRAME CSTACK, 1, STACK
        LOCFRAME RSTACK, 2, STACK
        ARGFRAME RSTACK, 0, STACK
        FUNCALL main, led_test
        LOCFRAME CSTACK, 1, STACK
        LOCFRAME RSTACK, 2, STACK
        ARGFRAME RSTACK, 0, STACK
        FUNCALL main, getadr
        LOCFRAME CSTACK, 1, STACK
        LOCFRAME RSTACK, 2, STACK
        ARGFRAME RSTACK, 0, STACK
        FUNCALL main, led_all
        LOCFRAME CSTACK, 1, STACK
        LOCFRAME RSTACK, 2, STACK
        ARGFRAME RSTACK, 0, STACK
        FUNCALL main, getadr
        LOCFRAME CSTACK, 1, STACK
        LOCFRAME RSTACK, 2, STACK
        ARGFRAME RSTACK, 0, STACK
        FUNCALL main, programming
        LOCFRAME CSTACK, 1, STACK
        LOCFRAME RSTACK, 2, STACK
        ARGFRAME RSTACK, 0, STACK
        FUNCALL main, diag
        LOCFRAME CSTACK, 1, STACK
        LOCFRAME RSTACK, 2, STACK
        ARGFRAME RSTACK, 0, STACK
        FUNCALL main, remote_main
        LOCFRAME CSTACK, 1, STACK
        LOCFRAME RSTACK, 2, STACK
        ARGFRAME RSTACK, 0, STACK
        FUNCALL main, analizCOD
        LOCFRAME CSTACK, 1, STACK
        LOCFRAME RSTACK, 2, STACK
        ARGFRAME RSTACK, 0, STACK
        FUNCALL main, main_power
        LOCFRAME CSTACK, 1, STACK
        LOCFRAME RSTACK, 2, STACK
        ARGFRAME RSTACK, 0, STACK
        FUNCALL main, main_logic
        LOCFRAME CSTACK, 1, STACK
        LOCFRAME RSTACK, 2, STACK
        ARGFRAME RSTACK, 0, STACK
        ST      -Y, R24
          CFI R24 Frame(CFA_Y, -1)
          CFI CFA_Y Y+1
//   76   TimerSet(&tm3,100);
        LDI     R18, 100
        LDI     R19, 0
        LDI     R16, LOW(tm3)
        LDI     R17, (tm3) >> 8
        RCALL   TimerSet
//   77   
//   78     iniPORTS();  
        RCALL   iniPORTS
//   79     
//   80   p3;//задержка при включении
        RCALL   ?Subroutine61
//   81  
//   82  //----------------------------------
//   83    if (keyONsm) {u=1; led_test(); USART_Init();}//включаем UART
??CrossCallReturnLabel_87:
        SBIC    0x10, 0x05
        RJMP    ??main_0
        LDI     R16, 1
        STS     ??u, R16
        RCALL   led_test
        RCALL   USART_Init
//   84 //----------------------------------
//   85   mode=fmode; //смена режима работы
??main_0:
        LDI     R20, LOW(fmode)
        LDI     R21, (fmode) >> 8
        RCALL   __eeget8_16
        STS     ??mode, R16
//   86   if (mode!=1 && mode!=0) {  fmode=0; mode=0;   }//ini eeprom  read
        CPI     R16, 1
        BREQ    ??main_1
        TST     R16
        BREQ    ??main_1
        RCALL   ?Subroutine13
??CrossCallReturnLabel_206:
        STS     ??mode, R16
//   87   if (modegro!=1 && modegro!=0) { modegro=0;  }//ini eeprom read 
??main_1:
        RCALL   ?Subroutine62
??CrossCallReturnLabel_263:
        BREQ    ??CrossCallReturnLabel_209
        RCALL   ?Subroutine65
??CrossCallReturnLabel_250:
        BREQ    ??CrossCallReturnLabel_209
        RCALL   ?Subroutine14
//   88   
//   89   if (keyMUTE && !keyAOFFsm) {  led_test();
??CrossCallReturnLabel_209:
        SBIC    0x10, 0x01
        RJMP    ??main_2
        SBIC    0x10, 0x05
        RJMP    ??main_2
        SBIS    0x10, 0x00
        RJMP    ??main_2
        RCALL   led_test
//   90   if (mode==0 && modegro==0)   {  fmode=1; p5;   SET(PORTB,4);  while(1) {}   }
        RCALL   ?Subroutine66
??CrossCallReturnLabel_253:
        BRNE    ??main_3
        RCALL   ?Subroutine65
??CrossCallReturnLabel_251:
        BRNE    ??main_4
        LDI     R16, 1
        RCALL   ?Subroutine103
??CrossCallReturnLabel_205:
        RCALL   ?Subroutine102
??CrossCallReturnLabel_326:
        SBI     0x18, 0x04
??main_5:
        RJMP    ??main_5
//   91   if (mode==1 && modegro==0)   {  modegro=1; p5; SET(PORTB,2);  SET(PORTB,3);  SET(PORTB,4);  while(1) {}  }
??main_3:
        CPI     R16, 1
        BRNE    ??main_2
        RCALL   ?Subroutine65
??CrossCallReturnLabel_252:
        BRNE    ??main_6
        LDI     R16, 1
        RCALL   ?Subroutine104
??CrossCallReturnLabel_208:
        RCALL   ?Subroutine63
??CrossCallReturnLabel_261:
        SBI     0x18, 0x04
??main_7:
        RJMP    ??main_7
??main_6:
        RCALL   ?Subroutine62
??CrossCallReturnLabel_264:
        BRNE    ??main_2
//   92   if (mode==1 && modegro==1)   {  fmode=0; p5; SET(PORTB,2);  SET(PORTB,3);    while(1) {}  } 
        RCALL   ?Subroutine13
??CrossCallReturnLabel_207:
        RCALL   ?Subroutine63
??CrossCallReturnLabel_262:
        RJMP    ??CrossCallReturnLabel_262
??main_4:
        RCALL   ?Subroutine62
??CrossCallReturnLabel_265:
        BRNE    ??main_2
//   93   if (mode==0 && modegro==1)   {  modegro=0; p5;  led_all(1);    while(1) {}   }
        RCALL   ?Subroutine14
??CrossCallReturnLabel_210:
        RCALL   ?Subroutine102
??CrossCallReturnLabel_327:
        RCALL   ??Subroutine135_0
??CrossCallReturnLabel_348:
        RJMP    ??CrossCallReturnLabel_348
//   94   
//   95                               }
//   96   
//   97  // modegro=1; mode=1;
//   98 //-----------------------------------
//   99   
//  100    
//  101    if (keySELsm==1 && keyAOFFsm==1)//очистка
??main_2:
        SBIC    0x10, 0x01
        RJMP    ??main_8
        SBIC    0x10, 0x00
        RJMP    ??main_8
//  102       {
//  103         tekfunc=0;
        LDI     R16, 0
        STS     ??tekfunc, R16
//  104         mode_programming=1; cod1=0;cod2=0;cod3=0;
        LDI     R16, 1
        STS     ??mode_programming, R16
        RCALL   ?Subroutine10
//  105         for (uchar i=0; i<=MAXFUNC; i++) {writeCOD();tekfunc++;}
??CrossCallReturnLabel_13:
        LDI     R24, 24
??main_9:
        RCALL   writeCOD
        LDI     R30, LOW(??tekfunc)
        LDI     R31, (??tekfunc) >> 8
        RCALL   ?Subroutine92
??CrossCallReturnLabel_306:
        DEC     R24
        BRNE    ??main_9
//  106         led_all(1); while(1) {} //зависаем
        RCALL   ??Subroutine135_0
??CrossCallReturnLabel_347:
        RJMP    ??CrossCallReturnLabel_347
//  107       }
//  108   if (keySELsm) {mode_programming=1; led_test();}//включаем программирование пульта
??main_8:
        SBIC    0x10, 0x01
        RJMP    ??main_10
        LDI     R16, 1
        STS     ??mode_programming, R16
        RCALL   led_test
//  109   
//  110   
//  111    if (mode_programming) //мигание первого программируемого
??main_10:
        LDS     R16, ??mode_programming
        TST     R16
        BREQ    ??main_11
//  112    {
//  113      for (uchar i=0; i<7; i++) {getadr(); p3;led_all(0); p3;}
        LDI     R24, 7
??main_12:
        RCALL   getadr
        RCALL   ?Subroutine61
??CrossCallReturnLabel_88:
        RCALL   ?Subroutine12
??CrossCallReturnLabel_19:
        RCALL   ?Subroutine61
??CrossCallReturnLabel_89:
        DEC     R24
        BRNE    ??main_12
//  114     
//  115      getadr();
        RCALL   getadr
//  116    }
//  117            
//  118 
//  119     __enable_interrupt();   
??main_11:
        SEI
        RJMP    ??main_13
//  120   while(1)
//  121   {
//  122      bool rez=remote_main();//вызов обработчика пульта 
//  123      if (!mode_programming)  
//  124      {    
//  125        pultadr=0; 
//  126        if (rez) pultadr=analizCOD();  
//  127        main_power();
//  128        if (on==1) main_logic();
//  129      }
//  130      else programming(rez);
??main_14:
        RCALL   programming
//  131      
//  132      if(u) diag();  
??main_15:
        LDS     R16, ??u
        TST     R16
        BREQ    ??main_13
        RCALL   diag
??main_13:
        RCALL   remote_main
        LDS     R17, ??mode_programming
        TST     R17
        BRNE    ??main_14
        LDI     R17, 0
        STS     pultadr, R17
        TST     R16
        BREQ    ??CrossCallReturnLabel_337
        RCALL   analizCOD
        RCALL   ?Subroutine106
??CrossCallReturnLabel_337:
        RCALL   main_power
        LDS     R16, on
        TST     R16
        BREQ    ??main_15
        RCALL   main_logic
        RJMP    ??main_15
          CFI EndBlock cfiBlock181
        REQUIRE _A_PIND
        REQUIRE _A_PORTB
//  133   }
//  134 }//main

        RSEG CODE:CODE:NOROOT(1)
?Subroutine65:
          CFI Block cfiCond182 Using cfiCommon0
          CFI Function main
          CFI Conditional ??CrossCallReturnLabel_250
          CFI R24 Frame(CFA_Y, -1)
          CFI CFA_SP SP+4
          CFI CFA_Y Y+1
          CFI Block cfiCond183 Using cfiCommon0
          CFI (cfiCond183) Function main
          CFI (cfiCond183) Conditional ??CrossCallReturnLabel_251
          CFI (cfiCond183) R24 Frame(CFA_Y, -1)
          CFI (cfiCond183) CFA_SP SP+4
          CFI (cfiCond183) CFA_Y Y+1
          CFI Block cfiCond184 Using cfiCommon0
          CFI (cfiCond184) Function main
          CFI (cfiCond184) Conditional ??CrossCallReturnLabel_252
          CFI (cfiCond184) R24 Frame(CFA_Y, -1)
          CFI (cfiCond184) CFA_SP SP+4
          CFI (cfiCond184) CFA_Y Y+1
          CFI Block cfiPicker185 Using cfiCommon2
          CFI (cfiPicker185) NoFunction
          CFI (cfiPicker185) Picker
        RCALL   ?Subroutine105
          CFI EndBlock cfiCond182
          CFI EndBlock cfiCond183
          CFI EndBlock cfiCond184
          CFI EndBlock cfiPicker185
??CrossCallReturnLabel_212:
        REQUIRE ?Subroutine118
        ;               // Fall through to label ?Subroutine118

        RSEG CODE:CODE:NOROOT(1)
?Subroutine118:
          CFI Block cfiCond186 Using cfiCommon0
          CFI Function main
          CFI Conditional ??CrossCallReturnLabel_250
          CFI R24 Frame(CFA_Y, -1)
          CFI CFA_SP SP+4
          CFI CFA_Y Y+1
          CFI Block cfiCond187 Using cfiCommon0
          CFI (cfiCond187) Function main
          CFI (cfiCond187) Conditional ??CrossCallReturnLabel_251
          CFI (cfiCond187) R24 Frame(CFA_Y, -1)
          CFI (cfiCond187) CFA_SP SP+4
          CFI (cfiCond187) CFA_Y Y+1
          CFI Block cfiCond188 Using cfiCommon0
          CFI (cfiCond188) Function main
          CFI (cfiCond188) Conditional ??CrossCallReturnLabel_252
          CFI (cfiCond188) R24 Frame(CFA_Y, -1)
          CFI (cfiCond188) CFA_SP SP+4
          CFI (cfiCond188) CFA_Y Y+1
          CFI Block cfiCond189 Using cfiCommon0
          CFI (cfiCond189) Function main_logic
          CFI (cfiCond189) Conditional ??CrossCallReturnLabel_257
          CFI (cfiCond189) CFA_SP SP+4
          CFI Block cfiCond190 Using cfiCommon0
          CFI (cfiCond190) Function main_logic
          CFI (cfiCond190) Conditional ??CrossCallReturnLabel_258
          CFI (cfiCond190) CFA_SP SP+4
          CFI Block cfiCond191 Using cfiCommon0
          CFI (cfiCond191) Function main_logic
          CFI (cfiCond191) Conditional ??CrossCallReturnLabel_259
          CFI (cfiCond191) CFA_SP SP+4
          CFI Block cfiCond192 Using cfiCommon0
          CFI (cfiCond192) Function main_logic
          CFI (cfiCond192) Conditional ??CrossCallReturnLabel_260
          CFI (cfiCond192) CFA_SP SP+4
          CFI Block cfiCond193 Using cfiCommon0
          CFI (cfiCond193) Function main
          CFI (cfiCond193) Conditional ??CrossCallReturnLabel_253
          CFI (cfiCond193) R24 Frame(CFA_Y, -1)
          CFI (cfiCond193) CFA_SP SP+4
          CFI (cfiCond193) CFA_Y Y+1
          CFI Block cfiCond194 Using cfiCommon0
          CFI (cfiCond194) Function source
          CFI (cfiCond194) Conditional ??CrossCallReturnLabel_254
          CFI (cfiCond194) CFA_SP SP+4
          CFI Block cfiCond195 Using cfiCommon0
          CFI (cfiCond195) Function resled
          CFI (cfiCond195) Conditional ??CrossCallReturnLabel_255
          CFI (cfiCond195) CFA_SP SP+4
          CFI Block cfiCond196 Using cfiCommon0
          CFI (cfiCond196) Function resOUT
          CFI (cfiCond196) Conditional ??CrossCallReturnLabel_256
          CFI (cfiCond196) CFA_SP SP+4
          CFI Block cfiPicker197 Using cfiCommon2
          CFI (cfiPicker197) NoFunction
          CFI (cfiPicker197) Picker
        TST     R16
        RET
          CFI EndBlock cfiCond186
          CFI EndBlock cfiCond187
          CFI EndBlock cfiCond188
          CFI EndBlock cfiCond189
          CFI EndBlock cfiCond190
          CFI EndBlock cfiCond191
          CFI EndBlock cfiCond192
          CFI EndBlock cfiCond193
          CFI EndBlock cfiCond194
          CFI EndBlock cfiCond195
          CFI EndBlock cfiCond196
          CFI EndBlock cfiPicker197

        RSEG CODE:CODE:NOROOT(1)
?Subroutine63:
          CFI Block cfiCond198 Using cfiCommon0
          CFI Function main
          CFI Conditional ??CrossCallReturnLabel_261
          CFI R24 Frame(CFA_Y, -1)
          CFI CFA_SP SP+4
          CFI CFA_Y Y+1
          CFI Block cfiCond199 Using cfiCommon0
          CFI (cfiCond199) Function main
          CFI (cfiCond199) Conditional ??CrossCallReturnLabel_262
          CFI (cfiCond199) R24 Frame(CFA_Y, -1)
          CFI (cfiCond199) CFA_SP SP+4
          CFI (cfiCond199) CFA_Y Y+1
          CFI Block cfiPicker200 Using cfiCommon2
          CFI (cfiPicker200) NoFunction
          CFI (cfiPicker200) Picker
        RCALL   ?Subroutine102
??CrossCallReturnLabel_331:
        SBI     0x18, 0x02
          CFI EndBlock cfiCond198
          CFI EndBlock cfiCond199
          CFI EndBlock cfiPicker200
        REQUIRE ?Subroutine119
        ;               // Fall through to label ?Subroutine119

        RSEG CODE:CODE:NOROOT(1)
?Subroutine119:
          CFI Block cfiCond201 Using cfiCommon0
          CFI Function main
          CFI Conditional ??CrossCallReturnLabel_261
          CFI R24 Frame(CFA_Y, -1)
          CFI CFA_SP SP+4
          CFI CFA_Y Y+1
          CFI Block cfiCond202 Using cfiCommon0
          CFI (cfiCond202) Function main
          CFI (cfiCond202) Conditional ??CrossCallReturnLabel_262
          CFI (cfiCond202) R24 Frame(CFA_Y, -1)
          CFI (cfiCond202) CFA_SP SP+4
          CFI (cfiCond202) CFA_Y Y+1
          CFI Block cfiBlock203 Using cfiCommon0
          CFI (cfiBlock203) NoFunction
          CFI Block cfiPicker204 Using cfiCommon2
          CFI (cfiPicker204) NoFunction
          CFI (cfiPicker204) Picker
        SBI     0x18, 0x03
        RET
          CFI EndBlock cfiCond201
          CFI EndBlock cfiCond202
          CFI EndBlock cfiBlock203
          CFI EndBlock cfiPicker204

        RSEG CODE:CODE:NOROOT(1)
?Subroutine61:
          CFI Block cfiCond205 Using cfiCommon0
          CFI Function main
          CFI Conditional ??CrossCallReturnLabel_87
          CFI R24 Frame(CFA_Y, -1)
          CFI CFA_SP SP+4
          CFI CFA_Y Y+1
          CFI Block cfiCond206 Using cfiCommon0
          CFI (cfiCond206) Function main
          CFI (cfiCond206) Conditional ??CrossCallReturnLabel_88
          CFI (cfiCond206) R24 Frame(CFA_Y, -1)
          CFI (cfiCond206) CFA_SP SP+4
          CFI (cfiCond206) CFA_Y Y+1
          CFI Block cfiCond207 Using cfiCommon0
          CFI (cfiCond207) Function main
          CFI (cfiCond207) Conditional ??CrossCallReturnLabel_89
          CFI (cfiCond207) R24 Frame(CFA_Y, -1)
          CFI (cfiCond207) CFA_SP SP+4
          CFI (cfiCond207) CFA_Y Y+1
          CFI Block cfiPicker208 Using cfiCommon2
          CFI (cfiPicker208) NoFunction
          CFI (cfiPicker208) Picker
        LDI     R16, 127
        LDI     R17, 169
        LDI     R18, 3
        SUBI    R16, 1
        SBCI    R17, 0
        SBCI    R18, 0
        BRNE    $-6
        RJMP    $+2
        NOP
        RET
          CFI EndBlock cfiCond205
          CFI EndBlock cfiCond206
          CFI EndBlock cfiCond207
          CFI EndBlock cfiPicker208

        RSEG CODE:CODE:NOROOT(1)
?Subroutine92:
          CFI Block cfiCond209 Using cfiCommon0
          CFI Function coding
          CFI Conditional ??CrossCallReturnLabel_309, ??CrossCallReturnLabel_40
          CFI R24 Frame(CFA_Y, -10)
          CFI R25 Frame(CFA_Y, -9)
          CFI R26 Frame(CFA_Y, -8)
          CFI R27 Frame(CFA_Y, -7)
          CFI R4 Frame(CFA_Y, -6)
          CFI R5 Frame(CFA_Y, -5)
          CFI R6 Frame(CFA_Y, -4)
          CFI R7 Frame(CFA_Y, -3)
          CFI R8 Frame(CFA_Y, -2)
          CFI R9 Frame(CFA_Y, -1)
          CFI CFA_SP SP+6
          CFI CFA_Y Y+10
          CFI Block cfiCond210 Using cfiCommon0
          CFI (cfiCond210) Function coding
          CFI (cfiCond210) Conditional ??CrossCallReturnLabel_309, ??CrossCallReturnLabel_41
          CFI (cfiCond210) R24 Frame(CFA_Y, -10)
          CFI (cfiCond210) R25 Frame(CFA_Y, -9)
          CFI (cfiCond210) R26 Frame(CFA_Y, -8)
          CFI (cfiCond210) R27 Frame(CFA_Y, -7)
          CFI (cfiCond210) R4 Frame(CFA_Y, -6)
          CFI (cfiCond210) R5 Frame(CFA_Y, -5)
          CFI (cfiCond210) R6 Frame(CFA_Y, -4)
          CFI (cfiCond210) R7 Frame(CFA_Y, -3)
          CFI (cfiCond210) R8 Frame(CFA_Y, -2)
          CFI (cfiCond210) R9 Frame(CFA_Y, -1)
          CFI (cfiCond210) CFA_SP SP+6
          CFI (cfiCond210) CFA_Y Y+10
          CFI Block cfiCond211 Using cfiCommon0
          CFI (cfiCond211) Function coding
          CFI (cfiCond211) Conditional ??CrossCallReturnLabel_309, ??CrossCallReturnLabel_42
          CFI (cfiCond211) R24 Frame(CFA_Y, -10)
          CFI (cfiCond211) R25 Frame(CFA_Y, -9)
          CFI (cfiCond211) R26 Frame(CFA_Y, -8)
          CFI (cfiCond211) R27 Frame(CFA_Y, -7)
          CFI (cfiCond211) R4 Frame(CFA_Y, -6)
          CFI (cfiCond211) R5 Frame(CFA_Y, -5)
          CFI (cfiCond211) R6 Frame(CFA_Y, -4)
          CFI (cfiCond211) R7 Frame(CFA_Y, -3)
          CFI (cfiCond211) R8 Frame(CFA_Y, -2)
          CFI (cfiCond211) R9 Frame(CFA_Y, -1)
          CFI (cfiCond211) CFA_SP SP+6
          CFI (cfiCond211) CFA_Y Y+10
          CFI Block cfiCond212 Using cfiCommon0
          CFI (cfiCond212) Function analiz_INT
          CFI (cfiCond212) Conditional ??CrossCallReturnLabel_305
          CFI (cfiCond212) CFA_SP SP+4
          CFI Block cfiCond213 Using cfiCommon0
          CFI (cfiCond213) Function main
          CFI (cfiCond213) Conditional ??CrossCallReturnLabel_306
          CFI (cfiCond213) R24 Frame(CFA_Y, -1)
          CFI (cfiCond213) CFA_SP SP+4
          CFI (cfiCond213) CFA_Y Y+1
          CFI Block cfiCond214 Using cfiCommon0
          CFI (cfiCond214) Function migWORK
          CFI (cfiCond214) Conditional ??CrossCallReturnLabel_307
          CFI (cfiCond214) CFA_SP SP+4
          CFI Block cfiCond215 Using cfiCommon0
          CFI (cfiCond215) Function programming
          CFI (cfiCond215) Conditional ??CrossCallReturnLabel_308, ??CrossCallReturnLabel_15
          CFI (cfiCond215) R24 Frame(CFA_Y, -1)
          CFI (cfiCond215) CFA_SP SP+6
          CFI (cfiCond215) CFA_Y Y+1
          CFI Block cfiCond216 Using cfiCommon0
          CFI (cfiCond216) Function programming
          CFI (cfiCond216) Conditional ??CrossCallReturnLabel_308, ??CrossCallReturnLabel_16
          CFI (cfiCond216) R24 Frame(CFA_Y, -1)
          CFI (cfiCond216) CFA_SP SP+6
          CFI (cfiCond216) CFA_Y Y+1
          CFI Block cfiPicker217 Using cfiCommon2
          CFI (cfiPicker217) NoFunction
          CFI (cfiPicker217) Picker
        LD      R16, Z
        INC     R16
        RJMP    ??Subroutine130_0
          CFI EndBlock cfiCond209
          CFI EndBlock cfiCond210
          CFI EndBlock cfiCond211
          CFI EndBlock cfiCond212
          CFI EndBlock cfiCond213
          CFI EndBlock cfiCond214
          CFI EndBlock cfiCond215
          CFI EndBlock cfiCond216
          CFI EndBlock cfiPicker217

        RSEG CODE:CODE:NOROOT(1)
?Subroutine14:
          CFI Block cfiCond218 Using cfiCommon0
          CFI Function main
          CFI Conditional ??CrossCallReturnLabel_209
          CFI R24 Frame(CFA_Y, -1)
          CFI CFA_SP SP+4
          CFI CFA_Y Y+1
          CFI Block cfiCond219 Using cfiCommon0
          CFI (cfiCond219) Function main
          CFI (cfiCond219) Conditional ??CrossCallReturnLabel_210
          CFI (cfiCond219) R24 Frame(CFA_Y, -1)
          CFI (cfiCond219) CFA_SP SP+4
          CFI (cfiCond219) CFA_Y Y+1
          CFI Block cfiPicker220 Using cfiCommon2
          CFI (cfiPicker220) NoFunction
          CFI (cfiPicker220) Picker
        LDI     R16, 0
          CFI EndBlock cfiCond218
          CFI EndBlock cfiCond219
          CFI EndBlock cfiPicker220
        REQUIRE ?Subroutine104
        ;               // Fall through to label ?Subroutine104

        RSEG CODE:CODE:NOROOT(1)
?Subroutine104:
          CFI Block cfiCond221 Using cfiCommon0
          CFI Function main
          CFI Conditional ??CrossCallReturnLabel_208
          CFI R24 Frame(CFA_Y, -1)
          CFI CFA_SP SP+4
          CFI CFA_Y Y+1
          CFI Block cfiCond222 Using cfiCommon0
          CFI (cfiCond222) Function main
          CFI (cfiCond222) Conditional ??CrossCallReturnLabel_209
          CFI (cfiCond222) R24 Frame(CFA_Y, -1)
          CFI (cfiCond222) CFA_SP SP+4
          CFI (cfiCond222) CFA_Y Y+1
          CFI Block cfiCond223 Using cfiCommon0
          CFI (cfiCond223) Function main
          CFI (cfiCond223) Conditional ??CrossCallReturnLabel_210
          CFI (cfiCond223) R24 Frame(CFA_Y, -1)
          CFI (cfiCond223) CFA_SP SP+4
          CFI (cfiCond223) CFA_Y Y+1
          CFI Block cfiPicker224 Using cfiCommon2
          CFI (cfiPicker224) NoFunction
          CFI (cfiPicker224) Picker
        LDI     R20, LOW(modegro)
        LDI     R21, (modegro) >> 8
        RJMP    __eeput8_16
          CFI EndBlock cfiCond221
          CFI EndBlock cfiCond222
          CFI EndBlock cfiCond223
          CFI EndBlock cfiPicker224

        RSEG CODE:CODE:NOROOT(1)
?Subroutine13:
          CFI Block cfiCond225 Using cfiCommon0
          CFI Function main
          CFI Conditional ??CrossCallReturnLabel_206
          CFI R24 Frame(CFA_Y, -1)
          CFI CFA_SP SP+4
          CFI CFA_Y Y+1
          CFI Block cfiCond226 Using cfiCommon0
          CFI (cfiCond226) Function main
          CFI (cfiCond226) Conditional ??CrossCallReturnLabel_207
          CFI (cfiCond226) R24 Frame(CFA_Y, -1)
          CFI (cfiCond226) CFA_SP SP+4
          CFI (cfiCond226) CFA_Y Y+1
          CFI Block cfiPicker227 Using cfiCommon2
          CFI (cfiPicker227) NoFunction
          CFI (cfiPicker227) Picker
        LDI     R16, 0
          CFI EndBlock cfiCond225
          CFI EndBlock cfiCond226
          CFI EndBlock cfiPicker227
        REQUIRE ?Subroutine103
        ;               // Fall through to label ?Subroutine103

        RSEG CODE:CODE:NOROOT(1)
?Subroutine103:
          CFI Block cfiCond228 Using cfiCommon0
          CFI Function main
          CFI Conditional ??CrossCallReturnLabel_205
          CFI R24 Frame(CFA_Y, -1)
          CFI CFA_SP SP+4
          CFI CFA_Y Y+1
          CFI Block cfiCond229 Using cfiCommon0
          CFI (cfiCond229) Function main
          CFI (cfiCond229) Conditional ??CrossCallReturnLabel_206
          CFI (cfiCond229) R24 Frame(CFA_Y, -1)
          CFI (cfiCond229) CFA_SP SP+4
          CFI (cfiCond229) CFA_Y Y+1
          CFI Block cfiCond230 Using cfiCommon0
          CFI (cfiCond230) Function main
          CFI (cfiCond230) Conditional ??CrossCallReturnLabel_207
          CFI (cfiCond230) R24 Frame(CFA_Y, -1)
          CFI (cfiCond230) CFA_SP SP+4
          CFI (cfiCond230) CFA_Y Y+1
          CFI Block cfiPicker231 Using cfiCommon2
          CFI (cfiPicker231) NoFunction
          CFI (cfiPicker231) Picker
        LDI     R20, LOW(fmode)
        LDI     R21, (fmode) >> 8
        RJMP    __eeput8_16
          CFI EndBlock cfiCond228
          CFI EndBlock cfiCond229
          CFI EndBlock cfiCond230
          CFI EndBlock cfiPicker231

        RSEG CODE:CODE:NOROOT(1)
?Subroutine10:
          CFI Block cfiCond232 Using cfiCommon0
          CFI Function PEREP
          CFI Conditional ??CrossCallReturnLabel_14
          CFI R24 Frame(CFA_Y, -8)
          CFI R25 Frame(CFA_Y, -7)
          CFI R26 Frame(CFA_Y, -6)
          CFI R27 Frame(CFA_Y, -5)
          CFI R4 Frame(CFA_Y, -4)
          CFI R5 Frame(CFA_Y, -3)
          CFI R6 Frame(CFA_Y, -2)
          CFI R7 Frame(CFA_Y, -1)
          CFI CFA_SP SP+4
          CFI CFA_Y Y+8
          CFI Block cfiCond233 Using cfiCommon0
          CFI (cfiCond233) Function main
          CFI (cfiCond233) Conditional ??CrossCallReturnLabel_13
          CFI (cfiCond233) R24 Frame(CFA_Y, -1)
          CFI (cfiCond233) CFA_SP SP+4
          CFI (cfiCond233) CFA_Y Y+1
          CFI Block cfiPicker234 Using cfiCommon2
          CFI (cfiPicker234) NoFunction
          CFI (cfiPicker234) Picker
        LDI     R16, 0
        RCALL   ?Subroutine101
??CrossCallReturnLabel_202:
        RCALL   ?Subroutine89
??CrossCallReturnLabel_155:
        LDI     R30, LOW(cod2)
        LDI     R31, (cod2) >> 8
        RCALL   ?Subroutine89
??CrossCallReturnLabel_156:
        LDI     R30, LOW(cod3)
        LDI     R31, (cod3) >> 8
        RJMP    ?Subroutine89
          CFI EndBlock cfiCond232
          CFI EndBlock cfiCond233
          CFI EndBlock cfiPicker234
//  135 //***************************************************************************
//  136 
//  137 
//  138 
//  139 
//  140 
//  141 
//  142 
//  143 
//  144 
//  145 
//  146 

        RSEG CODE:CODE:NOROOT(1)
//  147  void main_power()
main_power:
          CFI Block cfiBlock235 Using cfiCommon0
          CFI Function main_power
//  148 {
//  149 
//  150  if ((keyON||pultadr==25 || pultadr==90) && on==1 && zader!=1) { rprintfStr("OFF>adr="); rprintfFloat(9, pultadr ); ent;
        FUNCALL main_power, rprintfStr
        LOCFRAME CSTACK, 0, STACK
        LOCFRAME RSTACK, 2, STACK
        ARGFRAME RSTACK, 0, STACK
        FUNCALL main_power, rprintfFloat
        LOCFRAME CSTACK, 0, STACK
        LOCFRAME RSTACK, 2, STACK
        ARGFRAME RSTACK, 0, STACK
        FUNCALL main_power, USART_SendChar
        LOCFRAME CSTACK, 0, STACK
        LOCFRAME RSTACK, 2, STACK
        ARGFRAME RSTACK, 0, STACK
        FUNCALL main_power, rprintfStr
        LOCFRAME CSTACK, 0, STACK
        LOCFRAME RSTACK, 2, STACK
        ARGFRAME RSTACK, 0, STACK
        FUNCALL main_power, rprintfFloat
        LOCFRAME CSTACK, 0, STACK
        LOCFRAME RSTACK, 2, STACK
        ARGFRAME RSTACK, 0, STACK
        FUNCALL main_power, USART_SendChar
        LOCFRAME CSTACK, 0, STACK
        LOCFRAME RSTACK, 2, STACK
        ARGFRAME RSTACK, 0, STACK
        FUNCALL main_power, source
        LOCFRAME CSTACK, 0, STACK
        LOCFRAME RSTACK, 2, STACK
        ARGFRAME RSTACK, 0, STACK
        FUNCALL main_power, resOUT
        LOCFRAME CSTACK, 0, STACK
        LOCFRAME RSTACK, 2, STACK
        ARGFRAME RSTACK, 0, STACK
        SBIC    0x10, 0x05
        RJMP    ??main_power_0
        SBIS    0x10, 0x00
        RJMP    ??main_power_0
        SBIC    0x10, 0x01
        RJMP    ??main_power_1
??main_power_0:
        RCALL   ?Subroutine69
??CrossCallReturnLabel_95:
        CPI     R16, 25
        BREQ    ??main_power_1
        CPI     R16, 90
        BRNE    ??CrossCallReturnLabel_338
??main_power_1:
        LDS     R17, on
        LDS     R18, zader
        LDI     R16, 1
        EOR     R18, R16
        AND     R17, R18
        BREQ    ??CrossCallReturnLabel_338
        LDI     R16, LOW(`?<Constant "OFF>adr=">`)
        LDI     R17, (`?<Constant "OFF>adr=">`) >> 8
        RCALL   ?Subroutine18
//  151                     on=0;onok=0; p5; zader=0;  til=0; gro1=0; gro2=0; pultadr=0;  }//OFF
??CrossCallReturnLabel_27:
        RCALL   ?Subroutine15
??CrossCallReturnLabel_21:
        RCALL   ?Subroutine102
??CrossCallReturnLabel_328:
        RCALL   ?Subroutine85
??CrossCallReturnLabel_140:
        STS     ??til, R16
        STS     ??gro1, R16
        STS     ??gro2, R16
        RCALL   ?Subroutine106
//  152      if ((keyON||pultadr==25 || pultadr==90) && on==0) {rprintfStr("ON>adr="); rprintfFloat(9, pultadr ); ent;
??CrossCallReturnLabel_338:
        SBIC    0x10, 0x05
        RJMP    ??main_power_2
        SBIS    0x10, 0x00
        RJMP    ??main_power_2
        SBIC    0x10, 0x01
        RJMP    ??main_power_3
??main_power_2:
        RCALL   ?Subroutine69
??CrossCallReturnLabel_96:
        CPI     R16, 25
        BREQ    ??main_power_3
        CPI     R16, 90
        BRNE    ??CrossCallReturnLabel_340
??main_power_3:
        LDS     R16, on
        TST     R16
        BRNE    ??CrossCallReturnLabel_340
        LDI     R16, LOW(`?<Constant "ON>adr=">`)
        LDI     R17, (`?<Constant "ON>adr=">`) >> 8
        RCALL   ?Subroutine18
//  153                     SET(PORTD,4); SET(PORTD,7);p5; on=1; mute=0; zader=1;timerzad=0;source();pultadr=0;  }//ON
??CrossCallReturnLabel_28:
        SBI     0x12, 0x04
        SBI     0x12, 0x07
        RCALL   ?Subroutine102
??CrossCallReturnLabel_329:
        LDI     R16, 1
        STS     on, R16
        LDI     R16, 0
        STS     mute, R16
        RCALL   ?Subroutine3
??CrossCallReturnLabel_9:
        RCALL   ??Subroutine134_0
//  154      
//  155     //выключение
//  156     if (on==0 && onok==0) { on=0; aoff=0; p5; zader=0; regaoff=0; AC_OFF; delay_s(1); tON=acon; 
??CrossCallReturnLabel_340:
        LDS     R16, on
        LDS     R17, onok
        OR      R16, R17
        BRNE    ??main_power_4
        LDI     R16, 0
        STS     on, R16
        RCALL   ?Subroutine16
??CrossCallReturnLabel_24:
        CBI     0x12, 0x06
        RCALL   ?Subroutine73
??CrossCallReturnLabel_120:
        LDI     R16, 32
        LDI     R17, 78
        LDI     R30, LOW(tON)
        LDI     R31, (tON) >> 8
        RCALL   ??Subroutine132_0
//  157     			    PORTB=0; RES(PORTD,7);RES(PORTD,4); resOUT(); RES(PORTC,5); RES(PORTC,0);RES(PORTD,3); onok=1;
??CrossCallReturnLabel_318:
        LDI     R16, 0
        OUT     0x18, R16
        CBI     0x12, 0x07
        CBI     0x12, 0x04
        RCALL   resOUT
        CBI     0x15, 0x05
        CBI     0x15, 0x00
        CBI     0x12, 0x03
        LDI     R16, 1
        STS     onok, R16
//  158                           }
//  159                             
//  160 }
??main_power_4:
        RET
          CFI EndBlock cfiBlock235
        REQUIRE _A_PIND
        REQUIRE _A_PORTD
        REQUIRE _A_PORTB
        REQUIRE _A_PORTC

        RSEG CODE:CODE:NOROOT(1)
?Subroutine102:
          CFI Block cfiCond236 Using cfiCommon0
          CFI Function main
          CFI Conditional ??CrossCallReturnLabel_331, ??CrossCallReturnLabel_261
          CFI R24 Frame(CFA_Y, -1)
          CFI CFA_SP SP+6
          CFI CFA_Y Y+1
          CFI Block cfiCond237 Using cfiCommon0
          CFI (cfiCond237) Function main
          CFI (cfiCond237) Conditional ??CrossCallReturnLabel_331, ??CrossCallReturnLabel_262
          CFI (cfiCond237) R24 Frame(CFA_Y, -1)
          CFI (cfiCond237) CFA_SP SP+6
          CFI (cfiCond237) CFA_Y Y+1
          CFI Block cfiCond238 Using cfiCommon0
          CFI (cfiCond238) Function main
          CFI (cfiCond238) Conditional ??CrossCallReturnLabel_326
          CFI (cfiCond238) R24 Frame(CFA_Y, -1)
          CFI (cfiCond238) CFA_SP SP+4
          CFI (cfiCond238) CFA_Y Y+1
          CFI Block cfiCond239 Using cfiCommon0
          CFI (cfiCond239) Function main
          CFI (cfiCond239) Conditional ??CrossCallReturnLabel_327
          CFI (cfiCond239) R24 Frame(CFA_Y, -1)
          CFI (cfiCond239) CFA_SP SP+4
          CFI (cfiCond239) CFA_Y Y+1
          CFI Block cfiCond240 Using cfiCommon0
          CFI (cfiCond240) Function main_power
          CFI (cfiCond240) Conditional ??CrossCallReturnLabel_328
          CFI (cfiCond240) CFA_SP SP+4
          CFI Block cfiCond241 Using cfiCommon0
          CFI (cfiCond241) Function main_power
          CFI (cfiCond241) Conditional ??CrossCallReturnLabel_329
          CFI (cfiCond241) CFA_SP SP+4
          CFI Block cfiCond242 Using cfiCommon0
          CFI (cfiCond242) Function main_power
          CFI (cfiCond242) Conditional ??CrossCallReturnLabel_330, ??CrossCallReturnLabel_24
          CFI (cfiCond242) CFA_SP SP+6
          CFI Block cfiCond243 Using cfiCommon0
          CFI (cfiCond243) Function main_logic
          CFI (cfiCond243) Conditional ??CrossCallReturnLabel_330, ??CrossCallReturnLabel_23
          CFI (cfiCond243) CFA_SP SP+6
          CFI Block cfiCond244 Using cfiCommon0
          CFI (cfiCond244) Function main_logic
          CFI (cfiCond244) Conditional ??CrossCallReturnLabel_332, ??CrossCallReturnLabel_336
          CFI (cfiCond244) CFA_SP SP+6
          CFI Block cfiCond245 Using cfiCommon0
          CFI (cfiCond245) Function main_logic
          CFI (cfiCond245) Conditional ??CrossCallReturnLabel_332, ??CrossCallReturnLabel_335
          CFI (cfiCond245) CFA_SP SP+6
          CFI Block cfiCond246 Using cfiCommon0
          CFI (cfiCond246) Function main_logic
          CFI (cfiCond246) Conditional ??CrossCallReturnLabel_332, ??CrossCallReturnLabel_334
          CFI (cfiCond246) CFA_SP SP+6
          CFI Block cfiCond247 Using cfiCommon0
          CFI (cfiCond247) Function main_logic
          CFI (cfiCond247) Conditional ??CrossCallReturnLabel_332, ??CrossCallReturnLabel_333
          CFI (cfiCond247) CFA_SP SP+6
          CFI Block cfiPicker248 Using cfiCommon2
          CFI (cfiPicker248) NoFunction
          CFI (cfiPicker248) Picker
        LDI     R16, 127
        LDI     R17, 26
        LDI     R18, 6
        SUBI    R16, 1
        SBCI    R17, 0
        SBCI    R18, 0
        BRNE    $-6
        RJMP    $+2
        NOP
        RET
          CFI EndBlock cfiCond236
          CFI EndBlock cfiCond237
          CFI EndBlock cfiCond238
          CFI EndBlock cfiCond239
          CFI EndBlock cfiCond240
          CFI EndBlock cfiCond241
          CFI EndBlock cfiCond242
          CFI EndBlock cfiCond243
          CFI EndBlock cfiCond244
          CFI EndBlock cfiCond245
          CFI EndBlock cfiCond246
          CFI EndBlock cfiCond247
          CFI EndBlock cfiPicker248

        RSEG CODE:CODE:NOROOT(1)
?Subroutine25:
          CFI Block cfiCond249 Using cfiCommon0
          CFI Function coding
          CFI Conditional ??CrossCallReturnLabel_323
          CFI R24 Frame(CFA_Y, -10)
          CFI R25 Frame(CFA_Y, -9)
          CFI R26 Frame(CFA_Y, -8)
          CFI R27 Frame(CFA_Y, -7)
          CFI R4 Frame(CFA_Y, -6)
          CFI R5 Frame(CFA_Y, -5)
          CFI R6 Frame(CFA_Y, -4)
          CFI R7 Frame(CFA_Y, -3)
          CFI R8 Frame(CFA_Y, -2)
          CFI R9 Frame(CFA_Y, -1)
          CFI CFA_SP SP+4
          CFI CFA_Y Y+10
          CFI Block cfiCond250 Using cfiCommon0
          CFI (cfiCond250) Function coding
          CFI (cfiCond250) Conditional ??CrossCallReturnLabel_324
          CFI (cfiCond250) R24 Frame(CFA_Y, -10)
          CFI (cfiCond250) R25 Frame(CFA_Y, -9)
          CFI (cfiCond250) R26 Frame(CFA_Y, -8)
          CFI (cfiCond250) R27 Frame(CFA_Y, -7)
          CFI (cfiCond250) R4 Frame(CFA_Y, -6)
          CFI (cfiCond250) R5 Frame(CFA_Y, -5)
          CFI (cfiCond250) R6 Frame(CFA_Y, -4)
          CFI (cfiCond250) R7 Frame(CFA_Y, -3)
          CFI (cfiCond250) R8 Frame(CFA_Y, -2)
          CFI (cfiCond250) R9 Frame(CFA_Y, -1)
          CFI (cfiCond250) CFA_SP SP+4
          CFI (cfiCond250) CFA_Y Y+10
          CFI Block cfiCond251 Using cfiCommon0
          CFI (cfiCond251) Function coding
          CFI (cfiCond251) Conditional ??CrossCallReturnLabel_325
          CFI (cfiCond251) R24 Frame(CFA_Y, -10)
          CFI (cfiCond251) R25 Frame(CFA_Y, -9)
          CFI (cfiCond251) R26 Frame(CFA_Y, -8)
          CFI (cfiCond251) R27 Frame(CFA_Y, -7)
          CFI (cfiCond251) R4 Frame(CFA_Y, -6)
          CFI (cfiCond251) R5 Frame(CFA_Y, -5)
          CFI (cfiCond251) R6 Frame(CFA_Y, -4)
          CFI (cfiCond251) R7 Frame(CFA_Y, -3)
          CFI (cfiCond251) R8 Frame(CFA_Y, -2)
          CFI (cfiCond251) R9 Frame(CFA_Y, -1)
          CFI (cfiCond251) CFA_SP SP+4
          CFI (cfiCond251) CFA_Y Y+10
          CFI Block cfiPicker252 Using cfiCommon2
          CFI (cfiPicker252) NoFunction
          CFI (cfiPicker252) Picker
        RCALL   ?Subroutine95
          CFI EndBlock cfiCond249
          CFI EndBlock cfiCond250
          CFI EndBlock cfiCond251
          CFI EndBlock cfiPicker252
??CrossCallReturnLabel_177:
        REQUIRE ??Subroutine131_0
        ;               // Fall through to label ??Subroutine131_0

        RSEG CODE:CODE:NOROOT(1)
??Subroutine131_0:
          CFI Block cfiCond253 Using cfiCommon0
          CFI Function coding
          CFI Conditional ??CrossCallReturnLabel_321
          CFI R24 Frame(CFA_Y, -10)
          CFI R25 Frame(CFA_Y, -9)
          CFI R26 Frame(CFA_Y, -8)
          CFI R27 Frame(CFA_Y, -7)
          CFI R4 Frame(CFA_Y, -6)
          CFI R5 Frame(CFA_Y, -5)
          CFI R6 Frame(CFA_Y, -4)
          CFI R7 Frame(CFA_Y, -3)
          CFI R8 Frame(CFA_Y, -2)
          CFI R9 Frame(CFA_Y, -1)
          CFI CFA_SP SP+4
          CFI CFA_Y Y+10
          CFI Block cfiCond254 Using cfiCommon0
          CFI (cfiCond254) Function coding
          CFI (cfiCond254) Conditional ??CrossCallReturnLabel_322
          CFI (cfiCond254) R24 Frame(CFA_Y, -10)
          CFI (cfiCond254) R25 Frame(CFA_Y, -9)
          CFI (cfiCond254) R26 Frame(CFA_Y, -8)
          CFI (cfiCond254) R27 Frame(CFA_Y, -7)
          CFI (cfiCond254) R4 Frame(CFA_Y, -6)
          CFI (cfiCond254) R5 Frame(CFA_Y, -5)
          CFI (cfiCond254) R6 Frame(CFA_Y, -4)
          CFI (cfiCond254) R7 Frame(CFA_Y, -3)
          CFI (cfiCond254) R8 Frame(CFA_Y, -2)
          CFI (cfiCond254) R9 Frame(CFA_Y, -1)
          CFI (cfiCond254) CFA_SP SP+4
          CFI (cfiCond254) CFA_Y Y+10
          CFI Block cfiCond255 Using cfiCommon0
          CFI (cfiCond255) Function coding
          CFI (cfiCond255) Conditional ??CrossCallReturnLabel_323
          CFI (cfiCond255) R24 Frame(CFA_Y, -10)
          CFI (cfiCond255) R25 Frame(CFA_Y, -9)
          CFI (cfiCond255) R26 Frame(CFA_Y, -8)
          CFI (cfiCond255) R27 Frame(CFA_Y, -7)
          CFI (cfiCond255) R4 Frame(CFA_Y, -6)
          CFI (cfiCond255) R5 Frame(CFA_Y, -5)
          CFI (cfiCond255) R6 Frame(CFA_Y, -4)
          CFI (cfiCond255) R7 Frame(CFA_Y, -3)
          CFI (cfiCond255) R8 Frame(CFA_Y, -2)
          CFI (cfiCond255) R9 Frame(CFA_Y, -1)
          CFI (cfiCond255) CFA_SP SP+4
          CFI (cfiCond255) CFA_Y Y+10
          CFI Block cfiCond256 Using cfiCommon0
          CFI (cfiCond256) Function coding
          CFI (cfiCond256) Conditional ??CrossCallReturnLabel_324
          CFI (cfiCond256) R24 Frame(CFA_Y, -10)
          CFI (cfiCond256) R25 Frame(CFA_Y, -9)
          CFI (cfiCond256) R26 Frame(CFA_Y, -8)
          CFI (cfiCond256) R27 Frame(CFA_Y, -7)
          CFI (cfiCond256) R4 Frame(CFA_Y, -6)
          CFI (cfiCond256) R5 Frame(CFA_Y, -5)
          CFI (cfiCond256) R6 Frame(CFA_Y, -4)
          CFI (cfiCond256) R7 Frame(CFA_Y, -3)
          CFI (cfiCond256) R8 Frame(CFA_Y, -2)
          CFI (cfiCond256) R9 Frame(CFA_Y, -1)
          CFI (cfiCond256) CFA_SP SP+4
          CFI (cfiCond256) CFA_Y Y+10
          CFI Block cfiCond257 Using cfiCommon0
          CFI (cfiCond257) Function coding
          CFI (cfiCond257) Conditional ??CrossCallReturnLabel_325
          CFI (cfiCond257) R24 Frame(CFA_Y, -10)
          CFI (cfiCond257) R25 Frame(CFA_Y, -9)
          CFI (cfiCond257) R26 Frame(CFA_Y, -8)
          CFI (cfiCond257) R27 Frame(CFA_Y, -7)
          CFI (cfiCond257) R4 Frame(CFA_Y, -6)
          CFI (cfiCond257) R5 Frame(CFA_Y, -5)
          CFI (cfiCond257) R6 Frame(CFA_Y, -4)
          CFI (cfiCond257) R7 Frame(CFA_Y, -3)
          CFI (cfiCond257) R8 Frame(CFA_Y, -2)
          CFI (cfiCond257) R9 Frame(CFA_Y, -1)
          CFI (cfiCond257) CFA_SP SP+4
          CFI (cfiCond257) CFA_Y Y+10
          CFI Block cfiPicker258 Using cfiCommon2
          CFI (cfiPicker258) NoFunction
          CFI (cfiPicker258) Picker
        ADD     R16, R24
        ADC     R17, R25
          CFI EndBlock cfiCond253
          CFI EndBlock cfiCond254
          CFI EndBlock cfiCond255
          CFI EndBlock cfiCond256
          CFI EndBlock cfiCond257
          CFI EndBlock cfiPicker258
        REQUIRE ??Subroutine132_0
        ;               // Fall through to label ??Subroutine132_0

        RSEG CODE:CODE:NOROOT(1)
??Subroutine132_0:
          CFI Block cfiCond259 Using cfiCommon0
          CFI Function analiz_INT
          CFI Conditional ??CrossCallReturnLabel_310
          CFI CFA_SP SP+4
          CFI Block cfiCond260 Using cfiCommon0
          CFI (cfiCond260) Function analiz_INT
          CFI (cfiCond260) Conditional ??CrossCallReturnLabel_311
          CFI (cfiCond260) CFA_SP SP+4
          CFI Block cfiCond261 Using cfiCommon0
          CFI (cfiCond261) Function PEREP
          CFI (cfiCond261) Conditional ??CrossCallReturnLabel_312
          CFI (cfiCond261) R24 Frame(CFA_Y, -8)
          CFI (cfiCond261) R25 Frame(CFA_Y, -7)
          CFI (cfiCond261) R26 Frame(CFA_Y, -6)
          CFI (cfiCond261) R27 Frame(CFA_Y, -5)
          CFI (cfiCond261) R4 Frame(CFA_Y, -4)
          CFI (cfiCond261) R5 Frame(CFA_Y, -3)
          CFI (cfiCond261) R6 Frame(CFA_Y, -2)
          CFI (cfiCond261) R7 Frame(CFA_Y, -1)
          CFI (cfiCond261) CFA_SP SP+4
          CFI (cfiCond261) CFA_Y Y+8
          CFI Block cfiCond262 Using cfiCommon0
          CFI (cfiCond262) Function PEREP
          CFI (cfiCond262) Conditional ??CrossCallReturnLabel_313
          CFI (cfiCond262) R24 Frame(CFA_Y, -8)
          CFI (cfiCond262) R25 Frame(CFA_Y, -7)
          CFI (cfiCond262) R26 Frame(CFA_Y, -6)
          CFI (cfiCond262) R27 Frame(CFA_Y, -5)
          CFI (cfiCond262) R4 Frame(CFA_Y, -4)
          CFI (cfiCond262) R5 Frame(CFA_Y, -3)
          CFI (cfiCond262) R6 Frame(CFA_Y, -2)
          CFI (cfiCond262) R7 Frame(CFA_Y, -1)
          CFI (cfiCond262) CFA_SP SP+4
          CFI (cfiCond262) CFA_Y Y+8
          CFI Block cfiCond263 Using cfiCommon0
          CFI (cfiCond263) Function coding
          CFI (cfiCond263) Conditional ??CrossCallReturnLabel_314
          CFI (cfiCond263) R24 Frame(CFA_Y, -10)
          CFI (cfiCond263) R25 Frame(CFA_Y, -9)
          CFI (cfiCond263) R26 Frame(CFA_Y, -8)
          CFI (cfiCond263) R27 Frame(CFA_Y, -7)
          CFI (cfiCond263) R4 Frame(CFA_Y, -6)
          CFI (cfiCond263) R5 Frame(CFA_Y, -5)
          CFI (cfiCond263) R6 Frame(CFA_Y, -4)
          CFI (cfiCond263) R7 Frame(CFA_Y, -3)
          CFI (cfiCond263) R8 Frame(CFA_Y, -2)
          CFI (cfiCond263) R9 Frame(CFA_Y, -1)
          CFI (cfiCond263) CFA_SP SP+4
          CFI (cfiCond263) CFA_Y Y+10
          CFI Block cfiCond264 Using cfiCommon0
          CFI (cfiCond264) Function coding
          CFI (cfiCond264) Conditional ??CrossCallReturnLabel_315
          CFI (cfiCond264) R24 Frame(CFA_Y, -10)
          CFI (cfiCond264) R25 Frame(CFA_Y, -9)
          CFI (cfiCond264) R26 Frame(CFA_Y, -8)
          CFI (cfiCond264) R27 Frame(CFA_Y, -7)
          CFI (cfiCond264) R4 Frame(CFA_Y, -6)
          CFI (cfiCond264) R5 Frame(CFA_Y, -5)
          CFI (cfiCond264) R6 Frame(CFA_Y, -4)
          CFI (cfiCond264) R7 Frame(CFA_Y, -3)
          CFI (cfiCond264) R8 Frame(CFA_Y, -2)
          CFI (cfiCond264) R9 Frame(CFA_Y, -1)
          CFI (cfiCond264) CFA_SP SP+4
          CFI (cfiCond264) CFA_Y Y+10
          CFI Block cfiCond265 Using cfiCommon0
          CFI (cfiCond265) Function coding
          CFI (cfiCond265) Conditional ??CrossCallReturnLabel_316
          CFI (cfiCond265) R24 Frame(CFA_Y, -10)
          CFI (cfiCond265) R25 Frame(CFA_Y, -9)
          CFI (cfiCond265) R26 Frame(CFA_Y, -8)
          CFI (cfiCond265) R27 Frame(CFA_Y, -7)
          CFI (cfiCond265) R4 Frame(CFA_Y, -6)
          CFI (cfiCond265) R5 Frame(CFA_Y, -5)
          CFI (cfiCond265) R6 Frame(CFA_Y, -4)
          CFI (cfiCond265) R7 Frame(CFA_Y, -3)
          CFI (cfiCond265) R8 Frame(CFA_Y, -2)
          CFI (cfiCond265) R9 Frame(CFA_Y, -1)
          CFI (cfiCond265) CFA_SP SP+4
          CFI (cfiCond265) CFA_Y Y+10
          CFI Block cfiCond266 Using cfiCommon0
          CFI (cfiCond266) Function coding
          CFI (cfiCond266) Conditional ??CrossCallReturnLabel_317
          CFI (cfiCond266) R24 Frame(CFA_Y, -10)
          CFI (cfiCond266) R25 Frame(CFA_Y, -9)
          CFI (cfiCond266) R26 Frame(CFA_Y, -8)
          CFI (cfiCond266) R27 Frame(CFA_Y, -7)
          CFI (cfiCond266) R4 Frame(CFA_Y, -6)
          CFI (cfiCond266) R5 Frame(CFA_Y, -5)
          CFI (cfiCond266) R6 Frame(CFA_Y, -4)
          CFI (cfiCond266) R7 Frame(CFA_Y, -3)
          CFI (cfiCond266) R8 Frame(CFA_Y, -2)
          CFI (cfiCond266) R9 Frame(CFA_Y, -1)
          CFI (cfiCond266) CFA_SP SP+4
          CFI (cfiCond266) CFA_Y Y+10
          CFI Block cfiCond267 Using cfiCommon0
          CFI (cfiCond267) Function main_power
          CFI (cfiCond267) Conditional ??CrossCallReturnLabel_318
          CFI (cfiCond267) CFA_SP SP+4
          CFI Block cfiCond268 Using cfiCommon0
          CFI (cfiCond268) Function pult
          CFI (cfiCond268) Conditional ??CrossCallReturnLabel_319
          CFI (cfiCond268) CFA_SP SP+4
          CFI Block cfiCond269 Using cfiCommon0
          CFI (cfiCond269) Function main_logic
          CFI (cfiCond269) Conditional ??CrossCallReturnLabel_320
          CFI (cfiCond269) CFA_SP SP+4
          CFI Block cfiCond270 Using cfiCommon0
          CFI (cfiCond270) Function coding
          CFI (cfiCond270) Conditional ??CrossCallReturnLabel_321
          CFI (cfiCond270) R24 Frame(CFA_Y, -10)
          CFI (cfiCond270) R25 Frame(CFA_Y, -9)
          CFI (cfiCond270) R26 Frame(CFA_Y, -8)
          CFI (cfiCond270) R27 Frame(CFA_Y, -7)
          CFI (cfiCond270) R4 Frame(CFA_Y, -6)
          CFI (cfiCond270) R5 Frame(CFA_Y, -5)
          CFI (cfiCond270) R6 Frame(CFA_Y, -4)
          CFI (cfiCond270) R7 Frame(CFA_Y, -3)
          CFI (cfiCond270) R8 Frame(CFA_Y, -2)
          CFI (cfiCond270) R9 Frame(CFA_Y, -1)
          CFI (cfiCond270) CFA_SP SP+4
          CFI (cfiCond270) CFA_Y Y+10
          CFI Block cfiCond271 Using cfiCommon0
          CFI (cfiCond271) Function coding
          CFI (cfiCond271) Conditional ??CrossCallReturnLabel_322
          CFI (cfiCond271) R24 Frame(CFA_Y, -10)
          CFI (cfiCond271) R25 Frame(CFA_Y, -9)
          CFI (cfiCond271) R26 Frame(CFA_Y, -8)
          CFI (cfiCond271) R27 Frame(CFA_Y, -7)
          CFI (cfiCond271) R4 Frame(CFA_Y, -6)
          CFI (cfiCond271) R5 Frame(CFA_Y, -5)
          CFI (cfiCond271) R6 Frame(CFA_Y, -4)
          CFI (cfiCond271) R7 Frame(CFA_Y, -3)
          CFI (cfiCond271) R8 Frame(CFA_Y, -2)
          CFI (cfiCond271) R9 Frame(CFA_Y, -1)
          CFI (cfiCond271) CFA_SP SP+4
          CFI (cfiCond271) CFA_Y Y+10
          CFI Block cfiCond272 Using cfiCommon0
          CFI (cfiCond272) Function coding
          CFI (cfiCond272) Conditional ??CrossCallReturnLabel_323
          CFI (cfiCond272) R24 Frame(CFA_Y, -10)
          CFI (cfiCond272) R25 Frame(CFA_Y, -9)
          CFI (cfiCond272) R26 Frame(CFA_Y, -8)
          CFI (cfiCond272) R27 Frame(CFA_Y, -7)
          CFI (cfiCond272) R4 Frame(CFA_Y, -6)
          CFI (cfiCond272) R5 Frame(CFA_Y, -5)
          CFI (cfiCond272) R6 Frame(CFA_Y, -4)
          CFI (cfiCond272) R7 Frame(CFA_Y, -3)
          CFI (cfiCond272) R8 Frame(CFA_Y, -2)
          CFI (cfiCond272) R9 Frame(CFA_Y, -1)
          CFI (cfiCond272) CFA_SP SP+4
          CFI (cfiCond272) CFA_Y Y+10
          CFI Block cfiCond273 Using cfiCommon0
          CFI (cfiCond273) Function coding
          CFI (cfiCond273) Conditional ??CrossCallReturnLabel_324
          CFI (cfiCond273) R24 Frame(CFA_Y, -10)
          CFI (cfiCond273) R25 Frame(CFA_Y, -9)
          CFI (cfiCond273) R26 Frame(CFA_Y, -8)
          CFI (cfiCond273) R27 Frame(CFA_Y, -7)
          CFI (cfiCond273) R4 Frame(CFA_Y, -6)
          CFI (cfiCond273) R5 Frame(CFA_Y, -5)
          CFI (cfiCond273) R6 Frame(CFA_Y, -4)
          CFI (cfiCond273) R7 Frame(CFA_Y, -3)
          CFI (cfiCond273) R8 Frame(CFA_Y, -2)
          CFI (cfiCond273) R9 Frame(CFA_Y, -1)
          CFI (cfiCond273) CFA_SP SP+4
          CFI (cfiCond273) CFA_Y Y+10
          CFI Block cfiCond274 Using cfiCommon0
          CFI (cfiCond274) Function coding
          CFI (cfiCond274) Conditional ??CrossCallReturnLabel_325
          CFI (cfiCond274) R24 Frame(CFA_Y, -10)
          CFI (cfiCond274) R25 Frame(CFA_Y, -9)
          CFI (cfiCond274) R26 Frame(CFA_Y, -8)
          CFI (cfiCond274) R27 Frame(CFA_Y, -7)
          CFI (cfiCond274) R4 Frame(CFA_Y, -6)
          CFI (cfiCond274) R5 Frame(CFA_Y, -5)
          CFI (cfiCond274) R6 Frame(CFA_Y, -4)
          CFI (cfiCond274) R7 Frame(CFA_Y, -3)
          CFI (cfiCond274) R8 Frame(CFA_Y, -2)
          CFI (cfiCond274) R9 Frame(CFA_Y, -1)
          CFI (cfiCond274) CFA_SP SP+4
          CFI (cfiCond274) CFA_Y Y+10
          CFI Block cfiPicker275 Using cfiCommon2
          CFI (cfiPicker275) NoFunction
          CFI (cfiPicker275) Picker
        ST      Z, R16
        STD     Z+1, R17
        RET
          CFI EndBlock cfiCond259
          CFI EndBlock cfiCond260
          CFI EndBlock cfiCond261
          CFI EndBlock cfiCond262
          CFI EndBlock cfiCond263
          CFI EndBlock cfiCond264
          CFI EndBlock cfiCond265
          CFI EndBlock cfiCond266
          CFI EndBlock cfiCond267
          CFI EndBlock cfiCond268
          CFI EndBlock cfiCond269
          CFI EndBlock cfiCond270
          CFI EndBlock cfiCond271
          CFI EndBlock cfiCond272
          CFI EndBlock cfiCond273
          CFI EndBlock cfiCond274
          CFI EndBlock cfiPicker275

        RSEG CODE:CODE:NOROOT(1)
?Subroutine18:
          CFI Block cfiCond276 Using cfiCommon0
          CFI Function main_power
          CFI Conditional ??CrossCallReturnLabel_27
          CFI CFA_SP SP+4
          CFI Block cfiCond277 Using cfiCommon0
          CFI (cfiCond277) Function main_power
          CFI (cfiCond277) Conditional ??CrossCallReturnLabel_28
          CFI (cfiCond277) CFA_SP SP+4
          CFI Block cfiPicker278 Using cfiCommon2
          CFI (cfiPicker278) NoFunction
          CFI (cfiPicker278) Picker
        RCALL   rprintfStr
        LDS     R16, pultadr
        RCALL   ?Subroutine86
??CrossCallReturnLabel_291:
        RJMP    ?Subroutine100
          CFI EndBlock cfiCond276
          CFI EndBlock cfiCond277
          CFI EndBlock cfiPicker278
//  161 
//  162 

        RSEG CODE:CODE:NOROOT(1)
//  163 uchar getadr()//адреса  команд
getadr:
          CFI Block cfiBlock279 Using cfiCommon0
          CFI Function getadr
//  164 {
//  165   uchar adr=0;
        LDI     R16, 0
//  166   if (tekfunc==0) {adr=1; SET(PORTB,0);}//s1
        LDS     R17, ??tekfunc
        TST     R17
        BRNE    ??getadr_0
        LDI     R16, 1
        RJMP    ??getadr_1
//  167   if (tekfunc==1) {adr=5; SET(PORTB,1);}
??getadr_0:
        CPI     R17, 1
        BRNE    ??getadr_2
        LDI     R16, 5
        RJMP    ??getadr_3
//  168   if (tekfunc==2) {adr=10;SET(PORTB,2);}
??getadr_2:
        CPI     R17, 2
        BRNE    ??getadr_4
        LDI     R16, 10
        RJMP    ??getadr_5
//  169   if (tekfunc==3) {adr=15;SET(PORTB,3);}
??getadr_4:
        CPI     R17, 3
        BRNE    ??getadr_6
        LDI     R16, 15
        RJMP    ??getadr_7
//  170   if (tekfunc==4) {adr=20;SET(PORTB,4);}//s5 или ONтыл
??getadr_6:
        CPI     R17, 4
        BRNE    ??getadr_8
        LDI     R16, 20
        RJMP    ??getadr_9
//  171   if (tekfunc==5) {adr=55;SET(PORTB,0);SET(PORTB,2);SET(PORTB,4);}//command return
??getadr_8:
        CPI     R17, 5
        BRNE    ??getadr_10
        LDI     R16, 55
        RJMP    ??getadr_11
//  172   if (tekfunc==6) {adr=25;SET(PORTD,7);}//on standby
??getadr_10:
        CPI     R17, 6
        BRNE    ??getadr_12
        LDI     R16, 25
        RJMP    ??getadr_13
//  173   if (tekfunc==7) {adr=30;SET(PORTB,5);}//aoff
??getadr_12:
        CPI     R17, 7
        BRNE    ??getadr_14
        LDI     R16, 30
        RJMP    ??getadr_15
//  174   if (tekfunc==8) {adr=35;AC_ON;}//mute
??getadr_14:
        CPI     R17, 8
        BRNE    ??getadr_16
        LDI     R16, 35
        RJMP    ??getadr_17
//  175   if (tekfunc==9) {adr=40; }//select
??getadr_16:
        CPI     R17, 9
        BRNE    ??getadr_18
        LDI     R16, 40
        RET
//  176   if (tekfunc==10) {adr=45; }//громкость увеличить
??getadr_18:
        CPI     R17, 10
        BRNE    ??getadr_19
        LDI     R16, 45
        RET
//  177   if (tekfunc==11) {adr=50; }//громкость уменьшить
??getadr_19:
        CPI     R17, 11
        BRNE    ??getadr_20
        LDI     R16, 50
        RET
//  178   
//  179   //дублирование команд
//  180    if (tekfunc==12) {adr=60; SET(PORTB,0);}//s1
??getadr_20:
        CPI     R17, 12
        BRNE    ??getadr_21
        LDI     R16, 60
??getadr_1:
        SBI     0x18, 0x00
        RET
//  181   if (tekfunc==13) {adr=65; SET(PORTB,1);}
??getadr_21:
        CPI     R17, 13
        BRNE    ??getadr_22
        LDI     R16, 65
??getadr_3:
        SBI     0x18, 0x01
        RET
//  182   if (tekfunc==14) {adr=70;SET(PORTB,2);}
??getadr_22:
        CPI     R17, 14
        BRNE    ??getadr_23
        LDI     R16, 70
??getadr_5:
        SBI     0x18, 0x02
        RET
//  183   if (tekfunc==15) {adr=75;SET(PORTB,3);}
??getadr_23:
        CPI     R17, 15
        BRNE    ??getadr_24
        LDI     R16, 75
??getadr_7:
        RJMP    ?Subroutine119
//  184   if (tekfunc==16) {adr=80;SET(PORTB,4);}//s5 или ONтыл
??getadr_24:
        CPI     R17, 16
        BRNE    ??getadr_25
        LDI     R16, 80
        RJMP    ??getadr_9
//  185   if (tekfunc==17) {adr=85;SET(PORTB,0);SET(PORTB,2);SET(PORTB,4);}//command return
??getadr_25:
        CPI     R17, 17
        BRNE    ??getadr_26
        LDI     R16, 85
??getadr_11:
        SBI     0x18, 0x00
        SBI     0x18, 0x02
??getadr_9:
        SBI     0x18, 0x04
        RET
//  186   if (tekfunc==18) {adr=90;SET(PORTD,7);}//on standby
??getadr_26:
        CPI     R17, 18
        BRNE    ??getadr_27
        LDI     R16, 90
??getadr_13:
        RJMP    ?Subroutine120
//  187   if (tekfunc==19) {adr=95;SET(PORTB,5);}//aoff
??getadr_27:
        CPI     R17, 19
        BRNE    ??getadr_28
        LDI     R16, 95
??getadr_15:
        SBI     0x18, 0x05
        RET
//  188   if (tekfunc==20) {adr=100;AC_ON;}//mute
??getadr_28:
        CPI     R17, 20
        BRNE    ??getadr_29
        LDI     R16, 100
??getadr_17:
        SBI     0x12, 0x06
        RET
//  189   if (tekfunc==21) {adr=105; }//select
??getadr_29:
        CPI     R17, 21
        BRNE    ??getadr_30
        LDI     R16, 105
        RET
//  190   if (tekfunc==22) {adr=110; }//громкость увеличить
??getadr_30:
        CPI     R17, 22
        BRNE    ??getadr_31
        LDI     R16, 110
        RET
//  191   if (tekfunc==23) {adr=115; }//громкость уменьшить
??getadr_31:
        CPI     R17, 23
        BRNE    ??getadr_32
        LDI     R16, 115
//  192   return(adr);
??getadr_32:
        RET
          CFI EndBlock cfiBlock279
        REQUIRE _A_PORTB
        REQUIRE _A_PORTD
//  193 }

        RSEG CODE:CODE:NOROOT(1)
?Subroutine120:
          CFI Block cfiBlock280 Using cfiCommon0
          CFI NoFunction
        SBI     0x12, 0x07
        RET
          CFI EndBlock cfiBlock280
//  194 
//  195 

        RSEG CODE:CODE:NOROOT(1)
//  196 void pult() 
pult:
          CFI Block cfiBlock281 Using cfiCommon0
          CFI Function pult
//  197 {
//  198    tON=1500; zader=1;timerzad=0; source(); p2;   //время включения АС при переключениях
        FUNCALL pult, source
        LOCFRAME CSTACK, 0, STACK
        LOCFRAME RSTACK, 2, STACK
        ARGFRAME RSTACK, 0, STACK
        LDI     R16, 220
        LDI     R17, 5
        LDI     R30, LOW(tON)
        LDI     R31, (tON) >> 8
        RCALL   ??Subroutine132_0
??CrossCallReturnLabel_319:
        RCALL   ?Subroutine3
??CrossCallReturnLabel_8:
        RJMP    ?Subroutine70
          CFI EndBlock cfiBlock281
//  199 }

        RSEG CODE:CODE:NOROOT(1)
?Subroutine3:
          CFI Block cfiCond282 Using cfiCommon0
          CFI Function main_power
          CFI Conditional ??CrossCallReturnLabel_9
          CFI CFA_SP SP+4
          CFI Block cfiCond283 Using cfiCommon0
          CFI (cfiCond283) Function pult
          CFI (cfiCond283) Conditional ??CrossCallReturnLabel_8
          CFI (cfiCond283) CFA_SP SP+4
          CFI Block cfiPicker284 Using cfiCommon2
          CFI (cfiPicker284) NoFunction
          CFI (cfiPicker284) Picker
        LDI     R16, 1
        STS     zader, R16
        LDI     R16, 0
        LDI     R30, LOW(timerzad)
        LDI     R31, (timerzad) >> 8
        RCALL   ?Subroutine89
??CrossCallReturnLabel_154:
        RJMP    source
          CFI EndBlock cfiCond282
          CFI EndBlock cfiCond283
          CFI EndBlock cfiPicker284
//  200 
//  201 
//  202 
//  203 
//  204 

        RSEG CODE:CODE:NOROOT(1)
//  205 void main_logic()//-----------------------главная логика --------------------
main_logic:
          CFI Block cfiBlock285 Using cfiCommon0
          CFI Function main_logic
//  206 {   
//  207    static uchar last_pultadr;
//  208    migWORK();
        FUNCALL main_logic, migWORK
        LOCFRAME CSTACK, 0, STACK
        LOCFRAME RSTACK, 2, STACK
        ARGFRAME RSTACK, 0, STACK
        FUNCALL main_logic, rprintfStr
        LOCFRAME CSTACK, 0, STACK
        LOCFRAME RSTACK, 2, STACK
        ARGFRAME RSTACK, 0, STACK
        FUNCALL main_logic, rprintfFloat
        LOCFRAME CSTACK, 0, STACK
        LOCFRAME RSTACK, 2, STACK
        ARGFRAME RSTACK, 0, STACK
        FUNCALL main_logic, USART_SendChar
        LOCFRAME CSTACK, 0, STACK
        LOCFRAME RSTACK, 2, STACK
        ARGFRAME RSTACK, 0, STACK
        FUNCALL main_logic, pult
        LOCFRAME CSTACK, 0, STACK
        LOCFRAME RSTACK, 2, STACK
        ARGFRAME RSTACK, 0, STACK
        FUNCALL main_logic, migINI
        LOCFRAME CSTACK, 0, STACK
        LOCFRAME RSTACK, 2, STACK
        ARGFRAME RSTACK, 0, STACK
        FUNCALL main_logic, pult
        LOCFRAME CSTACK, 0, STACK
        LOCFRAME RSTACK, 2, STACK
        ARGFRAME RSTACK, 0, STACK
        FUNCALL main_logic, migINI
        LOCFRAME CSTACK, 0, STACK
        LOCFRAME RSTACK, 2, STACK
        ARGFRAME RSTACK, 0, STACK
        FUNCALL main_logic, pult
        LOCFRAME CSTACK, 0, STACK
        LOCFRAME RSTACK, 2, STACK
        ARGFRAME RSTACK, 0, STACK
        FUNCALL main_logic, migINI
        LOCFRAME CSTACK, 0, STACK
        LOCFRAME RSTACK, 2, STACK
        ARGFRAME RSTACK, 0, STACK
        FUNCALL main_logic, pult
        LOCFRAME CSTACK, 0, STACK
        LOCFRAME RSTACK, 2, STACK
        ARGFRAME RSTACK, 0, STACK
        FUNCALL main_logic, migINI
        LOCFRAME CSTACK, 0, STACK
        LOCFRAME RSTACK, 2, STACK
        ARGFRAME RSTACK, 0, STACK
        FUNCALL main_logic, pult
        LOCFRAME CSTACK, 0, STACK
        LOCFRAME RSTACK, 2, STACK
        ARGFRAME RSTACK, 0, STACK
        FUNCALL main_logic, migINI
        LOCFRAME CSTACK, 0, STACK
        LOCFRAME RSTACK, 2, STACK
        ARGFRAME RSTACK, 0, STACK
        FUNCALL main_logic, TimerSet
        LOCFRAME CSTACK, 0, STACK
        LOCFRAME RSTACK, 2, STACK
        ARGFRAME RSTACK, 0, STACK
        FUNCALL main_logic, TimerSet
        LOCFRAME CSTACK, 0, STACK
        LOCFRAME RSTACK, 2, STACK
        ARGFRAME RSTACK, 0, STACK
        FUNCALL main_logic, TimerSet
        LOCFRAME CSTACK, 0, STACK
        LOCFRAME RSTACK, 2, STACK
        ARGFRAME RSTACK, 0, STACK
        FUNCALL main_logic, TimerTick
        LOCFRAME CSTACK, 0, STACK
        LOCFRAME RSTACK, 2, STACK
        ARGFRAME RSTACK, 0, STACK
        FUNCALL main_logic, pult
        LOCFRAME CSTACK, 0, STACK
        LOCFRAME RSTACK, 2, STACK
        ARGFRAME RSTACK, 0, STACK
        FUNCALL main_logic, pult
        LOCFRAME CSTACK, 0, STACK
        LOCFRAME RSTACK, 2, STACK
        ARGFRAME RSTACK, 0, STACK
        FUNCALL main_logic, pult
        LOCFRAME CSTACK, 0, STACK
        LOCFRAME RSTACK, 2, STACK
        ARGFRAME RSTACK, 0, STACK
        FUNCALL main_logic, gro
        LOCFRAME CSTACK, 0, STACK
        LOCFRAME RSTACK, 2, STACK
        ARGFRAME RSTACK, 0, STACK
        FUNCALL main_logic, gro
        LOCFRAME CSTACK, 0, STACK
        LOCFRAME RSTACK, 2, STACK
        ARGFRAME RSTACK, 0, STACK
        RCALL   migWORK
//  209    
//  210    if (pultadr==last_pultadr) {}
//  211   
//  212    if (pultadr!=0)
        RCALL   ?Subroutine69
??CrossCallReturnLabel_97:
        TST     R16
        BRNE    $+2+2
        RJMP    ??main_logic_0
//  213    {//если есть команда с пульта
//  214      
//  215       rprintfStr("normal>command find  adr=");
        LDI     R16, LOW(`?<Constant "normal>command find  ...">`)
        LDI     R17, (`?<Constant "normal>command find  ...">`) >> 8
        RCALL   rprintfStr
//  216       rprintfFloat(6, pultadr ); ent;
        RCALL   ?Subroutine69
??CrossCallReturnLabel_98:
        RCALL   ?Subroutine19
??CrossCallReturnLabel_293:
        RCALL   ?Subroutine113
//  217      
//  218      if (pultadr==1 || pultadr==60) {if (sel!=1)  { AC_OFF; lastsel=sel; sel=1; pult(); } else   migINI(sel-1, 3 ,0); 
??CrossCallReturnLabel_234:
        RCALL   ?Subroutine69
??CrossCallReturnLabel_99:
        CPI     R16, 1
        BREQ    ??main_logic_1
        CPI     R16, 60
        BRNE    ??main_logic_2
??main_logic_1:
        RCALL   ?Subroutine116
??CrossCallReturnLabel_238:
        CPI     R16, 1
        BREQ    ??main_logic_3
        RCALL   ?Subroutine68
??CrossCallReturnLabel_90:
        LDI     R16, 1
        RCALL   ?Subroutine72
??CrossCallReturnLabel_119:
        RJMP    ??main_logic_2
??main_logic_3:
        RCALL   ?Subroutine46
//  219  }
??CrossCallReturnLabel_49:
        LDI     R16, 0
        RCALL   migINI
//  220      if (pultadr==5 || pultadr==65) {if (sel!=2)  {AC_OFF; lastsel=sel;sel=2; pult(); }  else  migINI(sel-1, 3 ,0); 
??main_logic_2:
        RCALL   ?Subroutine69
??CrossCallReturnLabel_100:
        CPI     R16, 5
        BREQ    ??main_logic_4
        CPI     R16, 65
        BRNE    ??main_logic_5
??main_logic_4:
        RCALL   ?Subroutine116
??CrossCallReturnLabel_239:
        CPI     R16, 2
        BREQ    ??main_logic_6
        RCALL   ?Subroutine68
??CrossCallReturnLabel_91:
        LDI     R16, 2
        RCALL   ?Subroutine72
??CrossCallReturnLabel_118:
        RJMP    ??main_logic_5
??main_logic_6:
        RCALL   ?Subroutine46
//  221 }
??CrossCallReturnLabel_50:
        LDI     R16, 1
        RCALL   migINI
//  222      if (pultadr==10 || pultadr==70) {if (sel!=3) {AC_OFF; lastsel=sel;sel=3; pult(); } else    migINI(sel-1, 3 ,0); 
??main_logic_5:
        RCALL   ?Subroutine69
??CrossCallReturnLabel_101:
        CPI     R16, 10
        BREQ    ??main_logic_7
        CPI     R16, 70
        BRNE    ??main_logic_8
??main_logic_7:
        RCALL   ?Subroutine116
??CrossCallReturnLabel_240:
        CPI     R16, 3
        BREQ    ??main_logic_9
        RCALL   ?Subroutine68
??CrossCallReturnLabel_92:
        LDI     R16, 3
        RCALL   ?Subroutine72
??CrossCallReturnLabel_117:
        RJMP    ??main_logic_8
??main_logic_9:
        RCALL   ?Subroutine46
//  223 }
??CrossCallReturnLabel_51:
        LDI     R16, 2
        RCALL   migINI
//  224      if (pultadr==15 || pultadr==75) {if (sel!=4) {AC_OFF; lastsel=sel;sel=4; pult(); } else   migINI(sel-1, 3 ,0); 
??main_logic_8:
        RCALL   ?Subroutine69
??CrossCallReturnLabel_102:
        CPI     R16, 15
        BREQ    ??main_logic_10
        CPI     R16, 75
        BRNE    ??main_logic_11
??main_logic_10:
        RCALL   ?Subroutine116
??CrossCallReturnLabel_241:
        CPI     R16, 4
        BREQ    ??main_logic_12
        RCALL   ?Subroutine68
??CrossCallReturnLabel_93:
        LDI     R16, 4
        RCALL   ?Subroutine72
??CrossCallReturnLabel_116:
        RJMP    ??main_logic_11
??main_logic_12:
        RCALL   ?Subroutine46
//  225  }
??CrossCallReturnLabel_52:
        LDI     R16, 3
        RCALL   migINI
//  226      if ((pultadr==20  || pultadr==80) && mode!=1) { if (sel!=5) {AC_OFF; lastsel=sel;sel=5; pult();}  else  migINI(sel-1, 3 ,0); 
??main_logic_11:
        RCALL   ?Subroutine69
??CrossCallReturnLabel_103:
        CPI     R16, 20
        BREQ    ??main_logic_13
        CPI     R16, 80
        BRNE    ??main_logic_14
??main_logic_13:
        RCALL   ?Subroutine67
??CrossCallReturnLabel_267:
        BREQ    ??main_logic_15
        RCALL   ?Subroutine116
??CrossCallReturnLabel_242:
        CPI     R16, 5
        BREQ    ??main_logic_16
        RCALL   ?Subroutine68
??CrossCallReturnLabel_94:
        LDI     R16, 5
        RCALL   ?Subroutine72
??CrossCallReturnLabel_115:
        RJMP    ??main_logic_15
??main_logic_16:
        RCALL   ?Subroutine46
//  227 }
??CrossCallReturnLabel_53:
        LDI     R16, 4
        RCALL   migINI
//  228      
//  229      
//  230      //тыловые  ------------------------------------------------------
//  231      if ((  pultadr==20  || pultadr==80) && mode==1) {  
??main_logic_15:
        RCALL   ?Subroutine69
??CrossCallReturnLabel_104:
        CPI     R16, 20
        BREQ    ??main_logic_17
??main_logic_14:
        RCALL   ?Subroutine69
??CrossCallReturnLabel_105:
        CPI     R16, 80
        BRNE    ??main_logic_0
??main_logic_17:
        RCALL   ?Subroutine67
??CrossCallReturnLabel_268:
        BRNE    ??main_logic_0
//  232          
//  233        if (til==0) { SET(PORTC,5);til=1;  
        LDS     R16, ??til
        TST     R16
        BRNE    ??main_logic_18
        SBI     0x15, 0x05
        LDI     R16, 1
        STS     ??til, R16
//  234                for (uchar i=0; i<2; i++) {SET(PORTB,4);p2;RES(PORTB,4);p2;}  SET(PORTB,4);  pultadr=0;  p1;}
        LDI     R16, 2
??main_logic_19:
        SBI     0x18, 0x04
        RCALL   ?Subroutine107
??CrossCallReturnLabel_213:
        CBI     0x18, 0x04
        RCALL   ?Subroutine107
??CrossCallReturnLabel_214:
        DEC     R16
        BRNE    ??main_logic_19
        SBI     0x18, 0x04
        LDI     R16, 0
        RJMP    ??main_logic_20
//  235        else 
//  236        if (til==1) {   RES(PORTC,5); RES(PORTB,4); til=0; pultadr=0; p1; }
??main_logic_18:
        CBI     0x15, 0x05
        CBI     0x18, 0x04
        LDI     R16, 0
        STS     ??til, R16
??main_logic_20:
        RCALL   ?Subroutine106
??CrossCallReturnLabel_339:
        LDI     R16, 127
        LDI     R17, 56
        LDI     R18, 1
        SUBI    R16, 1
        SBCI    R17, 0
        SBCI    R18, 0
        BRNE    $-6
        RJMP    $+2
        NOP
//  237      
//  238                                                      }
//  239    }//если есть команда с пульта
//  240    
//  241   //--------------- mute -------------------
//  242   if (mute==1) AC_OFF; else { if (zader==0) AC_ON; }
??main_logic_0:
        RCALL   ?Subroutine76
??CrossCallReturnLabel_257:
        BREQ    ??main_logic_21
        CBI     0x12, 0x06
//  243   if (zader==1) {timerzad++;  if (timerzad> tON)  {zader=0;timerzad=0; if (mute!=1)AC_ON;} }//задержка включения
??main_logic_22:
        LDS     R16, zader
        TST     R16
        BREQ    ??main_logic_23
        LDI     R30, LOW(timerzad)
        LDI     R31, (timerzad) >> 8
        RCALL   ?Subroutine95
??CrossCallReturnLabel_171:
        SUBI    R16, 255
        SBCI    R17, 255
        RCALL   ??Subroutine132_0
??CrossCallReturnLabel_320:
        LDI     R30, LOW(tON)
        LDI     R31, (tON) >> 8
        RCALL   ?Subroutine95
??CrossCallReturnLabel_172:
        LDI     R30, LOW(timerzad)
        LDI     R31, (timerzad) >> 8
        RCALL   ?Subroutine60
??CrossCallReturnLabel_86:
        CP      R16, R18
        CPC     R17, R19
        BRCC    ??main_logic_23
        RCALL   ?Subroutine85
??CrossCallReturnLabel_141:
        RCALL   ?Subroutine89
??CrossCallReturnLabel_153:
        RCALL   ?Subroutine76
??CrossCallReturnLabel_258:
        BRNE    ??main_logic_23
??main_logic_24:
        SBI     0x12, 0x06
//  244   
//  245   if (keyMUTE ||pultadr==35 || pultadr==100)  
??main_logic_23:
        SBIC    0x10, 0x01
        RJMP    ??main_logic_25
        SBIS    0x10, 0x05
        RJMP    ??main_logic_26
??main_logic_25:
        RCALL   ?Subroutine69
??CrossCallReturnLabel_106:
        CPI     R16, 35
        BREQ    ??main_logic_26
        CPI     R16, 100
        BRNE    ??CrossCallReturnLabel_335
//  246   {
//  247    if ( mute==0) { AC_OFF; mute=1; p5; pultadr=0;}
??main_logic_26:
        RCALL   ?Subroutine76
??CrossCallReturnLabel_259:
        BRNE    ??CrossCallReturnLabel_336
        CBI     0x12, 0x06
        LDI     R16, 1
        RCALL   ?Subroutine9
//  248    if (mute==1) { AC_ON; mute=0; p5; pultadr=0; }   
??CrossCallReturnLabel_336:
        RCALL   ?Subroutine76
??CrossCallReturnLabel_260:
        BREQ    ??CrossCallReturnLabel_335
        SBI     0x12, 0x06
        LDI     R16, 0
        RCALL   ?Subroutine9
//  249   }
//  250    
//  251    
//  252    
//  253   //--------------- aoff --------------------
//  254  
//  255    if (keyAOFF || pultadr==30 || pultadr==95) 
??CrossCallReturnLabel_335:
        SBIC    0x10, 0x00
        RJMP    ??main_logic_27
        SBIS    0x10, 0x05
        RJMP    ??main_logic_28
??main_logic_27:
        RCALL   ?Subroutine69
??CrossCallReturnLabel_107:
        CPI     R16, 30
        BREQ    ??main_logic_28
        CPI     R16, 95
        BRNE    ??main_logic_29
//  256    {
//  257      
//  258   if ( aoff==1 && regaoff>=3)  {  RES(PORTB,5);  p5; aoff=0; regaoff=0; pultadr=0;}//отмена aoff 
??main_logic_28:
        LDS     R16, aoff
        TST     R16
        BREQ    ??main_logic_30
        RCALL   ?Subroutine78
??CrossCallReturnLabel_130:
        CPI     R16, 3
        BRCS    ??main_logic_30
        CBI     0x18, 0x05
        RCALL   ??Subroutine133_0
??CrossCallReturnLabel_334:
        RJMP    ??main_logic_31
??main_logic_21:
        LDS     R16, zader
        TST     R16
        BREQ    $+2+2
        RJMP    ??main_logic_22
        RJMP    ??main_logic_24
//  259   if ( regaoff==0) { aoff=1; regaoff++;  TimerSet(&tm1,60*60*2)/*2 часа*/; pultadr=0;  for (uchar i=0; i<3; i++)  {SET(PORTB,5);p2;RES(PORTB,5);p2;}  SET(PORTB,5); }
??main_logic_30:
        RCALL   ?Subroutine78
??CrossCallReturnLabel_131:
        TST     R16
        BRNE    ??main_logic_32
??main_logic_31:
        RCALL   ?Subroutine8
??CrossCallReturnLabel_10:
        RCALL   ?Subroutine108
??CrossCallReturnLabel_217:
        LDI     R18, 32
        LDI     R19, 28
        RCALL   ?Subroutine77
??CrossCallReturnLabel_129:
        RCALL   ??Subroutine134_0
??CrossCallReturnLabel_341:
        LDI     R16, 3
??main_logic_33:
        RCALL   ?Subroutine17
??CrossCallReturnLabel_25:
        BRNE    ??main_logic_33
        SBI     0x18, 0x05
//  260   if (regaoff==1) { aoff=1; regaoff++; TimerSet(&tm1,60*60*1)/*1 часа*/; pultadr=0; for (uchar i=0; i<2; i++)  {SET(PORTB,5);p2;RES(PORTB,5);p2;}  SET(PORTB,5); }
??main_logic_32:
        RCALL   ?Subroutine78
??CrossCallReturnLabel_132:
        CPI     R16, 1
        BRNE    ??main_logic_34
        RCALL   ?Subroutine8
??CrossCallReturnLabel_11:
        LDI     R16, 2
        RCALL   ?Subroutine108
??CrossCallReturnLabel_218:
        LDI     R18, 16
        LDI     R19, 14
        RCALL   ?Subroutine77
??CrossCallReturnLabel_128:
        RCALL   ??Subroutine134_0
??CrossCallReturnLabel_342:
        LDI     R16, 2
??main_logic_35:
        RCALL   ?Subroutine17
??CrossCallReturnLabel_26:
        BRNE    ??main_logic_35
        SBI     0x18, 0x05
//  261   if (regaoff==2) { aoff=1; regaoff++; TimerSet(&tm1,60*60*0.5)/*0.5 часа*/; pultadr=0; for (uchar i=0; i<1; i++)  {SET(PORTB,5);p2;RES(PORTB,5);p2;}  SET(PORTB,5); }
??main_logic_34:
        RCALL   ?Subroutine78
??CrossCallReturnLabel_133:
        CPI     R16, 2
        BRNE    ??main_logic_29
        RCALL   ?Subroutine8
??CrossCallReturnLabel_12:
        LDI     R16, 3
        RCALL   ?Subroutine108
??CrossCallReturnLabel_219:
        LDI     R18, 8
        LDI     R19, 7
        RCALL   ?Subroutine77
??CrossCallReturnLabel_127:
        RCALL   ??Subroutine134_0
??CrossCallReturnLabel_343:
        SBI     0x18, 0x05
        RCALL   ?Subroutine70
??CrossCallReturnLabel_111:
        CBI     0x18, 0x05
        RCALL   ?Subroutine70
??CrossCallReturnLabel_112:
        SBI     0x18, 0x05
//  262   
//  263    }
//  264 
//  265    
//  266  //  if ((keyAOFF || pultadr==30 || pultadr==95) && aoff==0) 
//  267  //     {   aoff=1;  iniT1(60*60*2)/*2 часа*/; pultadr=0;
//  268  //         for (uchar i=0; i<2; i++)  {SET(PORTB,5);p2;RES(PORTB,5);p2;}  SET(PORTB,5);
//  269   //   
//  270   //        
//  271  //         for (uint i=0; i<1000; i++)
//  272  //         {   char rez=du_main(0);  if (rez==1) { pultadr=analizCOD();break; }}
//  273  //         
//  274   //    //если user продолжает удерживать
//  275   //    if ((keyAOFF || pultadr==30 || pultadr==95) ) { iniT1(60*30);/*30 мин*/
//  276  //      for (uchar i=0; i<4; i++)  {SET(PORTB,5);p2;p2;p2;p2;p2;RES(PORTB,5);p2;}  SET(PORTB,5);
//  277   //                                    }
//  278   //    
//  279    //   }
//  280                                                         
//  281    
//  282   
//  283  
//  284   if (aoff==1)  {   TimerTick(&tm1); if (tm1.out) { on=0; onok=0;  aoff=0; p5; zader=0; regaoff=0;}
??main_logic_29:
        LDS     R16, aoff
        TST     R16
        BREQ    ??CrossCallReturnLabel_23
        LDI     R16, LOW(tm1)
        LDI     R17, (tm1) >> 8
        RCALL   TimerTick
        LDS     R16, (tm1 + 12)
        TST     R16
        BREQ    ??CrossCallReturnLabel_23
        RCALL   ?Subroutine15
??CrossCallReturnLabel_22:
        RCALL   ?Subroutine16
//  285                 } 
//  286                 
//  287  //--------------- select -------------------
//  288                 if ( u!=1) {//что бы во время работы UART не срабатывал
??CrossCallReturnLabel_23:
        LDS     R16, ??u
        TST     R16
        BRNE    ??main_logic_36
//  289    uchar kol;  if  (mode==1) kol=4; else kol=5;
        RCALL   ?Subroutine67
??CrossCallReturnLabel_269:
        BRNE    ??main_logic_37
        LDI     R16, 4
        RJMP    ??main_logic_38
??main_logic_37:
        LDI     R16, 5
//  290    if (keySEL ||pultadr==40 || pultadr==105) 
??main_logic_38:
        SBIC    0x10, 0x01
        RJMP    ??main_logic_39
        SBIC    0x10, 0x05
        RJMP    ??main_logic_40
??main_logic_39:
        LDS     R17, pultadr
        CPI     R17, 40
        BREQ    ??main_logic_40
        CPI     R17, 105
        BRNE    ??CrossCallReturnLabel_114
//  291                 { 
//  292                         if (sel<=(kol-1)) { AC_OFF; p2; RES(PORTB,(sel-1));lastsel=sel; sel++; pult(); } 
??main_logic_40:
        DEC     R16
        LDS     R17, ??sel
        CP      R16, R17
        CBI     0x12, 0x06
        BRCS    ??main_logic_41
        RCALL   ?Subroutine70
??CrossCallReturnLabel_113:
        RCALL   ?Subroutine4
??CrossCallReturnLabel_236:
        STS     ??lastsel, R16
        INC     R16
        RJMP    ??main_logic_42
//  293                        else { AC_OFF;  RES(PORTB,(sel-1)); sel=1; pult(); }
??main_logic_41:
        LDS     R20, ??sel
        DEC     R20
        RCALL   ?Subroutine83
??CrossCallReturnLabel_273:
        LDI     R16, 1
//  294               
//  295                 }
??main_logic_42:
        RCALL   ?Subroutine72
//  296                          
//  297   //--------------- return sel -------------------  возврат в предыдущий source                 
//  298    if ( pultadr==55 || pultadr==85) {
??CrossCallReturnLabel_114:
        RCALL   ?Subroutine69
??CrossCallReturnLabel_108:
        CPI     R16, 55
        BREQ    ??main_logic_43
        CPI     R16, 85
        BRNE    ??main_logic_36
//  299      
//  300      if (sel!=lastsel) {
??main_logic_43:
        RCALL   ?Subroutine116
??CrossCallReturnLabel_243:
        LDS     R17, ??lastsel
        CP      R16, R17
        BREQ    ??main_logic_36
//  301        AC_OFF;  RES(PORTB,(sel-1)); uchar tmp1=sel; sel=lastsel;  lastsel=tmp1; pultadr=0;  pult();
        CBI     0x12, 0x06
        RCALL   ?Subroutine4
??CrossCallReturnLabel_237:
        LDS     R17, ??lastsel
        STS     ??sel, R17
        STS     ??lastsel, R16
        RCALL   ??Subroutine134_0
??CrossCallReturnLabel_344:
        RCALL   pult
//  302      }
//  303                                       }
//  304               
//  305                           }//что бы во время работы UART не срабатывал
//  306                            
//  307                           
//  308                  
//  309  //--------------- ГРОМКОСТЬ -------------------
//  310    if (pultadr==45 || pultadr==110) { gro(1); p5;  pultadr=0; }  
??main_logic_36:
        RCALL   ?Subroutine69
??CrossCallReturnLabel_109:
        CPI     R16, 45
        BREQ    ??main_logic_44
        CPI     R16, 110
        BRNE    ??main_logic_45
??main_logic_44:
        LDI     R16, 1
        RJMP    ??main_logic_46
//  311    if (pultadr==50 || pultadr==115) { gro(2); p5;  pultadr=0; }  
??main_logic_45:
        CPI     R16, 50
        BREQ    ??main_logic_47
        CPI     R16, 115
        BRNE    ??CrossCallReturnLabel_333
??main_logic_47:
        LDI     R16, 2
??main_logic_46:
        RCALL   gro
        RCALL   ??Subroutine133_0
//  312    
//  313    
//  314                 
//  315  
//  316                           
//  317                           
//  318    last_pultadr=pultadr;
??CrossCallReturnLabel_333:
        RCALL   ?Subroutine69
??CrossCallReturnLabel_110:
        STS     ??last_pultadr, R16
//  319    
//  320 }
        RET
          CFI EndBlock cfiBlock285
        REQUIRE _A_PORTD
        REQUIRE _A_PORTC
        REQUIRE _A_PORTB
        REQUIRE _A_PIND

        RSEG CODE:CODE:NOROOT(1)
?Subroutine85:
          CFI Block cfiCond286 Using cfiCommon0
          CFI Function main_power
          CFI Conditional ??CrossCallReturnLabel_140
          CFI CFA_SP SP+4
          CFI Block cfiCond287 Using cfiCommon0
          CFI (cfiCond287) Function main_logic
          CFI (cfiCond287) Conditional ??CrossCallReturnLabel_141
          CFI (cfiCond287) CFA_SP SP+4
          CFI Block cfiCond288 Using cfiCommon0
          CFI (cfiCond288) Function main_power
          CFI (cfiCond288) Conditional ??CrossCallReturnLabel_142, ??CrossCallReturnLabel_24
          CFI (cfiCond288) CFA_SP SP+6
          CFI Block cfiCond289 Using cfiCommon0
          CFI (cfiCond289) Function main_logic
          CFI (cfiCond289) Conditional ??CrossCallReturnLabel_142, ??CrossCallReturnLabel_23
          CFI (cfiCond289) CFA_SP SP+6
          CFI Block cfiPicker290 Using cfiCommon2
          CFI (cfiPicker290) NoFunction
          CFI (cfiPicker290) Picker
        LDI     R16, 0
        STS     zader, R16
        RET
          CFI EndBlock cfiCond286
          CFI EndBlock cfiCond287
          CFI EndBlock cfiCond288
          CFI EndBlock cfiCond289
          CFI EndBlock cfiPicker290

        RSEG CODE:CODE:NOROOT(1)
?Subroutine78:
          CFI Block cfiCond291 Using cfiCommon0
          CFI Function main_logic
          CFI Conditional ??CrossCallReturnLabel_130
          CFI CFA_SP SP+4
          CFI Block cfiCond292 Using cfiCommon0
          CFI (cfiCond292) Function main_logic
          CFI (cfiCond292) Conditional ??CrossCallReturnLabel_131
          CFI (cfiCond292) CFA_SP SP+4
          CFI Block cfiCond293 Using cfiCommon0
          CFI (cfiCond293) Function main_logic
          CFI (cfiCond293) Conditional ??CrossCallReturnLabel_132
          CFI (cfiCond293) CFA_SP SP+4
          CFI Block cfiCond294 Using cfiCommon0
          CFI (cfiCond294) Function main_logic
          CFI (cfiCond294) Conditional ??CrossCallReturnLabel_133
          CFI (cfiCond294) CFA_SP SP+4
          CFI Block cfiPicker295 Using cfiCommon2
          CFI (cfiPicker295) NoFunction
          CFI (cfiPicker295) Picker
        LDS     R16, ??regaoff
        RET
          CFI EndBlock cfiCond291
          CFI EndBlock cfiCond292
          CFI EndBlock cfiCond293
          CFI EndBlock cfiCond294
          CFI EndBlock cfiPicker295

        RSEG CODE:CODE:NOROOT(1)
?Subroutine77:
          CFI Block cfiCond296 Using cfiCommon0
          CFI Function main_logic
          CFI Conditional ??CrossCallReturnLabel_129
          CFI CFA_SP SP+4
          CFI Block cfiCond297 Using cfiCommon0
          CFI (cfiCond297) Function main_logic
          CFI (cfiCond297) Conditional ??CrossCallReturnLabel_128
          CFI (cfiCond297) CFA_SP SP+4
          CFI Block cfiCond298 Using cfiCommon0
          CFI (cfiCond298) Function main_logic
          CFI (cfiCond298) Conditional ??CrossCallReturnLabel_127
          CFI (cfiCond298) CFA_SP SP+4
          CFI Block cfiPicker299 Using cfiCommon2
          CFI (cfiPicker299) NoFunction
          CFI (cfiPicker299) Picker
        LDI     R16, LOW(tm1)
        LDI     R17, (tm1) >> 8
        RJMP    TimerSet
          CFI EndBlock cfiCond296
          CFI EndBlock cfiCond297
          CFI EndBlock cfiCond298
          CFI EndBlock cfiPicker299

        RSEG CODE:CODE:NOROOT(1)
?Subroutine76:
          CFI Block cfiCond300 Using cfiCommon0
          CFI Function main_logic
          CFI Conditional ??CrossCallReturnLabel_257
          CFI CFA_SP SP+4
          CFI Block cfiCond301 Using cfiCommon0
          CFI (cfiCond301) Function main_logic
          CFI (cfiCond301) Conditional ??CrossCallReturnLabel_258
          CFI (cfiCond301) CFA_SP SP+4
          CFI Block cfiCond302 Using cfiCommon0
          CFI (cfiCond302) Function main_logic
          CFI (cfiCond302) Conditional ??CrossCallReturnLabel_259
          CFI (cfiCond302) CFA_SP SP+4
          CFI Block cfiCond303 Using cfiCommon0
          CFI (cfiCond303) Function main_logic
          CFI (cfiCond303) Conditional ??CrossCallReturnLabel_260
          CFI (cfiCond303) CFA_SP SP+4
          CFI Block cfiPicker304 Using cfiCommon2
          CFI (cfiPicker304) NoFunction
          CFI (cfiPicker304) Picker
        LDS     R16, mute
        RJMP    ?Subroutine118
          CFI EndBlock cfiCond300
          CFI EndBlock cfiCond301
          CFI EndBlock cfiCond302
          CFI EndBlock cfiCond303
          CFI EndBlock cfiPicker304

        RSEG CODE:CODE:NOROOT(1)
?Subroutine107:
          CFI Block cfiCond305 Using cfiCommon0
          CFI Function main_logic
          CFI Conditional ??CrossCallReturnLabel_213
          CFI CFA_SP SP+4
          CFI Block cfiCond306 Using cfiCommon0
          CFI (cfiCond306) Function main_logic
          CFI (cfiCond306) Conditional ??CrossCallReturnLabel_214
          CFI (cfiCond306) CFA_SP SP+4
          CFI Block cfiCond307 Using cfiCommon0
          CFI (cfiCond307) Function main_logic
          CFI (cfiCond307) Conditional ??CrossCallReturnLabel_215, ??CrossCallReturnLabel_25
          CFI (cfiCond307) CFA_SP SP+6
          CFI Block cfiCond308 Using cfiCommon0
          CFI (cfiCond308) Function main_logic
          CFI (cfiCond308) Conditional ??CrossCallReturnLabel_215, ??CrossCallReturnLabel_26
          CFI (cfiCond308) CFA_SP SP+6
          CFI Block cfiCond309 Using cfiCommon0
          CFI (cfiCond309) Function main_logic
          CFI (cfiCond309) Conditional ??CrossCallReturnLabel_216, ??CrossCallReturnLabel_25
          CFI (cfiCond309) CFA_SP SP+6
          CFI Block cfiCond310 Using cfiCommon0
          CFI (cfiCond310) Function main_logic
          CFI (cfiCond310) Conditional ??CrossCallReturnLabel_216, ??CrossCallReturnLabel_26
          CFI (cfiCond310) CFA_SP SP+6
          CFI Block cfiPicker311 Using cfiCommon2
          CFI (cfiPicker311) NoFunction
          CFI (cfiPicker311) Picker
        LDI     R20, 255
        LDI     R21, 112
        LDI     R22, 2
        SUBI    R20, 1
        SBCI    R21, 0
        SBCI    R22, 0
        BRNE    $-6
        RJMP    $+2
        NOP
        RET
          CFI EndBlock cfiCond305
          CFI EndBlock cfiCond306
          CFI EndBlock cfiCond307
          CFI EndBlock cfiCond308
          CFI EndBlock cfiCond309
          CFI EndBlock cfiCond310
          CFI EndBlock cfiPicker311

        RSEG CODE:CODE:NOROOT(1)
?Subroutine72:
          CFI Block cfiCond312 Using cfiCommon0
          CFI Function main_logic
          CFI Conditional ??CrossCallReturnLabel_119
          CFI CFA_SP SP+4
          CFI Block cfiCond313 Using cfiCommon0
          CFI (cfiCond313) Function main_logic
          CFI (cfiCond313) Conditional ??CrossCallReturnLabel_118
          CFI (cfiCond313) CFA_SP SP+4
          CFI Block cfiCond314 Using cfiCommon0
          CFI (cfiCond314) Function main_logic
          CFI (cfiCond314) Conditional ??CrossCallReturnLabel_117
          CFI (cfiCond314) CFA_SP SP+4
          CFI Block cfiCond315 Using cfiCommon0
          CFI (cfiCond315) Function main_logic
          CFI (cfiCond315) Conditional ??CrossCallReturnLabel_116
          CFI (cfiCond315) CFA_SP SP+4
          CFI Block cfiCond316 Using cfiCommon0
          CFI (cfiCond316) Function main_logic
          CFI (cfiCond316) Conditional ??CrossCallReturnLabel_115
          CFI (cfiCond316) CFA_SP SP+4
          CFI Block cfiCond317 Using cfiCommon0
          CFI (cfiCond317) Function main_logic
          CFI (cfiCond317) Conditional ??CrossCallReturnLabel_114
          CFI (cfiCond317) CFA_SP SP+4
          CFI Block cfiPicker318 Using cfiCommon2
          CFI (cfiPicker318) NoFunction
          CFI (cfiPicker318) Picker
        STS     ??sel, R16
        RJMP    pult
          CFI EndBlock cfiCond312
          CFI EndBlock cfiCond313
          CFI EndBlock cfiCond314
          CFI EndBlock cfiCond315
          CFI EndBlock cfiCond316
          CFI EndBlock cfiCond317
          CFI EndBlock cfiPicker318

        RSEG CODE:CODE:NOROOT(1)
?Subroutine69:
          CFI Block cfiCond319 Using cfiCommon0
          CFI Function main_power
          CFI Conditional ??CrossCallReturnLabel_95
          CFI CFA_SP SP+4
          CFI Block cfiCond320 Using cfiCommon0
          CFI (cfiCond320) Function main_power
          CFI (cfiCond320) Conditional ??CrossCallReturnLabel_96
          CFI (cfiCond320) CFA_SP SP+4
          CFI Block cfiCond321 Using cfiCommon0
          CFI (cfiCond321) Function main_logic
          CFI (cfiCond321) Conditional ??CrossCallReturnLabel_97
          CFI (cfiCond321) CFA_SP SP+4
          CFI Block cfiCond322 Using cfiCommon0
          CFI (cfiCond322) Function main_logic
          CFI (cfiCond322) Conditional ??CrossCallReturnLabel_98
          CFI (cfiCond322) CFA_SP SP+4
          CFI Block cfiCond323 Using cfiCommon0
          CFI (cfiCond323) Function main_logic
          CFI (cfiCond323) Conditional ??CrossCallReturnLabel_99
          CFI (cfiCond323) CFA_SP SP+4
          CFI Block cfiCond324 Using cfiCommon0
          CFI (cfiCond324) Function main_logic
          CFI (cfiCond324) Conditional ??CrossCallReturnLabel_100
          CFI (cfiCond324) CFA_SP SP+4
          CFI Block cfiCond325 Using cfiCommon0
          CFI (cfiCond325) Function main_logic
          CFI (cfiCond325) Conditional ??CrossCallReturnLabel_101
          CFI (cfiCond325) CFA_SP SP+4
          CFI Block cfiCond326 Using cfiCommon0
          CFI (cfiCond326) Function main_logic
          CFI (cfiCond326) Conditional ??CrossCallReturnLabel_102
          CFI (cfiCond326) CFA_SP SP+4
          CFI Block cfiCond327 Using cfiCommon0
          CFI (cfiCond327) Function main_logic
          CFI (cfiCond327) Conditional ??CrossCallReturnLabel_103
          CFI (cfiCond327) CFA_SP SP+4
          CFI Block cfiCond328 Using cfiCommon0
          CFI (cfiCond328) Function main_logic
          CFI (cfiCond328) Conditional ??CrossCallReturnLabel_104
          CFI (cfiCond328) CFA_SP SP+4
          CFI Block cfiCond329 Using cfiCommon0
          CFI (cfiCond329) Function main_logic
          CFI (cfiCond329) Conditional ??CrossCallReturnLabel_105
          CFI (cfiCond329) CFA_SP SP+4
          CFI Block cfiCond330 Using cfiCommon0
          CFI (cfiCond330) Function main_logic
          CFI (cfiCond330) Conditional ??CrossCallReturnLabel_106
          CFI (cfiCond330) CFA_SP SP+4
          CFI Block cfiCond331 Using cfiCommon0
          CFI (cfiCond331) Function main_logic
          CFI (cfiCond331) Conditional ??CrossCallReturnLabel_107
          CFI (cfiCond331) CFA_SP SP+4
          CFI Block cfiCond332 Using cfiCommon0
          CFI (cfiCond332) Function main_logic
          CFI (cfiCond332) Conditional ??CrossCallReturnLabel_108
          CFI (cfiCond332) CFA_SP SP+4
          CFI Block cfiCond333 Using cfiCommon0
          CFI (cfiCond333) Function main_logic
          CFI (cfiCond333) Conditional ??CrossCallReturnLabel_109
          CFI (cfiCond333) CFA_SP SP+4
          CFI Block cfiCond334 Using cfiCommon0
          CFI (cfiCond334) Function main_logic
          CFI (cfiCond334) Conditional ??CrossCallReturnLabel_110
          CFI (cfiCond334) CFA_SP SP+4
          CFI Block cfiPicker335 Using cfiCommon2
          CFI (cfiPicker335) NoFunction
          CFI (cfiPicker335) Picker
        LDS     R16, pultadr
        RET
          CFI EndBlock cfiCond319
          CFI EndBlock cfiCond320
          CFI EndBlock cfiCond321
          CFI EndBlock cfiCond322
          CFI EndBlock cfiCond323
          CFI EndBlock cfiCond324
          CFI EndBlock cfiCond325
          CFI EndBlock cfiCond326
          CFI EndBlock cfiCond327
          CFI EndBlock cfiCond328
          CFI EndBlock cfiCond329
          CFI EndBlock cfiCond330
          CFI EndBlock cfiCond331
          CFI EndBlock cfiCond332
          CFI EndBlock cfiCond333
          CFI EndBlock cfiCond334
          CFI EndBlock cfiPicker335

        RSEG CODE:CODE:NOROOT(1)
?Subroutine68:
          CFI Block cfiCond336 Using cfiCommon0
          CFI Function main_logic
          CFI Conditional ??CrossCallReturnLabel_90
          CFI CFA_SP SP+4
          CFI Block cfiCond337 Using cfiCommon0
          CFI (cfiCond337) Function main_logic
          CFI (cfiCond337) Conditional ??CrossCallReturnLabel_91
          CFI (cfiCond337) CFA_SP SP+4
          CFI Block cfiCond338 Using cfiCommon0
          CFI (cfiCond338) Function main_logic
          CFI (cfiCond338) Conditional ??CrossCallReturnLabel_92
          CFI (cfiCond338) CFA_SP SP+4
          CFI Block cfiCond339 Using cfiCommon0
          CFI (cfiCond339) Function main_logic
          CFI (cfiCond339) Conditional ??CrossCallReturnLabel_93
          CFI (cfiCond339) CFA_SP SP+4
          CFI Block cfiCond340 Using cfiCommon0
          CFI (cfiCond340) Function main_logic
          CFI (cfiCond340) Conditional ??CrossCallReturnLabel_94
          CFI (cfiCond340) CFA_SP SP+4
          CFI Block cfiPicker341 Using cfiCommon2
          CFI (cfiPicker341) NoFunction
          CFI (cfiPicker341) Picker
        CBI     0x12, 0x06
        LDS     R16, ??sel
        STS     ??lastsel, R16
        RET
          CFI EndBlock cfiCond336
          CFI EndBlock cfiCond337
          CFI EndBlock cfiCond338
          CFI EndBlock cfiCond339
          CFI EndBlock cfiCond340
          CFI EndBlock cfiPicker341

        RSEG CODE:CODE:NOROOT(1)
?Subroutine60:
          CFI Block cfiCond342 Using cfiCommon0
          CFI Function coding
          CFI Conditional ??CrossCallReturnLabel_83
          CFI R24 Frame(CFA_Y, -10)
          CFI R25 Frame(CFA_Y, -9)
          CFI R26 Frame(CFA_Y, -8)
          CFI R27 Frame(CFA_Y, -7)
          CFI R4 Frame(CFA_Y, -6)
          CFI R5 Frame(CFA_Y, -5)
          CFI R6 Frame(CFA_Y, -4)
          CFI R7 Frame(CFA_Y, -3)
          CFI R8 Frame(CFA_Y, -2)
          CFI R9 Frame(CFA_Y, -1)
          CFI CFA_SP SP+4
          CFI CFA_Y Y+10
          CFI Block cfiCond343 Using cfiCommon0
          CFI (cfiCond343) Function coding
          CFI (cfiCond343) Conditional ??CrossCallReturnLabel_84
          CFI (cfiCond343) R24 Frame(CFA_Y, -10)
          CFI (cfiCond343) R25 Frame(CFA_Y, -9)
          CFI (cfiCond343) R26 Frame(CFA_Y, -8)
          CFI (cfiCond343) R27 Frame(CFA_Y, -7)
          CFI (cfiCond343) R4 Frame(CFA_Y, -6)
          CFI (cfiCond343) R5 Frame(CFA_Y, -5)
          CFI (cfiCond343) R6 Frame(CFA_Y, -4)
          CFI (cfiCond343) R7 Frame(CFA_Y, -3)
          CFI (cfiCond343) R8 Frame(CFA_Y, -2)
          CFI (cfiCond343) R9 Frame(CFA_Y, -1)
          CFI (cfiCond343) CFA_SP SP+4
          CFI (cfiCond343) CFA_Y Y+10
          CFI Block cfiCond344 Using cfiCommon0
          CFI (cfiCond344) Function coding
          CFI (cfiCond344) Conditional ??CrossCallReturnLabel_85
          CFI (cfiCond344) R24 Frame(CFA_Y, -10)
          CFI (cfiCond344) R25 Frame(CFA_Y, -9)
          CFI (cfiCond344) R26 Frame(CFA_Y, -8)
          CFI (cfiCond344) R27 Frame(CFA_Y, -7)
          CFI (cfiCond344) R4 Frame(CFA_Y, -6)
          CFI (cfiCond344) R5 Frame(CFA_Y, -5)
          CFI (cfiCond344) R6 Frame(CFA_Y, -4)
          CFI (cfiCond344) R7 Frame(CFA_Y, -3)
          CFI (cfiCond344) R8 Frame(CFA_Y, -2)
          CFI (cfiCond344) R9 Frame(CFA_Y, -1)
          CFI (cfiCond344) CFA_SP SP+4
          CFI (cfiCond344) CFA_Y Y+10
          CFI Block cfiCond345 Using cfiCommon0
          CFI (cfiCond345) Function main_logic
          CFI (cfiCond345) Conditional ??CrossCallReturnLabel_86
          CFI (cfiCond345) CFA_SP SP+4
          CFI Block cfiPicker346 Using cfiCommon2
          CFI (cfiPicker346) NoFunction
          CFI (cfiPicker346) Picker
        LD      R18, Z
        LDD     R19, Z+1
        RET
          CFI EndBlock cfiCond342
          CFI EndBlock cfiCond343
          CFI EndBlock cfiCond344
          CFI EndBlock cfiCond345
          CFI EndBlock cfiPicker346

        RSEG CODE:CODE:NOROOT(1)
?Subroutine46:
          CFI Block cfiCond347 Using cfiCommon0
          CFI Function main_logic
          CFI Conditional ??CrossCallReturnLabel_49
          CFI CFA_SP SP+4
          CFI Block cfiCond348 Using cfiCommon0
          CFI (cfiCond348) Function main_logic
          CFI (cfiCond348) Conditional ??CrossCallReturnLabel_50
          CFI (cfiCond348) CFA_SP SP+4
          CFI Block cfiCond349 Using cfiCommon0
          CFI (cfiCond349) Function main_logic
          CFI (cfiCond349) Conditional ??CrossCallReturnLabel_51
          CFI (cfiCond349) CFA_SP SP+4
          CFI Block cfiCond350 Using cfiCommon0
          CFI (cfiCond350) Function main_logic
          CFI (cfiCond350) Conditional ??CrossCallReturnLabel_52
          CFI (cfiCond350) CFA_SP SP+4
          CFI Block cfiCond351 Using cfiCommon0
          CFI (cfiCond351) Function main_logic
          CFI (cfiCond351) Conditional ??CrossCallReturnLabel_53
          CFI (cfiCond351) CFA_SP SP+4
          CFI Block cfiPicker352 Using cfiCommon2
          CFI (cfiPicker352) NoFunction
          CFI (cfiPicker352) Picker
        LDI     R18, 0
        LDI     R17, 3
        RET
          CFI EndBlock cfiCond347
          CFI EndBlock cfiCond348
          CFI EndBlock cfiCond349
          CFI EndBlock cfiCond350
          CFI EndBlock cfiCond351
          CFI EndBlock cfiPicker352

        RSEG CODE:CODE:NOROOT(1)
?Subroutine95:
          CFI Block cfiCond353 Using cfiCommon0
          CFI Function PEREP
          CFI Conditional ??CrossCallReturnLabel_176, ??CrossCallReturnLabel_35
          CFI R24 Frame(CFA_Y, -8)
          CFI R25 Frame(CFA_Y, -7)
          CFI R26 Frame(CFA_Y, -6)
          CFI R27 Frame(CFA_Y, -5)
          CFI R4 Frame(CFA_Y, -4)
          CFI R5 Frame(CFA_Y, -3)
          CFI R6 Frame(CFA_Y, -2)
          CFI R7 Frame(CFA_Y, -1)
          CFI CFA_SP SP+6
          CFI CFA_Y Y+8
          CFI Block cfiCond354 Using cfiCommon0
          CFI (cfiCond354) Function PEREP
          CFI (cfiCond354) Conditional ??CrossCallReturnLabel_176, ??CrossCallReturnLabel_36
          CFI (cfiCond354) R24 Frame(CFA_Y, -8)
          CFI (cfiCond354) R25 Frame(CFA_Y, -7)
          CFI (cfiCond354) R26 Frame(CFA_Y, -6)
          CFI (cfiCond354) R27 Frame(CFA_Y, -5)
          CFI (cfiCond354) R4 Frame(CFA_Y, -4)
          CFI (cfiCond354) R5 Frame(CFA_Y, -3)
          CFI (cfiCond354) R6 Frame(CFA_Y, -2)
          CFI (cfiCond354) R7 Frame(CFA_Y, -1)
          CFI (cfiCond354) CFA_SP SP+6
          CFI (cfiCond354) CFA_Y Y+8
          CFI Block cfiCond355 Using cfiCommon0
          CFI (cfiCond355) Function coding
          CFI (cfiCond355) Conditional ??CrossCallReturnLabel_178, ??CrossCallReturnLabel_191
          CFI (cfiCond355) R24 Frame(CFA_Y, -10)
          CFI (cfiCond355) R25 Frame(CFA_Y, -9)
          CFI (cfiCond355) R26 Frame(CFA_Y, -8)
          CFI (cfiCond355) R27 Frame(CFA_Y, -7)
          CFI (cfiCond355) R4 Frame(CFA_Y, -6)
          CFI (cfiCond355) R5 Frame(CFA_Y, -5)
          CFI (cfiCond355) R6 Frame(CFA_Y, -4)
          CFI (cfiCond355) R7 Frame(CFA_Y, -3)
          CFI (cfiCond355) R8 Frame(CFA_Y, -2)
          CFI (cfiCond355) R9 Frame(CFA_Y, -1)
          CFI (cfiCond355) CFA_SP SP+6
          CFI (cfiCond355) CFA_Y Y+10
          CFI Block cfiCond356 Using cfiCommon0
          CFI (cfiCond356) Function coding
          CFI (cfiCond356) Conditional ??CrossCallReturnLabel_178, ??CrossCallReturnLabel_192
          CFI (cfiCond356) R24 Frame(CFA_Y, -10)
          CFI (cfiCond356) R25 Frame(CFA_Y, -9)
          CFI (cfiCond356) R26 Frame(CFA_Y, -8)
          CFI (cfiCond356) R27 Frame(CFA_Y, -7)
          CFI (cfiCond356) R4 Frame(CFA_Y, -6)
          CFI (cfiCond356) R5 Frame(CFA_Y, -5)
          CFI (cfiCond356) R6 Frame(CFA_Y, -4)
          CFI (cfiCond356) R7 Frame(CFA_Y, -3)
          CFI (cfiCond356) R8 Frame(CFA_Y, -2)
          CFI (cfiCond356) R9 Frame(CFA_Y, -1)
          CFI (cfiCond356) CFA_SP SP+6
          CFI (cfiCond356) CFA_Y Y+10
          CFI Block cfiCond357 Using cfiCommon0
          CFI (cfiCond357) Function coding
          CFI (cfiCond357) Conditional ??CrossCallReturnLabel_177, ??CrossCallReturnLabel_323
          CFI (cfiCond357) R24 Frame(CFA_Y, -10)
          CFI (cfiCond357) R25 Frame(CFA_Y, -9)
          CFI (cfiCond357) R26 Frame(CFA_Y, -8)
          CFI (cfiCond357) R27 Frame(CFA_Y, -7)
          CFI (cfiCond357) R4 Frame(CFA_Y, -6)
          CFI (cfiCond357) R5 Frame(CFA_Y, -5)
          CFI (cfiCond357) R6 Frame(CFA_Y, -4)
          CFI (cfiCond357) R7 Frame(CFA_Y, -3)
          CFI (cfiCond357) R8 Frame(CFA_Y, -2)
          CFI (cfiCond357) R9 Frame(CFA_Y, -1)
          CFI (cfiCond357) CFA_SP SP+6
          CFI (cfiCond357) CFA_Y Y+10
          CFI Block cfiCond358 Using cfiCommon0
          CFI (cfiCond358) Function coding
          CFI (cfiCond358) Conditional ??CrossCallReturnLabel_177, ??CrossCallReturnLabel_324
          CFI (cfiCond358) R24 Frame(CFA_Y, -10)
          CFI (cfiCond358) R25 Frame(CFA_Y, -9)
          CFI (cfiCond358) R26 Frame(CFA_Y, -8)
          CFI (cfiCond358) R27 Frame(CFA_Y, -7)
          CFI (cfiCond358) R4 Frame(CFA_Y, -6)
          CFI (cfiCond358) R5 Frame(CFA_Y, -5)
          CFI (cfiCond358) R6 Frame(CFA_Y, -4)
          CFI (cfiCond358) R7 Frame(CFA_Y, -3)
          CFI (cfiCond358) R8 Frame(CFA_Y, -2)
          CFI (cfiCond358) R9 Frame(CFA_Y, -1)
          CFI (cfiCond358) CFA_SP SP+6
          CFI (cfiCond358) CFA_Y Y+10
          CFI Block cfiCond359 Using cfiCommon0
          CFI (cfiCond359) Function coding
          CFI (cfiCond359) Conditional ??CrossCallReturnLabel_177, ??CrossCallReturnLabel_325
          CFI (cfiCond359) R24 Frame(CFA_Y, -10)
          CFI (cfiCond359) R25 Frame(CFA_Y, -9)
          CFI (cfiCond359) R26 Frame(CFA_Y, -8)
          CFI (cfiCond359) R27 Frame(CFA_Y, -7)
          CFI (cfiCond359) R4 Frame(CFA_Y, -6)
          CFI (cfiCond359) R5 Frame(CFA_Y, -5)
          CFI (cfiCond359) R6 Frame(CFA_Y, -4)
          CFI (cfiCond359) R7 Frame(CFA_Y, -3)
          CFI (cfiCond359) R8 Frame(CFA_Y, -2)
          CFI (cfiCond359) R9 Frame(CFA_Y, -1)
          CFI (cfiCond359) CFA_SP SP+6
          CFI (cfiCond359) CFA_Y Y+10
          CFI Block cfiCond360 Using cfiCommon0
          CFI (cfiCond360) Function coding
          CFI (cfiCond360) Conditional ??CrossCallReturnLabel_169
          CFI (cfiCond360) R24 Frame(CFA_Y, -10)
          CFI (cfiCond360) R25 Frame(CFA_Y, -9)
          CFI (cfiCond360) R26 Frame(CFA_Y, -8)
          CFI (cfiCond360) R27 Frame(CFA_Y, -7)
          CFI (cfiCond360) R4 Frame(CFA_Y, -6)
          CFI (cfiCond360) R5 Frame(CFA_Y, -5)
          CFI (cfiCond360) R6 Frame(CFA_Y, -4)
          CFI (cfiCond360) R7 Frame(CFA_Y, -3)
          CFI (cfiCond360) R8 Frame(CFA_Y, -2)
          CFI (cfiCond360) R9 Frame(CFA_Y, -1)
          CFI (cfiCond360) CFA_SP SP+4
          CFI (cfiCond360) CFA_Y Y+10
          CFI Block cfiCond361 Using cfiCommon0
          CFI (cfiCond361) Function coding
          CFI (cfiCond361) Conditional ??CrossCallReturnLabel_170
          CFI (cfiCond361) R24 Frame(CFA_Y, -10)
          CFI (cfiCond361) R25 Frame(CFA_Y, -9)
          CFI (cfiCond361) R26 Frame(CFA_Y, -8)
          CFI (cfiCond361) R27 Frame(CFA_Y, -7)
          CFI (cfiCond361) R4 Frame(CFA_Y, -6)
          CFI (cfiCond361) R5 Frame(CFA_Y, -5)
          CFI (cfiCond361) R6 Frame(CFA_Y, -4)
          CFI (cfiCond361) R7 Frame(CFA_Y, -3)
          CFI (cfiCond361) R8 Frame(CFA_Y, -2)
          CFI (cfiCond361) R9 Frame(CFA_Y, -1)
          CFI (cfiCond361) CFA_SP SP+4
          CFI (cfiCond361) CFA_Y Y+10
          CFI Block cfiCond362 Using cfiCommon0
          CFI (cfiCond362) Function main_logic
          CFI (cfiCond362) Conditional ??CrossCallReturnLabel_171
          CFI (cfiCond362) CFA_SP SP+4
          CFI Block cfiCond363 Using cfiCommon0
          CFI (cfiCond363) Function main_logic
          CFI (cfiCond363) Conditional ??CrossCallReturnLabel_172
          CFI (cfiCond363) CFA_SP SP+4
          CFI Block cfiCond364 Using cfiCommon0
          CFI (cfiCond364) Function writeCOD
          CFI (cfiCond364) Conditional ??CrossCallReturnLabel_173
          CFI (cfiCond364) R24 Frame(CFA_Y, -1)
          CFI (cfiCond364) CFA_SP SP+4
          CFI (cfiCond364) CFA_Y Y+1
          CFI Block cfiCond365 Using cfiCommon0
          CFI (cfiCond365) Function writeCOD
          CFI (cfiCond365) Conditional ??CrossCallReturnLabel_174
          CFI (cfiCond365) R24 Frame(CFA_Y, -1)
          CFI (cfiCond365) CFA_SP SP+4
          CFI (cfiCond365) CFA_Y Y+1
          CFI Block cfiCond366 Using cfiCommon0
          CFI (cfiCond366) Function writeCOD
          CFI (cfiCond366) Conditional ??CrossCallReturnLabel_175
          CFI (cfiCond366) R24 Frame(CFA_Y, -1)
          CFI (cfiCond366) CFA_SP SP+4
          CFI (cfiCond366) CFA_Y Y+1
          CFI Block cfiPicker367 Using cfiCommon2
          CFI (cfiPicker367) NoFunction
          CFI (cfiPicker367) Picker
        LD      R16, Z
        LDD     R17, Z+1
        RET
          CFI EndBlock cfiCond353
          CFI EndBlock cfiCond354
          CFI EndBlock cfiCond355
          CFI EndBlock cfiCond356
          CFI EndBlock cfiCond357
          CFI EndBlock cfiCond358
          CFI EndBlock cfiCond359
          CFI EndBlock cfiCond360
          CFI EndBlock cfiCond361
          CFI EndBlock cfiCond362
          CFI EndBlock cfiCond363
          CFI EndBlock cfiCond364
          CFI EndBlock cfiCond365
          CFI EndBlock cfiCond366
          CFI EndBlock cfiPicker367

        RSEG CODE:CODE:NOROOT(1)
?Subroutine89:
          CFI Block cfiCond368 Using cfiCommon0
          CFI Function PEREP
          CFI Conditional ??CrossCallReturnLabel_155, ??CrossCallReturnLabel_14
          CFI R24 Frame(CFA_Y, -8)
          CFI R25 Frame(CFA_Y, -7)
          CFI R26 Frame(CFA_Y, -6)
          CFI R27 Frame(CFA_Y, -5)
          CFI R4 Frame(CFA_Y, -4)
          CFI R5 Frame(CFA_Y, -3)
          CFI R6 Frame(CFA_Y, -2)
          CFI R7 Frame(CFA_Y, -1)
          CFI CFA_SP SP+6
          CFI CFA_Y Y+8
          CFI Block cfiCond369 Using cfiCommon0
          CFI (cfiCond369) Function main
          CFI (cfiCond369) Conditional ??CrossCallReturnLabel_155, ??CrossCallReturnLabel_13
          CFI (cfiCond369) R24 Frame(CFA_Y, -1)
          CFI (cfiCond369) CFA_SP SP+6
          CFI (cfiCond369) CFA_Y Y+1
          CFI Block cfiCond370 Using cfiCommon0
          CFI (cfiCond370) Function PEREP
          CFI (cfiCond370) Conditional ??CrossCallReturnLabel_156, ??CrossCallReturnLabel_14
          CFI (cfiCond370) R24 Frame(CFA_Y, -8)
          CFI (cfiCond370) R25 Frame(CFA_Y, -7)
          CFI (cfiCond370) R26 Frame(CFA_Y, -6)
          CFI (cfiCond370) R27 Frame(CFA_Y, -5)
          CFI (cfiCond370) R4 Frame(CFA_Y, -4)
          CFI (cfiCond370) R5 Frame(CFA_Y, -3)
          CFI (cfiCond370) R6 Frame(CFA_Y, -2)
          CFI (cfiCond370) R7 Frame(CFA_Y, -1)
          CFI (cfiCond370) CFA_SP SP+6
          CFI (cfiCond370) CFA_Y Y+8
          CFI Block cfiCond371 Using cfiCommon0
          CFI (cfiCond371) Function main
          CFI (cfiCond371) Conditional ??CrossCallReturnLabel_156, ??CrossCallReturnLabel_13
          CFI (cfiCond371) R24 Frame(CFA_Y, -1)
          CFI (cfiCond371) CFA_SP SP+6
          CFI (cfiCond371) CFA_Y Y+1
          CFI Block cfiCond372 Using cfiCommon0
          CFI (cfiCond372) Function PEREP
          CFI (cfiCond372) Conditional ??CrossCallReturnLabel_14
          CFI (cfiCond372) R24 Frame(CFA_Y, -8)
          CFI (cfiCond372) R25 Frame(CFA_Y, -7)
          CFI (cfiCond372) R26 Frame(CFA_Y, -6)
          CFI (cfiCond372) R27 Frame(CFA_Y, -5)
          CFI (cfiCond372) R4 Frame(CFA_Y, -4)
          CFI (cfiCond372) R5 Frame(CFA_Y, -3)
          CFI (cfiCond372) R6 Frame(CFA_Y, -2)
          CFI (cfiCond372) R7 Frame(CFA_Y, -1)
          CFI (cfiCond372) CFA_SP SP+4
          CFI (cfiCond372) CFA_Y Y+8
          CFI Block cfiCond373 Using cfiCommon0
          CFI (cfiCond373) Function main
          CFI (cfiCond373) Conditional ??CrossCallReturnLabel_13
          CFI (cfiCond373) R24 Frame(CFA_Y, -1)
          CFI (cfiCond373) CFA_SP SP+4
          CFI (cfiCond373) CFA_Y Y+1
          CFI Block cfiCond374 Using cfiCommon0
          CFI (cfiCond374) Function main_power
          CFI (cfiCond374) Conditional ??CrossCallReturnLabel_154, ??CrossCallReturnLabel_9
          CFI (cfiCond374) CFA_SP SP+6
          CFI Block cfiCond375 Using cfiCommon0
          CFI (cfiCond375) Function pult
          CFI (cfiCond375) Conditional ??CrossCallReturnLabel_154, ??CrossCallReturnLabel_8
          CFI (cfiCond375) CFA_SP SP+6
          CFI Block cfiCond376 Using cfiCommon0
          CFI (cfiCond376) Function PEREP
          CFI (cfiCond376) Conditional ??CrossCallReturnLabel_149
          CFI (cfiCond376) R24 Frame(CFA_Y, -8)
          CFI (cfiCond376) R25 Frame(CFA_Y, -7)
          CFI (cfiCond376) R26 Frame(CFA_Y, -6)
          CFI (cfiCond376) R27 Frame(CFA_Y, -5)
          CFI (cfiCond376) R4 Frame(CFA_Y, -4)
          CFI (cfiCond376) R5 Frame(CFA_Y, -3)
          CFI (cfiCond376) R6 Frame(CFA_Y, -2)
          CFI (cfiCond376) R7 Frame(CFA_Y, -1)
          CFI (cfiCond376) CFA_SP SP+4
          CFI (cfiCond376) CFA_Y Y+8
          CFI Block cfiCond377 Using cfiCommon0
          CFI (cfiCond377) Function PEREP
          CFI (cfiCond377) Conditional ??CrossCallReturnLabel_150
          CFI (cfiCond377) R24 Frame(CFA_Y, -8)
          CFI (cfiCond377) R25 Frame(CFA_Y, -7)
          CFI (cfiCond377) R26 Frame(CFA_Y, -6)
          CFI (cfiCond377) R27 Frame(CFA_Y, -5)
          CFI (cfiCond377) R4 Frame(CFA_Y, -4)
          CFI (cfiCond377) R5 Frame(CFA_Y, -3)
          CFI (cfiCond377) R6 Frame(CFA_Y, -2)
          CFI (cfiCond377) R7 Frame(CFA_Y, -1)
          CFI (cfiCond377) CFA_SP SP+4
          CFI (cfiCond377) CFA_Y Y+8
          CFI Block cfiCond378 Using cfiCommon0
          CFI (cfiCond378) Function PEREP
          CFI (cfiCond378) Conditional ??CrossCallReturnLabel_151
          CFI (cfiCond378) R24 Frame(CFA_Y, -8)
          CFI (cfiCond378) R25 Frame(CFA_Y, -7)
          CFI (cfiCond378) R26 Frame(CFA_Y, -6)
          CFI (cfiCond378) R27 Frame(CFA_Y, -5)
          CFI (cfiCond378) R4 Frame(CFA_Y, -4)
          CFI (cfiCond378) R5 Frame(CFA_Y, -3)
          CFI (cfiCond378) R6 Frame(CFA_Y, -2)
          CFI (cfiCond378) R7 Frame(CFA_Y, -1)
          CFI (cfiCond378) CFA_SP SP+4
          CFI (cfiCond378) CFA_Y Y+8
          CFI Block cfiCond379 Using cfiCommon0
          CFI (cfiCond379) Function PEREP
          CFI (cfiCond379) Conditional ??CrossCallReturnLabel_152
          CFI (cfiCond379) R24 Frame(CFA_Y, -8)
          CFI (cfiCond379) R25 Frame(CFA_Y, -7)
          CFI (cfiCond379) R26 Frame(CFA_Y, -6)
          CFI (cfiCond379) R27 Frame(CFA_Y, -5)
          CFI (cfiCond379) R4 Frame(CFA_Y, -4)
          CFI (cfiCond379) R5 Frame(CFA_Y, -3)
          CFI (cfiCond379) R6 Frame(CFA_Y, -2)
          CFI (cfiCond379) R7 Frame(CFA_Y, -1)
          CFI (cfiCond379) CFA_SP SP+4
          CFI (cfiCond379) CFA_Y Y+8
          CFI Block cfiCond380 Using cfiCommon0
          CFI (cfiCond380) Function main_logic
          CFI (cfiCond380) Conditional ??CrossCallReturnLabel_153
          CFI (cfiCond380) CFA_SP SP+4
          CFI Block cfiPicker381 Using cfiCommon2
          CFI (cfiPicker381) NoFunction
          CFI (cfiPicker381) Picker
        ST      Z, R16
        STD     Z+1, R16
        RET
          CFI EndBlock cfiCond368
          CFI EndBlock cfiCond369
          CFI EndBlock cfiCond370
          CFI EndBlock cfiCond371
          CFI EndBlock cfiCond372
          CFI EndBlock cfiCond373
          CFI EndBlock cfiCond374
          CFI EndBlock cfiCond375
          CFI EndBlock cfiCond376
          CFI EndBlock cfiCond377
          CFI EndBlock cfiCond378
          CFI EndBlock cfiCond379
          CFI EndBlock cfiCond380
          CFI EndBlock cfiPicker381

        RSEG CODE:CODE:NOROOT(1)
?Subroutine19:
          CFI Block cfiCond382 Using cfiCommon0
          CFI Function PEREP
          CFI Conditional ??CrossCallReturnLabel_294
          CFI R24 Frame(CFA_Y, -8)
          CFI R25 Frame(CFA_Y, -7)
          CFI R26 Frame(CFA_Y, -6)
          CFI R27 Frame(CFA_Y, -5)
          CFI R4 Frame(CFA_Y, -4)
          CFI R5 Frame(CFA_Y, -3)
          CFI R6 Frame(CFA_Y, -2)
          CFI R7 Frame(CFA_Y, -1)
          CFI CFA_SP SP+4
          CFI CFA_Y Y+8
          CFI Block cfiCond383 Using cfiCommon0
          CFI (cfiCond383) Function main_logic
          CFI (cfiCond383) Conditional ??CrossCallReturnLabel_293
          CFI (cfiCond383) CFA_SP SP+4
          CFI Block cfiPicker384 Using cfiCommon2
          CFI (cfiPicker384) NoFunction
          CFI (cfiPicker384) Picker
        RCALL   ?Subroutine86
??CrossCallReturnLabel_292:
        RJMP    ?Subroutine124
          CFI EndBlock cfiCond382
          CFI EndBlock cfiCond383
          CFI EndBlock cfiPicker384

        RSEG CODE:CODE:NOROOT(1)
?Subroutine86:
          CFI Block cfiCond385 Using cfiCommon0
          CFI Function main_power
          CFI Conditional ??CrossCallReturnLabel_291, ??CrossCallReturnLabel_27
          CFI CFA_SP SP+6
          CFI Block cfiCond386 Using cfiCommon0
          CFI (cfiCond386) Function main_power
          CFI (cfiCond386) Conditional ??CrossCallReturnLabel_291, ??CrossCallReturnLabel_28
          CFI (cfiCond386) CFA_SP SP+6
          CFI Block cfiCond387 Using cfiCommon0
          CFI (cfiCond387) Function PEREP
          CFI (cfiCond387) Conditional ??CrossCallReturnLabel_292, ??CrossCallReturnLabel_294
          CFI (cfiCond387) R24 Frame(CFA_Y, -8)
          CFI (cfiCond387) R25 Frame(CFA_Y, -7)
          CFI (cfiCond387) R26 Frame(CFA_Y, -6)
          CFI (cfiCond387) R27 Frame(CFA_Y, -5)
          CFI (cfiCond387) R4 Frame(CFA_Y, -4)
          CFI (cfiCond387) R5 Frame(CFA_Y, -3)
          CFI (cfiCond387) R6 Frame(CFA_Y, -2)
          CFI (cfiCond387) R7 Frame(CFA_Y, -1)
          CFI (cfiCond387) CFA_SP SP+6
          CFI (cfiCond387) CFA_Y Y+8
          CFI Block cfiCond388 Using cfiCommon0
          CFI (cfiCond388) Function main_logic
          CFI (cfiCond388) Conditional ??CrossCallReturnLabel_292, ??CrossCallReturnLabel_293
          CFI (cfiCond388) CFA_SP SP+6
          CFI Block cfiPicker389 Using cfiCommon2
          CFI (cfiPicker389) NoFunction
          CFI (cfiPicker389) Picker
        LDI     R17, 0
          CFI EndBlock cfiCond385
          CFI EndBlock cfiCond386
          CFI EndBlock cfiCond387
          CFI EndBlock cfiCond388
          CFI EndBlock cfiPicker389
        REQUIRE ?Subroutine112
        ;               // Fall through to label ?Subroutine112

        RSEG CODE:CODE:NOROOT(1)
?Subroutine112:
          CFI Block cfiCond390 Using cfiCommon0
          CFI Function PEREP
          CFI Conditional ??CrossCallReturnLabel_286, ??CrossCallReturnLabel_187
          CFI R24 Frame(CFA_Y, -8)
          CFI R25 Frame(CFA_Y, -7)
          CFI R26 Frame(CFA_Y, -6)
          CFI R27 Frame(CFA_Y, -5)
          CFI R4 Frame(CFA_Y, -4)
          CFI R5 Frame(CFA_Y, -3)
          CFI R6 Frame(CFA_Y, -2)
          CFI R7 Frame(CFA_Y, -1)
          CFI CFA_SP SP+6
          CFI CFA_Y Y+8
          CFI Block cfiCond391 Using cfiCommon0
          CFI (cfiCond391) Function PEREP
          CFI (cfiCond391) Conditional ??CrossCallReturnLabel_286, ??CrossCallReturnLabel_188
          CFI (cfiCond391) R24 Frame(CFA_Y, -8)
          CFI (cfiCond391) R25 Frame(CFA_Y, -7)
          CFI (cfiCond391) R26 Frame(CFA_Y, -6)
          CFI (cfiCond391) R27 Frame(CFA_Y, -5)
          CFI (cfiCond391) R4 Frame(CFA_Y, -4)
          CFI (cfiCond391) R5 Frame(CFA_Y, -3)
          CFI (cfiCond391) R6 Frame(CFA_Y, -2)
          CFI (cfiCond391) R7 Frame(CFA_Y, -1)
          CFI (cfiCond391) CFA_SP SP+6
          CFI (cfiCond391) CFA_Y Y+8
          CFI Block cfiCond392 Using cfiCommon0
          CFI (cfiCond392) Function PEREP
          CFI (cfiCond392) Conditional ??CrossCallReturnLabel_287, ??CrossCallReturnLabel_300
          CFI (cfiCond392) R24 Frame(CFA_Y, -8)
          CFI (cfiCond392) R25 Frame(CFA_Y, -7)
          CFI (cfiCond392) R26 Frame(CFA_Y, -6)
          CFI (cfiCond392) R27 Frame(CFA_Y, -5)
          CFI (cfiCond392) R4 Frame(CFA_Y, -4)
          CFI (cfiCond392) R5 Frame(CFA_Y, -3)
          CFI (cfiCond392) R6 Frame(CFA_Y, -2)
          CFI (cfiCond392) R7 Frame(CFA_Y, -1)
          CFI (cfiCond392) CFA_SP SP+6
          CFI (cfiCond392) CFA_Y Y+8
          CFI Block cfiCond393 Using cfiCommon0
          CFI (cfiCond393) Function coding
          CFI (cfiCond393) Conditional ??CrossCallReturnLabel_287, ??CrossCallReturnLabel_299
          CFI (cfiCond393) R24 Frame(CFA_Y, -10)
          CFI (cfiCond393) R25 Frame(CFA_Y, -9)
          CFI (cfiCond393) R26 Frame(CFA_Y, -8)
          CFI (cfiCond393) R27 Frame(CFA_Y, -7)
          CFI (cfiCond393) R4 Frame(CFA_Y, -6)
          CFI (cfiCond393) R5 Frame(CFA_Y, -5)
          CFI (cfiCond393) R6 Frame(CFA_Y, -4)
          CFI (cfiCond393) R7 Frame(CFA_Y, -3)
          CFI (cfiCond393) R8 Frame(CFA_Y, -2)
          CFI (cfiCond393) R9 Frame(CFA_Y, -1)
          CFI (cfiCond393) CFA_SP SP+6
          CFI (cfiCond393) CFA_Y Y+10
          CFI Block cfiCond394 Using cfiCommon0
          CFI (cfiCond394) Function PEREP
          CFI (cfiCond394) Conditional ??CrossCallReturnLabel_287, ??CrossCallReturnLabel_298
          CFI (cfiCond394) R24 Frame(CFA_Y, -8)
          CFI (cfiCond394) R25 Frame(CFA_Y, -7)
          CFI (cfiCond394) R26 Frame(CFA_Y, -6)
          CFI (cfiCond394) R27 Frame(CFA_Y, -5)
          CFI (cfiCond394) R4 Frame(CFA_Y, -4)
          CFI (cfiCond394) R5 Frame(CFA_Y, -3)
          CFI (cfiCond394) R6 Frame(CFA_Y, -2)
          CFI (cfiCond394) R7 Frame(CFA_Y, -1)
          CFI (cfiCond394) CFA_SP SP+6
          CFI (cfiCond394) CFA_Y Y+8
          CFI Block cfiCond395 Using cfiCommon0
          CFI (cfiCond395) Function PEREP
          CFI (cfiCond395) Conditional ??CrossCallReturnLabel_287, ??CrossCallReturnLabel_297
          CFI (cfiCond395) R24 Frame(CFA_Y, -8)
          CFI (cfiCond395) R25 Frame(CFA_Y, -7)
          CFI (cfiCond395) R26 Frame(CFA_Y, -6)
          CFI (cfiCond395) R27 Frame(CFA_Y, -5)
          CFI (cfiCond395) R4 Frame(CFA_Y, -4)
          CFI (cfiCond395) R5 Frame(CFA_Y, -3)
          CFI (cfiCond395) R6 Frame(CFA_Y, -2)
          CFI (cfiCond395) R7 Frame(CFA_Y, -1)
          CFI (cfiCond395) CFA_SP SP+6
          CFI (cfiCond395) CFA_Y Y+8
          CFI Block cfiCond396 Using cfiCommon0
          CFI (cfiCond396) Function coding
          CFI (cfiCond396) Conditional ??CrossCallReturnLabel_287, ??CrossCallReturnLabel_296
          CFI (cfiCond396) R24 Frame(CFA_Y, -10)
          CFI (cfiCond396) R25 Frame(CFA_Y, -9)
          CFI (cfiCond396) R26 Frame(CFA_Y, -8)
          CFI (cfiCond396) R27 Frame(CFA_Y, -7)
          CFI (cfiCond396) R4 Frame(CFA_Y, -6)
          CFI (cfiCond396) R5 Frame(CFA_Y, -5)
          CFI (cfiCond396) R6 Frame(CFA_Y, -4)
          CFI (cfiCond396) R7 Frame(CFA_Y, -3)
          CFI (cfiCond396) R8 Frame(CFA_Y, -2)
          CFI (cfiCond396) R9 Frame(CFA_Y, -1)
          CFI (cfiCond396) CFA_SP SP+6
          CFI (cfiCond396) CFA_Y Y+10
          CFI Block cfiCond397 Using cfiCommon0
          CFI (cfiCond397) Function coding
          CFI (cfiCond397) Conditional ??CrossCallReturnLabel_287, ??CrossCallReturnLabel_295
          CFI (cfiCond397) R24 Frame(CFA_Y, -10)
          CFI (cfiCond397) R25 Frame(CFA_Y, -9)
          CFI (cfiCond397) R26 Frame(CFA_Y, -8)
          CFI (cfiCond397) R27 Frame(CFA_Y, -7)
          CFI (cfiCond397) R4 Frame(CFA_Y, -6)
          CFI (cfiCond397) R5 Frame(CFA_Y, -5)
          CFI (cfiCond397) R6 Frame(CFA_Y, -4)
          CFI (cfiCond397) R7 Frame(CFA_Y, -3)
          CFI (cfiCond397) R8 Frame(CFA_Y, -2)
          CFI (cfiCond397) R9 Frame(CFA_Y, -1)
          CFI (cfiCond397) CFA_SP SP+6
          CFI (cfiCond397) CFA_Y Y+10
          CFI Block cfiCond398 Using cfiCommon0
          CFI (cfiCond398) Function coding
          CFI (cfiCond398) Conditional ??CrossCallReturnLabel_290, ??CrossCallReturnLabel_194
          CFI (cfiCond398) R24 Frame(CFA_Y, -10)
          CFI (cfiCond398) R25 Frame(CFA_Y, -9)
          CFI (cfiCond398) R26 Frame(CFA_Y, -8)
          CFI (cfiCond398) R27 Frame(CFA_Y, -7)
          CFI (cfiCond398) R4 Frame(CFA_Y, -6)
          CFI (cfiCond398) R5 Frame(CFA_Y, -5)
          CFI (cfiCond398) R6 Frame(CFA_Y, -4)
          CFI (cfiCond398) R7 Frame(CFA_Y, -3)
          CFI (cfiCond398) R8 Frame(CFA_Y, -2)
          CFI (cfiCond398) R9 Frame(CFA_Y, -1)
          CFI (cfiCond398) CFA_SP SP+6
          CFI (cfiCond398) CFA_Y Y+10
          CFI Block cfiCond399 Using cfiCommon0
          CFI (cfiCond399) Function diag
          CFI (cfiCond399) Conditional ??CrossCallReturnLabel_290, ??CrossCallReturnLabel_193
          CFI (cfiCond399) R24 Frame(CFA_Y, -2)
          CFI (cfiCond399) R25 Frame(CFA_Y, -1)
          CFI (cfiCond399) CFA_SP SP+6
          CFI (cfiCond399) CFA_Y Y+2
          CFI Block cfiCond400 Using cfiCommon0
          CFI (cfiCond400) Function main_power
          CFI (cfiCond400) Conditional ??CrossCallReturnLabel_291, ??CrossCallReturnLabel_27
          CFI (cfiCond400) CFA_SP SP+6
          CFI Block cfiCond401 Using cfiCommon0
          CFI (cfiCond401) Function main_power
          CFI (cfiCond401) Conditional ??CrossCallReturnLabel_291, ??CrossCallReturnLabel_28
          CFI (cfiCond401) CFA_SP SP+6
          CFI Block cfiCond402 Using cfiCommon0
          CFI (cfiCond402) Function PEREP
          CFI (cfiCond402) Conditional ??CrossCallReturnLabel_292, ??CrossCallReturnLabel_294
          CFI (cfiCond402) R24 Frame(CFA_Y, -8)
          CFI (cfiCond402) R25 Frame(CFA_Y, -7)
          CFI (cfiCond402) R26 Frame(CFA_Y, -6)
          CFI (cfiCond402) R27 Frame(CFA_Y, -5)
          CFI (cfiCond402) R4 Frame(CFA_Y, -4)
          CFI (cfiCond402) R5 Frame(CFA_Y, -3)
          CFI (cfiCond402) R6 Frame(CFA_Y, -2)
          CFI (cfiCond402) R7 Frame(CFA_Y, -1)
          CFI (cfiCond402) CFA_SP SP+6
          CFI (cfiCond402) CFA_Y Y+8
          CFI Block cfiCond403 Using cfiCommon0
          CFI (cfiCond403) Function main_logic
          CFI (cfiCond403) Conditional ??CrossCallReturnLabel_292, ??CrossCallReturnLabel_293
          CFI (cfiCond403) CFA_SP SP+6
          CFI Block cfiPicker404 Using cfiCommon2
          CFI (cfiPicker404) NoFunction
          CFI (cfiPicker404) Picker
        LDI     R18, 0
        LDI     R19, 0
        RCALL   ?UL2F_L04
          CFI EndBlock cfiCond390
          CFI EndBlock cfiCond391
          CFI EndBlock cfiCond392
          CFI EndBlock cfiCond393
          CFI EndBlock cfiCond394
          CFI EndBlock cfiCond395
          CFI EndBlock cfiCond396
          CFI EndBlock cfiCond397
          CFI EndBlock cfiCond398
          CFI EndBlock cfiCond399
          CFI EndBlock cfiCond400
          CFI EndBlock cfiCond401
          CFI EndBlock cfiCond402
          CFI EndBlock cfiCond403
          CFI EndBlock cfiPicker404
        REQUIRE ?Subroutine114
        ;               // Fall through to label ?Subroutine114

        RSEG CODE:CODE:NOROOT(1)
?Subroutine114:
          CFI Block cfiCond405 Using cfiCommon0
          CFI Function coding
          CFI Conditional ??CrossCallReturnLabel_54
          CFI R24 Frame(CFA_Y, -10)
          CFI R25 Frame(CFA_Y, -9)
          CFI R26 Frame(CFA_Y, -8)
          CFI R27 Frame(CFA_Y, -7)
          CFI R4 Frame(CFA_Y, -6)
          CFI R5 Frame(CFA_Y, -5)
          CFI R6 Frame(CFA_Y, -4)
          CFI R7 Frame(CFA_Y, -3)
          CFI R8 Frame(CFA_Y, -2)
          CFI R9 Frame(CFA_Y, -1)
          CFI CFA_SP SP+4
          CFI CFA_Y Y+10
          CFI Block cfiCond406 Using cfiCommon0
          CFI (cfiCond406) Function coding
          CFI (cfiCond406) Conditional ??CrossCallReturnLabel_55
          CFI (cfiCond406) R24 Frame(CFA_Y, -10)
          CFI (cfiCond406) R25 Frame(CFA_Y, -9)
          CFI (cfiCond406) R26 Frame(CFA_Y, -8)
          CFI (cfiCond406) R27 Frame(CFA_Y, -7)
          CFI (cfiCond406) R4 Frame(CFA_Y, -6)
          CFI (cfiCond406) R5 Frame(CFA_Y, -5)
          CFI (cfiCond406) R6 Frame(CFA_Y, -4)
          CFI (cfiCond406) R7 Frame(CFA_Y, -3)
          CFI (cfiCond406) R8 Frame(CFA_Y, -2)
          CFI (cfiCond406) R9 Frame(CFA_Y, -1)
          CFI (cfiCond406) CFA_SP SP+4
          CFI (cfiCond406) CFA_Y Y+10
          CFI Block cfiCond407 Using cfiCommon0
          CFI (cfiCond407) Function PEREP
          CFI (cfiCond407) Conditional ??CrossCallReturnLabel_286, ??CrossCallReturnLabel_187
          CFI (cfiCond407) R24 Frame(CFA_Y, -8)
          CFI (cfiCond407) R25 Frame(CFA_Y, -7)
          CFI (cfiCond407) R26 Frame(CFA_Y, -6)
          CFI (cfiCond407) R27 Frame(CFA_Y, -5)
          CFI (cfiCond407) R4 Frame(CFA_Y, -4)
          CFI (cfiCond407) R5 Frame(CFA_Y, -3)
          CFI (cfiCond407) R6 Frame(CFA_Y, -2)
          CFI (cfiCond407) R7 Frame(CFA_Y, -1)
          CFI (cfiCond407) CFA_SP SP+6
          CFI (cfiCond407) CFA_Y Y+8
          CFI Block cfiCond408 Using cfiCommon0
          CFI (cfiCond408) Function PEREP
          CFI (cfiCond408) Conditional ??CrossCallReturnLabel_286, ??CrossCallReturnLabel_188
          CFI (cfiCond408) R24 Frame(CFA_Y, -8)
          CFI (cfiCond408) R25 Frame(CFA_Y, -7)
          CFI (cfiCond408) R26 Frame(CFA_Y, -6)
          CFI (cfiCond408) R27 Frame(CFA_Y, -5)
          CFI (cfiCond408) R4 Frame(CFA_Y, -4)
          CFI (cfiCond408) R5 Frame(CFA_Y, -3)
          CFI (cfiCond408) R6 Frame(CFA_Y, -2)
          CFI (cfiCond408) R7 Frame(CFA_Y, -1)
          CFI (cfiCond408) CFA_SP SP+6
          CFI (cfiCond408) CFA_Y Y+8
          CFI Block cfiCond409 Using cfiCommon0
          CFI (cfiCond409) Function PEREP
          CFI (cfiCond409) Conditional ??CrossCallReturnLabel_287, ??CrossCallReturnLabel_300
          CFI (cfiCond409) R24 Frame(CFA_Y, -8)
          CFI (cfiCond409) R25 Frame(CFA_Y, -7)
          CFI (cfiCond409) R26 Frame(CFA_Y, -6)
          CFI (cfiCond409) R27 Frame(CFA_Y, -5)
          CFI (cfiCond409) R4 Frame(CFA_Y, -4)
          CFI (cfiCond409) R5 Frame(CFA_Y, -3)
          CFI (cfiCond409) R6 Frame(CFA_Y, -2)
          CFI (cfiCond409) R7 Frame(CFA_Y, -1)
          CFI (cfiCond409) CFA_SP SP+6
          CFI (cfiCond409) CFA_Y Y+8
          CFI Block cfiCond410 Using cfiCommon0
          CFI (cfiCond410) Function coding
          CFI (cfiCond410) Conditional ??CrossCallReturnLabel_287, ??CrossCallReturnLabel_299
          CFI (cfiCond410) R24 Frame(CFA_Y, -10)
          CFI (cfiCond410) R25 Frame(CFA_Y, -9)
          CFI (cfiCond410) R26 Frame(CFA_Y, -8)
          CFI (cfiCond410) R27 Frame(CFA_Y, -7)
          CFI (cfiCond410) R4 Frame(CFA_Y, -6)
          CFI (cfiCond410) R5 Frame(CFA_Y, -5)
          CFI (cfiCond410) R6 Frame(CFA_Y, -4)
          CFI (cfiCond410) R7 Frame(CFA_Y, -3)
          CFI (cfiCond410) R8 Frame(CFA_Y, -2)
          CFI (cfiCond410) R9 Frame(CFA_Y, -1)
          CFI (cfiCond410) CFA_SP SP+6
          CFI (cfiCond410) CFA_Y Y+10
          CFI Block cfiCond411 Using cfiCommon0
          CFI (cfiCond411) Function PEREP
          CFI (cfiCond411) Conditional ??CrossCallReturnLabel_287, ??CrossCallReturnLabel_298
          CFI (cfiCond411) R24 Frame(CFA_Y, -8)
          CFI (cfiCond411) R25 Frame(CFA_Y, -7)
          CFI (cfiCond411) R26 Frame(CFA_Y, -6)
          CFI (cfiCond411) R27 Frame(CFA_Y, -5)
          CFI (cfiCond411) R4 Frame(CFA_Y, -4)
          CFI (cfiCond411) R5 Frame(CFA_Y, -3)
          CFI (cfiCond411) R6 Frame(CFA_Y, -2)
          CFI (cfiCond411) R7 Frame(CFA_Y, -1)
          CFI (cfiCond411) CFA_SP SP+6
          CFI (cfiCond411) CFA_Y Y+8
          CFI Block cfiCond412 Using cfiCommon0
          CFI (cfiCond412) Function PEREP
          CFI (cfiCond412) Conditional ??CrossCallReturnLabel_287, ??CrossCallReturnLabel_297
          CFI (cfiCond412) R24 Frame(CFA_Y, -8)
          CFI (cfiCond412) R25 Frame(CFA_Y, -7)
          CFI (cfiCond412) R26 Frame(CFA_Y, -6)
          CFI (cfiCond412) R27 Frame(CFA_Y, -5)
          CFI (cfiCond412) R4 Frame(CFA_Y, -4)
          CFI (cfiCond412) R5 Frame(CFA_Y, -3)
          CFI (cfiCond412) R6 Frame(CFA_Y, -2)
          CFI (cfiCond412) R7 Frame(CFA_Y, -1)
          CFI (cfiCond412) CFA_SP SP+6
          CFI (cfiCond412) CFA_Y Y+8
          CFI Block cfiCond413 Using cfiCommon0
          CFI (cfiCond413) Function coding
          CFI (cfiCond413) Conditional ??CrossCallReturnLabel_287, ??CrossCallReturnLabel_296
          CFI (cfiCond413) R24 Frame(CFA_Y, -10)
          CFI (cfiCond413) R25 Frame(CFA_Y, -9)
          CFI (cfiCond413) R26 Frame(CFA_Y, -8)
          CFI (cfiCond413) R27 Frame(CFA_Y, -7)
          CFI (cfiCond413) R4 Frame(CFA_Y, -6)
          CFI (cfiCond413) R5 Frame(CFA_Y, -5)
          CFI (cfiCond413) R6 Frame(CFA_Y, -4)
          CFI (cfiCond413) R7 Frame(CFA_Y, -3)
          CFI (cfiCond413) R8 Frame(CFA_Y, -2)
          CFI (cfiCond413) R9 Frame(CFA_Y, -1)
          CFI (cfiCond413) CFA_SP SP+6
          CFI (cfiCond413) CFA_Y Y+10
          CFI Block cfiCond414 Using cfiCommon0
          CFI (cfiCond414) Function coding
          CFI (cfiCond414) Conditional ??CrossCallReturnLabel_287, ??CrossCallReturnLabel_295
          CFI (cfiCond414) R24 Frame(CFA_Y, -10)
          CFI (cfiCond414) R25 Frame(CFA_Y, -9)
          CFI (cfiCond414) R26 Frame(CFA_Y, -8)
          CFI (cfiCond414) R27 Frame(CFA_Y, -7)
          CFI (cfiCond414) R4 Frame(CFA_Y, -6)
          CFI (cfiCond414) R5 Frame(CFA_Y, -5)
          CFI (cfiCond414) R6 Frame(CFA_Y, -4)
          CFI (cfiCond414) R7 Frame(CFA_Y, -3)
          CFI (cfiCond414) R8 Frame(CFA_Y, -2)
          CFI (cfiCond414) R9 Frame(CFA_Y, -1)
          CFI (cfiCond414) CFA_SP SP+6
          CFI (cfiCond414) CFA_Y Y+10
          CFI Block cfiCond415 Using cfiCommon0
          CFI (cfiCond415) Function coding
          CFI (cfiCond415) Conditional ??CrossCallReturnLabel_290, ??CrossCallReturnLabel_194
          CFI (cfiCond415) R24 Frame(CFA_Y, -10)
          CFI (cfiCond415) R25 Frame(CFA_Y, -9)
          CFI (cfiCond415) R26 Frame(CFA_Y, -8)
          CFI (cfiCond415) R27 Frame(CFA_Y, -7)
          CFI (cfiCond415) R4 Frame(CFA_Y, -6)
          CFI (cfiCond415) R5 Frame(CFA_Y, -5)
          CFI (cfiCond415) R6 Frame(CFA_Y, -4)
          CFI (cfiCond415) R7 Frame(CFA_Y, -3)
          CFI (cfiCond415) R8 Frame(CFA_Y, -2)
          CFI (cfiCond415) R9 Frame(CFA_Y, -1)
          CFI (cfiCond415) CFA_SP SP+6
          CFI (cfiCond415) CFA_Y Y+10
          CFI Block cfiCond416 Using cfiCommon0
          CFI (cfiCond416) Function diag
          CFI (cfiCond416) Conditional ??CrossCallReturnLabel_290, ??CrossCallReturnLabel_193
          CFI (cfiCond416) R24 Frame(CFA_Y, -2)
          CFI (cfiCond416) R25 Frame(CFA_Y, -1)
          CFI (cfiCond416) CFA_SP SP+6
          CFI (cfiCond416) CFA_Y Y+2
          CFI Block cfiCond417 Using cfiCommon0
          CFI (cfiCond417) Function main_power
          CFI (cfiCond417) Conditional ??CrossCallReturnLabel_291, ??CrossCallReturnLabel_27
          CFI (cfiCond417) CFA_SP SP+6
          CFI Block cfiCond418 Using cfiCommon0
          CFI (cfiCond418) Function main_power
          CFI (cfiCond418) Conditional ??CrossCallReturnLabel_291, ??CrossCallReturnLabel_28
          CFI (cfiCond418) CFA_SP SP+6
          CFI Block cfiCond419 Using cfiCommon0
          CFI (cfiCond419) Function PEREP
          CFI (cfiCond419) Conditional ??CrossCallReturnLabel_292, ??CrossCallReturnLabel_294
          CFI (cfiCond419) R24 Frame(CFA_Y, -8)
          CFI (cfiCond419) R25 Frame(CFA_Y, -7)
          CFI (cfiCond419) R26 Frame(CFA_Y, -6)
          CFI (cfiCond419) R27 Frame(CFA_Y, -5)
          CFI (cfiCond419) R4 Frame(CFA_Y, -4)
          CFI (cfiCond419) R5 Frame(CFA_Y, -3)
          CFI (cfiCond419) R6 Frame(CFA_Y, -2)
          CFI (cfiCond419) R7 Frame(CFA_Y, -1)
          CFI (cfiCond419) CFA_SP SP+6
          CFI (cfiCond419) CFA_Y Y+8
          CFI Block cfiCond420 Using cfiCommon0
          CFI (cfiCond420) Function main_logic
          CFI (cfiCond420) Conditional ??CrossCallReturnLabel_292, ??CrossCallReturnLabel_293
          CFI (cfiCond420) CFA_SP SP+6
          CFI Block cfiCond421 Using cfiCommon0
          CFI (cfiCond421) Function diag
          CFI (cfiCond421) Conditional ??CrossCallReturnLabel_288
          CFI (cfiCond421) R24 Frame(CFA_Y, -2)
          CFI (cfiCond421) R25 Frame(CFA_Y, -1)
          CFI (cfiCond421) CFA_SP SP+4
          CFI (cfiCond421) CFA_Y Y+2
          CFI Block cfiCond422 Using cfiCommon0
          CFI (cfiCond422) Function rprintfFloat
          CFI (cfiCond422) Conditional ??CrossCallReturnLabel_289
          CFI (cfiCond422) R24 Frame(CFA_Y, -12)
          CFI (cfiCond422) R25 Frame(CFA_Y, -11)
          CFI (cfiCond422) R26 Frame(CFA_Y, -10)
          CFI (cfiCond422) R27 Frame(CFA_Y, -9)
          CFI (cfiCond422) R4 Frame(CFA_Y, -8)
          CFI (cfiCond422) R5 Frame(CFA_Y, -7)
          CFI (cfiCond422) R6 Frame(CFA_Y, -6)
          CFI (cfiCond422) R7 Frame(CFA_Y, -5)
          CFI (cfiCond422) R8 Frame(CFA_Y, -4)
          CFI (cfiCond422) R9 Frame(CFA_Y, -3)
          CFI (cfiCond422) R10 Frame(CFA_Y, -2)
          CFI (cfiCond422) R11 Frame(CFA_Y, -1)
          CFI (cfiCond422) CFA_SP SP+4
          CFI (cfiCond422) CFA_Y Y+12
          CFI Block cfiPicker423 Using cfiCommon2
          CFI (cfiPicker423) NoFunction
          CFI (cfiPicker423) Picker
        MOVW    R21:R20, R17:R16
        MOVW    R23:R22, R19:R18
        RET
          CFI EndBlock cfiCond405
          CFI EndBlock cfiCond406
          CFI EndBlock cfiCond407
          CFI EndBlock cfiCond408
          CFI EndBlock cfiCond409
          CFI EndBlock cfiCond410
          CFI EndBlock cfiCond411
          CFI EndBlock cfiCond412
          CFI EndBlock cfiCond413
          CFI EndBlock cfiCond414
          CFI EndBlock cfiCond415
          CFI EndBlock cfiCond416
          CFI EndBlock cfiCond417
          CFI EndBlock cfiCond418
          CFI EndBlock cfiCond419
          CFI EndBlock cfiCond420
          CFI EndBlock cfiCond421
          CFI EndBlock cfiCond422
          CFI EndBlock cfiPicker423

        RSEG CODE:CODE:NOROOT(1)
?Subroutine17:
          CFI Block cfiCond424 Using cfiCommon0
          CFI Function main_logic
          CFI Conditional ??CrossCallReturnLabel_25
          CFI CFA_SP SP+4
          CFI Block cfiCond425 Using cfiCommon0
          CFI (cfiCond425) Function main_logic
          CFI (cfiCond425) Conditional ??CrossCallReturnLabel_26
          CFI (cfiCond425) CFA_SP SP+4
          CFI Block cfiPicker426 Using cfiCommon2
          CFI (cfiPicker426) NoFunction
          CFI (cfiPicker426) Picker
        SBI     0x18, 0x05
        RCALL   ?Subroutine107
??CrossCallReturnLabel_215:
        CBI     0x18, 0x05
        RCALL   ?Subroutine107
??CrossCallReturnLabel_216:
        DEC     R16
        RET
          CFI EndBlock cfiCond424
          CFI EndBlock cfiCond425
          CFI EndBlock cfiPicker426

        RSEG CODE:CODE:NOROOT(1)
?Subroutine16:
          CFI Block cfiCond427 Using cfiCommon0
          CFI Function main_power
          CFI Conditional ??CrossCallReturnLabel_24
          CFI CFA_SP SP+4
          CFI Block cfiCond428 Using cfiCommon0
          CFI (cfiCond428) Function main_logic
          CFI (cfiCond428) Conditional ??CrossCallReturnLabel_23
          CFI (cfiCond428) CFA_SP SP+4
          CFI Block cfiPicker429 Using cfiCommon2
          CFI (cfiPicker429) NoFunction
          CFI (cfiPicker429) Picker
        STS     aoff, R16
        RCALL   ?Subroutine102
??CrossCallReturnLabel_330:
        RCALL   ?Subroutine85
          CFI EndBlock cfiCond427
          CFI EndBlock cfiCond428
          CFI EndBlock cfiPicker429
??CrossCallReturnLabel_142:
        REQUIRE ?Subroutine108
        ;               // Fall through to label ?Subroutine108

        RSEG CODE:CODE:NOROOT(1)
?Subroutine108:
          CFI Block cfiCond430 Using cfiCommon0
          CFI Function main_logic
          CFI Conditional ??CrossCallReturnLabel_217
          CFI CFA_SP SP+4
          CFI Block cfiCond431 Using cfiCommon0
          CFI (cfiCond431) Function main_logic
          CFI (cfiCond431) Conditional ??CrossCallReturnLabel_218
          CFI (cfiCond431) CFA_SP SP+4
          CFI Block cfiCond432 Using cfiCommon0
          CFI (cfiCond432) Function main_logic
          CFI (cfiCond432) Conditional ??CrossCallReturnLabel_219
          CFI (cfiCond432) CFA_SP SP+4
          CFI Block cfiCond433 Using cfiCommon0
          CFI (cfiCond433) Function main_power
          CFI (cfiCond433) Conditional ??CrossCallReturnLabel_24
          CFI (cfiCond433) CFA_SP SP+4
          CFI Block cfiCond434 Using cfiCommon0
          CFI (cfiCond434) Function main_logic
          CFI (cfiCond434) Conditional ??CrossCallReturnLabel_23
          CFI (cfiCond434) CFA_SP SP+4
          CFI Block cfiPicker435 Using cfiCommon2
          CFI (cfiPicker435) NoFunction
          CFI (cfiPicker435) Picker
        STS     ??regaoff, R16
        RET
          CFI EndBlock cfiCond430
          CFI EndBlock cfiCond431
          CFI EndBlock cfiCond432
          CFI EndBlock cfiCond433
          CFI EndBlock cfiCond434
          CFI EndBlock cfiPicker435

        RSEG CODE:CODE:NOROOT(1)
?Subroutine15:
          CFI Block cfiCond436 Using cfiCommon0
          CFI Function main_power
          CFI Conditional ??CrossCallReturnLabel_21
          CFI CFA_SP SP+4
          CFI Block cfiCond437 Using cfiCommon0
          CFI (cfiCond437) Function main_logic
          CFI (cfiCond437) Conditional ??CrossCallReturnLabel_22
          CFI (cfiCond437) CFA_SP SP+4
          CFI Block cfiPicker438 Using cfiCommon2
          CFI (cfiPicker438) NoFunction
          CFI (cfiPicker438) Picker
        LDI     R16, 0
        STS     on, R16
        STS     onok, R16
        RET
          CFI EndBlock cfiCond436
          CFI EndBlock cfiCond437
          CFI EndBlock cfiPicker438

        RSEG CODE:CODE:NOROOT(1)
?Subroutine9:
          CFI Block cfiCond439 Using cfiCommon0
          CFI Function main_logic
          CFI Conditional ??CrossCallReturnLabel_336
          CFI CFA_SP SP+4
          CFI Block cfiCond440 Using cfiCommon0
          CFI (cfiCond440) Function main_logic
          CFI (cfiCond440) Conditional ??CrossCallReturnLabel_335
          CFI (cfiCond440) CFA_SP SP+4
          CFI Block cfiPicker441 Using cfiCommon2
          CFI (cfiPicker441) NoFunction
          CFI (cfiPicker441) Picker
        STS     mute, R16
          CFI EndBlock cfiCond439
          CFI EndBlock cfiCond440
          CFI EndBlock cfiPicker441
        REQUIRE ?Subroutine106
        REQUIRE ??Subroutine133_0
        ;               // Fall through to label ??Subroutine133_0

        RSEG CODE:CODE:NOROOT(1)
??Subroutine133_0:
          CFI Block cfiCond442 Using cfiCommon0
          CFI Function main_logic
          CFI Conditional ??CrossCallReturnLabel_334
          CFI CFA_SP SP+4
          CFI Block cfiCond443 Using cfiCommon0
          CFI (cfiCond443) Function main_logic
          CFI (cfiCond443) Conditional ??CrossCallReturnLabel_333
          CFI (cfiCond443) CFA_SP SP+4
          CFI Block cfiCond444 Using cfiCommon0
          CFI (cfiCond444) Function main_logic
          CFI (cfiCond444) Conditional ??CrossCallReturnLabel_336
          CFI (cfiCond444) CFA_SP SP+4
          CFI Block cfiCond445 Using cfiCommon0
          CFI (cfiCond445) Function main_logic
          CFI (cfiCond445) Conditional ??CrossCallReturnLabel_335
          CFI (cfiCond445) CFA_SP SP+4
          CFI Block cfiPicker446 Using cfiCommon2
          CFI (cfiPicker446) NoFunction
          CFI (cfiPicker446) Picker
        RCALL   ?Subroutine102
          CFI EndBlock cfiCond442
          CFI EndBlock cfiCond443
          CFI EndBlock cfiCond444
          CFI EndBlock cfiCond445
          CFI EndBlock cfiPicker446
??CrossCallReturnLabel_332:
        REQUIRE ?Subroutine106
        REQUIRE ??Subroutine134_0
        ;               // Fall through to label ??Subroutine134_0

        RSEG CODE:CODE:NOROOT(1)
??Subroutine134_0:
          CFI Block cfiCond447 Using cfiCommon0
          CFI Function main_power
          CFI Conditional ??CrossCallReturnLabel_340
          CFI CFA_SP SP+4
          CFI Block cfiCond448 Using cfiCommon0
          CFI (cfiCond448) Function main_logic
          CFI (cfiCond448) Conditional ??CrossCallReturnLabel_341
          CFI (cfiCond448) CFA_SP SP+4
          CFI Block cfiCond449 Using cfiCommon0
          CFI (cfiCond449) Function main_logic
          CFI (cfiCond449) Conditional ??CrossCallReturnLabel_342
          CFI (cfiCond449) CFA_SP SP+4
          CFI Block cfiCond450 Using cfiCommon0
          CFI (cfiCond450) Function main_logic
          CFI (cfiCond450) Conditional ??CrossCallReturnLabel_343
          CFI (cfiCond450) CFA_SP SP+4
          CFI Block cfiCond451 Using cfiCommon0
          CFI (cfiCond451) Function main_logic
          CFI (cfiCond451) Conditional ??CrossCallReturnLabel_344
          CFI (cfiCond451) CFA_SP SP+4
          CFI Block cfiCond452 Using cfiCommon0
          CFI (cfiCond452) Function main_logic
          CFI (cfiCond452) Conditional ??CrossCallReturnLabel_334
          CFI (cfiCond452) CFA_SP SP+4
          CFI Block cfiCond453 Using cfiCommon0
          CFI (cfiCond453) Function main_logic
          CFI (cfiCond453) Conditional ??CrossCallReturnLabel_333
          CFI (cfiCond453) CFA_SP SP+4
          CFI Block cfiCond454 Using cfiCommon0
          CFI (cfiCond454) Function main_logic
          CFI (cfiCond454) Conditional ??CrossCallReturnLabel_336
          CFI (cfiCond454) CFA_SP SP+4
          CFI Block cfiCond455 Using cfiCommon0
          CFI (cfiCond455) Function main_logic
          CFI (cfiCond455) Conditional ??CrossCallReturnLabel_335
          CFI (cfiCond455) CFA_SP SP+4
          CFI Block cfiPicker456 Using cfiCommon2
          CFI (cfiPicker456) NoFunction
          CFI (cfiPicker456) Picker
        LDI     R16, 0
          CFI EndBlock cfiCond447
          CFI EndBlock cfiCond448
          CFI EndBlock cfiCond449
          CFI EndBlock cfiCond450
          CFI EndBlock cfiCond451
          CFI EndBlock cfiCond452
          CFI EndBlock cfiCond453
          CFI EndBlock cfiCond454
          CFI EndBlock cfiCond455
          CFI EndBlock cfiPicker456
        REQUIRE ?Subroutine106
        ;               // Fall through to label ?Subroutine106

        RSEG CODE:CODE:NOROOT(1)
?Subroutine106:
          CFI Block cfiCond457 Using cfiCommon0
          CFI Function main
          CFI Conditional ??CrossCallReturnLabel_337
          CFI R24 Frame(CFA_Y, -1)
          CFI CFA_SP SP+4
          CFI CFA_Y Y+1
          CFI Block cfiCond458 Using cfiCommon0
          CFI (cfiCond458) Function main_power
          CFI (cfiCond458) Conditional ??CrossCallReturnLabel_338
          CFI (cfiCond458) CFA_SP SP+4
          CFI Block cfiCond459 Using cfiCommon0
          CFI (cfiCond459) Function main_logic
          CFI (cfiCond459) Conditional ??CrossCallReturnLabel_339
          CFI (cfiCond459) CFA_SP SP+4
          CFI Block cfiCond460 Using cfiCommon0
          CFI (cfiCond460) Function main_logic
          CFI (cfiCond460) Conditional ??CrossCallReturnLabel_336
          CFI (cfiCond460) CFA_SP SP+4
          CFI Block cfiCond461 Using cfiCommon0
          CFI (cfiCond461) Function main_logic
          CFI (cfiCond461) Conditional ??CrossCallReturnLabel_335
          CFI (cfiCond461) CFA_SP SP+4
          CFI Block cfiCond462 Using cfiCommon0
          CFI (cfiCond462) Function main_logic
          CFI (cfiCond462) Conditional ??CrossCallReturnLabel_334
          CFI (cfiCond462) CFA_SP SP+4
          CFI Block cfiCond463 Using cfiCommon0
          CFI (cfiCond463) Function main_logic
          CFI (cfiCond463) Conditional ??CrossCallReturnLabel_333
          CFI (cfiCond463) CFA_SP SP+4
          CFI Block cfiCond464 Using cfiCommon0
          CFI (cfiCond464) Function main_power
          CFI (cfiCond464) Conditional ??CrossCallReturnLabel_340
          CFI (cfiCond464) CFA_SP SP+4
          CFI Block cfiCond465 Using cfiCommon0
          CFI (cfiCond465) Function main_logic
          CFI (cfiCond465) Conditional ??CrossCallReturnLabel_341
          CFI (cfiCond465) CFA_SP SP+4
          CFI Block cfiCond466 Using cfiCommon0
          CFI (cfiCond466) Function main_logic
          CFI (cfiCond466) Conditional ??CrossCallReturnLabel_342
          CFI (cfiCond466) CFA_SP SP+4
          CFI Block cfiCond467 Using cfiCommon0
          CFI (cfiCond467) Function main_logic
          CFI (cfiCond467) Conditional ??CrossCallReturnLabel_343
          CFI (cfiCond467) CFA_SP SP+4
          CFI Block cfiCond468 Using cfiCommon0
          CFI (cfiCond468) Function main_logic
          CFI (cfiCond468) Conditional ??CrossCallReturnLabel_344
          CFI (cfiCond468) CFA_SP SP+4
          CFI Block cfiPicker469 Using cfiCommon2
          CFI (cfiPicker469) NoFunction
          CFI (cfiPicker469) Picker
        STS     pultadr, R16
        RET
          CFI EndBlock cfiCond457
          CFI EndBlock cfiCond458
          CFI EndBlock cfiCond459
          CFI EndBlock cfiCond460
          CFI EndBlock cfiCond461
          CFI EndBlock cfiCond462
          CFI EndBlock cfiCond463
          CFI EndBlock cfiCond464
          CFI EndBlock cfiCond465
          CFI EndBlock cfiCond466
          CFI EndBlock cfiCond467
          CFI EndBlock cfiCond468
          CFI EndBlock cfiPicker469

        RSEG CODE:CODE:NOROOT(1)
?Subroutine8:
          CFI Block cfiCond470 Using cfiCommon0
          CFI Function main_logic
          CFI Conditional ??CrossCallReturnLabel_10
          CFI CFA_SP SP+4
          CFI Block cfiCond471 Using cfiCommon0
          CFI (cfiCond471) Function main_logic
          CFI (cfiCond471) Conditional ??CrossCallReturnLabel_11
          CFI (cfiCond471) CFA_SP SP+4
          CFI Block cfiCond472 Using cfiCommon0
          CFI (cfiCond472) Function main_logic
          CFI (cfiCond472) Conditional ??CrossCallReturnLabel_12
          CFI (cfiCond472) CFA_SP SP+4
          CFI Block cfiPicker473 Using cfiCommon2
          CFI (cfiPicker473) NoFunction
          CFI (cfiPicker473) Picker
        LDI     R16, 1
        STS     aoff, R16
        RET
          CFI EndBlock cfiCond470
          CFI EndBlock cfiCond471
          CFI EndBlock cfiCond472
          CFI EndBlock cfiPicker473

        RSEG CODE:CODE:NOROOT(1)
?Subroutine4:
          CFI Block cfiCond474 Using cfiCommon0
          CFI Function main_logic
          CFI Conditional ??CrossCallReturnLabel_236
          CFI CFA_SP SP+4
          CFI Block cfiCond475 Using cfiCommon0
          CFI (cfiCond475) Function main_logic
          CFI (cfiCond475) Conditional ??CrossCallReturnLabel_237
          CFI (cfiCond475) CFA_SP SP+4
          CFI Block cfiPicker476 Using cfiCommon2
          CFI (cfiPicker476) NoFunction
          CFI (cfiPicker476) Picker
        LDS     R20, ??sel
        DEC     R20
        RCALL   ?Subroutine83
          CFI EndBlock cfiCond474
          CFI EndBlock cfiCond475
          CFI EndBlock cfiPicker476
??CrossCallReturnLabel_275:
        REQUIRE ?Subroutine116
        ;               // Fall through to label ?Subroutine116

        RSEG CODE:CODE:NOROOT(1)
?Subroutine116:
          CFI Block cfiCond477 Using cfiCommon0
          CFI Function main_logic
          CFI Conditional ??CrossCallReturnLabel_236
          CFI CFA_SP SP+4
          CFI Block cfiCond478 Using cfiCommon0
          CFI (cfiCond478) Function main_logic
          CFI (cfiCond478) Conditional ??CrossCallReturnLabel_237
          CFI (cfiCond478) CFA_SP SP+4
          CFI Block cfiCond479 Using cfiCommon0
          CFI (cfiCond479) Function main_logic
          CFI (cfiCond479) Conditional ??CrossCallReturnLabel_238
          CFI (cfiCond479) CFA_SP SP+4
          CFI Block cfiCond480 Using cfiCommon0
          CFI (cfiCond480) Function main_logic
          CFI (cfiCond480) Conditional ??CrossCallReturnLabel_239
          CFI (cfiCond480) CFA_SP SP+4
          CFI Block cfiCond481 Using cfiCommon0
          CFI (cfiCond481) Function main_logic
          CFI (cfiCond481) Conditional ??CrossCallReturnLabel_240
          CFI (cfiCond481) CFA_SP SP+4
          CFI Block cfiCond482 Using cfiCommon0
          CFI (cfiCond482) Function main_logic
          CFI (cfiCond482) Conditional ??CrossCallReturnLabel_241
          CFI (cfiCond482) CFA_SP SP+4
          CFI Block cfiCond483 Using cfiCommon0
          CFI (cfiCond483) Function main_logic
          CFI (cfiCond483) Conditional ??CrossCallReturnLabel_242
          CFI (cfiCond483) CFA_SP SP+4
          CFI Block cfiCond484 Using cfiCommon0
          CFI (cfiCond484) Function main_logic
          CFI (cfiCond484) Conditional ??CrossCallReturnLabel_243
          CFI (cfiCond484) CFA_SP SP+4
          CFI Block cfiCond485 Using cfiCommon0
          CFI (cfiCond485) Function source
          CFI (cfiCond485) Conditional ??CrossCallReturnLabel_244
          CFI (cfiCond485) CFA_SP SP+4
          CFI Block cfiCond486 Using cfiCommon0
          CFI (cfiCond486) Function source
          CFI (cfiCond486) Conditional ??CrossCallReturnLabel_245
          CFI (cfiCond486) CFA_SP SP+4
          CFI Block cfiCond487 Using cfiCommon0
          CFI (cfiCond487) Function source
          CFI (cfiCond487) Conditional ??CrossCallReturnLabel_246
          CFI (cfiCond487) CFA_SP SP+4
          CFI Block cfiCond488 Using cfiCommon0
          CFI (cfiCond488) Function source
          CFI (cfiCond488) Conditional ??CrossCallReturnLabel_247
          CFI (cfiCond488) CFA_SP SP+4
          CFI Block cfiCond489 Using cfiCommon0
          CFI (cfiCond489) Function source
          CFI (cfiCond489) Conditional ??CrossCallReturnLabel_248
          CFI (cfiCond489) CFA_SP SP+4
          CFI Block cfiCond490 Using cfiCommon0
          CFI (cfiCond490) Function source
          CFI (cfiCond490) Conditional ??CrossCallReturnLabel_249
          CFI (cfiCond490) CFA_SP SP+4
          CFI Block cfiPicker491 Using cfiCommon2
          CFI (cfiPicker491) NoFunction
          CFI (cfiPicker491) Picker
        LDS     R16, ??sel
        RET
          CFI EndBlock cfiCond477
          CFI EndBlock cfiCond478
          CFI EndBlock cfiCond479
          CFI EndBlock cfiCond480
          CFI EndBlock cfiCond481
          CFI EndBlock cfiCond482
          CFI EndBlock cfiCond483
          CFI EndBlock cfiCond484
          CFI EndBlock cfiCond485
          CFI EndBlock cfiCond486
          CFI EndBlock cfiCond487
          CFI EndBlock cfiCond488
          CFI EndBlock cfiCond489
          CFI EndBlock cfiCond490
          CFI EndBlock cfiPicker491

        RSEG NEAR_Z:DATA:NOROOT(0)
        REQUIRE `?<Segment init: NEAR_Z>`
??last_pultadr:
        DS8 1
//  321  //------------------------------------------

        RSEG CODE:CODE:NOROOT(1)
//  322 void source()
source:
          CFI Block cfiBlock492 Using cfiCommon0
          CFI Function source
//  323 {  
//  324   if (sel==1){ resOUT(); resled(); SET(PORTC,1);}
        FUNCALL source, resOUT
        LOCFRAME CSTACK, 0, STACK
        LOCFRAME RSTACK, 2, STACK
        ARGFRAME RSTACK, 0, STACK
        FUNCALL source, resled
        LOCFRAME CSTACK, 0, STACK
        LOCFRAME RSTACK, 2, STACK
        ARGFRAME RSTACK, 0, STACK
        FUNCALL source, resOUT
        LOCFRAME CSTACK, 0, STACK
        LOCFRAME RSTACK, 2, STACK
        ARGFRAME RSTACK, 0, STACK
        FUNCALL source, resled
        LOCFRAME CSTACK, 0, STACK
        LOCFRAME RSTACK, 2, STACK
        ARGFRAME RSTACK, 0, STACK
        FUNCALL source, resOUT
        LOCFRAME CSTACK, 0, STACK
        LOCFRAME RSTACK, 2, STACK
        ARGFRAME RSTACK, 0, STACK
        FUNCALL source, resled
        LOCFRAME CSTACK, 0, STACK
        LOCFRAME RSTACK, 2, STACK
        ARGFRAME RSTACK, 0, STACK
        FUNCALL source, resOUT
        LOCFRAME CSTACK, 0, STACK
        LOCFRAME RSTACK, 2, STACK
        ARGFRAME RSTACK, 0, STACK
        FUNCALL source, resled
        LOCFRAME CSTACK, 0, STACK
        LOCFRAME RSTACK, 2, STACK
        ARGFRAME RSTACK, 0, STACK
        FUNCALL source, resOUT
        LOCFRAME CSTACK, 0, STACK
        LOCFRAME RSTACK, 2, STACK
        ARGFRAME RSTACK, 0, STACK
        FUNCALL source, resled
        LOCFRAME CSTACK, 0, STACK
        LOCFRAME RSTACK, 2, STACK
        ARGFRAME RSTACK, 0, STACK
        FUNCALL source, migINI
        LOCFRAME CSTACK, 0, STACK
        LOCFRAME RSTACK, 2, STACK
        ARGFRAME RSTACK, 0, STACK
        RCALL   ?Subroutine116
??CrossCallReturnLabel_244:
        CPI     R16, 1
        BRNE    ??source_0
        RCALL   ?Subroutine74
??CrossCallReturnLabel_126:
        SBI     0x15, 0x01
//  325   if (sel==2){ resOUT(); resled(); SET(PORTC,2);}
??source_0:
        RCALL   ?Subroutine116
??CrossCallReturnLabel_245:
        CPI     R16, 2
        BRNE    ??source_1
        RCALL   ?Subroutine74
??CrossCallReturnLabel_125:
        SBI     0x15, 0x02
//  326   if (sel==3){ resOUT(); resled(); SET(PORTC,3);}
??source_1:
        RCALL   ?Subroutine116
??CrossCallReturnLabel_246:
        CPI     R16, 3
        BRNE    ??source_2
        RCALL   ?Subroutine74
??CrossCallReturnLabel_124:
        SBI     0x15, 0x03
//  327   if (sel==4){ resOUT(); resled();SET(PORTC,4);}
??source_2:
        RCALL   ?Subroutine116
??CrossCallReturnLabel_247:
        CPI     R16, 4
        BRNE    ??source_3
        RCALL   ?Subroutine74
??CrossCallReturnLabel_123:
        SBI     0x15, 0x04
//  328   if (sel==5 && mode==0 ){  resOUT(); resled();SET(PORTC,5);}
??source_3:
        RCALL   ?Subroutine116
??CrossCallReturnLabel_248:
        CPI     R16, 5
        BRNE    ??source_4
        RCALL   ?Subroutine66
??CrossCallReturnLabel_254:
        BRNE    ??source_4
        RCALL   ?Subroutine74
??CrossCallReturnLabel_122:
        SBI     0x15, 0x05
//  329   
//  330   if (mute!=1 ) if (zader==0) AC_ON;//вкл АС
??source_4:
        LDS     R16, mute
        LDS     R17, zader
        OR      R16, R17
        BRNE    ??source_5
        SBI     0x12, 0x06
//  331  
//  332    migINI(sel-1, 5 ,0); 
??source_5:
        LDI     R18, 0
        LDI     R17, 5
        RCALL   ?Subroutine116
??CrossCallReturnLabel_249:
        DEC     R16
        RJMP    migINI
          CFI EndBlock cfiBlock492
        REQUIRE _A_PORTC
        REQUIRE _A_PORTD
//  333  
//  334 }

        RSEG CODE:CODE:NOROOT(1)
?Subroutine74:
          CFI Block cfiCond493 Using cfiCommon0
          CFI Function source
          CFI Conditional ??CrossCallReturnLabel_126
          CFI CFA_SP SP+4
          CFI Block cfiCond494 Using cfiCommon0
          CFI (cfiCond494) Function source
          CFI (cfiCond494) Conditional ??CrossCallReturnLabel_125
          CFI (cfiCond494) CFA_SP SP+4
          CFI Block cfiCond495 Using cfiCommon0
          CFI (cfiCond495) Function source
          CFI (cfiCond495) Conditional ??CrossCallReturnLabel_124
          CFI (cfiCond495) CFA_SP SP+4
          CFI Block cfiCond496 Using cfiCommon0
          CFI (cfiCond496) Function source
          CFI (cfiCond496) Conditional ??CrossCallReturnLabel_123
          CFI (cfiCond496) CFA_SP SP+4
          CFI Block cfiCond497 Using cfiCommon0
          CFI (cfiCond497) Function source
          CFI (cfiCond497) Conditional ??CrossCallReturnLabel_122
          CFI (cfiCond497) CFA_SP SP+4
          CFI Block cfiPicker498 Using cfiCommon2
          CFI (cfiPicker498) NoFunction
          CFI (cfiPicker498) Picker
        RCALL   resOUT
        RJMP    resled
          CFI EndBlock cfiCond493
          CFI EndBlock cfiCond494
          CFI EndBlock cfiCond495
          CFI EndBlock cfiCond496
          CFI EndBlock cfiCond497
          CFI EndBlock cfiPicker498
//  335 
//  336 
//  337 
//  338 
//  339 
//  340 
//  341 
//  342 
//  343 
//  344 
//  345 
//  346 
//  347 

        RSEG CODE:CODE:NOROOT(1)
//  348 bool proverka(uchar adr)//защита от дублирования функции на кнопке
proverka:
          CFI Block cfiBlock499 Using cfiCommon0
          CFI Function proverka
//  349 {
        MOV     R23, R16
//  350    for (uchar i=0; i<adr; i++)
        LDI     R22, 0
        RJMP    ??proverka_0
??proverka_1:
        INC     R22
??proverka_0:
        CP      R22, R23
        BRCC    ??proverka_2
//  351    {
//  352      if (k[i]==cod1)
        LDI     R16, 2
        MUL     R22, R16
        RCALL   ?Subroutine80
??CrossCallReturnLabel_134:
        RCALL   ?Subroutine35
??CrossCallReturnLabel_222:
        BRNE    ??proverka_1
//  353        if (k[i+1]==cod2)
        RCALL   ?Subroutine39
??CrossCallReturnLabel_43:
        BRNE    ??proverka_1
//  354          if (k[i+2]==cod3) return 0;
        RCALL   ?Subroutine41
??CrossCallReturnLabel_45:
        BRNE    ??proverka_1
        LDI     R16, 0
        RET
//  355    }
//  356 
//  357    return 1;
??proverka_2:
        LDI     R16, 1
        RET
          CFI EndBlock cfiBlock499
//  358 }
//  359 
//  360 

        RSEG CODE:CODE:NOROOT(1)
//  361 void programming (uchar rez)
programming:
          CFI Block cfiBlock500 Using cfiCommon0
          CFI Function programming
//  362 {  
        FUNCALL programming, getadr
        LOCFRAME CSTACK, 1, STACK
        LOCFRAME RSTACK, 2, STACK
        ARGFRAME RSTACK, 0, STACK
        FUNCALL programming, proverka
        LOCFRAME CSTACK, 1, STACK
        LOCFRAME RSTACK, 2, STACK
        ARGFRAME RSTACK, 0, STACK
        FUNCALL programming, writeCOD
        LOCFRAME CSTACK, 1, STACK
        LOCFRAME RSTACK, 2, STACK
        ARGFRAME RSTACK, 0, STACK
        FUNCALL programming, led_all
        LOCFRAME CSTACK, 1, STACK
        LOCFRAME RSTACK, 2, STACK
        ARGFRAME RSTACK, 0, STACK
        FUNCALL programming, led_all
        LOCFRAME CSTACK, 1, STACK
        LOCFRAME RSTACK, 2, STACK
        ARGFRAME RSTACK, 0, STACK
        FUNCALL programming, led_all
        LOCFRAME CSTACK, 1, STACK
        LOCFRAME RSTACK, 2, STACK
        ARGFRAME RSTACK, 0, STACK
        FUNCALL programming, led_all
        LOCFRAME CSTACK, 1, STACK
        LOCFRAME RSTACK, 2, STACK
        ARGFRAME RSTACK, 0, STACK
        FUNCALL programming, led_all
        LOCFRAME CSTACK, 1, STACK
        LOCFRAME RSTACK, 2, STACK
        ARGFRAME RSTACK, 0, STACK
        FUNCALL programming, led_all
        LOCFRAME CSTACK, 1, STACK
        LOCFRAME RSTACK, 2, STACK
        ARGFRAME RSTACK, 0, STACK
        FUNCALL programming, led_all
        LOCFRAME CSTACK, 1, STACK
        LOCFRAME RSTACK, 2, STACK
        ARGFRAME RSTACK, 0, STACK
        FUNCALL programming, led_all
        LOCFRAME CSTACK, 1, STACK
        LOCFRAME RSTACK, 2, STACK
        ARGFRAME RSTACK, 0, STACK
        ST      -Y, R24
          CFI R24 Frame(CFA_Y, -1)
          CFI CFA_Y Y+1
        MOV     R24, R16
//  363   uchar adr;
//  364    if (tekfunc==255) return;
        LDS     R17, ??tekfunc
        CPI     R17, 255
        BREQ    ??CrossCallReturnLabel_350
//  365    if (!get)  { adr=getadr(); get=1; }//получаем адрес и зажигаем программируемую функцию
        LDS     R17, ??get
        TST     R17
        BRNE    ??programming_0
        RCALL   getadr
        LDI     R17, 1
        STS     ??get, R17
//  366    if (rez==1)
??programming_0:
        CPI     R24, 1
        BRNE    ??CrossCallReturnLabel_351
//  367    {
//  368      if (proverka(adr)) 
        RCALL   proverka
        TST     R16
        BREQ    ??CrossCallReturnLabel_351
//  369      {
//  370          writeCOD();
        RCALL   writeCOD
//  371          tekfunc++;  get=0;
        RCALL   ?Subroutine11
//  372          if (tekfunc==12) {  for (uchar i=0; i<10;i++) 
??CrossCallReturnLabel_15:
        BRNE    ??programming_1
        LDI     R24, 10
//  373                                {led_all(1); p4; led_all(0);p4; }
??programming_2:
        RCALL   ?Subroutine0
??CrossCallReturnLabel_0:
        BRNE    ??programming_2
//  374                           }
//  375          if (tekfunc>MAXFUNC) {tekfunc=255;led_all(1);}
??programming_1:
        LDS     R16, ??tekfunc
        CPI     R16, 24
        BRCS    ??CrossCallReturnLabel_351
        RCALL   ?Subroutine5
//  376      
//  377      }
//  378    }
//  379    
//  380    
//  381    if (keyONsm) { 
??CrossCallReturnLabel_351:
        SBIC    0x10, 0x05
        RJMP    ??CrossCallReturnLabel_350
//  382                 led_all(1); delay_s(1); 
        RCALL   ??Subroutine135_0
??CrossCallReturnLabel_346:
        RCALL   ?Subroutine73
//  383                 led_all(0); 
??CrossCallReturnLabel_121:
        RCALL   ?Subroutine12
//  384                 tekfunc++;  get=0;
??CrossCallReturnLabel_18:
        RCALL   ?Subroutine11
//  385                    if (tekfunc==12) {  for (uchar i=0; i<10;i++) 
??CrossCallReturnLabel_16:
        BRNE    ??programming_3
        LDI     R24, 10
//  386                            {led_all(1); p4; led_all(0);p4; }
??programming_4:
        RCALL   ?Subroutine0
??CrossCallReturnLabel_1:
        BRNE    ??programming_4
//  387                       }
//  388                 if (tekfunc>MAXFUNC) {tekfunc=255;led_all(1);}
??programming_3:
        LDS     R16, ??tekfunc
        CPI     R16, 24
        BRCS    ??CrossCallReturnLabel_350
        RCALL   ?Subroutine5
//  389                
//  390                  }
//  391      
//  392 }
??CrossCallReturnLabel_350:
        RJMP    ?Subroutine117
          CFI EndBlock cfiBlock500
        REQUIRE _A_PIND

        RSEG CODE:CODE:NOROOT(1)
?Subroutine73:
          CFI Block cfiCond501 Using cfiCommon0
          CFI Function main_power
          CFI Conditional ??CrossCallReturnLabel_120
          CFI CFA_SP SP+4
          CFI Block cfiCond502 Using cfiCommon0
          CFI (cfiCond502) Function programming
          CFI (cfiCond502) Conditional ??CrossCallReturnLabel_121
          CFI (cfiCond502) R24 Frame(CFA_Y, -1)
          CFI (cfiCond502) CFA_SP SP+4
          CFI (cfiCond502) CFA_Y Y+1
          CFI Block cfiPicker503 Using cfiCommon2
          CFI (cfiPicker503) NoFunction
          CFI (cfiPicker503) Picker
        LDI     R16, 255
        LDI     R17, 52
        LDI     R18, 12
        SUBI    R16, 1
        SBCI    R17, 0
        SBCI    R18, 0
        BRNE    $-6
        RJMP    $+2
        NOP
        RET
          CFI EndBlock cfiCond501
          CFI EndBlock cfiCond502
          CFI EndBlock cfiPicker503

        RSEG CODE:CODE:NOROOT(1)
?Subroutine12:
          CFI Block cfiCond504 Using cfiCommon0
          CFI Function led_test
          CFI Conditional ??CrossCallReturnLabel_20
          CFI R24 Frame(CFA_Y, -1)
          CFI CFA_SP SP+4
          CFI CFA_Y Y+1
          CFI Block cfiCond505 Using cfiCommon0
          CFI (cfiCond505) Function main
          CFI (cfiCond505) Conditional ??CrossCallReturnLabel_19
          CFI (cfiCond505) R24 Frame(CFA_Y, -1)
          CFI (cfiCond505) CFA_SP SP+4
          CFI (cfiCond505) CFA_Y Y+1
          CFI Block cfiCond506 Using cfiCommon0
          CFI (cfiCond506) Function programming
          CFI (cfiCond506) Conditional ??CrossCallReturnLabel_18
          CFI (cfiCond506) R24 Frame(CFA_Y, -1)
          CFI (cfiCond506) CFA_SP SP+4
          CFI (cfiCond506) CFA_Y Y+1
          CFI Block cfiCond507 Using cfiCommon0
          CFI (cfiCond507) Function writeCOD
          CFI (cfiCond507) Conditional ??CrossCallReturnLabel_17
          CFI (cfiCond507) R24 Frame(CFA_Y, -1)
          CFI (cfiCond507) CFA_SP SP+4
          CFI (cfiCond507) CFA_Y Y+1
          CFI Block cfiPicker508 Using cfiCommon2
          CFI (cfiPicker508) NoFunction
          CFI (cfiPicker508) Picker
        LDI     R16, 0
        RJMP    led_all
          CFI EndBlock cfiCond504
          CFI EndBlock cfiCond505
          CFI EndBlock cfiCond506
          CFI EndBlock cfiCond507
          CFI EndBlock cfiPicker508

        RSEG CODE:CODE:NOROOT(1)
?Subroutine11:
          CFI Block cfiCond509 Using cfiCommon0
          CFI Function programming
          CFI Conditional ??CrossCallReturnLabel_15
          CFI R24 Frame(CFA_Y, -1)
          CFI CFA_SP SP+4
          CFI CFA_Y Y+1
          CFI Block cfiCond510 Using cfiCommon0
          CFI (cfiCond510) Function programming
          CFI (cfiCond510) Conditional ??CrossCallReturnLabel_16
          CFI (cfiCond510) R24 Frame(CFA_Y, -1)
          CFI (cfiCond510) CFA_SP SP+4
          CFI (cfiCond510) CFA_Y Y+1
          CFI Block cfiPicker511 Using cfiCommon2
          CFI (cfiPicker511) NoFunction
          CFI (cfiPicker511) Picker
        LDI     R30, LOW(??tekfunc)
        LDI     R31, (??tekfunc) >> 8
        RCALL   ?Subroutine92
??CrossCallReturnLabel_308:
        LDI     R16, 0
        STS     ??get, R16
        LDS     R16, ??tekfunc
        CPI     R16, 12
        RET
          CFI EndBlock cfiCond509
          CFI EndBlock cfiCond510
          CFI EndBlock cfiPicker511

        RSEG CODE:CODE:NOROOT(1)
?Subroutine5:
          CFI Block cfiCond512 Using cfiCommon0
          CFI Function programming
          CFI Conditional ??CrossCallReturnLabel_351
          CFI R24 Frame(CFA_Y, -1)
          CFI CFA_SP SP+4
          CFI CFA_Y Y+1
          CFI Block cfiCond513 Using cfiCommon0
          CFI (cfiCond513) Function programming
          CFI (cfiCond513) Conditional ??CrossCallReturnLabel_350
          CFI (cfiCond513) R24 Frame(CFA_Y, -1)
          CFI (cfiCond513) CFA_SP SP+4
          CFI (cfiCond513) CFA_Y Y+1
          CFI Block cfiPicker514 Using cfiCommon2
          CFI (cfiPicker514) NoFunction
          CFI (cfiPicker514) Picker
        LDI     R16, 255
        STS     ??tekfunc, R16
          CFI EndBlock cfiCond512
          CFI EndBlock cfiCond513
          CFI EndBlock cfiPicker514
        REQUIRE ??Subroutine135_0
        ;               // Fall through to label ??Subroutine135_0

        RSEG CODE:CODE:NOROOT(1)
??Subroutine135_0:
          CFI Block cfiCond515 Using cfiCommon0
          CFI Function led_test
          CFI Conditional ??CrossCallReturnLabel_349
          CFI R24 Frame(CFA_Y, -1)
          CFI CFA_SP SP+4
          CFI CFA_Y Y+1
          CFI Block cfiCond516 Using cfiCommon0
          CFI (cfiCond516) Function main
          CFI (cfiCond516) Conditional ??CrossCallReturnLabel_348
          CFI (cfiCond516) R24 Frame(CFA_Y, -1)
          CFI (cfiCond516) CFA_SP SP+4
          CFI (cfiCond516) CFA_Y Y+1
          CFI Block cfiCond517 Using cfiCommon0
          CFI (cfiCond517) Function main
          CFI (cfiCond517) Conditional ??CrossCallReturnLabel_347
          CFI (cfiCond517) R24 Frame(CFA_Y, -1)
          CFI (cfiCond517) CFA_SP SP+4
          CFI (cfiCond517) CFA_Y Y+1
          CFI Block cfiCond518 Using cfiCommon0
          CFI (cfiCond518) Function programming
          CFI (cfiCond518) Conditional ??CrossCallReturnLabel_346
          CFI (cfiCond518) R24 Frame(CFA_Y, -1)
          CFI (cfiCond518) CFA_SP SP+4
          CFI (cfiCond518) CFA_Y Y+1
          CFI Block cfiCond519 Using cfiCommon0
          CFI (cfiCond519) Function writeCOD
          CFI (cfiCond519) Conditional ??CrossCallReturnLabel_345
          CFI (cfiCond519) R24 Frame(CFA_Y, -1)
          CFI (cfiCond519) CFA_SP SP+4
          CFI (cfiCond519) CFA_Y Y+1
          CFI Block cfiCond520 Using cfiCommon0
          CFI (cfiCond520) Function programming
          CFI (cfiCond520) Conditional ??CrossCallReturnLabel_351
          CFI (cfiCond520) R24 Frame(CFA_Y, -1)
          CFI (cfiCond520) CFA_SP SP+4
          CFI (cfiCond520) CFA_Y Y+1
          CFI Block cfiCond521 Using cfiCommon0
          CFI (cfiCond521) Function programming
          CFI (cfiCond521) Conditional ??CrossCallReturnLabel_350
          CFI (cfiCond521) R24 Frame(CFA_Y, -1)
          CFI (cfiCond521) CFA_SP SP+4
          CFI (cfiCond521) CFA_Y Y+1
          CFI Block cfiPicker522 Using cfiCommon2
          CFI (cfiPicker522) NoFunction
          CFI (cfiPicker522) Picker
        LDI     R16, 1
        RJMP    led_all
          CFI EndBlock cfiCond515
          CFI EndBlock cfiCond516
          CFI EndBlock cfiCond517
          CFI EndBlock cfiCond518
          CFI EndBlock cfiCond519
          CFI EndBlock cfiCond520
          CFI EndBlock cfiCond521
          CFI EndBlock cfiPicker522

        RSEG CODE:CODE:NOROOT(1)
?Subroutine0:
          CFI Block cfiCond523 Using cfiCommon0
          CFI Function programming
          CFI Conditional ??CrossCallReturnLabel_0
          CFI R24 Frame(CFA_Y, -1)
          CFI CFA_SP SP+4
          CFI CFA_Y Y+1
          CFI Block cfiCond524 Using cfiCommon0
          CFI (cfiCond524) Function programming
          CFI (cfiCond524) Conditional ??CrossCallReturnLabel_1
          CFI (cfiCond524) R24 Frame(CFA_Y, -1)
          CFI (cfiCond524) CFA_SP SP+4
          CFI (cfiCond524) CFA_Y Y+1
          CFI Block cfiPicker525 Using cfiCommon2
          CFI (cfiPicker525) NoFunction
          CFI (cfiPicker525) Picker
        LDI     R16, 1
        RCALL   ?Subroutine109
??CrossCallReturnLabel_220:
        LDI     R16, 0
        RCALL   ?Subroutine109
??CrossCallReturnLabel_221:
        DEC     R24
        RET
          CFI EndBlock cfiCond523
          CFI EndBlock cfiCond524
          CFI EndBlock cfiPicker525

        RSEG CODE:CODE:NOROOT(1)
?Subroutine109:
          CFI Block cfiCond526 Using cfiCommon0
          CFI Function programming
          CFI Conditional ??CrossCallReturnLabel_220, ??CrossCallReturnLabel_0
          CFI R24 Frame(CFA_Y, -1)
          CFI CFA_SP SP+6
          CFI CFA_Y Y+1
          CFI Block cfiCond527 Using cfiCommon0
          CFI (cfiCond527) Function programming
          CFI (cfiCond527) Conditional ??CrossCallReturnLabel_220, ??CrossCallReturnLabel_1
          CFI (cfiCond527) R24 Frame(CFA_Y, -1)
          CFI (cfiCond527) CFA_SP SP+6
          CFI (cfiCond527) CFA_Y Y+1
          CFI Block cfiCond528 Using cfiCommon0
          CFI (cfiCond528) Function programming
          CFI (cfiCond528) Conditional ??CrossCallReturnLabel_221, ??CrossCallReturnLabel_0
          CFI (cfiCond528) R24 Frame(CFA_Y, -1)
          CFI (cfiCond528) CFA_SP SP+6
          CFI (cfiCond528) CFA_Y Y+1
          CFI Block cfiCond529 Using cfiCommon0
          CFI (cfiCond529) Function programming
          CFI (cfiCond529) Conditional ??CrossCallReturnLabel_221, ??CrossCallReturnLabel_1
          CFI (cfiCond529) R24 Frame(CFA_Y, -1)
          CFI (cfiCond529) CFA_SP SP+6
          CFI (cfiCond529) CFA_Y Y+1
          CFI Block cfiPicker530 Using cfiCommon2
          CFI (cfiPicker530) NoFunction
          CFI (cfiPicker530) Picker
        RCALL   led_all
        LDI     R16, 255
        LDI     R17, 225
        LDI     R18, 4
        SUBI    R16, 1
        SBCI    R17, 0
        SBCI    R18, 0
        BRNE    $-6
        RJMP    $+2
        NOP
        RET
          CFI EndBlock cfiCond526
          CFI EndBlock cfiCond527
          CFI EndBlock cfiCond528
          CFI EndBlock cfiCond529
          CFI EndBlock cfiPicker530
//  393 //--------------------------------------------------------------------
//  394 

        RSEG CODE:CODE:NOROOT(1)
//  395 void writeCOD()
writeCOD:
          CFI Block cfiBlock531 Using cfiCommon0
          CFI Function writeCOD
//  396 {
        FUNCALL writeCOD, rprintfStr
        LOCFRAME CSTACK, 1, STACK
        LOCFRAME RSTACK, 2, STACK
        ARGFRAME RSTACK, 0, STACK
        FUNCALL writeCOD, led_all
        LOCFRAME CSTACK, 1, STACK
        LOCFRAME RSTACK, 2, STACK
        ARGFRAME RSTACK, 0, STACK
        FUNCALL writeCOD, getadr
        LOCFRAME CSTACK, 1, STACK
        LOCFRAME RSTACK, 2, STACK
        ARGFRAME RSTACK, 0, STACK
        FUNCALL writeCOD, led_all
        LOCFRAME CSTACK, 1, STACK
        LOCFRAME RSTACK, 2, STACK
        ARGFRAME RSTACK, 0, STACK
        FUNCALL writeCOD, rprintfStr
        LOCFRAME CSTACK, 1, STACK
        LOCFRAME RSTACK, 2, STACK
        ARGFRAME RSTACK, 0, STACK
        FUNCALL writeCOD, USART_SendChar
        LOCFRAME CSTACK, 1, STACK
        LOCFRAME RSTACK, 2, STACK
        ARGFRAME RSTACK, 0, STACK
        ST      -Y, R24
          CFI R24 Frame(CFA_Y, -1)
          CFI CFA_Y Y+1
//  397   rprintfStr("write ..");
        LDI     R16, LOW(`?<Constant "write ..">`)
        LDI     R17, (`?<Constant "write ..">`) >> 8
        RCALL   rprintfStr
//  398   led_all(1);delay_s(3);
        RCALL   ??Subroutine135_0
??CrossCallReturnLabel_345:
        LDI     R16, 255
        LDI     R17, 158
        LDI     R18, 36
        SUBI    R16, 1
        SBCI    R17, 0
        SBCI    R18, 0
        BRNE    $-6
        RJMP    $+2
        NOP
//  399   uchar adr=getadr();
        RCALL   getadr
        MOV     R24, R16
//  400   led_all(0);
        RCALL   ?Subroutine12
//  401   
//  402        
//  403        k[adr]=cod1; delay_ms(30);
??CrossCallReturnLabel_17:
        RCALL   ?Subroutine93
??CrossCallReturnLabel_162:
        RCALL   ?Subroutine80
??CrossCallReturnLabel_135:
        RCALL   ?Subroutine101
??CrossCallReturnLabel_201:
        RCALL   ?Subroutine95
??CrossCallReturnLabel_173:
        RCALL   ?Subroutine79
//  404        k[adr+1]=cod2; delay_ms(30);
??CrossCallReturnLabel_352:
        RCALL   ??Subroutine138_0
??CrossCallReturnLabel_370:
        RCALL   ?Subroutine95
??CrossCallReturnLabel_174:
        MOVW    R21:R20, R19:R18
        SUBI    R20, 254
        SBCI    R21, 255
        RCALL   ??Subroutine136_0
//  405        k[adr+2]=cod3; delay_ms(30);
??CrossCallReturnLabel_354:
        RCALL   ??Subroutine137_0
??CrossCallReturnLabel_361:
        RCALL   ?Subroutine95
??CrossCallReturnLabel_175:
        SUBI    R18, 252
        SBCI    R19, 255
        RCALL   ?Subroutine79
//  406        
//  407        rprintfStr("OK !   "); ent;
??CrossCallReturnLabel_353:
        LDI     R16, LOW(`?<Constant "OK !   ">`)
        LDI     R17, (`?<Constant "OK !   ">`) >> 8
        RCALL   ?Subroutine44
//  408    
//  409 }
??CrossCallReturnLabel_229:
        RJMP    ?Subroutine117
          CFI EndBlock cfiBlock531

        RSEG CODE:CODE:NOROOT(1)
?Subroutine93:
          CFI Block cfiCond532 Using cfiCommon0
          CFI Function PEREP
          CFI Conditional ??CrossCallReturnLabel_161
          CFI R24 Frame(CFA_Y, -8)
          CFI R25 Frame(CFA_Y, -7)
          CFI R26 Frame(CFA_Y, -6)
          CFI R27 Frame(CFA_Y, -5)
          CFI R4 Frame(CFA_Y, -4)
          CFI R5 Frame(CFA_Y, -3)
          CFI R6 Frame(CFA_Y, -2)
          CFI R7 Frame(CFA_Y, -1)
          CFI CFA_SP SP+4
          CFI CFA_Y Y+8
          CFI Block cfiCond533 Using cfiCommon0
          CFI (cfiCond533) Function PEREP
          CFI (cfiCond533) Conditional ??CrossCallReturnLabel_164, ??CrossCallReturnLabel_35
          CFI (cfiCond533) R24 Frame(CFA_Y, -8)
          CFI (cfiCond533) R25 Frame(CFA_Y, -7)
          CFI (cfiCond533) R26 Frame(CFA_Y, -6)
          CFI (cfiCond533) R27 Frame(CFA_Y, -5)
          CFI (cfiCond533) R4 Frame(CFA_Y, -4)
          CFI (cfiCond533) R5 Frame(CFA_Y, -3)
          CFI (cfiCond533) R6 Frame(CFA_Y, -2)
          CFI (cfiCond533) R7 Frame(CFA_Y, -1)
          CFI (cfiCond533) CFA_SP SP+6
          CFI (cfiCond533) CFA_Y Y+8
          CFI Block cfiCond534 Using cfiCommon0
          CFI (cfiCond534) Function PEREP
          CFI (cfiCond534) Conditional ??CrossCallReturnLabel_164, ??CrossCallReturnLabel_36
          CFI (cfiCond534) R24 Frame(CFA_Y, -8)
          CFI (cfiCond534) R25 Frame(CFA_Y, -7)
          CFI (cfiCond534) R26 Frame(CFA_Y, -6)
          CFI (cfiCond534) R27 Frame(CFA_Y, -5)
          CFI (cfiCond534) R4 Frame(CFA_Y, -4)
          CFI (cfiCond534) R5 Frame(CFA_Y, -3)
          CFI (cfiCond534) R6 Frame(CFA_Y, -2)
          CFI (cfiCond534) R7 Frame(CFA_Y, -1)
          CFI (cfiCond534) CFA_SP SP+6
          CFI (cfiCond534) CFA_Y Y+8
          CFI Block cfiCond535 Using cfiCommon0
          CFI (cfiCond535) Function writeCOD
          CFI (cfiCond535) Conditional ??CrossCallReturnLabel_162
          CFI (cfiCond535) R24 Frame(CFA_Y, -1)
          CFI (cfiCond535) CFA_SP SP+4
          CFI (cfiCond535) CFA_Y Y+1
          CFI Block cfiCond536 Using cfiCommon0
          CFI (cfiCond536) Function diag
          CFI (cfiCond536) Conditional ??CrossCallReturnLabel_163
          CFI (cfiCond536) R24 Frame(CFA_Y, -2)
          CFI (cfiCond536) R25 Frame(CFA_Y, -1)
          CFI (cfiCond536) CFA_SP SP+4
          CFI (cfiCond536) CFA_Y Y+2
          CFI Block cfiPicker537 Using cfiCommon2
          CFI (cfiPicker537) NoFunction
          CFI (cfiPicker537) Picker
        LDI     R16, 2
        MUL     R24, R16
        RET
          CFI EndBlock cfiCond532
          CFI EndBlock cfiCond533
          CFI EndBlock cfiCond534
          CFI EndBlock cfiCond535
          CFI EndBlock cfiCond536
          CFI EndBlock cfiPicker537

        RSEG CODE:CODE:NOROOT(1)
?Subroutine80:
          CFI Block cfiCond538 Using cfiCommon0
          CFI Function proverka
          CFI Conditional ??CrossCallReturnLabel_134
          CFI CFA_SP SP+4
          CFI Block cfiCond539 Using cfiCommon0
          CFI (cfiCond539) Function writeCOD
          CFI (cfiCond539) Conditional ??CrossCallReturnLabel_135
          CFI (cfiCond539) R24 Frame(CFA_Y, -1)
          CFI (cfiCond539) CFA_SP SP+4
          CFI (cfiCond539) CFA_Y Y+1
          CFI Block cfiPicker540 Using cfiCommon2
          CFI (cfiPicker540) NoFunction
          CFI (cfiPicker540) Picker
        LDI     R18, LOW(k)
        LDI     R19, (k) >> 8
        ADD     R18, R0
        ADC     R19, R1
        RET
          CFI EndBlock cfiCond538
          CFI EndBlock cfiCond539
          CFI EndBlock cfiPicker540

        RSEG CODE:CODE:NOROOT(1)
?Subroutine79:
          CFI Block cfiCond541 Using cfiCommon0
          CFI Function writeCOD
          CFI Conditional ??CrossCallReturnLabel_352
          CFI R24 Frame(CFA_Y, -1)
          CFI CFA_SP SP+4
          CFI CFA_Y Y+1
          CFI Block cfiCond542 Using cfiCommon0
          CFI (cfiCond542) Function writeCOD
          CFI (cfiCond542) Conditional ??CrossCallReturnLabel_353
          CFI (cfiCond542) R24 Frame(CFA_Y, -1)
          CFI (cfiCond542) CFA_SP SP+4
          CFI (cfiCond542) CFA_Y Y+1
          CFI Block cfiPicker543 Using cfiCommon2
          CFI (cfiPicker543) NoFunction
          CFI (cfiPicker543) Picker
        MOVW    R21:R20, R19:R18
          CFI EndBlock cfiCond541
          CFI EndBlock cfiCond542
          CFI EndBlock cfiPicker543
        REQUIRE ??Subroutine136_0
        ;               // Fall through to label ??Subroutine136_0

        RSEG CODE:CODE:NOROOT(1)
??Subroutine136_0:
          CFI Block cfiCond544 Using cfiCommon0
          CFI Function writeCOD
          CFI Conditional ??CrossCallReturnLabel_354
          CFI R24 Frame(CFA_Y, -1)
          CFI CFA_SP SP+4
          CFI CFA_Y Y+1
          CFI Block cfiCond545 Using cfiCommon0
          CFI (cfiCond545) Function writeCOD
          CFI (cfiCond545) Conditional ??CrossCallReturnLabel_352
          CFI (cfiCond545) R24 Frame(CFA_Y, -1)
          CFI (cfiCond545) CFA_SP SP+4
          CFI (cfiCond545) CFA_Y Y+1
          CFI Block cfiCond546 Using cfiCommon0
          CFI (cfiCond546) Function writeCOD
          CFI (cfiCond546) Conditional ??CrossCallReturnLabel_353
          CFI (cfiCond546) R24 Frame(CFA_Y, -1)
          CFI (cfiCond546) CFA_SP SP+4
          CFI (cfiCond546) CFA_Y Y+1
          CFI Block cfiPicker547 Using cfiCommon2
          CFI (cfiPicker547) NoFunction
          CFI (cfiPicker547) Picker
        RCALL   __eeput16_16
        LDI     R16, 47
        LDI     R17, 117
        SUBI    R16, 1
        SBCI    R17, 0
        BRNE    $-4
        RJMP    $+2
        NOP
        RET
          CFI EndBlock cfiCond544
          CFI EndBlock cfiCond545
          CFI EndBlock cfiCond546
          CFI EndBlock cfiPicker547

        RSEG CODE:CODE:NOROOT(1)
?Subroutine42:
          CFI Block cfiCond548 Using cfiCommon0
          CFI Function PEREP
          CFI Conditional ??CrossCallReturnLabel_355
          CFI R24 Frame(CFA_Y, -8)
          CFI R25 Frame(CFA_Y, -7)
          CFI R26 Frame(CFA_Y, -6)
          CFI R27 Frame(CFA_Y, -5)
          CFI R4 Frame(CFA_Y, -4)
          CFI R5 Frame(CFA_Y, -3)
          CFI R6 Frame(CFA_Y, -2)
          CFI R7 Frame(CFA_Y, -1)
          CFI CFA_SP SP+4
          CFI CFA_Y Y+8
          CFI Block cfiCond549 Using cfiCommon0
          CFI (cfiCond549) Function coding
          CFI (cfiCond549) Conditional ??CrossCallReturnLabel_356
          CFI (cfiCond549) R24 Frame(CFA_Y, -10)
          CFI (cfiCond549) R25 Frame(CFA_Y, -9)
          CFI (cfiCond549) R26 Frame(CFA_Y, -8)
          CFI (cfiCond549) R27 Frame(CFA_Y, -7)
          CFI (cfiCond549) R4 Frame(CFA_Y, -6)
          CFI (cfiCond549) R5 Frame(CFA_Y, -5)
          CFI (cfiCond549) R6 Frame(CFA_Y, -4)
          CFI (cfiCond549) R7 Frame(CFA_Y, -3)
          CFI (cfiCond549) R8 Frame(CFA_Y, -2)
          CFI (cfiCond549) R9 Frame(CFA_Y, -1)
          CFI (cfiCond549) CFA_SP SP+4
          CFI (cfiCond549) CFA_Y Y+10
          CFI Block cfiPicker550 Using cfiCommon2
          CFI (cfiPicker550) NoFunction
          CFI (cfiPicker550) Picker
        RCALL   rprintfStr
          CFI EndBlock cfiCond548
          CFI EndBlock cfiCond549
          CFI EndBlock cfiPicker550
        REQUIRE ??Subroutine137_0
        ;               // Fall through to label ??Subroutine137_0

        RSEG CODE:CODE:NOROOT(1)
??Subroutine137_0:
          CFI Block cfiCond551 Using cfiCommon0
          CFI Function coding
          CFI Conditional ??CrossCallReturnLabel_357
          CFI R24 Frame(CFA_Y, -10)
          CFI R25 Frame(CFA_Y, -9)
          CFI R26 Frame(CFA_Y, -8)
          CFI R27 Frame(CFA_Y, -7)
          CFI R4 Frame(CFA_Y, -6)
          CFI R5 Frame(CFA_Y, -5)
          CFI R6 Frame(CFA_Y, -4)
          CFI R7 Frame(CFA_Y, -3)
          CFI R8 Frame(CFA_Y, -2)
          CFI R9 Frame(CFA_Y, -1)
          CFI CFA_SP SP+4
          CFI CFA_Y Y+10
          CFI Block cfiCond552 Using cfiCommon0
          CFI (cfiCond552) Function coding
          CFI (cfiCond552) Conditional ??CrossCallReturnLabel_358
          CFI (cfiCond552) R24 Frame(CFA_Y, -10)
          CFI (cfiCond552) R25 Frame(CFA_Y, -9)
          CFI (cfiCond552) R26 Frame(CFA_Y, -8)
          CFI (cfiCond552) R27 Frame(CFA_Y, -7)
          CFI (cfiCond552) R4 Frame(CFA_Y, -6)
          CFI (cfiCond552) R5 Frame(CFA_Y, -5)
          CFI (cfiCond552) R6 Frame(CFA_Y, -4)
          CFI (cfiCond552) R7 Frame(CFA_Y, -3)
          CFI (cfiCond552) R8 Frame(CFA_Y, -2)
          CFI (cfiCond552) R9 Frame(CFA_Y, -1)
          CFI (cfiCond552) CFA_SP SP+4
          CFI (cfiCond552) CFA_Y Y+10
          CFI Block cfiCond553 Using cfiCommon0
          CFI (cfiCond553) Function coding
          CFI (cfiCond553) Conditional ??CrossCallReturnLabel_359
          CFI (cfiCond553) R24 Frame(CFA_Y, -10)
          CFI (cfiCond553) R25 Frame(CFA_Y, -9)
          CFI (cfiCond553) R26 Frame(CFA_Y, -8)
          CFI (cfiCond553) R27 Frame(CFA_Y, -7)
          CFI (cfiCond553) R4 Frame(CFA_Y, -6)
          CFI (cfiCond553) R5 Frame(CFA_Y, -5)
          CFI (cfiCond553) R6 Frame(CFA_Y, -4)
          CFI (cfiCond553) R7 Frame(CFA_Y, -3)
          CFI (cfiCond553) R8 Frame(CFA_Y, -2)
          CFI (cfiCond553) R9 Frame(CFA_Y, -1)
          CFI (cfiCond553) CFA_SP SP+4
          CFI (cfiCond553) CFA_Y Y+10
          CFI Block cfiCond554 Using cfiCommon0
          CFI (cfiCond554) Function coding
          CFI (cfiCond554) Conditional ??CrossCallReturnLabel_360
          CFI (cfiCond554) R24 Frame(CFA_Y, -10)
          CFI (cfiCond554) R25 Frame(CFA_Y, -9)
          CFI (cfiCond554) R26 Frame(CFA_Y, -8)
          CFI (cfiCond554) R27 Frame(CFA_Y, -7)
          CFI (cfiCond554) R4 Frame(CFA_Y, -6)
          CFI (cfiCond554) R5 Frame(CFA_Y, -5)
          CFI (cfiCond554) R6 Frame(CFA_Y, -4)
          CFI (cfiCond554) R7 Frame(CFA_Y, -3)
          CFI (cfiCond554) R8 Frame(CFA_Y, -2)
          CFI (cfiCond554) R9 Frame(CFA_Y, -1)
          CFI (cfiCond554) CFA_SP SP+4
          CFI (cfiCond554) CFA_Y Y+10
          CFI Block cfiCond555 Using cfiCommon0
          CFI (cfiCond555) Function writeCOD
          CFI (cfiCond555) Conditional ??CrossCallReturnLabel_361
          CFI (cfiCond555) R24 Frame(CFA_Y, -1)
          CFI (cfiCond555) CFA_SP SP+4
          CFI (cfiCond555) CFA_Y Y+1
          CFI Block cfiCond556 Using cfiCommon0
          CFI (cfiCond556) Function PEREP
          CFI (cfiCond556) Conditional ??CrossCallReturnLabel_355
          CFI (cfiCond556) R24 Frame(CFA_Y, -8)
          CFI (cfiCond556) R25 Frame(CFA_Y, -7)
          CFI (cfiCond556) R26 Frame(CFA_Y, -6)
          CFI (cfiCond556) R27 Frame(CFA_Y, -5)
          CFI (cfiCond556) R4 Frame(CFA_Y, -4)
          CFI (cfiCond556) R5 Frame(CFA_Y, -3)
          CFI (cfiCond556) R6 Frame(CFA_Y, -2)
          CFI (cfiCond556) R7 Frame(CFA_Y, -1)
          CFI (cfiCond556) CFA_SP SP+4
          CFI (cfiCond556) CFA_Y Y+8
          CFI Block cfiCond557 Using cfiCommon0
          CFI (cfiCond557) Function coding
          CFI (cfiCond557) Conditional ??CrossCallReturnLabel_356
          CFI (cfiCond557) R24 Frame(CFA_Y, -10)
          CFI (cfiCond557) R25 Frame(CFA_Y, -9)
          CFI (cfiCond557) R26 Frame(CFA_Y, -8)
          CFI (cfiCond557) R27 Frame(CFA_Y, -7)
          CFI (cfiCond557) R4 Frame(CFA_Y, -6)
          CFI (cfiCond557) R5 Frame(CFA_Y, -5)
          CFI (cfiCond557) R6 Frame(CFA_Y, -4)
          CFI (cfiCond557) R7 Frame(CFA_Y, -3)
          CFI (cfiCond557) R8 Frame(CFA_Y, -2)
          CFI (cfiCond557) R9 Frame(CFA_Y, -1)
          CFI (cfiCond557) CFA_SP SP+4
          CFI (cfiCond557) CFA_Y Y+10
          CFI Block cfiPicker558 Using cfiCommon2
          CFI (cfiPicker558) NoFunction
          CFI (cfiPicker558) Picker
        LDI     R30, LOW(cod3)
        LDI     R31, (cod3) >> 8
        RET
          CFI EndBlock cfiCond551
          CFI EndBlock cfiCond552
          CFI EndBlock cfiCond553
          CFI EndBlock cfiCond554
          CFI EndBlock cfiCond555
          CFI EndBlock cfiCond556
          CFI EndBlock cfiCond557
          CFI EndBlock cfiPicker558

        RSEG CODE:CODE:NOROOT(1)
?Subroutine40:
          CFI Block cfiCond559 Using cfiCommon0
          CFI Function PEREP
          CFI Conditional ??CrossCallReturnLabel_362
          CFI R24 Frame(CFA_Y, -8)
          CFI R25 Frame(CFA_Y, -7)
          CFI R26 Frame(CFA_Y, -6)
          CFI R27 Frame(CFA_Y, -5)
          CFI R4 Frame(CFA_Y, -4)
          CFI R5 Frame(CFA_Y, -3)
          CFI R6 Frame(CFA_Y, -2)
          CFI R7 Frame(CFA_Y, -1)
          CFI CFA_SP SP+4
          CFI CFA_Y Y+8
          CFI Block cfiCond560 Using cfiCommon0
          CFI (cfiCond560) Function coding
          CFI (cfiCond560) Conditional ??CrossCallReturnLabel_363
          CFI (cfiCond560) R24 Frame(CFA_Y, -10)
          CFI (cfiCond560) R25 Frame(CFA_Y, -9)
          CFI (cfiCond560) R26 Frame(CFA_Y, -8)
          CFI (cfiCond560) R27 Frame(CFA_Y, -7)
          CFI (cfiCond560) R4 Frame(CFA_Y, -6)
          CFI (cfiCond560) R5 Frame(CFA_Y, -5)
          CFI (cfiCond560) R6 Frame(CFA_Y, -4)
          CFI (cfiCond560) R7 Frame(CFA_Y, -3)
          CFI (cfiCond560) R8 Frame(CFA_Y, -2)
          CFI (cfiCond560) R9 Frame(CFA_Y, -1)
          CFI (cfiCond560) CFA_SP SP+4
          CFI (cfiCond560) CFA_Y Y+10
          CFI Block cfiPicker561 Using cfiCommon2
          CFI (cfiPicker561) NoFunction
          CFI (cfiPicker561) Picker
        RCALL   rprintfStr
          CFI EndBlock cfiCond559
          CFI EndBlock cfiCond560
          CFI EndBlock cfiPicker561
        REQUIRE ??Subroutine138_0
        ;               // Fall through to label ??Subroutine138_0

        RSEG CODE:CODE:NOROOT(1)
??Subroutine138_0:
          CFI Block cfiCond562 Using cfiCommon0
          CFI Function coding
          CFI Conditional ??CrossCallReturnLabel_364
          CFI R24 Frame(CFA_Y, -10)
          CFI R25 Frame(CFA_Y, -9)
          CFI R26 Frame(CFA_Y, -8)
          CFI R27 Frame(CFA_Y, -7)
          CFI R4 Frame(CFA_Y, -6)
          CFI R5 Frame(CFA_Y, -5)
          CFI R6 Frame(CFA_Y, -4)
          CFI R7 Frame(CFA_Y, -3)
          CFI R8 Frame(CFA_Y, -2)
          CFI R9 Frame(CFA_Y, -1)
          CFI CFA_SP SP+4
          CFI CFA_Y Y+10
          CFI Block cfiCond563 Using cfiCommon0
          CFI (cfiCond563) Function coding
          CFI (cfiCond563) Conditional ??CrossCallReturnLabel_365
          CFI (cfiCond563) R24 Frame(CFA_Y, -10)
          CFI (cfiCond563) R25 Frame(CFA_Y, -9)
          CFI (cfiCond563) R26 Frame(CFA_Y, -8)
          CFI (cfiCond563) R27 Frame(CFA_Y, -7)
          CFI (cfiCond563) R4 Frame(CFA_Y, -6)
          CFI (cfiCond563) R5 Frame(CFA_Y, -5)
          CFI (cfiCond563) R6 Frame(CFA_Y, -4)
          CFI (cfiCond563) R7 Frame(CFA_Y, -3)
          CFI (cfiCond563) R8 Frame(CFA_Y, -2)
          CFI (cfiCond563) R9 Frame(CFA_Y, -1)
          CFI (cfiCond563) CFA_SP SP+4
          CFI (cfiCond563) CFA_Y Y+10
          CFI Block cfiCond564 Using cfiCommon0
          CFI (cfiCond564) Function coding
          CFI (cfiCond564) Conditional ??CrossCallReturnLabel_366
          CFI (cfiCond564) R24 Frame(CFA_Y, -10)
          CFI (cfiCond564) R25 Frame(CFA_Y, -9)
          CFI (cfiCond564) R26 Frame(CFA_Y, -8)
          CFI (cfiCond564) R27 Frame(CFA_Y, -7)
          CFI (cfiCond564) R4 Frame(CFA_Y, -6)
          CFI (cfiCond564) R5 Frame(CFA_Y, -5)
          CFI (cfiCond564) R6 Frame(CFA_Y, -4)
          CFI (cfiCond564) R7 Frame(CFA_Y, -3)
          CFI (cfiCond564) R8 Frame(CFA_Y, -2)
          CFI (cfiCond564) R9 Frame(CFA_Y, -1)
          CFI (cfiCond564) CFA_SP SP+4
          CFI (cfiCond564) CFA_Y Y+10
          CFI Block cfiCond565 Using cfiCommon0
          CFI (cfiCond565) Function coding
          CFI (cfiCond565) Conditional ??CrossCallReturnLabel_367
          CFI (cfiCond565) R24 Frame(CFA_Y, -10)
          CFI (cfiCond565) R25 Frame(CFA_Y, -9)
          CFI (cfiCond565) R26 Frame(CFA_Y, -8)
          CFI (cfiCond565) R27 Frame(CFA_Y, -7)
          CFI (cfiCond565) R4 Frame(CFA_Y, -6)
          CFI (cfiCond565) R5 Frame(CFA_Y, -5)
          CFI (cfiCond565) R6 Frame(CFA_Y, -4)
          CFI (cfiCond565) R7 Frame(CFA_Y, -3)
          CFI (cfiCond565) R8 Frame(CFA_Y, -2)
          CFI (cfiCond565) R9 Frame(CFA_Y, -1)
          CFI (cfiCond565) CFA_SP SP+4
          CFI (cfiCond565) CFA_Y Y+10
          CFI Block cfiCond566 Using cfiCommon0
          CFI (cfiCond566) Function coding
          CFI (cfiCond566) Conditional ??CrossCallReturnLabel_368
          CFI (cfiCond566) R24 Frame(CFA_Y, -10)
          CFI (cfiCond566) R25 Frame(CFA_Y, -9)
          CFI (cfiCond566) R26 Frame(CFA_Y, -8)
          CFI (cfiCond566) R27 Frame(CFA_Y, -7)
          CFI (cfiCond566) R4 Frame(CFA_Y, -6)
          CFI (cfiCond566) R5 Frame(CFA_Y, -5)
          CFI (cfiCond566) R6 Frame(CFA_Y, -4)
          CFI (cfiCond566) R7 Frame(CFA_Y, -3)
          CFI (cfiCond566) R8 Frame(CFA_Y, -2)
          CFI (cfiCond566) R9 Frame(CFA_Y, -1)
          CFI (cfiCond566) CFA_SP SP+4
          CFI (cfiCond566) CFA_Y Y+10
          CFI Block cfiCond567 Using cfiCommon0
          CFI (cfiCond567) Function coding
          CFI (cfiCond567) Conditional ??CrossCallReturnLabel_369
          CFI (cfiCond567) R24 Frame(CFA_Y, -10)
          CFI (cfiCond567) R25 Frame(CFA_Y, -9)
          CFI (cfiCond567) R26 Frame(CFA_Y, -8)
          CFI (cfiCond567) R27 Frame(CFA_Y, -7)
          CFI (cfiCond567) R4 Frame(CFA_Y, -6)
          CFI (cfiCond567) R5 Frame(CFA_Y, -5)
          CFI (cfiCond567) R6 Frame(CFA_Y, -4)
          CFI (cfiCond567) R7 Frame(CFA_Y, -3)
          CFI (cfiCond567) R8 Frame(CFA_Y, -2)
          CFI (cfiCond567) R9 Frame(CFA_Y, -1)
          CFI (cfiCond567) CFA_SP SP+4
          CFI (cfiCond567) CFA_Y Y+10
          CFI Block cfiCond568 Using cfiCommon0
          CFI (cfiCond568) Function writeCOD
          CFI (cfiCond568) Conditional ??CrossCallReturnLabel_370
          CFI (cfiCond568) R24 Frame(CFA_Y, -1)
          CFI (cfiCond568) CFA_SP SP+4
          CFI (cfiCond568) CFA_Y Y+1
          CFI Block cfiCond569 Using cfiCommon0
          CFI (cfiCond569) Function PEREP
          CFI (cfiCond569) Conditional ??CrossCallReturnLabel_362
          CFI (cfiCond569) R24 Frame(CFA_Y, -8)
          CFI (cfiCond569) R25 Frame(CFA_Y, -7)
          CFI (cfiCond569) R26 Frame(CFA_Y, -6)
          CFI (cfiCond569) R27 Frame(CFA_Y, -5)
          CFI (cfiCond569) R4 Frame(CFA_Y, -4)
          CFI (cfiCond569) R5 Frame(CFA_Y, -3)
          CFI (cfiCond569) R6 Frame(CFA_Y, -2)
          CFI (cfiCond569) R7 Frame(CFA_Y, -1)
          CFI (cfiCond569) CFA_SP SP+4
          CFI (cfiCond569) CFA_Y Y+8
          CFI Block cfiCond570 Using cfiCommon0
          CFI (cfiCond570) Function coding
          CFI (cfiCond570) Conditional ??CrossCallReturnLabel_363
          CFI (cfiCond570) R24 Frame(CFA_Y, -10)
          CFI (cfiCond570) R25 Frame(CFA_Y, -9)
          CFI (cfiCond570) R26 Frame(CFA_Y, -8)
          CFI (cfiCond570) R27 Frame(CFA_Y, -7)
          CFI (cfiCond570) R4 Frame(CFA_Y, -6)
          CFI (cfiCond570) R5 Frame(CFA_Y, -5)
          CFI (cfiCond570) R6 Frame(CFA_Y, -4)
          CFI (cfiCond570) R7 Frame(CFA_Y, -3)
          CFI (cfiCond570) R8 Frame(CFA_Y, -2)
          CFI (cfiCond570) R9 Frame(CFA_Y, -1)
          CFI (cfiCond570) CFA_SP SP+4
          CFI (cfiCond570) CFA_Y Y+10
          CFI Block cfiPicker571 Using cfiCommon2
          CFI (cfiPicker571) NoFunction
          CFI (cfiPicker571) Picker
        LDI     R30, LOW(cod2)
        LDI     R31, (cod2) >> 8
        RET
          CFI EndBlock cfiCond562
          CFI EndBlock cfiCond563
          CFI EndBlock cfiCond564
          CFI EndBlock cfiCond565
          CFI EndBlock cfiCond566
          CFI EndBlock cfiCond567
          CFI EndBlock cfiCond568
          CFI EndBlock cfiCond569
          CFI EndBlock cfiCond570
          CFI EndBlock cfiPicker571

        RSEG CODE:CODE:NOROOT(1)
?Subroutine101:
          CFI Block cfiCond572 Using cfiCommon0
          CFI Function PEREP
          CFI Conditional ??CrossCallReturnLabel_203, ??CrossCallReturnLabel_300
          CFI R24 Frame(CFA_Y, -8)
          CFI R25 Frame(CFA_Y, -7)
          CFI R26 Frame(CFA_Y, -6)
          CFI R27 Frame(CFA_Y, -5)
          CFI R4 Frame(CFA_Y, -4)
          CFI R5 Frame(CFA_Y, -3)
          CFI R6 Frame(CFA_Y, -2)
          CFI R7 Frame(CFA_Y, -1)
          CFI CFA_SP SP+6
          CFI CFA_Y Y+8
          CFI Block cfiCond573 Using cfiCommon0
          CFI (cfiCond573) Function coding
          CFI (cfiCond573) Conditional ??CrossCallReturnLabel_203, ??CrossCallReturnLabel_299
          CFI (cfiCond573) R24 Frame(CFA_Y, -10)
          CFI (cfiCond573) R25 Frame(CFA_Y, -9)
          CFI (cfiCond573) R26 Frame(CFA_Y, -8)
          CFI (cfiCond573) R27 Frame(CFA_Y, -7)
          CFI (cfiCond573) R4 Frame(CFA_Y, -6)
          CFI (cfiCond573) R5 Frame(CFA_Y, -5)
          CFI (cfiCond573) R6 Frame(CFA_Y, -4)
          CFI (cfiCond573) R7 Frame(CFA_Y, -3)
          CFI (cfiCond573) R8 Frame(CFA_Y, -2)
          CFI (cfiCond573) R9 Frame(CFA_Y, -1)
          CFI (cfiCond573) CFA_SP SP+6
          CFI (cfiCond573) CFA_Y Y+10
          CFI Block cfiCond574 Using cfiCommon0
          CFI (cfiCond574) Function PEREP
          CFI (cfiCond574) Conditional ??CrossCallReturnLabel_202, ??CrossCallReturnLabel_14
          CFI (cfiCond574) R24 Frame(CFA_Y, -8)
          CFI (cfiCond574) R25 Frame(CFA_Y, -7)
          CFI (cfiCond574) R26 Frame(CFA_Y, -6)
          CFI (cfiCond574) R27 Frame(CFA_Y, -5)
          CFI (cfiCond574) R4 Frame(CFA_Y, -4)
          CFI (cfiCond574) R5 Frame(CFA_Y, -3)
          CFI (cfiCond574) R6 Frame(CFA_Y, -2)
          CFI (cfiCond574) R7 Frame(CFA_Y, -1)
          CFI (cfiCond574) CFA_SP SP+6
          CFI (cfiCond574) CFA_Y Y+8
          CFI Block cfiCond575 Using cfiCommon0
          CFI (cfiCond575) Function main
          CFI (cfiCond575) Conditional ??CrossCallReturnLabel_202, ??CrossCallReturnLabel_13
          CFI (cfiCond575) R24 Frame(CFA_Y, -1)
          CFI (cfiCond575) CFA_SP SP+6
          CFI (cfiCond575) CFA_Y Y+1
          CFI Block cfiCond576 Using cfiCommon0
          CFI (cfiCond576) Function coding
          CFI (cfiCond576) Conditional ??CrossCallReturnLabel_195
          CFI (cfiCond576) R24 Frame(CFA_Y, -10)
          CFI (cfiCond576) R25 Frame(CFA_Y, -9)
          CFI (cfiCond576) R26 Frame(CFA_Y, -8)
          CFI (cfiCond576) R27 Frame(CFA_Y, -7)
          CFI (cfiCond576) R4 Frame(CFA_Y, -6)
          CFI (cfiCond576) R5 Frame(CFA_Y, -5)
          CFI (cfiCond576) R6 Frame(CFA_Y, -4)
          CFI (cfiCond576) R7 Frame(CFA_Y, -3)
          CFI (cfiCond576) R8 Frame(CFA_Y, -2)
          CFI (cfiCond576) R9 Frame(CFA_Y, -1)
          CFI (cfiCond576) CFA_SP SP+4
          CFI (cfiCond576) CFA_Y Y+10
          CFI Block cfiCond577 Using cfiCommon0
          CFI (cfiCond577) Function coding
          CFI (cfiCond577) Conditional ??CrossCallReturnLabel_196
          CFI (cfiCond577) R24 Frame(CFA_Y, -10)
          CFI (cfiCond577) R25 Frame(CFA_Y, -9)
          CFI (cfiCond577) R26 Frame(CFA_Y, -8)
          CFI (cfiCond577) R27 Frame(CFA_Y, -7)
          CFI (cfiCond577) R4 Frame(CFA_Y, -6)
          CFI (cfiCond577) R5 Frame(CFA_Y, -5)
          CFI (cfiCond577) R6 Frame(CFA_Y, -4)
          CFI (cfiCond577) R7 Frame(CFA_Y, -3)
          CFI (cfiCond577) R8 Frame(CFA_Y, -2)
          CFI (cfiCond577) R9 Frame(CFA_Y, -1)
          CFI (cfiCond577) CFA_SP SP+4
          CFI (cfiCond577) CFA_Y Y+10
          CFI Block cfiCond578 Using cfiCommon0
          CFI (cfiCond578) Function coding
          CFI (cfiCond578) Conditional ??CrossCallReturnLabel_197
          CFI (cfiCond578) R24 Frame(CFA_Y, -10)
          CFI (cfiCond578) R25 Frame(CFA_Y, -9)
          CFI (cfiCond578) R26 Frame(CFA_Y, -8)
          CFI (cfiCond578) R27 Frame(CFA_Y, -7)
          CFI (cfiCond578) R4 Frame(CFA_Y, -6)
          CFI (cfiCond578) R5 Frame(CFA_Y, -5)
          CFI (cfiCond578) R6 Frame(CFA_Y, -4)
          CFI (cfiCond578) R7 Frame(CFA_Y, -3)
          CFI (cfiCond578) R8 Frame(CFA_Y, -2)
          CFI (cfiCond578) R9 Frame(CFA_Y, -1)
          CFI (cfiCond578) CFA_SP SP+4
          CFI (cfiCond578) CFA_Y Y+10
          CFI Block cfiCond579 Using cfiCommon0
          CFI (cfiCond579) Function coding
          CFI (cfiCond579) Conditional ??CrossCallReturnLabel_198
          CFI (cfiCond579) R24 Frame(CFA_Y, -10)
          CFI (cfiCond579) R25 Frame(CFA_Y, -9)
          CFI (cfiCond579) R26 Frame(CFA_Y, -8)
          CFI (cfiCond579) R27 Frame(CFA_Y, -7)
          CFI (cfiCond579) R4 Frame(CFA_Y, -6)
          CFI (cfiCond579) R5 Frame(CFA_Y, -5)
          CFI (cfiCond579) R6 Frame(CFA_Y, -4)
          CFI (cfiCond579) R7 Frame(CFA_Y, -3)
          CFI (cfiCond579) R8 Frame(CFA_Y, -2)
          CFI (cfiCond579) R9 Frame(CFA_Y, -1)
          CFI (cfiCond579) CFA_SP SP+4
          CFI (cfiCond579) CFA_Y Y+10
          CFI Block cfiCond580 Using cfiCommon0
          CFI (cfiCond580) Function coding
          CFI (cfiCond580) Conditional ??CrossCallReturnLabel_199
          CFI (cfiCond580) R24 Frame(CFA_Y, -10)
          CFI (cfiCond580) R25 Frame(CFA_Y, -9)
          CFI (cfiCond580) R26 Frame(CFA_Y, -8)
          CFI (cfiCond580) R27 Frame(CFA_Y, -7)
          CFI (cfiCond580) R4 Frame(CFA_Y, -6)
          CFI (cfiCond580) R5 Frame(CFA_Y, -5)
          CFI (cfiCond580) R6 Frame(CFA_Y, -4)
          CFI (cfiCond580) R7 Frame(CFA_Y, -3)
          CFI (cfiCond580) R8 Frame(CFA_Y, -2)
          CFI (cfiCond580) R9 Frame(CFA_Y, -1)
          CFI (cfiCond580) CFA_SP SP+4
          CFI (cfiCond580) CFA_Y Y+10
          CFI Block cfiCond581 Using cfiCommon0
          CFI (cfiCond581) Function coding
          CFI (cfiCond581) Conditional ??CrossCallReturnLabel_200
          CFI (cfiCond581) R24 Frame(CFA_Y, -10)
          CFI (cfiCond581) R25 Frame(CFA_Y, -9)
          CFI (cfiCond581) R26 Frame(CFA_Y, -8)
          CFI (cfiCond581) R27 Frame(CFA_Y, -7)
          CFI (cfiCond581) R4 Frame(CFA_Y, -6)
          CFI (cfiCond581) R5 Frame(CFA_Y, -5)
          CFI (cfiCond581) R6 Frame(CFA_Y, -4)
          CFI (cfiCond581) R7 Frame(CFA_Y, -3)
          CFI (cfiCond581) R8 Frame(CFA_Y, -2)
          CFI (cfiCond581) R9 Frame(CFA_Y, -1)
          CFI (cfiCond581) CFA_SP SP+4
          CFI (cfiCond581) CFA_Y Y+10
          CFI Block cfiCond582 Using cfiCommon0
          CFI (cfiCond582) Function writeCOD
          CFI (cfiCond582) Conditional ??CrossCallReturnLabel_201
          CFI (cfiCond582) R24 Frame(CFA_Y, -1)
          CFI (cfiCond582) CFA_SP SP+4
          CFI (cfiCond582) CFA_Y Y+1
          CFI Block cfiCond583 Using cfiCommon0
          CFI (cfiCond583) Function proverka
          CFI (cfiCond583) Conditional ??CrossCallReturnLabel_204, ??CrossCallReturnLabel_222
          CFI (cfiCond583) CFA_SP SP+6
          CFI Block cfiCond584 Using cfiCommon0
          CFI (cfiCond584) Function analizCOD
          CFI (cfiCond584) Conditional ??CrossCallReturnLabel_204, ??CrossCallReturnLabel_223
          CFI (cfiCond584) R24 Frame(CFA_Y, -2)
          CFI (cfiCond584) R25 Frame(CFA_Y, -1)
          CFI (cfiCond584) CFA_SP SP+6
          CFI (cfiCond584) CFA_Y Y+2
          CFI Block cfiPicker585 Using cfiCommon2
          CFI (cfiPicker585) NoFunction
          CFI (cfiPicker585) Picker
        LDI     R30, LOW(cod1)
        LDI     R31, (cod1) >> 8
        RET
          CFI EndBlock cfiCond572
          CFI EndBlock cfiCond573
          CFI EndBlock cfiCond574
          CFI EndBlock cfiCond575
          CFI EndBlock cfiCond576
          CFI EndBlock cfiCond577
          CFI EndBlock cfiCond578
          CFI EndBlock cfiCond579
          CFI EndBlock cfiCond580
          CFI EndBlock cfiCond581
          CFI EndBlock cfiCond582
          CFI EndBlock cfiCond583
          CFI EndBlock cfiCond584
          CFI EndBlock cfiPicker585
//  410 
//  411 
//  412 
//  413  

        RSEG CODE:CODE:NOROOT(1)
//  414 uchar analizCOD ()
analizCOD:
          CFI Block cfiBlock586 Using cfiCommon0
          CFI Function analizCOD
//  415 {
        RCALL   ?PROLOGUE2_L09
          CFI R25 Frame(CFA_Y, -1)
          CFI R24 Frame(CFA_Y, -2)
          CFI CFA_Y Y+2
//  416  uint i;
//  417   for (i=0; i<MAXEEP-4; i++) 
        LDI     R24, 0
        LDI     R25, 0
//  418   {
//  419    // if ((kbuf[i])==cod1)  if ((kbuf[i+1])==cod2) if ((kbuf[i+2])==cod3) return(i);
//  420     if ((k[i])==cod1)  if ((k[i+1])==cod2) if ((k[i+2])==cod3) return(i);   
??analizCOD_0:
        MOVW    R17:R16, R25:R24
        LSL     R16
        ROL     R17
        LDI     R18, LOW(k)
        LDI     R19, (k) >> 8
        ADD     R18, R16
        ADC     R19, R17
        RCALL   ?Subroutine35
??CrossCallReturnLabel_223:
        BRNE    ??analizCOD_1
        RCALL   ?Subroutine39
??CrossCallReturnLabel_44:
        BRNE    ??analizCOD_1
        RCALL   ?Subroutine41
??CrossCallReturnLabel_46:
        BRNE    ??analizCOD_1
        MOV     R16, R24
        RJMP    ??analizCOD_2
//  421   }
??analizCOD_1:
        ADIW    R25:R24, 1
        CPI     R24, 116
        LDI     R16, 0
        CPC     R25, R16
        BRCS    ??analizCOD_0
          CFI EndBlock cfiBlock586
//  422 
//  423 return(0);
??analizCOD_2:
        REQUIRE ?Subroutine125
        ;               // Fall through to label ?Subroutine125
//  424 }

        RSEG CODE:CODE:NOROOT(1)
?Subroutine125:
          CFI Block cfiBlock587 Using cfiCommon0
          CFI NoFunction
          CFI CFA_Y Y+2
          CFI R24 Frame(CFA_Y, -2)
          CFI R25 Frame(CFA_Y, -1)
        LDI     R30, 2
        RJMP    ?EPILOGUE_B2_L09
          CFI EndBlock cfiBlock587

        RSEG CODE:CODE:NOROOT(1)
?Subroutine41:
          CFI Block cfiCond588 Using cfiCommon0
          CFI Function proverka
          CFI Conditional ??CrossCallReturnLabel_45
          CFI CFA_SP SP+4
          CFI Block cfiCond589 Using cfiCommon0
          CFI (cfiCond589) Function analizCOD
          CFI (cfiCond589) Conditional ??CrossCallReturnLabel_46
          CFI (cfiCond589) R24 Frame(CFA_Y, -2)
          CFI (cfiCond589) R25 Frame(CFA_Y, -1)
          CFI (cfiCond589) CFA_SP SP+4
          CFI (cfiCond589) CFA_Y Y+2
          CFI Block cfiPicker590 Using cfiCommon2
          CFI (cfiPicker590) NoFunction
          CFI (cfiPicker590) Picker
        SUBI    R18, 252
        SBCI    R19, 255
        MOVW    R21:R20, R19:R18
        RCALL   __eeget16_16
        LDI     R30, LOW(cod3)
        LDI     R31, (cod3) >> 8
        LD      R18, Z
        LDD     R19, Z+1
        CP      R16, R18
        CPC     R17, R19
        RET
          CFI EndBlock cfiCond588
          CFI EndBlock cfiCond589
          CFI EndBlock cfiPicker590

        RSEG CODE:CODE:NOROOT(1)
?Subroutine39:
          CFI Block cfiCond591 Using cfiCommon0
          CFI Function proverka
          CFI Conditional ??CrossCallReturnLabel_43
          CFI CFA_SP SP+4
          CFI Block cfiCond592 Using cfiCommon0
          CFI (cfiCond592) Function analizCOD
          CFI (cfiCond592) Conditional ??CrossCallReturnLabel_44
          CFI (cfiCond592) R24 Frame(CFA_Y, -2)
          CFI (cfiCond592) R25 Frame(CFA_Y, -1)
          CFI (cfiCond592) CFA_SP SP+4
          CFI (cfiCond592) CFA_Y Y+2
          CFI Block cfiPicker593 Using cfiCommon2
          CFI (cfiPicker593) NoFunction
          CFI (cfiPicker593) Picker
        MOVW    R21:R20, R19:R18
        SUBI    R20, 254
        SBCI    R21, 255
        RCALL   __eeget16_16
        LDI     R30, LOW(cod2)
        LDI     R31, (cod2) >> 8
        RJMP    ?Subroutine110
          CFI EndBlock cfiCond591
          CFI EndBlock cfiCond592
          CFI EndBlock cfiPicker593

        RSEG CODE:CODE:NOROOT(1)
?Subroutine35:
          CFI Block cfiCond594 Using cfiCommon0
          CFI Function proverka
          CFI Conditional ??CrossCallReturnLabel_222
          CFI CFA_SP SP+4
          CFI Block cfiCond595 Using cfiCommon0
          CFI (cfiCond595) Function analizCOD
          CFI (cfiCond595) Conditional ??CrossCallReturnLabel_223
          CFI (cfiCond595) R24 Frame(CFA_Y, -2)
          CFI (cfiCond595) R25 Frame(CFA_Y, -1)
          CFI (cfiCond595) CFA_SP SP+4
          CFI (cfiCond595) CFA_Y Y+2
          CFI Block cfiPicker596 Using cfiCommon2
          CFI (cfiPicker596) NoFunction
          CFI (cfiPicker596) Picker
        MOVW    R21:R20, R19:R18
        RCALL   __eeget16_16
        RCALL   ?Subroutine101
          CFI EndBlock cfiCond594
          CFI EndBlock cfiCond595
          CFI EndBlock cfiPicker596
??CrossCallReturnLabel_204:
        REQUIRE ?Subroutine110
        ;               // Fall through to label ?Subroutine110

        RSEG CODE:CODE:NOROOT(1)
?Subroutine110:
          CFI Block cfiCond597 Using cfiCommon0
          CFI Function proverka
          CFI Conditional ??CrossCallReturnLabel_43
          CFI CFA_SP SP+4
          CFI Block cfiCond598 Using cfiCommon0
          CFI (cfiCond598) Function analizCOD
          CFI (cfiCond598) Conditional ??CrossCallReturnLabel_44
          CFI (cfiCond598) R24 Frame(CFA_Y, -2)
          CFI (cfiCond598) R25 Frame(CFA_Y, -1)
          CFI (cfiCond598) CFA_SP SP+4
          CFI (cfiCond598) CFA_Y Y+2
          CFI Block cfiCond599 Using cfiCommon0
          CFI (cfiCond599) Function proverka
          CFI (cfiCond599) Conditional ??CrossCallReturnLabel_222
          CFI (cfiCond599) CFA_SP SP+4
          CFI Block cfiCond600 Using cfiCommon0
          CFI (cfiCond600) Function analizCOD
          CFI (cfiCond600) Conditional ??CrossCallReturnLabel_223
          CFI (cfiCond600) R24 Frame(CFA_Y, -2)
          CFI (cfiCond600) R25 Frame(CFA_Y, -1)
          CFI (cfiCond600) CFA_SP SP+4
          CFI (cfiCond600) CFA_Y Y+2
          CFI Block cfiPicker601 Using cfiCommon2
          CFI (cfiPicker601) NoFunction
          CFI (cfiPicker601) Picker
        LD      R20, Z
        LDD     R21, Z+1
        CP      R16, R20
        CPC     R17, R21
        RET
          CFI EndBlock cfiCond597
          CFI EndBlock cfiCond598
          CFI EndBlock cfiCond599
          CFI EndBlock cfiCond600
          CFI EndBlock cfiPicker601
//  425 
//  426 
//  427 

        RSEG CODE:CODE:NOROOT(1)
//  428 void resled(void)
resled:
          CFI Block cfiBlock602 Using cfiCommon0
          CFI Function resled
//  429 {
//  430   RES(PORTB,0);RES(PORTB,1);RES(PORTB,2);RES(PORTB,3); if (mode==0)RES(PORTB,4);
        RCALL   ?Subroutine81
??CrossCallReturnLabel_136:
        RCALL   ?Subroutine66
??CrossCallReturnLabel_255:
        BRNE    ??resled_0
        CBI     0x18, 0x04
//  431 }
??resled_0:
        RET
          CFI EndBlock cfiBlock602
        REQUIRE _A_PORTB

        RSEG CODE:CODE:NOROOT(1)
?Subroutine66:
          CFI Block cfiCond603 Using cfiCommon0
          CFI Function main
          CFI Conditional ??CrossCallReturnLabel_253
          CFI R24 Frame(CFA_Y, -1)
          CFI CFA_SP SP+4
          CFI CFA_Y Y+1
          CFI Block cfiCond604 Using cfiCommon0
          CFI (cfiCond604) Function source
          CFI (cfiCond604) Conditional ??CrossCallReturnLabel_254
          CFI (cfiCond604) CFA_SP SP+4
          CFI Block cfiCond605 Using cfiCommon0
          CFI (cfiCond605) Function resled
          CFI (cfiCond605) Conditional ??CrossCallReturnLabel_255
          CFI (cfiCond605) CFA_SP SP+4
          CFI Block cfiCond606 Using cfiCommon0
          CFI (cfiCond606) Function resOUT
          CFI (cfiCond606) Conditional ??CrossCallReturnLabel_256
          CFI (cfiCond606) CFA_SP SP+4
          CFI Block cfiPicker607 Using cfiCommon2
          CFI (cfiPicker607) NoFunction
          CFI (cfiPicker607) Picker
        LDS     R16, ??mode
        RJMP    ?Subroutine118
          CFI EndBlock cfiCond603
          CFI EndBlock cfiCond604
          CFI EndBlock cfiCond605
          CFI EndBlock cfiCond606
          CFI EndBlock cfiPicker607
//  432 
//  433 

        RSEG CODE:CODE:NOROOT(1)
//  434 void resOUT(void)
resOUT:
          CFI Block cfiBlock608 Using cfiCommon0
          CFI Function resOUT
//  435 {
//  436   RES(PORTC,1);RES(PORTC,2);RES(PORTC,3);RES(PORTC,4); if (mode==0)RES(PORTC,5);
        CBI     0x15, 0x01
        CBI     0x15, 0x02
        CBI     0x15, 0x03
        CBI     0x15, 0x04
        RCALL   ?Subroutine66
??CrossCallReturnLabel_256:
        BRNE    ??resOUT_0
        CBI     0x15, 0x05
          CFI EndBlock cfiBlock608
//  437   p2;//что бы не было перекрытия источников
??resOUT_0:
        REQUIRE ?Subroutine70
        REQUIRE _A_PORTC
        ;               // Fall through to label ?Subroutine70
//  438 }

        RSEG CODE:CODE:NOROOT(1)
?Subroutine70:
          CFI Block cfiCond609 Using cfiCommon0
          CFI Function main_logic
          CFI Conditional ??CrossCallReturnLabel_111
          CFI CFA_SP SP+4
          CFI Block cfiCond610 Using cfiCommon0
          CFI (cfiCond610) Function main_logic
          CFI (cfiCond610) Conditional ??CrossCallReturnLabel_112
          CFI (cfiCond610) CFA_SP SP+4
          CFI Block cfiCond611 Using cfiCommon0
          CFI (cfiCond611) Function main_logic
          CFI (cfiCond611) Conditional ??CrossCallReturnLabel_113
          CFI (cfiCond611) CFA_SP SP+4
          CFI Block cfiBlock612 Using cfiCommon0
          CFI (cfiBlock612) NoFunction
          CFI Block cfiPicker613 Using cfiCommon2
          CFI (cfiPicker613) NoFunction
          CFI (cfiPicker613) Picker
        LDI     R16, 255
        LDI     R17, 112
        LDI     R18, 2
        SUBI    R16, 1
        SBCI    R17, 0
        SBCI    R18, 0
        BRNE    $-6
        RJMP    $+2
        NOP
        RET
          CFI EndBlock cfiCond609
          CFI EndBlock cfiCond610
          CFI EndBlock cfiCond611
          CFI EndBlock cfiBlock612
          CFI EndBlock cfiPicker613
//  439 
//  440 
//  441  

        RSEG CODE:CODE:NOROOT(1)
//  442 void led_all(bool a)
led_all:
          CFI Block cfiBlock614 Using cfiCommon0
          CFI Function led_all
//  443 {
//  444  if (a)
        TST     R16
        BREQ    ??led_all_0
//  445  {
//  446    SET(PORTB,0);SET(PORTB,1);SET(PORTB,2);SET(PORTB,3);SET(PORTB,4);SET(PORTB,5);
        SBI     0x18, 0x00
        SBI     0x18, 0x01
        SBI     0x18, 0x02
        SBI     0x18, 0x03
        SBI     0x18, 0x04
        SBI     0x18, 0x05
//  447    /*AC_ON; */SET(PORTD,7);
        RJMP    ?Subroutine120
//  448  }
//  449  else
//  450   {
//  451    RES(PORTB,0);RES(PORTB,1);RES(PORTB,2);RES(PORTB,3);RES(PORTB,4);RES(PORTB,5);
??led_all_0:
        RCALL   ?Subroutine81
??CrossCallReturnLabel_137:
        CBI     0x18, 0x04
        CBI     0x18, 0x05
//  452    AC_OFF; RES(PORTD,7);
        CBI     0x12, 0x06
        CBI     0x12, 0x07
//  453  } 
//  454 }
        RET
          CFI EndBlock cfiBlock614
        REQUIRE _A_PORTB
        REQUIRE _A_PORTD

        RSEG CODE:CODE:NOROOT(1)
?Subroutine81:
          CFI Block cfiCond615 Using cfiCommon0
          CFI Function resled
          CFI Conditional ??CrossCallReturnLabel_136
          CFI CFA_SP SP+4
          CFI Block cfiCond616 Using cfiCommon0
          CFI (cfiCond616) Function led_all
          CFI (cfiCond616) Conditional ??CrossCallReturnLabel_137
          CFI (cfiCond616) CFA_SP SP+4
          CFI Block cfiPicker617 Using cfiCommon2
          CFI (cfiPicker617) NoFunction
          CFI (cfiPicker617) Picker
        CBI     0x18, 0x00
        CBI     0x18, 0x01
        CBI     0x18, 0x02
        CBI     0x18, 0x03
        RET
          CFI EndBlock cfiCond615
          CFI EndBlock cfiCond616
          CFI EndBlock cfiPicker617
//  455 
//  456 

        RSEG CODE:CODE:NOROOT(1)
//  457 void gro(uchar a)
gro:
          CFI Block cfiBlock618 Using cfiCommon0
          CFI Function gro
//  458 {
        MOV     R17, R16
//  459   if (modegro!=1) {
        RCALL   ?Subroutine62
??CrossCallReturnLabel_266:
        BREQ    ??gro_0
//  460   if (a==1) {SET(PORTC,0); delay_us(100);RES(PORTC,0);}
        CPI     R17, 1
        BRNE    ??gro_1
        SBI     0x15, 0x00
        RCALL   ?Subroutine82
??CrossCallReturnLabel_138:
        RJMP    ??gro_2
//  461   if (a==2) {SET(PORTD,3); delay_us(100);RES(PORTD,3);}  
??gro_1:
        CPI     R17, 2
        BRNE    ??gro_3
        SBI     0x12, 0x03
        RCALL   ?Subroutine82
??CrossCallReturnLabel_139:
        RJMP    ??gro_4
//  462                   }
//  463   else  { 
//  464     if (a==1) { if (gro1)  { gro1=0; RES(PORTC,0);  } else { gro1=1; SET(PORTC,0);  } }
??gro_0:
        CPI     R17, 1
        BRNE    ??gro_5
        LDS     R16, ??gro1
        TST     R16
        BREQ    ??gro_6
        LDI     R16, 0
        STS     ??gro1, R16
??gro_2:
        CBI     0x15, 0x00
        RET
??gro_6:
        LDI     R16, 1
        STS     ??gro1, R16
        SBI     0x15, 0x00
        RET
//  465     if (a==2) { if (gro2)  { gro2=0; RES(PORTD,3);  } else { gro2=1; SET(PORTD,3);  } }
??gro_5:
        CPI     R17, 2
        BRNE    ??gro_3
        LDS     R16, ??gro2
        TST     R16
        BREQ    ??gro_7
        LDI     R16, 0
        STS     ??gro2, R16
??gro_4:
        CBI     0x12, 0x03
        RET
??gro_7:
        LDI     R16, 1
        STS     ??gro2, R16
        SBI     0x12, 0x03
//  466         }
//  467 }
??gro_3:
        RET
          CFI EndBlock cfiBlock618
        REQUIRE _A_PORTC
        REQUIRE _A_PORTD

        RSEG CODE:CODE:NOROOT(1)
?Subroutine82:
          CFI Block cfiCond619 Using cfiCommon0
          CFI Function gro
          CFI Conditional ??CrossCallReturnLabel_138
          CFI CFA_SP SP+4
          CFI Block cfiCond620 Using cfiCommon0
          CFI (cfiCond620) Function gro
          CFI (cfiCond620) Conditional ??CrossCallReturnLabel_139
          CFI (cfiCond620) CFA_SP SP+4
          CFI Block cfiPicker621 Using cfiCommon2
          CFI (cfiPicker621) NoFunction
          CFI (cfiPicker621) Picker
        LDI     R16, 133
        DEC     R16
        BRNE    $-2
        NOP
        RET
          CFI EndBlock cfiCond619
          CFI EndBlock cfiCond620
          CFI EndBlock cfiPicker621

        RSEG CODE:CODE:NOROOT(1)
?Subroutine62:
          CFI Block cfiCond622 Using cfiCommon0
          CFI Function main
          CFI Conditional ??CrossCallReturnLabel_263
          CFI R24 Frame(CFA_Y, -1)
          CFI CFA_SP SP+4
          CFI CFA_Y Y+1
          CFI Block cfiCond623 Using cfiCommon0
          CFI (cfiCond623) Function main
          CFI (cfiCond623) Conditional ??CrossCallReturnLabel_264
          CFI (cfiCond623) R24 Frame(CFA_Y, -1)
          CFI (cfiCond623) CFA_SP SP+4
          CFI (cfiCond623) CFA_Y Y+1
          CFI Block cfiCond624 Using cfiCommon0
          CFI (cfiCond624) Function main
          CFI (cfiCond624) Conditional ??CrossCallReturnLabel_265
          CFI (cfiCond624) R24 Frame(CFA_Y, -1)
          CFI (cfiCond624) CFA_SP SP+4
          CFI (cfiCond624) CFA_Y Y+1
          CFI Block cfiCond625 Using cfiCommon0
          CFI (cfiCond625) Function gro
          CFI (cfiCond625) Conditional ??CrossCallReturnLabel_266
          CFI (cfiCond625) CFA_SP SP+4
          CFI Block cfiPicker626 Using cfiCommon2
          CFI (cfiPicker626) NoFunction
          CFI (cfiPicker626) Picker
        RCALL   ?Subroutine105
          CFI EndBlock cfiCond622
          CFI EndBlock cfiCond623
          CFI EndBlock cfiCond624
          CFI EndBlock cfiCond625
          CFI EndBlock cfiPicker626
??CrossCallReturnLabel_211:
        REQUIRE ?Subroutine121
        ;               // Fall through to label ?Subroutine121

        RSEG CODE:CODE:NOROOT(1)
?Subroutine121:
          CFI Block cfiCond627 Using cfiCommon0
          CFI Function main
          CFI Conditional ??CrossCallReturnLabel_263
          CFI R24 Frame(CFA_Y, -1)
          CFI CFA_SP SP+4
          CFI CFA_Y Y+1
          CFI Block cfiCond628 Using cfiCommon0
          CFI (cfiCond628) Function main
          CFI (cfiCond628) Conditional ??CrossCallReturnLabel_264
          CFI (cfiCond628) R24 Frame(CFA_Y, -1)
          CFI (cfiCond628) CFA_SP SP+4
          CFI (cfiCond628) CFA_Y Y+1
          CFI Block cfiCond629 Using cfiCommon0
          CFI (cfiCond629) Function main
          CFI (cfiCond629) Conditional ??CrossCallReturnLabel_265
          CFI (cfiCond629) R24 Frame(CFA_Y, -1)
          CFI (cfiCond629) CFA_SP SP+4
          CFI (cfiCond629) CFA_Y Y+1
          CFI Block cfiCond630 Using cfiCommon0
          CFI (cfiCond630) Function gro
          CFI (cfiCond630) Conditional ??CrossCallReturnLabel_266
          CFI (cfiCond630) CFA_SP SP+4
          CFI Block cfiCond631 Using cfiCommon0
          CFI (cfiCond631) Function main_logic
          CFI (cfiCond631) Conditional ??CrossCallReturnLabel_267
          CFI (cfiCond631) CFA_SP SP+4
          CFI Block cfiCond632 Using cfiCommon0
          CFI (cfiCond632) Function main_logic
          CFI (cfiCond632) Conditional ??CrossCallReturnLabel_268
          CFI (cfiCond632) CFA_SP SP+4
          CFI Block cfiCond633 Using cfiCommon0
          CFI (cfiCond633) Function main_logic
          CFI (cfiCond633) Conditional ??CrossCallReturnLabel_269
          CFI (cfiCond633) CFA_SP SP+4
          CFI Block cfiCond634 Using cfiCommon0
          CFI (cfiCond634) Function diag
          CFI (cfiCond634) Conditional ??CrossCallReturnLabel_270
          CFI (cfiCond634) R24 Frame(CFA_Y, -2)
          CFI (cfiCond634) R25 Frame(CFA_Y, -1)
          CFI (cfiCond634) CFA_SP SP+4
          CFI (cfiCond634) CFA_Y Y+2
          CFI Block cfiPicker635 Using cfiCommon2
          CFI (cfiPicker635) NoFunction
          CFI (cfiPicker635) Picker
        CPI     R16, 1
        RET
          CFI EndBlock cfiCond627
          CFI EndBlock cfiCond628
          CFI EndBlock cfiCond629
          CFI EndBlock cfiCond630
          CFI EndBlock cfiCond631
          CFI EndBlock cfiCond632
          CFI EndBlock cfiCond633
          CFI EndBlock cfiCond634
          CFI EndBlock cfiPicker635

        RSEG CODE:CODE:NOROOT(1)
?Subroutine105:
          CFI Block cfiCond636 Using cfiCommon0
          CFI Function main
          CFI Conditional ??CrossCallReturnLabel_212, ??CrossCallReturnLabel_250
          CFI R24 Frame(CFA_Y, -1)
          CFI CFA_SP SP+6
          CFI CFA_Y Y+1
          CFI Block cfiCond637 Using cfiCommon0
          CFI (cfiCond637) Function main
          CFI (cfiCond637) Conditional ??CrossCallReturnLabel_212, ??CrossCallReturnLabel_251
          CFI (cfiCond637) R24 Frame(CFA_Y, -1)
          CFI (cfiCond637) CFA_SP SP+6
          CFI (cfiCond637) CFA_Y Y+1
          CFI Block cfiCond638 Using cfiCommon0
          CFI (cfiCond638) Function main
          CFI (cfiCond638) Conditional ??CrossCallReturnLabel_212, ??CrossCallReturnLabel_252
          CFI (cfiCond638) R24 Frame(CFA_Y, -1)
          CFI (cfiCond638) CFA_SP SP+6
          CFI (cfiCond638) CFA_Y Y+1
          CFI Block cfiCond639 Using cfiCommon0
          CFI (cfiCond639) Function main
          CFI (cfiCond639) Conditional ??CrossCallReturnLabel_211, ??CrossCallReturnLabel_263
          CFI (cfiCond639) R24 Frame(CFA_Y, -1)
          CFI (cfiCond639) CFA_SP SP+6
          CFI (cfiCond639) CFA_Y Y+1
          CFI Block cfiCond640 Using cfiCommon0
          CFI (cfiCond640) Function main
          CFI (cfiCond640) Conditional ??CrossCallReturnLabel_211, ??CrossCallReturnLabel_264
          CFI (cfiCond640) R24 Frame(CFA_Y, -1)
          CFI (cfiCond640) CFA_SP SP+6
          CFI (cfiCond640) CFA_Y Y+1
          CFI Block cfiCond641 Using cfiCommon0
          CFI (cfiCond641) Function main
          CFI (cfiCond641) Conditional ??CrossCallReturnLabel_211, ??CrossCallReturnLabel_265
          CFI (cfiCond641) R24 Frame(CFA_Y, -1)
          CFI (cfiCond641) CFA_SP SP+6
          CFI (cfiCond641) CFA_Y Y+1
          CFI Block cfiCond642 Using cfiCommon0
          CFI (cfiCond642) Function gro
          CFI (cfiCond642) Conditional ??CrossCallReturnLabel_211, ??CrossCallReturnLabel_266
          CFI (cfiCond642) CFA_SP SP+6
          CFI Block cfiPicker643 Using cfiCommon2
          CFI (cfiPicker643) NoFunction
          CFI (cfiPicker643) Picker
        LDI     R20, LOW(modegro)
        LDI     R21, (modegro) >> 8
        RJMP    __eeget8_16
          CFI EndBlock cfiCond636
          CFI EndBlock cfiCond637
          CFI EndBlock cfiCond638
          CFI EndBlock cfiCond639
          CFI EndBlock cfiCond640
          CFI EndBlock cfiCond641
          CFI EndBlock cfiCond642
          CFI EndBlock cfiPicker643
//  468 
//  469 
//  470 
//  471 
//  472 
//  473 
//  474 //инициализация портов

        RSEG CODE:CODE:NOROOT(1)
//  475 void iniPORTS()
iniPORTS:
          CFI Block cfiBlock644 Using cfiCommon0
          CFI Function iniPORTS
//  476 {
//  477   
//  478  
//  479   //DDRx=0 - ВХОДЫ   PORTx = 0xFF; //подключаем нагрузочные резисторы
//  480  //---------------------------------------------------------------
//  481  //DDRx=0xFF - ВЫХОДЫ    PORTx = 0; //устанавливаем 0 на выходе
//  482  
//  483   
//  484  DDRD = b(11011000);// 0xD8;  //PD3 4 6 7 ВЫХОДЫ  b11011000
        LDI     R16, 216
        OUT     0x11, R16
//  485  PORTD = (uchar)~(b(11011000)); 
        LDI     R16, 39
        OUT     0x12, R16
//  486 
//  487  
//  488  DDRB = 0x3F; //порт B - выход    6,7-кварц
        LDI     R16, 63
        OUT     0x17, R16
//  489  PORTB = 0x00; 
        LDI     R16, 0
        OUT     0x18, R16
//  490   
//  491   
//  492   DDRC =0xFF; 
        LDI     R16, 255
        OUT     0x14, R16
//  493   PORTC = 0x00; //устанавливаем 0 на выходе
        LDI     R16, 0
        OUT     0x15, R16
//  494   
//  495  
//  496 // Timer(s)/Counter(s) Interrupt(s) initialization
//  497 TIMSK=0x00;  
        OUT     0x39, R16
//  498 TCNT0=0x00;
        OUT     0x32, R16
//  499 OCR1A=0x00;
        LDI     R17, 0
        OUT     0x2B, R16
        OUT     0x2A, R16
//  500 OCR1B=0x00;
        OUT     0x29, R16
        OUT     0x28, R16
//  501 TCCR1A=0x00;
        OUT     0x2F, R16
//  502   SET(TIMSK,TOIE1);//разреш прерывание при переполнении
        IN      R16, 0x39
        ORI     R16, 0x04
        OUT     0x39, R16
//  503    TCCR1B=0; TIFR = 0xFF;  
        OUT     0x2E, R17
        LDI     R16, 255
        OUT     0x38, R16
//  504 TCNT1H=0x00;
        OUT     0x2D, R17
//  505 TCNT1L=0x00;
        OUT     0x2C, R17
//  506 ICR1H=0x00;
        OUT     0x27, R17
//  507 ICR1L=0x00;
        OUT     0x26, R17
//  508 OCR1AH=0;
        OUT     0x2B, R17
//  509 OCR1AL=0x00;
        OUT     0x2A, R17
//  510 OCR1BH=0x00;
        OUT     0x29, R17
//  511 OCR1BL=0x00;
        OUT     0x28, R17
//  512 
//  513 
//  514 // External Interrupt(s) initialization
//  515 // INT0: Off
//  516 // INT1: Off
//  517 // Interrupt on any change on pins PCINT0-7: Off
//  518 //GIMSK=0x00;
//  519 //MCUCR=0x00;
//  520 
//  521 SET(MCUCR,0); RES(MCUCR,1);//ПРЕРЫВАНИЕ ПО ИЗМЕНЕНИЮ УРОВНЯ INT0
        IN      R16, 0x35
        ORI     R16, 0x01
        OUT     0x35, R16
        IN      R16, 0x35
        ANDI    R16, 0xFD
        OUT     0x35, R16
//  522 SET(GICR,6);//РАЗРЕШАЕМ ПРЕРЫВАНИЕ INT0
        IN      R16, 0x3B
        ORI     R16, 0x40
        OUT     0x3B, R16
//  523 
//  524 
//  525 //timer2
//  526 SET(TCCR2, CS20 );
        IN      R16, 0x25
        ORI     R16, 0x01
        OUT     0x25, R16
//  527 RES(TCCR2, CS21 );
        IN      R16, 0x25
        ANDI    R16, 0xFD
        OUT     0x25, R16
//  528 RES(TCCR2, CS22 );//делитель 1/1
        IN      R16, 0x25
        ANDI    R16, 0xFB
        OUT     0x25, R16
//  529 // initialize counter
//  530     TCNT2 = 0;
        OUT     0x24, R17
//  531     // enable overflow interrupt
//  532     TIMSK |= (1 << TOIE2);
        IN      R16, 0x39
        ORI     R16, 0x40
        OUT     0x39, R16
//  533 
//  534     
//  535 // Analog Comparator initialization
//  536 // Analog Comparator: Off
//  537 // Analog Comparator Input Capture by Timer/Counter 1: Off
//  538 ACSR=0x80;
        LDI     R16, 128
        OUT     0x08, R16
//  539 //DIDR=0x00;
//  540 
//  541 } 
        RET
          CFI EndBlock cfiBlock644
        REQUIRE _A_DDRD
        REQUIRE _A_PORTD
        REQUIRE _A_DDRB
        REQUIRE _A_PORTB
        REQUIRE _A_DDRC
        REQUIRE _A_PORTC
        REQUIRE _A_TIMSK
        REQUIRE _A_TCNT0
        REQUIRE _A_OCR1A
        REQUIRE _A_OCR1B
        REQUIRE _A_TCCR1A
        REQUIRE _A_TCCR1B
        REQUIRE _A_TIFR
        REQUIRE _A_TCNT1
        REQUIRE _A_ICR1
        REQUIRE _A_MCUCR
        REQUIRE _A_GICR
        REQUIRE _A_TCCR2
        REQUIRE _A_TCNT2
        REQUIRE _A_ACSR
//  542 //************************************************************************
//  543  
//  544 

        RSEG CODE:CODE:NOROOT(1)
//  545 void diag()
diag:
          CFI Block cfiBlock645 Using cfiCommon0
          CFI Function diag
//  546 {
        FUNCALL diag, USART_GetChar
        LOCFRAME CSTACK, 2, STACK
        LOCFRAME RSTACK, 2, STACK
        ARGFRAME RSTACK, 0, STACK
        FUNCALL diag, rprintfStr
        LOCFRAME CSTACK, 2, STACK
        LOCFRAME RSTACK, 2, STACK
        ARGFRAME RSTACK, 0, STACK
        FUNCALL diag, USART_SendChar
        LOCFRAME CSTACK, 2, STACK
        LOCFRAME RSTACK, 2, STACK
        ARGFRAME RSTACK, 0, STACK
        FUNCALL diag, USART_SendChar
        LOCFRAME CSTACK, 2, STACK
        LOCFRAME RSTACK, 2, STACK
        ARGFRAME RSTACK, 0, STACK
        FUNCALL diag, rprintfStr
        LOCFRAME CSTACK, 2, STACK
        LOCFRAME RSTACK, 2, STACK
        ARGFRAME RSTACK, 0, STACK
        FUNCALL diag, USART_SendChar
        LOCFRAME CSTACK, 2, STACK
        LOCFRAME RSTACK, 2, STACK
        ARGFRAME RSTACK, 0, STACK
        FUNCALL diag, rprintfFloat
        LOCFRAME CSTACK, 2, STACK
        LOCFRAME RSTACK, 2, STACK
        ARGFRAME RSTACK, 0, STACK
        FUNCALL diag, rprintfStr
        LOCFRAME CSTACK, 2, STACK
        LOCFRAME RSTACK, 2, STACK
        ARGFRAME RSTACK, 0, STACK
        FUNCALL diag, rprintfFloat
        LOCFRAME CSTACK, 2, STACK
        LOCFRAME RSTACK, 2, STACK
        ARGFRAME RSTACK, 0, STACK
        FUNCALL diag, USART_SendChar
        LOCFRAME CSTACK, 2, STACK
        LOCFRAME RSTACK, 2, STACK
        ARGFRAME RSTACK, 0, STACK
        FUNCALL diag, rprintfStr
        LOCFRAME CSTACK, 2, STACK
        LOCFRAME RSTACK, 2, STACK
        ARGFRAME RSTACK, 0, STACK
        FUNCALL diag, USART_SendChar
        LOCFRAME CSTACK, 2, STACK
        LOCFRAME RSTACK, 2, STACK
        ARGFRAME RSTACK, 0, STACK
        FUNCALL diag, rprintfStr
        LOCFRAME CSTACK, 2, STACK
        LOCFRAME RSTACK, 2, STACK
        ARGFRAME RSTACK, 0, STACK
        FUNCALL diag, rprintfStr
        LOCFRAME CSTACK, 2, STACK
        LOCFRAME RSTACK, 2, STACK
        ARGFRAME RSTACK, 0, STACK
        FUNCALL diag, rprintfStr
        LOCFRAME CSTACK, 2, STACK
        LOCFRAME RSTACK, 2, STACK
        ARGFRAME RSTACK, 0, STACK
        FUNCALL diag, USART_SendChar
        LOCFRAME CSTACK, 2, STACK
        LOCFRAME RSTACK, 2, STACK
        ARGFRAME RSTACK, 0, STACK
        RCALL   ?PROLOGUE2_L09
          CFI R25 Frame(CFA_Y, -1)
          CFI R24 Frame(CFA_Y, -2)
          CFI CFA_Y Y+2
//  547   
//  548   uchar sym = USART_GetChar(); //читаем буфер
        RCALL   USART_GetChar
        MOV     R25, R16
//  549   if (sym=='0') { pr=1;  rprintfStr("- vkluchen kratkiy viviod -");  ent;   }
        CPI     R16, 48
        BRNE    ??diag_0
        LDI     R16, 1
        STS     pr, R16
        LDI     R16, LOW(`?<Constant "- vkluchen kratkiy vi...">`)
        LDI     R17, (`?<Constant "- vkluchen kratkiy vi...">`) >> 8
        RCALL   ?Subroutine44
??CrossCallReturnLabel_230:
        RJMP    ??diag_1
//  550 
//  551   if (sym=='e') {
??diag_0:
        CPI     R16, 101
        BRNE    ??diag_2
//  552     ent;rprintfStr(" ==  EEPROM read == ");ent;
        RCALL   ?Subroutine113
??CrossCallReturnLabel_235:
        LDI     R16, LOW(`?<Constant " ==  EEPROM read == ">`)
        LDI     R17, (`?<Constant " ==  EEPROM read == ">`) >> 8
        RCALL   ?Subroutine44
//  553     for (uchar i=0; i<MAXEEP-1; i++) { 
??CrossCallReturnLabel_231:
        LDI     R24, 0
//  554       rprintfFloat(4, i );   rprintfStr(" > ");
??diag_3:
        MOV     R16, R24
        RCALL   ?Subroutine21
??CrossCallReturnLabel_181:
        RCALL   ?Subroutine114
??CrossCallReturnLabel_288:
        LDI     R16, 4
        RCALL   rprintfFloat
        LDI     R16, LOW(`?<Constant " > ">`)
        LDI     R17, (`?<Constant " > ">`) >> 8
        RCALL   rprintfStr
//  555        rprintfFloat(9, k[i] ); ent;
        RCALL   ?Subroutine93
//  556                                       }
??CrossCallReturnLabel_163:
        LDI     R20, LOW(k)
        LDI     R21, (k) >> 8
        ADD     R20, R0
        ADC     R21, R1
        RCALL   __eeget16_16
        RCALL   ?Subroutine43
??CrossCallReturnLabel_193:
        INC     R24
        CPI     R24, 119
        BRCC    ??diag_1
        RJMP    ??diag_3
//  557                 }
//  558   
//  559   if (sym) 
??diag_2:
        TST     R16
        BREQ    ??CrossCallReturnLabel_232
//  560   {             //если что-то приняли, то 
//  561       rprintfStr(" get: ");
??diag_1:
        LDI     R16, LOW(`?<Constant " get: ">`)
        LDI     R17, (`?<Constant " get: ">`) >> 8
        RCALL   rprintfStr
//  562       USART_SendChar(sym); 
        MOV     R16, R25
        RCALL   USART_SendChar
//  563 
//  564       if (mode==1) rprintfStr("  regim  no source5 >");  
        RCALL   ?Subroutine67
??CrossCallReturnLabel_270:
        BRNE    ??diag_4
        LDI     R16, LOW(`?<Constant "  regim  no source5 >">`)
        LDI     R17, (`?<Constant "  regim  no source5 >">`) >> 8
        RCALL   rprintfStr
//  565       if (mode_programming==1) rprintfStr("  regim  PROGRAMMING !!  READY >");  
??diag_4:
        LDS     R16, ??mode_programming
        TST     R16
        BREQ    ??diag_5
        LDI     R16, LOW(`?<Constant "  regim  PROGRAMMING ...">`)
        LDI     R17, (`?<Constant "  regim  PROGRAMMING ...">`) >> 8
        RJMP    ??diag_6
//  566       else rprintfStr("  regim  normal  READY >");  
??diag_5:
        LDI     R16, LOW(`?<Constant "  regim  normal  READY >">`)
        LDI     R17, (`?<Constant "  regim  normal  READY >">`) >> 8
//  567        ent;   
//  568   }
??diag_6:
        RCALL   ?Subroutine44
//  569 }
??CrossCallReturnLabel_232:
        RJMP    ?Subroutine125
          CFI EndBlock cfiBlock645

        RSEG CODE:CODE:NOROOT(1)
?Subroutine67:
          CFI Block cfiCond646 Using cfiCommon0
          CFI Function main_logic
          CFI Conditional ??CrossCallReturnLabel_267
          CFI CFA_SP SP+4
          CFI Block cfiCond647 Using cfiCommon0
          CFI (cfiCond647) Function main_logic
          CFI (cfiCond647) Conditional ??CrossCallReturnLabel_268
          CFI (cfiCond647) CFA_SP SP+4
          CFI Block cfiCond648 Using cfiCommon0
          CFI (cfiCond648) Function main_logic
          CFI (cfiCond648) Conditional ??CrossCallReturnLabel_269
          CFI (cfiCond648) CFA_SP SP+4
          CFI Block cfiCond649 Using cfiCommon0
          CFI (cfiCond649) Function diag
          CFI (cfiCond649) Conditional ??CrossCallReturnLabel_270
          CFI (cfiCond649) R24 Frame(CFA_Y, -2)
          CFI (cfiCond649) R25 Frame(CFA_Y, -1)
          CFI (cfiCond649) CFA_SP SP+4
          CFI (cfiCond649) CFA_Y Y+2
          CFI Block cfiPicker650 Using cfiCommon2
          CFI (cfiPicker650) NoFunction
          CFI (cfiPicker650) Picker
        LDS     R16, ??mode
        RJMP    ?Subroutine121
          CFI EndBlock cfiCond646
          CFI EndBlock cfiCond647
          CFI EndBlock cfiCond648
          CFI EndBlock cfiCond649
          CFI EndBlock cfiPicker650

        RSEG CODE:CODE:NOROOT(1)
?Subroutine44:
          CFI Block cfiCond651 Using cfiCommon0
          CFI Function writeCOD
          CFI Conditional ??CrossCallReturnLabel_229
          CFI R24 Frame(CFA_Y, -1)
          CFI CFA_SP SP+4
          CFI CFA_Y Y+1
          CFI Block cfiCond652 Using cfiCommon0
          CFI (cfiCond652) Function diag
          CFI (cfiCond652) Conditional ??CrossCallReturnLabel_230
          CFI (cfiCond652) R24 Frame(CFA_Y, -2)
          CFI (cfiCond652) R25 Frame(CFA_Y, -1)
          CFI (cfiCond652) CFA_SP SP+4
          CFI (cfiCond652) CFA_Y Y+2
          CFI Block cfiCond653 Using cfiCommon0
          CFI (cfiCond653) Function diag
          CFI (cfiCond653) Conditional ??CrossCallReturnLabel_231
          CFI (cfiCond653) R24 Frame(CFA_Y, -2)
          CFI (cfiCond653) R25 Frame(CFA_Y, -1)
          CFI (cfiCond653) CFA_SP SP+4
          CFI (cfiCond653) CFA_Y Y+2
          CFI Block cfiCond654 Using cfiCommon0
          CFI (cfiCond654) Function diag
          CFI (cfiCond654) Conditional ??CrossCallReturnLabel_232
          CFI (cfiCond654) R24 Frame(CFA_Y, -2)
          CFI (cfiCond654) R25 Frame(CFA_Y, -1)
          CFI (cfiCond654) CFA_SP SP+4
          CFI (cfiCond654) CFA_Y Y+2
          CFI Block cfiPicker655 Using cfiCommon2
          CFI (cfiPicker655) NoFunction
          CFI (cfiPicker655) Picker
        RCALL   rprintfStr
          CFI EndBlock cfiCond651
          CFI EndBlock cfiCond652
          CFI EndBlock cfiCond653
          CFI EndBlock cfiCond654
          CFI EndBlock cfiPicker655
        REQUIRE ?Subroutine113
        ;               // Fall through to label ?Subroutine113

        RSEG CODE:CODE:NOROOT(1)
?Subroutine113:
          CFI Block cfiCond656 Using cfiCommon0
          CFI Function PEREP
          CFI Conditional ??CrossCallReturnLabel_233
          CFI R24 Frame(CFA_Y, -8)
          CFI R25 Frame(CFA_Y, -7)
          CFI R26 Frame(CFA_Y, -6)
          CFI R27 Frame(CFA_Y, -5)
          CFI R4 Frame(CFA_Y, -4)
          CFI R5 Frame(CFA_Y, -3)
          CFI R6 Frame(CFA_Y, -2)
          CFI R7 Frame(CFA_Y, -1)
          CFI CFA_SP SP+4
          CFI CFA_Y Y+8
          CFI Block cfiCond657 Using cfiCommon0
          CFI (cfiCond657) Function main_logic
          CFI (cfiCond657) Conditional ??CrossCallReturnLabel_234
          CFI (cfiCond657) CFA_SP SP+4
          CFI Block cfiCond658 Using cfiCommon0
          CFI (cfiCond658) Function diag
          CFI (cfiCond658) Conditional ??CrossCallReturnLabel_235
          CFI (cfiCond658) R24 Frame(CFA_Y, -2)
          CFI (cfiCond658) R25 Frame(CFA_Y, -1)
          CFI (cfiCond658) CFA_SP SP+4
          CFI (cfiCond658) CFA_Y Y+2
          CFI Block cfiCond659 Using cfiCommon0
          CFI (cfiCond659) Function writeCOD
          CFI (cfiCond659) Conditional ??CrossCallReturnLabel_229
          CFI (cfiCond659) R24 Frame(CFA_Y, -1)
          CFI (cfiCond659) CFA_SP SP+4
          CFI (cfiCond659) CFA_Y Y+1
          CFI Block cfiCond660 Using cfiCommon0
          CFI (cfiCond660) Function diag
          CFI (cfiCond660) Conditional ??CrossCallReturnLabel_230
          CFI (cfiCond660) R24 Frame(CFA_Y, -2)
          CFI (cfiCond660) R25 Frame(CFA_Y, -1)
          CFI (cfiCond660) CFA_SP SP+4
          CFI (cfiCond660) CFA_Y Y+2
          CFI Block cfiCond661 Using cfiCommon0
          CFI (cfiCond661) Function diag
          CFI (cfiCond661) Conditional ??CrossCallReturnLabel_231
          CFI (cfiCond661) R24 Frame(CFA_Y, -2)
          CFI (cfiCond661) R25 Frame(CFA_Y, -1)
          CFI (cfiCond661) CFA_SP SP+4
          CFI (cfiCond661) CFA_Y Y+2
          CFI Block cfiCond662 Using cfiCommon0
          CFI (cfiCond662) Function diag
          CFI (cfiCond662) Conditional ??CrossCallReturnLabel_232
          CFI (cfiCond662) R24 Frame(CFA_Y, -2)
          CFI (cfiCond662) R25 Frame(CFA_Y, -1)
          CFI (cfiCond662) CFA_SP SP+4
          CFI (cfiCond662) CFA_Y Y+2
          CFI Block cfiCond663 Using cfiCommon0
          CFI (cfiCond663) Function main_power
          CFI (cfiCond663) Conditional ??CrossCallReturnLabel_27
          CFI (cfiCond663) CFA_SP SP+4
          CFI Block cfiCond664 Using cfiCommon0
          CFI (cfiCond664) Function main_power
          CFI (cfiCond664) Conditional ??CrossCallReturnLabel_28
          CFI (cfiCond664) CFA_SP SP+4
          CFI Block cfiCond665 Using cfiCommon0
          CFI (cfiCond665) Function coding
          CFI (cfiCond665) Conditional ??CrossCallReturnLabel_194
          CFI (cfiCond665) R24 Frame(CFA_Y, -10)
          CFI (cfiCond665) R25 Frame(CFA_Y, -9)
          CFI (cfiCond665) R26 Frame(CFA_Y, -8)
          CFI (cfiCond665) R27 Frame(CFA_Y, -7)
          CFI (cfiCond665) R4 Frame(CFA_Y, -6)
          CFI (cfiCond665) R5 Frame(CFA_Y, -5)
          CFI (cfiCond665) R6 Frame(CFA_Y, -4)
          CFI (cfiCond665) R7 Frame(CFA_Y, -3)
          CFI (cfiCond665) R8 Frame(CFA_Y, -2)
          CFI (cfiCond665) R9 Frame(CFA_Y, -1)
          CFI (cfiCond665) CFA_SP SP+4
          CFI (cfiCond665) CFA_Y Y+10
          CFI Block cfiCond666 Using cfiCommon0
          CFI (cfiCond666) Function diag
          CFI (cfiCond666) Conditional ??CrossCallReturnLabel_193
          CFI (cfiCond666) R24 Frame(CFA_Y, -2)
          CFI (cfiCond666) R25 Frame(CFA_Y, -1)
          CFI (cfiCond666) CFA_SP SP+4
          CFI (cfiCond666) CFA_Y Y+2
          CFI Block cfiPicker667 Using cfiCommon2
          CFI (cfiPicker667) NoFunction
          CFI (cfiPicker667) Picker
        LDI     R16, 13
        RJMP    USART_SendChar
          CFI EndBlock cfiCond656
          CFI EndBlock cfiCond657
          CFI EndBlock cfiCond658
          CFI EndBlock cfiCond659
          CFI EndBlock cfiCond660
          CFI EndBlock cfiCond661
          CFI EndBlock cfiCond662
          CFI EndBlock cfiCond663
          CFI EndBlock cfiCond664
          CFI EndBlock cfiCond665
          CFI EndBlock cfiCond666
          CFI EndBlock cfiPicker667

        RSEG CODE:CODE:NOROOT(1)
?Subroutine43:
          CFI Block cfiCond668 Using cfiCommon0
          CFI Function coding
          CFI Conditional ??CrossCallReturnLabel_194
          CFI R24 Frame(CFA_Y, -10)
          CFI R25 Frame(CFA_Y, -9)
          CFI R26 Frame(CFA_Y, -8)
          CFI R27 Frame(CFA_Y, -7)
          CFI R4 Frame(CFA_Y, -6)
          CFI R5 Frame(CFA_Y, -5)
          CFI R6 Frame(CFA_Y, -4)
          CFI R7 Frame(CFA_Y, -3)
          CFI R8 Frame(CFA_Y, -2)
          CFI R9 Frame(CFA_Y, -1)
          CFI CFA_SP SP+4
          CFI CFA_Y Y+10
          CFI Block cfiCond669 Using cfiCommon0
          CFI (cfiCond669) Function diag
          CFI (cfiCond669) Conditional ??CrossCallReturnLabel_193
          CFI (cfiCond669) R24 Frame(CFA_Y, -2)
          CFI (cfiCond669) R25 Frame(CFA_Y, -1)
          CFI (cfiCond669) CFA_SP SP+4
          CFI (cfiCond669) CFA_Y Y+2
          CFI Block cfiPicker670 Using cfiCommon2
          CFI (cfiPicker670) NoFunction
          CFI (cfiPicker670) Picker
        RCALL   ?Subroutine112
          CFI EndBlock cfiCond668
          CFI EndBlock cfiCond669
          CFI EndBlock cfiPicker670
??CrossCallReturnLabel_290:
        REQUIRE ?Subroutine100
        ;               // Fall through to label ?Subroutine100

        RSEG CODE:CODE:NOROOT(1)
?Subroutine100:
          CFI Block cfiCond671 Using cfiCommon0
          CFI Function main_power
          CFI Conditional ??CrossCallReturnLabel_27
          CFI CFA_SP SP+4
          CFI Block cfiCond672 Using cfiCommon0
          CFI (cfiCond672) Function main_power
          CFI (cfiCond672) Conditional ??CrossCallReturnLabel_28
          CFI (cfiCond672) CFA_SP SP+4
          CFI Block cfiCond673 Using cfiCommon0
          CFI (cfiCond673) Function coding
          CFI (cfiCond673) Conditional ??CrossCallReturnLabel_194
          CFI (cfiCond673) R24 Frame(CFA_Y, -10)
          CFI (cfiCond673) R25 Frame(CFA_Y, -9)
          CFI (cfiCond673) R26 Frame(CFA_Y, -8)
          CFI (cfiCond673) R27 Frame(CFA_Y, -7)
          CFI (cfiCond673) R4 Frame(CFA_Y, -6)
          CFI (cfiCond673) R5 Frame(CFA_Y, -5)
          CFI (cfiCond673) R6 Frame(CFA_Y, -4)
          CFI (cfiCond673) R7 Frame(CFA_Y, -3)
          CFI (cfiCond673) R8 Frame(CFA_Y, -2)
          CFI (cfiCond673) R9 Frame(CFA_Y, -1)
          CFI (cfiCond673) CFA_SP SP+4
          CFI (cfiCond673) CFA_Y Y+10
          CFI Block cfiCond674 Using cfiCommon0
          CFI (cfiCond674) Function diag
          CFI (cfiCond674) Conditional ??CrossCallReturnLabel_193
          CFI (cfiCond674) R24 Frame(CFA_Y, -2)
          CFI (cfiCond674) R25 Frame(CFA_Y, -1)
          CFI (cfiCond674) CFA_SP SP+4
          CFI (cfiCond674) CFA_Y Y+2
          CFI Block cfiPicker675 Using cfiCommon2
          CFI (cfiPicker675) NoFunction
          CFI (cfiPicker675) Picker
        LDI     R16, 9
        RCALL   rprintfFloat
        RJMP    ?Subroutine113
          CFI EndBlock cfiCond671
          CFI EndBlock cfiCond672
          CFI EndBlock cfiCond673
          CFI EndBlock cfiCond674
          CFI EndBlock cfiPicker675
//  570 
// F:\Dulov\RemoteAMP\SoftTimers.c
//    1 
//    2 #include <stdbool.h>//поддержка bool
//    3 #include "iom8.h"//<ioavr.h>
//    4 #include <inavr.h>
//    5 #include <intrinsics.h>
//    6 #include "init.h"
//    7 #include "SoftTimers.h"

        RSEG NEAR_I:DATA:NOROOT(0)
        REQUIRE `?<Segment init: NEAR_I>`
// static unsigned char port
??port:
        DS8 1
        REQUIRE `?<Initializer for port>`
//    8 #include "main.h"
//    9 //***************************************************************************
//   10 //
//   11 //***************************************************************************

        RSEG NEAR_Z:DATA:NOROOT(0)
        REQUIRE `?<Segment init: NEAR_Z>`
//   12 timers tm1,tm2,tm3;
tm1:
        DS8 13

        RSEG NEAR_Z:DATA:NOROOT(0)
        REQUIRE `?<Segment init: NEAR_Z>`
tm2:
        DS8 13

        RSEG NEAR_Z:DATA:NOROOT(0)
        REQUIRE `?<Segment init: NEAR_Z>`
tm3:
        DS8 13

        RSEG NEAR_Z:DATA:NOROOT(0)
        REQUIRE `?<Segment init: NEAR_Z>`
//   13 static uchar raz;
??raz:
        DS8 1
//   14 static uchar port;

        RSEG NEAR_Z:DATA:NOROOT(0)
        REQUIRE `?<Segment init: NEAR_Z>`
//   15 static uchar razct;
??razct:
        DS8 1
//   16 
//   17 
//   18 #pragma vector = TIMER2_OVF_vect

        RSEG CODE:CODE:NOROOT(1)
//   19 __interrupt void TIMER2ovf(void)
TIMER2ovf:
          CFI Block cfiBlock676 Using cfiCommon1
          CFI Function TIMER2ovf
//   20 {
        FUNCALL TIMER2ovf, TimerTick
        LOCFRAME CSTACK, 15, STACK
        LOCFRAME RSTACK, 2, STACK
        ARGFRAME RSTACK, 0, STACK
        FUNCALL TIMER2ovf, TimerTick
        LOCFRAME CSTACK, 15, STACK
        LOCFRAME RSTACK, 2, STACK
        ARGFRAME RSTACK, 0, STACK
        ST      -Y, R24
          CFI R24 Frame(CFA_Y, -1)
          CFI CFA_Y Y+1
        ST      -Y, R31
          CFI R31 Frame(CFA_Y, -2)
          CFI CFA_Y Y+2
        ST      -Y, R30
          CFI R30 Frame(CFA_Y, -3)
          CFI CFA_Y Y+3
        ST      -Y, R3
          CFI R3 Frame(CFA_Y, -4)
          CFI CFA_Y Y+4
        ST      -Y, R2
          CFI R2 Frame(CFA_Y, -5)
          CFI CFA_Y Y+5
        ST      -Y, R1
          CFI R1 Frame(CFA_Y, -6)
          CFI CFA_Y Y+6
        ST      -Y, R0
          CFI R0 Frame(CFA_Y, -7)
          CFI CFA_Y Y+7
        ST      -Y, R23
          CFI R23 Frame(CFA_Y, -8)
          CFI CFA_Y Y+8
        ST      -Y, R22
          CFI R22 Frame(CFA_Y, -9)
          CFI CFA_Y Y+9
        ST      -Y, R21
          CFI R21 Frame(CFA_Y, -10)
          CFI CFA_Y Y+10
        ST      -Y, R20
          CFI R20 Frame(CFA_Y, -11)
          CFI CFA_Y Y+11
        ST      -Y, R19
          CFI R19 Frame(CFA_Y, -12)
          CFI CFA_Y Y+12
        ST      -Y, R18
          CFI R18 Frame(CFA_Y, -13)
          CFI CFA_Y Y+13
        ST      -Y, R17
          CFI R17 Frame(CFA_Y, -14)
          CFI CFA_Y Y+14
        ST      -Y, R16
          CFI R16 Frame(CFA_Y, -15)
          CFI CFA_Y Y+15
        IN      R24, 0x3F
//   21  TimerTick(&tm3); // Work
        LDI     R16, LOW(tm3)
        LDI     R17, (tm3) >> 8
        RCALL   TimerTick
//   22  TCNT2 = 0;
        LDI     R16, 0
        OUT     0x24, R16
//   23   TimerTick(&tm2);
        LDI     R16, LOW(tm2)
        LDI     R17, (tm2) >> 8
        RCALL   TimerTick
//   24  
//   25 
//   26  static bool state=0;
//   27  
//   28  if (tm3.out ) { 
//   29  //if (!state) {RES(PORTB,5); state=1; }   else {SET(PORTB,5); state=0;}
//   30  //       TimerSet(&tm3,3000);       
//   31               }
//   32 }
        OUT     0x3F, R24
        LD      R16, Y+
          CFI R16 SameValue
          CFI CFA_Y Y+14
        LD      R17, Y+
          CFI R17 SameValue
          CFI CFA_Y Y+13
        LD      R18, Y+
          CFI R18 SameValue
          CFI CFA_Y Y+12
        LD      R19, Y+
          CFI R19 SameValue
          CFI CFA_Y Y+11
        LD      R20, Y+
          CFI R20 SameValue
          CFI CFA_Y Y+10
        LD      R21, Y+
          CFI R21 SameValue
          CFI CFA_Y Y+9
        LD      R22, Y+
          CFI R22 SameValue
          CFI CFA_Y Y+8
        LD      R23, Y+
          CFI R23 SameValue
          CFI CFA_Y Y+7
        LD      R0, Y+
          CFI R0 SameValue
          CFI CFA_Y Y+6
        LD      R1, Y+
          CFI R1 SameValue
          CFI CFA_Y Y+5
        LD      R2, Y+
          CFI R2 SameValue
          CFI CFA_Y Y+4
        LD      R3, Y+
          CFI R3 SameValue
          CFI CFA_Y Y+3
        LD      R30, Y+
          CFI R30 SameValue
          CFI CFA_Y Y+2
        LD      R31, Y+
          CFI R31 SameValue
          CFI CFA_Y Y+1
        LD      R24, Y+
          CFI R24 SameValue
          CFI CFA_Y Y+0
        RETI
          CFI EndBlock cfiBlock676
        REQUIRE _A_TCNT2
//   33 
//   34 
//   35 
//   36 
//   37 

        RSEG CODE:CODE:NOROOT(1)
//   38 void TimerSet(timers *t, uint tm)
TimerSet:
          CFI Block cfiBlock677 Using cfiCommon0
          CFI Function TimerSet
//   39 {
        MOVW    R31:R30, R17:R16
//   40   t->out=0;
        LDI     R16, 0
        STD     Z+12, R16
//   41   t->ct=0;
        RCALL   ??Subroutine126_0
??CrossCallReturnLabel_276:
        STD     Z+4, R21
        STD     Z+5, R21
        STD     Z+6, R21
        STD     Z+7, R21
//   42   //F_CPU/4/100; 1-сек
//   43   t->time=F_CPU/4/100000   *tm;
        LDI     R20, 10
        MOVW    R17:R16, R19:R18
        LDI     R18, 0
        LDI     R19, 0
        RCALL   ?L_EC_MUL_L03
        STD     Z+8, R16
        STD     Z+9, R17
        STD     Z+10, R18
        STD     Z+11, R19
//   44   t->x=0;
        ST      Z, R21
        STD     Z+1, R21
        STD     Z+2, R21
        STD     Z+3, R21
//   45 }
        RET
          CFI EndBlock cfiBlock677
//   46 

        RSEG CODE:CODE:NOROOT(1)
//   47 void TimerTick( timers *t)
TimerTick:
          CFI Block cfiBlock678 Using cfiCommon0
          CFI Function TimerTick
//   48 {
//   49   if (t->out) return;
        MOVW    R31:R30, R17:R16
        LDD     R18, Z+12
        TST     R18
        BRNE    ??TimerTick_0
//   50  // t->x++;
//   51   //if (t->x>=CALIBR) { t->x=0; t->ct++;}
//   52   t->ct++;
        LDD     R20, Z+4
        LDD     R21, Z+5
        LDD     R22, Z+6
        LDD     R23, Z+7
        SUBI    R20, 255
        SBCI    R21, 255
        SBCI    R22, 255
        SBCI    R23, 255
        STD     Z+4, R20
        STD     Z+5, R21
        STD     Z+6, R22
        STD     Z+7, R23
//   53   if (t->ct  >  t->time ) t->out=1;
        LDD     R20, Z+8
        LDD     R21, Z+9
        LDD     R22, Z+10
        LDD     R23, Z+11
        LDD     R0, Z+4
        LDD     R1, Z+5
        LDD     R2, Z+6
        LDD     R3, Z+7
        CP      R20, R0
        CPC     R21, R1
        CPC     R22, R2
        CPC     R23, R3
        BRGE    ??TimerTick_0
        LDI     R18, 1
        STD     Z+12, R18
//   54 }
??TimerTick_0:
        RET
          CFI EndBlock cfiBlock678
//   55 //**************************************************************
//   56 //**************************************************************
//   57 
//   58 

        RSEG CODE:CODE:NOROOT(1)
//   59 void migINI(uchar sel,  uchar razp, bool prton)//мигание sel - кол-во раз
migINI:
          CFI Block cfiBlock679 Using cfiCommon0
          CFI Function migINI
//   60 {
        FUNCALL migINI, TimerSet
        LOCFRAME CSTACK, 0, STACK
        LOCFRAME RSTACK, 2, STACK
        ARGFRAME RSTACK, 0, STACK
        MOV     R19, R16
        MOVW    R21:R20, R17:R16
//   61   SET(PORTB,sel);//вкл-ем для ускорения индикации
        RCALL   ?Subroutine7
//   62   
//   63   
//   64   if (port!=255) {  //если все еще мигает
??CrossCallReturnLabel_271:
        LDS     R16, ??port
        CPI     R16, 255
        BREQ    ??migINI_0
//   65      
//   66     if (prton)SET(PORTB,port); //фиксируем чтобы горел
        LDS     R20, ??port
        RCALL   ?Subroutine111
??CrossCallReturnLabel_224:
        TST     R18
        BREQ    ??migINI_1
        IN      R17, 0x18
        OR      R17, R16
        RJMP    ??migINI_2
//   67     else RES(PORTB,port);
??migINI_1:
        COM     R16
        IN      R17, 0x18
        AND     R17, R16
??migINI_2:
        OUT     0x18, R17
//   68                 }
//   69   
//   70   
//   71   raz=razp;  port=sel; razct=0;
??migINI_0:
        STS     ??raz, R21
        STS     ??port, R19
        LDI     R16, 0
        STS     ??razct, R16
//   72   
//   73   
//   74   TimerSet(&tm2,5);
        LDI     R18, 5
        RCALL   ?Subroutine96
//   75   tm2.out=1;
??CrossCallReturnLabel_180:
        LDI     R16, 1
        STS     (tm2 + 12), R16
//   76   //iniT2(5);
//   77   //T2out=1;
//   78   
//   79 }
        RET
          CFI EndBlock cfiBlock679
        REQUIRE _A_PORTB

        RSEG CODE:CODE:NOROOT(1)
?Subroutine111:
          CFI Block cfiCond680 Using cfiCommon0
          CFI Function coding
          CFI Conditional ??CrossCallReturnLabel_226, ??CrossCallReturnLabel_5
          CFI R24 Frame(CFA_Y, -10)
          CFI R25 Frame(CFA_Y, -9)
          CFI R26 Frame(CFA_Y, -8)
          CFI R27 Frame(CFA_Y, -7)
          CFI R4 Frame(CFA_Y, -6)
          CFI R5 Frame(CFA_Y, -5)
          CFI R6 Frame(CFA_Y, -4)
          CFI R7 Frame(CFA_Y, -3)
          CFI R8 Frame(CFA_Y, -2)
          CFI R9 Frame(CFA_Y, -1)
          CFI CFA_SP SP+6
          CFI CFA_Y Y+10
          CFI Block cfiCond681 Using cfiCommon0
          CFI (cfiCond681) Function coding
          CFI (cfiCond681) Conditional ??CrossCallReturnLabel_226, ??CrossCallReturnLabel_6
          CFI (cfiCond681) R24 Frame(CFA_Y, -10)
          CFI (cfiCond681) R25 Frame(CFA_Y, -9)
          CFI (cfiCond681) R26 Frame(CFA_Y, -8)
          CFI (cfiCond681) R27 Frame(CFA_Y, -7)
          CFI (cfiCond681) R4 Frame(CFA_Y, -6)
          CFI (cfiCond681) R5 Frame(CFA_Y, -5)
          CFI (cfiCond681) R6 Frame(CFA_Y, -4)
          CFI (cfiCond681) R7 Frame(CFA_Y, -3)
          CFI (cfiCond681) R8 Frame(CFA_Y, -2)
          CFI (cfiCond681) R9 Frame(CFA_Y, -1)
          CFI (cfiCond681) CFA_SP SP+6
          CFI (cfiCond681) CFA_Y Y+10
          CFI Block cfiCond682 Using cfiCommon0
          CFI (cfiCond682) Function coding
          CFI (cfiCond682) Conditional ??CrossCallReturnLabel_226, ??CrossCallReturnLabel_7
          CFI (cfiCond682) R24 Frame(CFA_Y, -10)
          CFI (cfiCond682) R25 Frame(CFA_Y, -9)
          CFI (cfiCond682) R26 Frame(CFA_Y, -8)
          CFI (cfiCond682) R27 Frame(CFA_Y, -7)
          CFI (cfiCond682) R4 Frame(CFA_Y, -6)
          CFI (cfiCond682) R5 Frame(CFA_Y, -5)
          CFI (cfiCond682) R6 Frame(CFA_Y, -4)
          CFI (cfiCond682) R7 Frame(CFA_Y, -3)
          CFI (cfiCond682) R8 Frame(CFA_Y, -2)
          CFI (cfiCond682) R9 Frame(CFA_Y, -1)
          CFI (cfiCond682) CFA_SP SP+6
          CFI (cfiCond682) CFA_Y Y+10
          CFI Block cfiCond683 Using cfiCommon0
          CFI (cfiCond683) Function coding
          CFI (cfiCond683) Conditional ??CrossCallReturnLabel_225, ??CrossCallReturnLabel_2
          CFI (cfiCond683) R24 Frame(CFA_Y, -10)
          CFI (cfiCond683) R25 Frame(CFA_Y, -9)
          CFI (cfiCond683) R26 Frame(CFA_Y, -8)
          CFI (cfiCond683) R27 Frame(CFA_Y, -7)
          CFI (cfiCond683) R4 Frame(CFA_Y, -6)
          CFI (cfiCond683) R5 Frame(CFA_Y, -5)
          CFI (cfiCond683) R6 Frame(CFA_Y, -4)
          CFI (cfiCond683) R7 Frame(CFA_Y, -3)
          CFI (cfiCond683) R8 Frame(CFA_Y, -2)
          CFI (cfiCond683) R9 Frame(CFA_Y, -1)
          CFI (cfiCond683) CFA_SP SP+6
          CFI (cfiCond683) CFA_Y Y+10
          CFI Block cfiCond684 Using cfiCommon0
          CFI (cfiCond684) Function coding
          CFI (cfiCond684) Conditional ??CrossCallReturnLabel_225, ??CrossCallReturnLabel_3
          CFI (cfiCond684) R24 Frame(CFA_Y, -10)
          CFI (cfiCond684) R25 Frame(CFA_Y, -9)
          CFI (cfiCond684) R26 Frame(CFA_Y, -8)
          CFI (cfiCond684) R27 Frame(CFA_Y, -7)
          CFI (cfiCond684) R4 Frame(CFA_Y, -6)
          CFI (cfiCond684) R5 Frame(CFA_Y, -5)
          CFI (cfiCond684) R6 Frame(CFA_Y, -4)
          CFI (cfiCond684) R7 Frame(CFA_Y, -3)
          CFI (cfiCond684) R8 Frame(CFA_Y, -2)
          CFI (cfiCond684) R9 Frame(CFA_Y, -1)
          CFI (cfiCond684) CFA_SP SP+6
          CFI (cfiCond684) CFA_Y Y+10
          CFI Block cfiCond685 Using cfiCommon0
          CFI (cfiCond685) Function coding
          CFI (cfiCond685) Conditional ??CrossCallReturnLabel_225, ??CrossCallReturnLabel_4
          CFI (cfiCond685) R24 Frame(CFA_Y, -10)
          CFI (cfiCond685) R25 Frame(CFA_Y, -9)
          CFI (cfiCond685) R26 Frame(CFA_Y, -8)
          CFI (cfiCond685) R27 Frame(CFA_Y, -7)
          CFI (cfiCond685) R4 Frame(CFA_Y, -6)
          CFI (cfiCond685) R5 Frame(CFA_Y, -5)
          CFI (cfiCond685) R6 Frame(CFA_Y, -4)
          CFI (cfiCond685) R7 Frame(CFA_Y, -3)
          CFI (cfiCond685) R8 Frame(CFA_Y, -2)
          CFI (cfiCond685) R9 Frame(CFA_Y, -1)
          CFI (cfiCond685) CFA_SP SP+6
          CFI (cfiCond685) CFA_Y Y+10
          CFI Block cfiCond686 Using cfiCommon0
          CFI (cfiCond686) Function migINI
          CFI (cfiCond686) Conditional ??CrossCallReturnLabel_224
          CFI (cfiCond686) CFA_SP SP+4
          CFI Block cfiCond687 Using cfiCommon0
          CFI (cfiCond687) Function migINI
          CFI (cfiCond687) Conditional ??CrossCallReturnLabel_227, ??CrossCallReturnLabel_271
          CFI (cfiCond687) CFA_SP SP+6
          CFI Block cfiCond688 Using cfiCommon0
          CFI (cfiCond688) Function migWORK
          CFI (cfiCond688) Conditional ??CrossCallReturnLabel_227, ??CrossCallReturnLabel_272
          CFI (cfiCond688) CFA_SP SP+6
          CFI Block cfiCond689 Using cfiCommon0
          CFI (cfiCond689) Function main_logic
          CFI (cfiCond689) Conditional ??CrossCallReturnLabel_228, ??CrossCallReturnLabel_275, ??CrossCallReturnLabel_236
          CFI (cfiCond689) CFA_SP SP+8
          CFI Block cfiCond690 Using cfiCommon0
          CFI (cfiCond690) Function main_logic
          CFI (cfiCond690) Conditional ??CrossCallReturnLabel_228, ??CrossCallReturnLabel_275, ??CrossCallReturnLabel_237
          CFI (cfiCond690) CFA_SP SP+8
          CFI Block cfiCond691 Using cfiCommon0
          CFI (cfiCond691) Function main_logic
          CFI (cfiCond691) Conditional ??CrossCallReturnLabel_228, ??CrossCallReturnLabel_273
          CFI (cfiCond691) CFA_SP SP+6
          CFI Block cfiCond692 Using cfiCommon0
          CFI (cfiCond692) Function migWORK
          CFI (cfiCond692) Conditional ??CrossCallReturnLabel_228, ??CrossCallReturnLabel_274
          CFI (cfiCond692) CFA_SP SP+6
          CFI Block cfiPicker693 Using cfiCommon2
          CFI (cfiPicker693) NoFunction
          CFI (cfiPicker693) Picker
        LDI     R16, 1
        LDI     R17, 0
        RJMP    ?S_SHL_L02
          CFI EndBlock cfiCond680
          CFI EndBlock cfiCond681
          CFI EndBlock cfiCond682
          CFI EndBlock cfiCond683
          CFI EndBlock cfiCond684
          CFI EndBlock cfiCond685
          CFI EndBlock cfiCond686
          CFI EndBlock cfiCond687
          CFI EndBlock cfiCond688
          CFI EndBlock cfiCond689
          CFI EndBlock cfiCond690
          CFI EndBlock cfiCond691
          CFI EndBlock cfiCond692
          CFI EndBlock cfiPicker693
//   80 

        RSEG CODE:CODE:NOROOT(1)
//   81 void migWORK(void)//мигание 
migWORK:
          CFI Block cfiBlock694 Using cfiCommon0
          CFI Function migWORK
//   82 {
//   83   static bool sost=0;
//   84  // TimerTick(&tm2); // WorkT2();
//   85   if (tm2.out==1 && port!=255)  {
        FUNCALL migWORK, TimerSet
        LOCFRAME CSTACK, 0, STACK
        LOCFRAME RSTACK, 2, STACK
        ARGFRAME RSTACK, 0, STACK
        FUNCALL migWORK, TimerSet
        LOCFRAME CSTACK, 0, STACK
        LOCFRAME RSTACK, 2, STACK
        ARGFRAME RSTACK, 0, STACK
        LDS     R16, (tm2 + 12)
        TST     R16
        BREQ    ??CrossCallReturnLabel_274
        LDS     R16, ??port
        CPI     R16, 255
        BREQ    ??CrossCallReturnLabel_274
//   86        if (sost!=1)  {sost=1; TimerSet(&tm2,200); SET(PORTB,port); razct++;}
        LDS     R16, ??sost
        TST     R16
        BRNE    ??migWORK_0
        LDI     R16, 1
        RCALL   ?Subroutine45
??CrossCallReturnLabel_47:
        RCALL   ?Subroutine7
??CrossCallReturnLabel_272:
        LDI     R30, LOW(??razct)
        LDI     R31, (??razct) >> 8
        RCALL   ?Subroutine92
??CrossCallReturnLabel_307:
        RJMP    ??CrossCallReturnLabel_274
//   87   else if (sost!=0)  {sost=0; TimerSet(&tm2,200); RES(PORTB,port);}
??migWORK_0:
        LDI     R16, 0
        RCALL   ?Subroutine45
//   88                               }
??CrossCallReturnLabel_48:
        RCALL   ?Subroutine83
//   89   if (razct>=raz) {  tm2.out=1; port=255;}
??CrossCallReturnLabel_274:
        LDS     R16, ??razct
        LDS     R17, ??raz
        CP      R16, R17
        BRCS    ??migWORK_1
        LDI     R16, 1
        STS     (tm2 + 12), R16
        LDI     R16, 255
        STS     ??port, R16
//   90 }
??migWORK_1:
        RET
          CFI EndBlock cfiBlock694
        REQUIRE _A_PORTB

        RSEG CODE:CODE:NOROOT(1)
?Subroutine45:
          CFI Block cfiCond695 Using cfiCommon0
          CFI Function migWORK
          CFI Conditional ??CrossCallReturnLabel_47
          CFI CFA_SP SP+4
          CFI Block cfiCond696 Using cfiCommon0
          CFI (cfiCond696) Function migWORK
          CFI (cfiCond696) Conditional ??CrossCallReturnLabel_48
          CFI (cfiCond696) CFA_SP SP+4
          CFI Block cfiPicker697 Using cfiCommon2
          CFI (cfiPicker697) NoFunction
          CFI (cfiPicker697) Picker
        STS     ??sost, R16
        LDI     R18, 200
        RCALL   ?Subroutine96
??CrossCallReturnLabel_179:
        LDS     R20, ??port
        RET
          CFI EndBlock cfiCond695
          CFI EndBlock cfiCond696
          CFI EndBlock cfiPicker697

        RSEG CODE:CODE:NOROOT(1)
?Subroutine96:
          CFI Block cfiCond698 Using cfiCommon0
          CFI Function migINI
          CFI Conditional ??CrossCallReturnLabel_180
          CFI CFA_SP SP+4
          CFI Block cfiCond699 Using cfiCommon0
          CFI (cfiCond699) Function migWORK
          CFI (cfiCond699) Conditional ??CrossCallReturnLabel_179, ??CrossCallReturnLabel_47
          CFI (cfiCond699) CFA_SP SP+6
          CFI Block cfiCond700 Using cfiCommon0
          CFI (cfiCond700) Function migWORK
          CFI (cfiCond700) Conditional ??CrossCallReturnLabel_179, ??CrossCallReturnLabel_48
          CFI (cfiCond700) CFA_SP SP+6
          CFI Block cfiPicker701 Using cfiCommon2
          CFI (cfiPicker701) NoFunction
          CFI (cfiPicker701) Picker
        LDI     R19, 0
        LDI     R16, LOW(tm2)
        LDI     R17, (tm2) >> 8
        RJMP    TimerSet
          CFI EndBlock cfiCond698
          CFI EndBlock cfiCond699
          CFI EndBlock cfiCond700
          CFI EndBlock cfiPicker701

        RSEG CODE:CODE:NOROOT(1)
?Subroutine7:
          CFI Block cfiCond702 Using cfiCommon0
          CFI Function migINI
          CFI Conditional ??CrossCallReturnLabel_271
          CFI CFA_SP SP+4
          CFI Block cfiCond703 Using cfiCommon0
          CFI (cfiCond703) Function migWORK
          CFI (cfiCond703) Conditional ??CrossCallReturnLabel_272
          CFI (cfiCond703) CFA_SP SP+4
          CFI Block cfiPicker704 Using cfiCommon2
          CFI (cfiPicker704) NoFunction
          CFI (cfiPicker704) Picker
        RCALL   ?Subroutine111
??CrossCallReturnLabel_227:
        IN      R17, 0x18
        OR      R17, R16
          CFI EndBlock cfiCond702
          CFI EndBlock cfiCond703
          CFI EndBlock cfiPicker704
        REQUIRE ?Subroutine122
        ;               // Fall through to label ?Subroutine122

        RSEG CODE:CODE:NOROOT(1)
?Subroutine122:
          CFI Block cfiCond705 Using cfiCommon0
          CFI Function migINI
          CFI Conditional ??CrossCallReturnLabel_271
          CFI CFA_SP SP+4
          CFI Block cfiCond706 Using cfiCommon0
          CFI (cfiCond706) Function migWORK
          CFI (cfiCond706) Conditional ??CrossCallReturnLabel_272
          CFI (cfiCond706) CFA_SP SP+4
          CFI Block cfiCond707 Using cfiCommon0
          CFI (cfiCond707) Function main_logic
          CFI (cfiCond707) Conditional ??CrossCallReturnLabel_275, ??CrossCallReturnLabel_236
          CFI (cfiCond707) CFA_SP SP+6
          CFI Block cfiCond708 Using cfiCommon0
          CFI (cfiCond708) Function main_logic
          CFI (cfiCond708) Conditional ??CrossCallReturnLabel_275, ??CrossCallReturnLabel_237
          CFI (cfiCond708) CFA_SP SP+6
          CFI Block cfiCond709 Using cfiCommon0
          CFI (cfiCond709) Function main_logic
          CFI (cfiCond709) Conditional ??CrossCallReturnLabel_273
          CFI (cfiCond709) CFA_SP SP+4
          CFI Block cfiCond710 Using cfiCommon0
          CFI (cfiCond710) Function migWORK
          CFI (cfiCond710) Conditional ??CrossCallReturnLabel_274
          CFI (cfiCond710) CFA_SP SP+4
          CFI Block cfiPicker711 Using cfiCommon2
          CFI (cfiPicker711) NoFunction
          CFI (cfiPicker711) Picker
        OUT     0x18, R17
        RET
          CFI EndBlock cfiCond705
          CFI EndBlock cfiCond706
          CFI EndBlock cfiCond707
          CFI EndBlock cfiCond708
          CFI EndBlock cfiCond709
          CFI EndBlock cfiCond710
          CFI EndBlock cfiPicker711

        RSEG CODE:CODE:NOROOT(1)
?Subroutine83:
          CFI Block cfiCond712 Using cfiCommon0
          CFI Function main_logic
          CFI Conditional ??CrossCallReturnLabel_275, ??CrossCallReturnLabel_236
          CFI CFA_SP SP+6
          CFI Block cfiCond713 Using cfiCommon0
          CFI (cfiCond713) Function main_logic
          CFI (cfiCond713) Conditional ??CrossCallReturnLabel_275, ??CrossCallReturnLabel_237
          CFI (cfiCond713) CFA_SP SP+6
          CFI Block cfiCond714 Using cfiCommon0
          CFI (cfiCond714) Function main_logic
          CFI (cfiCond714) Conditional ??CrossCallReturnLabel_273
          CFI (cfiCond714) CFA_SP SP+4
          CFI Block cfiCond715 Using cfiCommon0
          CFI (cfiCond715) Function migWORK
          CFI (cfiCond715) Conditional ??CrossCallReturnLabel_274
          CFI (cfiCond715) CFA_SP SP+4
          CFI Block cfiPicker716 Using cfiCommon2
          CFI (cfiPicker716) NoFunction
          CFI (cfiPicker716) Picker
        RCALL   ?Subroutine111
??CrossCallReturnLabel_228:
        COM     R16
        IN      R17, 0x18
        AND     R17, R16
        RJMP    ?Subroutine122
          CFI EndBlock cfiCond712
          CFI EndBlock cfiCond713
          CFI EndBlock cfiCond714
          CFI EndBlock cfiCond715
          CFI EndBlock cfiPicker716

        RSEG NEAR_Z:DATA:NOROOT(0)
        REQUIRE `?<Segment init: NEAR_Z>`
??sost:
        DS8 1
//   91 //uchar migSEL(void){ return(port);} //возвращает текущий мигающий порт
//   92 //**************************************************************
//   93 //**************************************************************
// F:\Dulov\RemoteAMP\usart.c
//    1 #include "usart.h"
//    2 //#include <math.h>
//    3 //#include <intrinsics.h>
//    4 
//    5 #include "init.h"
//    6 
//    7 //однобайтный буфер

        RSEG NEAR_Z:DATA:NOROOT(0)
        REQUIRE `?<Segment init: NEAR_Z>`
//    8 volatile unsigned char usartRxBuf = 0;
usartRxBuf:
        DS8 1

        RSEG NEAR_Z:DATA:NOROOT(0)
        REQUIRE `?<Segment init: NEAR_Z>`
//    9 volatile static bool usarton;
??usarton:
        DS8 1
//   10 
//   11 //инициализация usart`a

        RSEG CODE:CODE:NOROOT(1)
//   12 void USART_Init()
USART_Init:
          CFI Block cfiBlock717 Using cfiCommon0
          CFI Function USART_Init
//   13 {
//   14   UBRRH = 0;
        LDI     R16, 0
        OUT     0x20, R16
//   15   UBRRL = ((F_CPU/9600UL)-1)/16;//    26;//78; //скорость обмена 9600 бод
        LDI     R16, 25
        OUT     0x09, R16
//   16   UCSRB = (1<<RXCIE)|(1<<RXEN)|(1<<TXEN); //разр. прерыв при приеме, разр приема, разр передачи.
        LDI     R16, 152
        OUT     0x0A, R16
//   17   UCSRC = (1<<URSEL)|(1<<UCSZ1)|(1<<UCSZ0); //размер слова 8 разрядов
        LDI     R16, 134
        OUT     0x20, R16
//   18 }
        RET
          CFI EndBlock cfiBlock717
        REQUIRE _A_UBRRH
        REQUIRE _A_UBRRL
        REQUIRE _A_UCSRB
//   19 
//   20 //отправка символа по usart`у

        RSEG CODE:CODE:NOROOT(1)
//   21 void USART_SendChar(unsigned char sym)
USART_SendChar:
          CFI Block cfiBlock718 Using cfiCommon0
          CFI Function USART_SendChar
//   22 {
//   23   if (!usarton) return;
        LDS     R17, ??usarton
        TST     R17
        BREQ    ??USART_SendChar_0
//   24   while(!(UCSRA & (1<<UDRE)));
??USART_SendChar_1:
        SBIS    0x0B, 0x05
        RJMP    ??USART_SendChar_1
//   25   UDR = sym;
        OUT     0x0C, R16
//   26 }
??USART_SendChar_0:
        RET
          CFI EndBlock cfiBlock718
        REQUIRE _A_UCSRA
        REQUIRE _A_UDR
//   27 
//   28 //чтение буфера

        RSEG CODE:CODE:NOROOT(1)
//   29 __monitor unsigned char USART_GetChar(void)
USART_GetChar:
          CFI Block cfiBlock719 Using cfiCommon0
          CFI Function USART_GetChar
//   30 {
        IN      R18, 0x3F
        CLI
//   31   unsigned char tmp = usartRxBuf;
        LDS     R16, usartRxBuf
//   32   usartRxBuf = 0;
        LDI     R17, 0
        STS     usartRxBuf, R17
//   33   return tmp;  
        OUT     0x3F, R18
        RET
          CFI EndBlock cfiBlock719
//   34 }
//   35 
//   36 //прием символа по usart`у в буфер
//   37 #pragma vector=USART_RXC_vect

        RSEG CODE:CODE:NOROOT(1)
//   38 __interrupt void usart_rxc_my(void) 
usart_rxc_my:
          CFI Block cfiBlock720 Using cfiCommon1
          CFI Function usart_rxc_my
//   39 {
        ST      -Y, R16
          CFI R16 Frame(CFA_Y, -1)
          CFI CFA_Y Y+1
//   40   usartRxBuf = UDR; 
        IN      R16, 0x0C
        STS     usartRxBuf, R16
//   41 } 
        RJMP    ?Subroutine123
          CFI EndBlock cfiBlock720
        REQUIRE _A_UDR
//   42 
//   43 // *** rprintfStr ***
//   44 // prints a null-terminated string stored in RAM

        RSEG CODE:CODE:NOROOT(1)
//   45 void rprintfStr(char str[])
rprintfStr:
          CFI Block cfiBlock721 Using cfiCommon0
          CFI Function rprintfStr
//   46 {        
        FUNCALL rprintfStr, USART_SendChar
        LOCFRAME CSTACK, 4, STACK
        LOCFRAME RSTACK, 2, STACK
        ARGFRAME RSTACK, 0, STACK
        RCALL   ?PROLOGUE4_L09
          CFI R27 Frame(CFA_Y, -1)
          CFI R26 Frame(CFA_Y, -2)
          CFI R25 Frame(CFA_Y, -3)
          CFI R24 Frame(CFA_Y, -4)
          CFI CFA_Y Y+4
        MOVW    R27:R26, R17:R16
//   47     if (!usarton) return;
        LDS     R16, ??usarton
        TST     R16
        BREQ    ??rprintfStr_0
//   48 	// send a string stored in RAM
//   49 	// check to make sure we have a good pointer
//   50 	if (!str) return;
        MOV     R16, R26
        OR      R16, R17
        BRNE    ??rprintfStr_1
        RJMP    ??rprintfStr_0
//   51 
//   52 	// print the string until a null-terminator
//   53 	while (*str)
//   54 		USART_SendChar(*str++);
??rprintfStr_2:
        RCALL   USART_SendChar
??rprintfStr_1:
        LD      R16, X+
        TST     R16
        BRNE    ??rprintfStr_2
//   55 }
??rprintfStr_0:
        LDI     R30, 4
        RJMP    ?EPILOGUE_B4_L09
          CFI EndBlock cfiBlock721
//   56 
//   57 // *** rprintfFloat ***Pascal Stang - Copyright (C) 2000-2002
//   58 // floating-point print

        RSEG CODE:CODE:NOROOT(1)
//   59 void rprintfFloat(char numDigits, double x)
rprintfFloat:
          CFI Block cfiBlock722 Using cfiCommon0
          CFI Function rprintfFloat
//   60 {
        FUNCALL rprintfFloat, USART_SendChar
        LOCFRAME CSTACK, 12, STACK
        LOCFRAME RSTACK, 2, STACK
        ARGFRAME RSTACK, 0, STACK
        FUNCALL rprintfFloat, USART_SendChar
        LOCFRAME CSTACK, 12, STACK
        LOCFRAME RSTACK, 2, STACK
        ARGFRAME RSTACK, 0, STACK
        FUNCALL rprintfFloat, USART_SendChar
        LOCFRAME CSTACK, 12, STACK
        LOCFRAME RSTACK, 2, STACK
        ARGFRAME RSTACK, 0, STACK
        FUNCALL rprintfFloat, USART_SendChar
        LOCFRAME CSTACK, 12, STACK
        LOCFRAME RSTACK, 2, STACK
        ARGFRAME RSTACK, 0, STACK
        FUNCALL rprintfFloat, USART_SendChar
        LOCFRAME CSTACK, 12, STACK
        LOCFRAME RSTACK, 2, STACK
        ARGFRAME RSTACK, 0, STACK
        RCALL   ?PROLOGUE12_L09
          CFI R11 Frame(CFA_Y, -1)
          CFI R10 Frame(CFA_Y, -2)
          CFI R9 Frame(CFA_Y, -3)
          CFI R8 Frame(CFA_Y, -4)
          CFI R7 Frame(CFA_Y, -5)
          CFI R6 Frame(CFA_Y, -6)
          CFI R5 Frame(CFA_Y, -7)
          CFI R4 Frame(CFA_Y, -8)
          CFI R27 Frame(CFA_Y, -9)
          CFI R26 Frame(CFA_Y, -10)
          CFI R25 Frame(CFA_Y, -11)
          CFI R24 Frame(CFA_Y, -12)
          CFI CFA_Y Y+12
        REQUIRE ?Register_R4_is_cg_reg
        REQUIRE ?Register_R5_is_cg_reg
        REQUIRE ?Register_R6_is_cg_reg
        REQUIRE ?Register_R7_is_cg_reg
        REQUIRE ?Register_R8_is_cg_reg
        REQUIRE ?Register_R9_is_cg_reg
        REQUIRE ?Register_R10_is_cg_reg
        REQUIRE ?Register_R11_is_cg_reg
        MOV     R11, R16
        MOVW    R5:R4, R21:R20
        MOVW    R7:R6, R23:R22
//   61     if (!usarton) return;
        LDS     R16, ??usarton
        TST     R16
        BRNE    $+2+2
        RJMP    ??rprintfFloat_0
//   62 	unsigned char firstplace = 0;
        CLR     R10
//   63 	unsigned char negative;
//   64 	unsigned char i, digit;
//   65 	double place = 1.0;
        LDI     R24, 0
        LDI     R25, 0
        LDI     R26, 128
        LDI     R27, 63
//   66 	
//   67 	// save sign
//   68 	negative = (x<0);
        RCALL   ?Subroutine50
??CrossCallReturnLabel_278:
        RCALL   ?Subroutine98
??CrossCallReturnLabel_185:
        RCALL   ?F_CMP_LT_L04
        CLR     R8
        BRCC    ??rprintfFloat_1
        INC     R8
//   69 	// convert to absolute value
//   70 	x = (x>0)?(x):(-x);
??rprintfFloat_1:
        LDI     R20, 1
        RCALL   ?F_CMP_GE_L04
        BRCS    ??rprintfFloat_2
        EOR     R7, R26
//   71 	
//   72 	// find starting digit place
//   73 	for(i=0; i<15; i++)
??rprintfFloat_2:
        LDI     R16, 15
        MOV     R9, R16
//   74 	{
//   75 		if((x/place) < 10.0)
??rprintfFloat_3:
        RCALL   ?Subroutine51
??CrossCallReturnLabel_61:
        RCALL   ?Subroutine55
??CrossCallReturnLabel_72:
        RCALL   ?F_CMP_LT_L04
        BRCS    ??rprintfFloat_4
//   76 			break;
//   77 		else
//   78 			place *= 10.0;
        MOVW    R17:R16, R25:R24
        MOVW    R19:R18, R27:R26
        RCALL   ?F_MUL_L04
        MOVW    R25:R24, R17:R16
        MOVW    R27:R26, R19:R18
//   79 	}
        DEC     R9
        BRNE    ??rprintfFloat_3
//   80 	// print polarity character
//   81 	if(negative)
??rprintfFloat_4:
        BST     R8, 0
        BRTC    ??rprintfFloat_5
//   82 		USART_SendChar('-');
        LDI     R16, 45
        RJMP    ??rprintfFloat_6
//   83 	else
//   84 		USART_SendChar('+');
??rprintfFloat_5:
        LDI     R16, 43
??rprintfFloat_6:
        RCALL   USART_SendChar
//   85 
//   86 	// print digits
//   87 	for(i=0; i<numDigits; i++)
        CLR     R9
        RJMP    ??rprintfFloat_7
//   88 	{
//   89 		digit = (unsigned char)(x/place);
//   90 
//   91 		if(digit | firstplace | (place == 1.0))
//   92 		{
//   93 			firstplace = 1;
//   94 			USART_SendChar(digit+0x30);
//   95 		}
//   96 		else
//   97 			USART_SendChar(' ');
??rprintfFloat_8:
        LDI     R16, 32
??rprintfFloat_9:
        RCALL   USART_SendChar
//   98 		
//   99 		if(place == 1.0)
        RCALL   ?Subroutine48
??CrossCallReturnLabel_56:
        BRNE    ??rprintfFloat_10
//  100 		{
//  101 			USART_SendChar('.');
        LDI     R16, 46
        RCALL   USART_SendChar
//  102 		}
//  103 		
//  104 		x -= (digit*place);
??rprintfFloat_10:
        MOV     R16, R8
        RCALL   ?Subroutine21
??CrossCallReturnLabel_182:
        MOVW    R21:R20, R25:R24
        MOVW    R23:R22, R27:R26
        RCALL   ?F_MUL_L04
        RCALL   ?Subroutine114
??CrossCallReturnLabel_289:
        RCALL   ?Subroutine98
??CrossCallReturnLabel_186:
        RCALL   ?F_SUB_L04
        MOVW    R5:R4, R17:R16
        MOVW    R7:R6, R19:R18
//  105 		place /= 10.0;
        RCALL   ?Subroutine55
??CrossCallReturnLabel_73:
        MOVW    R17:R16, R25:R24
        MOVW    R19:R18, R27:R26
        RCALL   ?F_DIV_L04
        MOVW    R25:R24, R17:R16
        MOVW    R27:R26, R19:R18
        INC     R9
??rprintfFloat_7:
        CP      R9, R11
        BRCC    ??rprintfFloat_0
        RCALL   ?Subroutine51
??CrossCallReturnLabel_62:
        RCALL   ?F2SL_L04
        MOV     R8, R16
        RCALL   ?Subroutine48
??CrossCallReturnLabel_57:
        BRNE    ??rprintfFloat_11
        LDI     R16, 1
        RJMP    ??rprintfFloat_12
??rprintfFloat_11:
        LDI     R16, 0
??rprintfFloat_12:
        MOV     R17, R8
        OR      R17, R10
        OR      R17, R16
        BREQ    ??rprintfFloat_8
        CLR     R10
        INC     R10
        MOV     R16, R8
        SUBI    R16, 208
        RJMP    ??rprintfFloat_9
//  106 	}
//  107 }
??rprintfFloat_0:
        LDI     R30, 12
        RJMP    ?EPILOGUE_B12_L09
          CFI EndBlock cfiBlock722

        RSEG CODE:CODE:NOROOT(1)
?Subroutine55:
          CFI Block cfiCond723 Using cfiCommon0
          CFI Function rprintfFloat
          CFI Conditional ??CrossCallReturnLabel_72
          CFI R24 Frame(CFA_Y, -12)
          CFI R25 Frame(CFA_Y, -11)
          CFI R26 Frame(CFA_Y, -10)
          CFI R27 Frame(CFA_Y, -9)
          CFI R4 Frame(CFA_Y, -8)
          CFI R5 Frame(CFA_Y, -7)
          CFI R6 Frame(CFA_Y, -6)
          CFI R7 Frame(CFA_Y, -5)
          CFI R8 Frame(CFA_Y, -4)
          CFI R9 Frame(CFA_Y, -3)
          CFI R10 Frame(CFA_Y, -2)
          CFI R11 Frame(CFA_Y, -1)
          CFI CFA_SP SP+4
          CFI CFA_Y Y+12
          CFI Block cfiCond724 Using cfiCommon0
          CFI (cfiCond724) Function rprintfFloat
          CFI (cfiCond724) Conditional ??CrossCallReturnLabel_73
          CFI (cfiCond724) R24 Frame(CFA_Y, -12)
          CFI (cfiCond724) R25 Frame(CFA_Y, -11)
          CFI (cfiCond724) R26 Frame(CFA_Y, -10)
          CFI (cfiCond724) R27 Frame(CFA_Y, -9)
          CFI (cfiCond724) R4 Frame(CFA_Y, -8)
          CFI (cfiCond724) R5 Frame(CFA_Y, -7)
          CFI (cfiCond724) R6 Frame(CFA_Y, -6)
          CFI (cfiCond724) R7 Frame(CFA_Y, -5)
          CFI (cfiCond724) R8 Frame(CFA_Y, -4)
          CFI (cfiCond724) R9 Frame(CFA_Y, -3)
          CFI (cfiCond724) R10 Frame(CFA_Y, -2)
          CFI (cfiCond724) R11 Frame(CFA_Y, -1)
          CFI (cfiCond724) CFA_SP SP+4
          CFI (cfiCond724) CFA_Y Y+12
          CFI Block cfiPicker725 Using cfiCommon2
          CFI (cfiPicker725) NoFunction
          CFI (cfiPicker725) Picker
        LDI     R20, 0
        LDI     R21, 0
        LDI     R22, 32
        LDI     R23, 65
        RET
          CFI EndBlock cfiCond723
          CFI EndBlock cfiCond724
          CFI EndBlock cfiPicker725

        RSEG CODE:CODE:NOROOT(1)
?Subroutine51:
          CFI Block cfiCond726 Using cfiCommon0
          CFI Function rprintfFloat
          CFI Conditional ??CrossCallReturnLabel_61
          CFI R24 Frame(CFA_Y, -12)
          CFI R25 Frame(CFA_Y, -11)
          CFI R26 Frame(CFA_Y, -10)
          CFI R27 Frame(CFA_Y, -9)
          CFI R4 Frame(CFA_Y, -8)
          CFI R5 Frame(CFA_Y, -7)
          CFI R6 Frame(CFA_Y, -6)
          CFI R7 Frame(CFA_Y, -5)
          CFI R8 Frame(CFA_Y, -4)
          CFI R9 Frame(CFA_Y, -3)
          CFI R10 Frame(CFA_Y, -2)
          CFI R11 Frame(CFA_Y, -1)
          CFI CFA_SP SP+4
          CFI CFA_Y Y+12
          CFI Block cfiCond727 Using cfiCommon0
          CFI (cfiCond727) Function rprintfFloat
          CFI (cfiCond727) Conditional ??CrossCallReturnLabel_62
          CFI (cfiCond727) R24 Frame(CFA_Y, -12)
          CFI (cfiCond727) R25 Frame(CFA_Y, -11)
          CFI (cfiCond727) R26 Frame(CFA_Y, -10)
          CFI (cfiCond727) R27 Frame(CFA_Y, -9)
          CFI (cfiCond727) R4 Frame(CFA_Y, -8)
          CFI (cfiCond727) R5 Frame(CFA_Y, -7)
          CFI (cfiCond727) R6 Frame(CFA_Y, -6)
          CFI (cfiCond727) R7 Frame(CFA_Y, -5)
          CFI (cfiCond727) R8 Frame(CFA_Y, -4)
          CFI (cfiCond727) R9 Frame(CFA_Y, -3)
          CFI (cfiCond727) R10 Frame(CFA_Y, -2)
          CFI (cfiCond727) R11 Frame(CFA_Y, -1)
          CFI (cfiCond727) CFA_SP SP+4
          CFI (cfiCond727) CFA_Y Y+12
          CFI Block cfiPicker728 Using cfiCommon2
          CFI (cfiPicker728) NoFunction
          CFI (cfiPicker728) Picker
        MOVW    R21:R20, R25:R24
        MOVW    R23:R22, R27:R26
        RCALL   ?Subroutine98
??CrossCallReturnLabel_189:
        RJMP    ?F_DIV_L04
          CFI EndBlock cfiCond726
          CFI EndBlock cfiCond727
          CFI EndBlock cfiPicker728

        RSEG CODE:CODE:NOROOT(1)
?Subroutine48:
          CFI Block cfiCond729 Using cfiCommon0
          CFI Function rprintfFloat
          CFI Conditional ??CrossCallReturnLabel_56
          CFI R24 Frame(CFA_Y, -12)
          CFI R25 Frame(CFA_Y, -11)
          CFI R26 Frame(CFA_Y, -10)
          CFI R27 Frame(CFA_Y, -9)
          CFI R4 Frame(CFA_Y, -8)
          CFI R5 Frame(CFA_Y, -7)
          CFI R6 Frame(CFA_Y, -6)
          CFI R7 Frame(CFA_Y, -5)
          CFI R8 Frame(CFA_Y, -4)
          CFI R9 Frame(CFA_Y, -3)
          CFI R10 Frame(CFA_Y, -2)
          CFI R11 Frame(CFA_Y, -1)
          CFI CFA_SP SP+4
          CFI CFA_Y Y+12
          CFI Block cfiCond730 Using cfiCommon0
          CFI (cfiCond730) Function rprintfFloat
          CFI (cfiCond730) Conditional ??CrossCallReturnLabel_57
          CFI (cfiCond730) R24 Frame(CFA_Y, -12)
          CFI (cfiCond730) R25 Frame(CFA_Y, -11)
          CFI (cfiCond730) R26 Frame(CFA_Y, -10)
          CFI (cfiCond730) R27 Frame(CFA_Y, -9)
          CFI (cfiCond730) R4 Frame(CFA_Y, -8)
          CFI (cfiCond730) R5 Frame(CFA_Y, -7)
          CFI (cfiCond730) R6 Frame(CFA_Y, -6)
          CFI (cfiCond730) R7 Frame(CFA_Y, -5)
          CFI (cfiCond730) R8 Frame(CFA_Y, -4)
          CFI (cfiCond730) R9 Frame(CFA_Y, -3)
          CFI (cfiCond730) R10 Frame(CFA_Y, -2)
          CFI (cfiCond730) R11 Frame(CFA_Y, -1)
          CFI (cfiCond730) CFA_SP SP+4
          CFI (cfiCond730) CFA_Y Y+12
          CFI Block cfiPicker731 Using cfiCommon2
          CFI (cfiPicker731) NoFunction
          CFI (cfiPicker731) Picker
        LDI     R20, 0
        LDI     R21, 0
        LDI     R22, 128
        LDI     R23, 63
        MOVW    R17:R16, R25:R24
        MOVW    R19:R18, R27:R26
        RJMP    ?F_CMP_EQ_L04
          CFI EndBlock cfiCond729
          CFI EndBlock cfiCond730
          CFI EndBlock cfiPicker731

        RSEG CODE:CODE:NOROOT(1)
?Subroutine21:
          CFI Block cfiCond732 Using cfiCommon0
          CFI Function diag
          CFI Conditional ??CrossCallReturnLabel_181
          CFI R24 Frame(CFA_Y, -2)
          CFI R25 Frame(CFA_Y, -1)
          CFI CFA_SP SP+4
          CFI CFA_Y Y+2
          CFI Block cfiCond733 Using cfiCommon0
          CFI (cfiCond733) Function rprintfFloat
          CFI (cfiCond733) Conditional ??CrossCallReturnLabel_182
          CFI (cfiCond733) R24 Frame(CFA_Y, -12)
          CFI (cfiCond733) R25 Frame(CFA_Y, -11)
          CFI (cfiCond733) R26 Frame(CFA_Y, -10)
          CFI (cfiCond733) R27 Frame(CFA_Y, -9)
          CFI (cfiCond733) R4 Frame(CFA_Y, -8)
          CFI (cfiCond733) R5 Frame(CFA_Y, -7)
          CFI (cfiCond733) R6 Frame(CFA_Y, -6)
          CFI (cfiCond733) R7 Frame(CFA_Y, -5)
          CFI (cfiCond733) R8 Frame(CFA_Y, -4)
          CFI (cfiCond733) R9 Frame(CFA_Y, -3)
          CFI (cfiCond733) R10 Frame(CFA_Y, -2)
          CFI (cfiCond733) R11 Frame(CFA_Y, -1)
          CFI (cfiCond733) CFA_SP SP+4
          CFI (cfiCond733) CFA_Y Y+12
          CFI Block cfiPicker734 Using cfiCommon2
          CFI (cfiPicker734) NoFunction
          CFI (cfiPicker734) Picker
        LDI     R17, 0
        LDI     R18, 0
          CFI EndBlock cfiCond732
          CFI EndBlock cfiCond733
          CFI EndBlock cfiPicker734
        REQUIRE ?Subroutine97
        ;               // Fall through to label ?Subroutine97

        RSEG CODE:CODE:NOROOT(1)
?Subroutine97:
          CFI Block cfiCond735 Using cfiCommon0
          CFI Function PEREP
          CFI Conditional ??CrossCallReturnLabel_183, ??CrossCallReturnLabel_35
          CFI R24 Frame(CFA_Y, -8)
          CFI R25 Frame(CFA_Y, -7)
          CFI R26 Frame(CFA_Y, -6)
          CFI R27 Frame(CFA_Y, -5)
          CFI R4 Frame(CFA_Y, -4)
          CFI R5 Frame(CFA_Y, -3)
          CFI R6 Frame(CFA_Y, -2)
          CFI R7 Frame(CFA_Y, -1)
          CFI CFA_SP SP+6
          CFI CFA_Y Y+8
          CFI Block cfiCond736 Using cfiCommon0
          CFI (cfiCond736) Function PEREP
          CFI (cfiCond736) Conditional ??CrossCallReturnLabel_183, ??CrossCallReturnLabel_36
          CFI (cfiCond736) R24 Frame(CFA_Y, -8)
          CFI (cfiCond736) R25 Frame(CFA_Y, -7)
          CFI (cfiCond736) R26 Frame(CFA_Y, -6)
          CFI (cfiCond736) R27 Frame(CFA_Y, -5)
          CFI (cfiCond736) R4 Frame(CFA_Y, -4)
          CFI (cfiCond736) R5 Frame(CFA_Y, -3)
          CFI (cfiCond736) R6 Frame(CFA_Y, -2)
          CFI (cfiCond736) R7 Frame(CFA_Y, -1)
          CFI (cfiCond736) CFA_SP SP+6
          CFI (cfiCond736) CFA_Y Y+8
          CFI Block cfiCond737 Using cfiCommon0
          CFI (cfiCond737) Function coding
          CFI (cfiCond737) Conditional ??CrossCallReturnLabel_184, ??CrossCallReturnLabel_54
          CFI (cfiCond737) R24 Frame(CFA_Y, -10)
          CFI (cfiCond737) R25 Frame(CFA_Y, -9)
          CFI (cfiCond737) R26 Frame(CFA_Y, -8)
          CFI (cfiCond737) R27 Frame(CFA_Y, -7)
          CFI (cfiCond737) R4 Frame(CFA_Y, -6)
          CFI (cfiCond737) R5 Frame(CFA_Y, -5)
          CFI (cfiCond737) R6 Frame(CFA_Y, -4)
          CFI (cfiCond737) R7 Frame(CFA_Y, -3)
          CFI (cfiCond737) R8 Frame(CFA_Y, -2)
          CFI (cfiCond737) R9 Frame(CFA_Y, -1)
          CFI (cfiCond737) CFA_SP SP+6
          CFI (cfiCond737) CFA_Y Y+10
          CFI Block cfiCond738 Using cfiCommon0
          CFI (cfiCond738) Function coding
          CFI (cfiCond738) Conditional ??CrossCallReturnLabel_184, ??CrossCallReturnLabel_55
          CFI (cfiCond738) R24 Frame(CFA_Y, -10)
          CFI (cfiCond738) R25 Frame(CFA_Y, -9)
          CFI (cfiCond738) R26 Frame(CFA_Y, -8)
          CFI (cfiCond738) R27 Frame(CFA_Y, -7)
          CFI (cfiCond738) R4 Frame(CFA_Y, -6)
          CFI (cfiCond738) R5 Frame(CFA_Y, -5)
          CFI (cfiCond738) R6 Frame(CFA_Y, -4)
          CFI (cfiCond738) R7 Frame(CFA_Y, -3)
          CFI (cfiCond738) R8 Frame(CFA_Y, -2)
          CFI (cfiCond738) R9 Frame(CFA_Y, -1)
          CFI (cfiCond738) CFA_SP SP+6
          CFI (cfiCond738) CFA_Y Y+10
          CFI Block cfiCond739 Using cfiCommon0
          CFI (cfiCond739) Function diag
          CFI (cfiCond739) Conditional ??CrossCallReturnLabel_181
          CFI (cfiCond739) R24 Frame(CFA_Y, -2)
          CFI (cfiCond739) R25 Frame(CFA_Y, -1)
          CFI (cfiCond739) CFA_SP SP+4
          CFI (cfiCond739) CFA_Y Y+2
          CFI Block cfiCond740 Using cfiCommon0
          CFI (cfiCond740) Function rprintfFloat
          CFI (cfiCond740) Conditional ??CrossCallReturnLabel_182
          CFI (cfiCond740) R24 Frame(CFA_Y, -12)
          CFI (cfiCond740) R25 Frame(CFA_Y, -11)
          CFI (cfiCond740) R26 Frame(CFA_Y, -10)
          CFI (cfiCond740) R27 Frame(CFA_Y, -9)
          CFI (cfiCond740) R4 Frame(CFA_Y, -8)
          CFI (cfiCond740) R5 Frame(CFA_Y, -7)
          CFI (cfiCond740) R6 Frame(CFA_Y, -6)
          CFI (cfiCond740) R7 Frame(CFA_Y, -5)
          CFI (cfiCond740) R8 Frame(CFA_Y, -4)
          CFI (cfiCond740) R9 Frame(CFA_Y, -3)
          CFI (cfiCond740) R10 Frame(CFA_Y, -2)
          CFI (cfiCond740) R11 Frame(CFA_Y, -1)
          CFI (cfiCond740) CFA_SP SP+4
          CFI (cfiCond740) CFA_Y Y+12
          CFI Block cfiPicker741 Using cfiCommon2
          CFI (cfiPicker741) NoFunction
          CFI (cfiPicker741) Picker
        LDI     R19, 0
        RJMP    ?UL2F_L04
          CFI EndBlock cfiCond735
          CFI EndBlock cfiCond736
          CFI EndBlock cfiCond737
          CFI EndBlock cfiCond738
          CFI EndBlock cfiCond739
          CFI EndBlock cfiCond740
          CFI EndBlock cfiPicker741

        ASEGN ABSOLUTE:DATA:NOROOT,01cH
__?EECR:

        ASEGN ABSOLUTE:DATA:NOROOT,01dH
__?EEDR:

        ASEGN ABSOLUTE:DATA:NOROOT,01eH
__?EEARL:

        ASEGN ABSOLUTE:DATA:NOROOT,01fH
__?EEARH:

        COMMON INTVEC:CODE:ROOT(1)
        ORG 2
`??funINT0_vect??INTVEC 2`:
        RJMP    funINT0_vect

        COMMON INTVEC:CODE:ROOT(1)
        ORG 8
`??TIMER2ovf??INTVEC 8`:
        RJMP    TIMER2ovf

        COMMON INTVEC:CODE:ROOT(1)
        ORG 16
`??funTIMER1_OVF_vect??INTVEC 16`:
        RJMP    funTIMER1_OVF_vect

        COMMON INTVEC:CODE:ROOT(1)
        ORG 22
`??usart_rxc_my??INTVEC 22`:
        RJMP    usart_rxc_my

        RSEG NEAR_ID:CODE:NOROOT(0)
`?<Initializer for <Constant " error ct big =">`:
        DC8 " error ct big ="

        RSEG INITTAB:CODE:NOROOT(0)
`?<Segment init: NEAR_I>`:
        DC16    SFE(NEAR_I) - SFB(NEAR_I)
        DC16    SFB(NEAR_I)
        DC16    SFB(NEAR_ID)
        REQUIRE ?need_segment_init

        RSEG NEAR_ID:CODE:NOROOT(0)
`?<Initializer for <Constant "  /   cod1= ">>`:
        DC8 "  /   cod1= "

        RSEG NEAR_ID:CODE:NOROOT(0)
`?<Initializer for <Constant "/   cod2= ">>`:
        DC8 "/   cod2= "

        RSEG NEAR_ID:CODE:NOROOT(0)
`?<Initializer for <Constant "/   cod3= ">>`:
        DC8 "/   cod3= "

        RSEG NEAR_ID:CODE:NOROOT(0)
`?<Initializer for <Constant "  / abslen= ">>`:
        DC8 "  / abslen= "

        RSEG NEAR_ID:CODE:NOROOT(0)
`?<Initializer for <Constant "  / len= ">>`:
        DC8 "  / len= "

        RSEG NEAR_ID:CODE:NOROOT(0)
`?<Initializer for <Constant "  ">>`:
        DC8 "  "

        RSEG NEAR_ID:CODE:NOROOT(0)
`?<Initializer for <Constant "  / cod1= ">>`:
        DC8 "  / cod1= "

        RSEG NEAR_ID:CODE:NOROOT(0)
`?<Initializer for <Constant " / cod2= ">>`:
        DC8 " / cod2= "

        RSEG NEAR_ID:CODE:NOROOT(0)
`?<Initializer for <Constant " / cod3= ">>`:
        DC8 " / cod3= "

        RSEG NEAR_ID:CODE:NOROOT(0)
`?<Initializer for <Constant "/ minlen=">>`:
        DC8 "/ minlen="

        RSEG NEAR_ID:CODE:NOROOT(0)
`?<Initializer for <Constant "OFF>adr=">>`:
        DC8 "OFF>adr="

        RSEG NEAR_ID:CODE:NOROOT(0)
`?<Initializer for <Constant "ON>adr=">>`:
        DC8 "ON>adr="

        RSEG NEAR_ID:CODE:NOROOT(0)
`?<Initializer for <Constant "normal>command fi`:
        DC8 "normal>command find  adr="

        RSEG NEAR_ID:CODE:NOROOT(0)
`?<Initializer for <Constant "write ..">>`:
        DC8 "write .."

        RSEG NEAR_ID:CODE:NOROOT(0)
`?<Initializer for <Constant "OK !   ">>`:
        DC8 "OK !   "

        RSEG NEAR_ID:CODE:NOROOT(0)
`?<Initializer for <Constant "- vkluchen kratki`:
        DC8 "- vkluchen kratkiy viviod -"

        RSEG NEAR_ID:CODE:NOROOT(0)
`?<Initializer for <Constant " ==  EEPROM read `:
        DC8 " ==  EEPROM read == "

        RSEG NEAR_ID:CODE:NOROOT(0)
`?<Initializer for <Constant " > ">>`:
        DC8 " > "

        RSEG NEAR_ID:CODE:NOROOT(0)
`?<Initializer for <Constant " get: ">>`:
        DC8 " get: "

        RSEG NEAR_ID:CODE:NOROOT(0)
`?<Initializer for <Constant "  regim  no sourc`:
        DC8 "  regim  no source5 >"

        RSEG NEAR_ID:CODE:NOROOT(0)
`?<Initializer for <Constant "  regim  PROGRAMM`:
        DC8 "  regim  PROGRAMMING !!  READY >"

        RSEG NEAR_ID:CODE:NOROOT(0)
`?<Initializer for <Constant "  regim  normal  `:
        DC8 "  regim  normal  READY >"

        RSEG INITTAB:CODE:NOROOT(0)
`?<Segment init: NEAR_Z>`:
        DC16    SFE(NEAR_Z) - SFB(NEAR_Z)
        DC16    SFB(NEAR_Z)
        DC16    0
        REQUIRE ?need_segment_init

        RSEG NEAR_ID:CODE:NOROOT(0)
`?<Initializer for ind>`:
        DC8 1

        RSEG NEAR_ID:CODE:NOROOT(0)
`?<Initializer for tON>`:
        DC16 20000

        RSEG NEAR_ID:CODE:NOROOT(0)
`?<Initializer for lastsel>`:
        DC8 1

        RSEG NEAR_ID:CODE:NOROOT(0)
`?<Initializer for sel>`:
        DC8 1

        RSEG NEAR_ID:CODE:NOROOT(0)
`?<Initializer for port>`:
        DC8 255

        END
// 
//    30 bytes in segment ABSOLUTE
// 4 578 bytes in segment CODE
//   242 bytes in segment EEPROM_N
//    12 bytes in segment INITTAB
//     8 bytes in segment INTVEC
//   324 bytes in segment NEAR_I
//   324 bytes in segment NEAR_ID
//   485 bytes in segment NEAR_Z
// 
// 4 902 bytes of CODE  memory (+ 20 bytes shared)
//   809 bytes of DATA  memory (+ 30 bytes shared)
//   242 bytes of XDATA memory
//
//Errors: none
//Warnings: 2
