///////////////////////////////////////////////////////////////////////////////
//
// IAR C/C++ Compiler V6.40.1.741 for Atmel AVR           03/Feb/2017  11:00:01
// Copyright 1996-2014 IAR Systems AB.
//
//    Source file  =  F:\Dulov\RemoteAMP\main.cpp
//    Command line =  
//        F:\Dulov\RemoteAMP\main.cpp --cpu=m8 -ms -o
//        F:\Dulov\RemoteAMP\Release\Obj\ -D NDEBUG -lC
//        F:\Dulov\RemoteAMP\Release\List\ -lA F:\Dulov\RemoteAMP\Release\List\
//        --initializers_in_flash --no_clustering -DENABLE_BIT_DEFINITIONS -e
//        --eeprom_size 512 --dlib --dlib_config "C:\Program Files\IAR
//        Systems\Embedded Workbench 6.5\avr\LIB\DLIB\dlAVR-1s-ec_mul-n.h"
//        --ec++ -Ohz --mfc F:\Dulov\RemoteAMP\usart.c
//    List file    =  F:\Dulov\RemoteAMP\Release\List\main.s90
//
///////////////////////////////////////////////////////////////////////////////

        NAME main

        RTMODEL "__64bit_doubles", "disabled"
        RTMODEL "__SystemLibrary", "DLib"
        RTMODEL "__cpu", "1"
        RTMODEL "__cpu_name", "ATmega8"
        RTMODEL "__enhanced_core", "enabled"
        RTMODEL "__has_elpm", "false"
        RTMODEL "__memory_model", "2"
        RTMODEL "__rt_version", "3"

        RSEG CSTACK:DATA:NOROOT(0)
        RSEG RSTACK:DATA:NOROOT(0)

        ERROR
//NOTE: This module defines or uses C++ features that are not
//      accessible from assembler code. Assembling this file will
//      not produce an equivalent object file to the one produced
//      by the C++ compiler.

        EXTERN ?EPILOGUE_B10_L09
        EXTERN ?EPILOGUE_B12_L09
        EXTERN ?EPILOGUE_B2_L09
        EXTERN ?EPILOGUE_B3_L09
        EXTERN ?EPILOGUE_B4_L09
        EXTERN ?EPILOGUE_B8_L09
        EXTERN ?F2SL_L04
        EXTERN ?F_CMP_EQ_L04
        EXTERN ?F_CMP_GE_L04
        EXTERN ?F_CMP_LT_L04
        EXTERN ?F_DIV_L04
        EXTERN ?F_MUL_L04
        EXTERN ?F_SUB_L04
        EXTERN ?PROLOGUE10_L09
        EXTERN ?PROLOGUE12_L09
        EXTERN ?PROLOGUE2_L09
        EXTERN ?PROLOGUE3_L09
        EXTERN ?PROLOGUE4_L09
        EXTERN ?PROLOGUE8_L09
        EXTERN ?Register_R10_is_cg_reg
        EXTERN ?Register_R11_is_cg_reg
        EXTERN ?Register_R4_is_cg_reg
        EXTERN ?Register_R5_is_cg_reg
        EXTERN ?Register_R6_is_cg_reg
        EXTERN ?Register_R7_is_cg_reg
        EXTERN ?Register_R8_is_cg_reg
        EXTERN ?Register_R9_is_cg_reg
        EXTERN ?S_SHL_L02
        EXTERN ?UL2F_L04
        EXTERN ?UL_DIVMOD_L03
        EXTERN ?need_segment_init
        EXTERN __eeget16_16
        EXTERN __eeget8_16
        EXTERN __eeput16_16
        EXTERN __eeput8_16

        PUBWEAK `?<Segment init: NEAR_I>`
        PUBWEAK `?<Segment init: NEAR_Z>`
        PUBLIC ??ResetT1
        FUNCTION ??ResetT1,0203H
        ARGFRAME RSTACK, 0, STACK
        LOCFRAME RSTACK, 2, STACK
        PUBLIC ??ResetT2
        FUNCTION ??ResetT2,0203H
        ARGFRAME RSTACK, 0, STACK
        LOCFRAME RSTACK, 2, STACK
        PUBLIC ??USART_GetChar
        FUNCTION ??USART_GetChar,0203H
        ARGFRAME RSTACK, 0, STACK
        LOCFRAME RSTACK, 2, STACK
        PUBLIC ??USART_Init
        FUNCTION ??USART_Init,0203H
        ARGFRAME RSTACK, 0, STACK
        LOCFRAME RSTACK, 2, STACK
        PUBLIC ??USART_SendChar
        FUNCTION ??USART_SendChar,0203H
        ARGFRAME RSTACK, 0, STACK
        LOCFRAME RSTACK, 2, STACK
        PUBLIC ??WorkT1
        FUNCTION ??WorkT1,0203H
        ARGFRAME RSTACK, 0, STACK
        LOCFRAME RSTACK, 2, STACK
        PUBLIC ??WorkT2
        FUNCTION ??WorkT2,0203H
        ARGFRAME RSTACK, 0, STACK
        LOCFRAME CSTACK, 4, STACK
        LOCFRAME RSTACK, 4, STACK
        PUBLIC ??analizCOD
        FUNCTION ??analizCOD,0203H
        ARGFRAME RSTACK, 0, STACK
        LOCFRAME CSTACK, 2, STACK
        LOCFRAME RSTACK, 4, STACK
        PUBLIC ??coding
        FUNCTION ??coding,021203H
        ARGFRAME RSTACK, 0, STACK
        LOCFRAME CSTACK, 10, STACK
        LOCFRAME RSTACK, 4, STACK
        PUBLIC ??diag
        FUNCTION ??diag,021203H
        ARGFRAME RSTACK, 0, STACK
        LOCFRAME CSTACK, 2, STACK
        LOCFRAME RSTACK, 4, STACK
        PUBLIC ??du_init
        FUNCTION ??du_init,0203H
        ARGFRAME RSTACK, 0, STACK
        LOCFRAME RSTACK, 2, STACK
        PUBLIC ??du_main
        FUNCTION ??du_main,021203H
        ARGFRAME RSTACK, 0, STACK
        LOCFRAME CSTACK, 8, STACK
        LOCFRAME RSTACK, 4, STACK
        PUBLIC ??funINT0_vect
        FUNCTION ??funINT0_vect,0233H
        ARGFRAME CSTACK, 0, STACK
        LOCFRAME CSTACK, 2, STACK
        LOCFRAME RSTACK, 2, STACK
        PUBWEAK `??funINT0_vect??INTVEC 2`
        PUBLIC ??funTIMER1_OVF_vect
        FUNCTION ??funTIMER1_OVF_vect,0233H
        ARGFRAME CSTACK, 0, STACK
        LOCFRAME CSTACK, 2, STACK
        LOCFRAME RSTACK, 2, STACK
        PUBWEAK `??funTIMER1_OVF_vect??INTVEC 16`
        PUBLIC ??getadr
        FUNCTION ??getadr,0203H
        ARGFRAME RSTACK, 0, STACK
        LOCFRAME RSTACK, 2, STACK
        PUBLIC ??gro
        FUNCTION ??gro,0203H
        ARGFRAME RSTACK, 0, STACK
        LOCFRAME RSTACK, 4, STACK
        PUBLIC ??iniPORTS
        FUNCTION ??iniPORTS,0203H
        ARGFRAME RSTACK, 0, STACK
        LOCFRAME RSTACK, 2, STACK
        PUBLIC ??iniT1
        FUNCTION ??iniT1,021203H
        ARGFRAME RSTACK, 0, STACK
        LOCFRAME RSTACK, 2, STACK
        PUBLIC ??iniT2
        FUNCTION ??iniT2,021203H
        ARGFRAME RSTACK, 0, STACK
        LOCFRAME RSTACK, 2, STACK
        PUBLIC ??led_all
        FUNCTION ??led_all,0203H
        ARGFRAME RSTACK, 0, STACK
        LOCFRAME RSTACK, 2, STACK
        PUBLIC ??migINI
        FUNCTION ??migINI,021203H
        ARGFRAME RSTACK, 0, STACK
        LOCFRAME RSTACK, 4, STACK
        PUBLIC ??migWORK
        FUNCTION ??migWORK,021203H
        ARGFRAME RSTACK, 0, STACK
        LOCFRAME CSTACK, 1, STACK
        LOCFRAME RSTACK, 4, STACK
        PUBLIC ??normal
        FUNCTION ??normal,021203H
        ARGFRAME RSTACK, 0, STACK
        LOCFRAME CSTACK, 1, STACK
        LOCFRAME RSTACK, 4, STACK
        PUBLIC ??programming
        FUNCTION ??programming,021203H
        ARGFRAME RSTACK, 0, STACK
        LOCFRAME CSTACK, 1, STACK
        LOCFRAME RSTACK, 2, STACK
        PUBLIC ??pult
        FUNCTION ??pult,021203H
        ARGFRAME RSTACK, 0, STACK
        LOCFRAME RSTACK, 2, STACK
        PUBLIC ??resOUT
        FUNCTION ??resOUT,0203H
        ARGFRAME RSTACK, 0, STACK
        LOCFRAME RSTACK, 2, STACK
        PUBLIC ??resled
        FUNCTION ??resled,0203H
        ARGFRAME RSTACK, 0, STACK
        LOCFRAME RSTACK, 2, STACK
        PUBLIC ??rprintfFloat
        FUNCTION ??rprintfFloat,021203H
        ARGFRAME RSTACK, 0, STACK
        LOCFRAME CSTACK, 12, STACK
        LOCFRAME RSTACK, 4, STACK
        PUBLIC ??rprintfStr
        FUNCTION ??rprintfStr,021203H
        ARGFRAME RSTACK, 0, STACK
        LOCFRAME CSTACK, 4, STACK
        LOCFRAME RSTACK, 2, STACK
        PUBLIC ??source
        FUNCTION ??source,021203H
        ARGFRAME RSTACK, 0, STACK
        LOCFRAME RSTACK, 2, STACK
        PUBLIC ??usart_rxc_my
        FUNCTION ??usart_rxc_my,0233H
        ARGFRAME CSTACK, 0, STACK
        LOCFRAME CSTACK, 2, STACK
        LOCFRAME RSTACK, 2, STACK
        PUBWEAK `??usart_rxc_my??INTVEC 22`
        PUBLIC ??writeCOD
        FUNCTION ??writeCOD,021203H
        ARGFRAME RSTACK, 0, STACK
        LOCFRAME CSTACK, 1, STACK
        LOCFRAME RSTACK, 4, STACK
        PUBLIC Calibr
        PUBLIC T1
        PUBLIC T1max
        PUBLIC T1out
        PUBLIC T1x
        PUBLIC T2
        PUBLIC T2max
        PUBLIC T2out
        PUBLIC T2x
        PUBLIC T3
        PUBLIC T3max
        PUBLIC T3out
        PUBLIC T3x
        PUBWEAK _A_ACSR
        PUBWEAK _A_DDRB
        PUBWEAK _A_DDRC
        PUBWEAK _A_DDRD
        PUBWEAK _A_GICR
        PUBWEAK _A_ICR1
        PUBWEAK _A_MCUCR
        PUBWEAK _A_OCR1A
        PUBWEAK _A_OCR1B
        PUBWEAK _A_PIND
        PUBWEAK _A_PORTB
        PUBWEAK _A_PORTC
        PUBWEAK _A_PORTD
        PUBWEAK _A_TCCR1A
        PUBWEAK _A_TCCR1B
        PUBWEAK _A_TCNT0
        PUBWEAK _A_TCNT1
        PUBWEAK _A_TIFR
        PUBWEAK _A_TIMSK
        PUBWEAK _A_UBRRH
        PUBWEAK _A_UBRRL
        PUBWEAK _A_UCSRA
        PUBWEAK _A_UCSRB
        PUBWEAK _A_UDR
        PUBWEAK __?EEARH
        PUBWEAK __?EEARL
        PUBWEAK __?EECR
        PUBWEAK __?EEDR
        PUBLIC aoff
        PUBLIC c1
        PUBLIC c2
        PUBLIC c3
        PUBLIC cod1
        PUBLIC cod2
        PUBLIC cod3
        PUBLIC cod4
        PUBLIC cod_ok
        PUBLIC ct
        PUBLIC dim1
        PUBLIC dim2
        PUBLIC fmode
        PUBLIC ind
        PUBLIC k
        PUBLIC len
        PUBLIC main
        FUNCTION main,021a03H
        ARGFRAME CSTACK, 0, STACK
        LOCFRAME CSTACK, 1, STACK
        LOCFRAME RSTACK, 4, STACK
        PUBLIC minimallen
        PUBLIC mode
        PUBLIC modegro
        PUBLIC mute
        PUBLIC on
        PUBLIC onok
        PUBLIC perepoln
        PUBLIC pr
        PUBLIC pultadr
        PUBLIC rez
        PUBLIC t1
        PUBLIC t2
        PUBLIC tON
        PUBLIC tekfunc
        PUBLIC til
        PUBLIC timerzad
        PUBLIC u
        PUBLIC usartRxBuf
        PUBLIC `write`
        PUBLIC zader
        
          CFI Names cfiNames0
          CFI StackFrame CFA_Y Y DATA
          CFI StackFrame CFA_SP SP DATA
          CFI VirtualResource ?RetPad:1, ?RetHigh:8, ?RetLow:8, ?Ret:17
          CFI Resource R0:8, R1:8, R2:8, R3:8, R4:8, R5:8, R6:8, R7:8, R8:8, R9:8
          CFI Resource R10:8, R11:8, R12:8, R13:8, R14:8, R15:8, R16:8, R17:8
          CFI Resource R18:8, R19:8, R20:8, R21:8, R22:8, R23:8, R24:8, R25:8
          CFI Resource R26:8, R27:8, R28:8, R29:8, R30:8, R31:8
          CFI Resource ?RetHighByteMask:8, SP:16, SPH:8, SPL:8, Y:16
          CFI ResourceParts ?Ret ?RetHigh, ?RetLow, ?RetPad
          CFI ResourceParts SP SPH, SPL
          CFI ResourceParts Y R29, R28
          CFI EndNames cfiNames0
        
          CFI Common cfiCommon0 Using cfiNames0
          CFI CodeAlign 1
          CFI DataAlign 1
          CFI ReturnAddress ?Ret CODE
          CFI CFA_Y Y+0
          CFI CFA_SP SP+2
          CFI ?RetPad 0
          CFI ?RetHigh and(load(1, DATA, sub(CFA_SP, 1)), ?RetHighByteMask)
          CFI ?RetLow Frame(CFA_SP, 0)
          CFI ?Ret Concat
          CFI R0 Undefined
          CFI R1 Undefined
          CFI R2 Undefined
          CFI R3 Undefined
          CFI R4 SameValue
          CFI R5 SameValue
          CFI R6 SameValue
          CFI R7 SameValue
          CFI R8 SameValue
          CFI R9 SameValue
          CFI R10 SameValue
          CFI R11 SameValue
          CFI R12 SameValue
          CFI R13 SameValue
          CFI R14 SameValue
          CFI R15 SameValue
          CFI R16 Undefined
          CFI R17 Undefined
          CFI R18 Undefined
          CFI R19 Undefined
          CFI R20 Undefined
          CFI R21 Undefined
          CFI R22 Undefined
          CFI R23 Undefined
          CFI R24 SameValue
          CFI R25 SameValue
          CFI R26 SameValue
          CFI R27 SameValue
          CFI R28 Undefined
          CFI R29 Undefined
          CFI R30 Undefined
          CFI R31 Undefined
          CFI ?RetHighByteMask SameValue
          CFI SPH Undefined
          CFI SPL Undefined
          CFI EndCommon cfiCommon0
        
        
          CFI Common cfiCommon1 Using cfiNames0
          CFI CodeAlign 1
          CFI DataAlign 1
          CFI ReturnAddress ?Ret CODE
          CFI CFA_Y Y+0
          CFI CFA_SP SP+2
          CFI ?RetPad 0
          CFI ?RetHigh and(load(1, DATA, sub(CFA_SP, 1)), ?RetHighByteMask)
          CFI ?RetLow Frame(CFA_SP, 0)
          CFI ?Ret Concat
          CFI R0 SameValue
          CFI R1 SameValue
          CFI R2 SameValue
          CFI R3 SameValue
          CFI R4 SameValue
          CFI R5 SameValue
          CFI R6 SameValue
          CFI R7 SameValue
          CFI R8 SameValue
          CFI R9 SameValue
          CFI R10 SameValue
          CFI R11 SameValue
          CFI R12 SameValue
          CFI R13 SameValue
          CFI R14 SameValue
          CFI R15 SameValue
          CFI R16 SameValue
          CFI R17 SameValue
          CFI R18 SameValue
          CFI R19 SameValue
          CFI R20 SameValue
          CFI R21 SameValue
          CFI R22 SameValue
          CFI R23 SameValue
          CFI R24 SameValue
          CFI R25 SameValue
          CFI R26 SameValue
          CFI R27 SameValue
          CFI R28 Undefined
          CFI R29 Undefined
          CFI R30 SameValue
          CFI R31 SameValue
          CFI ?RetHighByteMask SameValue
          CFI SPH Undefined
          CFI SPL Undefined
          CFI EndCommon cfiCommon1
        
        
          CFI Common cfiCommon2 Using cfiNames0
          CFI CodeAlign 1
          CFI DataAlign 1
          CFI ReturnAddress ?Ret CODE
          CFI CFA_Y Notused
          CFI CFA_SP SP+2
          CFI ?RetPad 0
          CFI ?RetHigh and(load(1, DATA, sub(CFA_SP, 1)), ?RetHighByteMask)
          CFI ?RetLow Frame(CFA_SP, 0)
          CFI ?Ret Concat
          CFI R0 SameValue
          CFI R1 SameValue
          CFI R2 SameValue
          CFI R3 SameValue
          CFI R4 SameValue
          CFI R5 SameValue
          CFI R6 SameValue
          CFI R7 SameValue
          CFI R8 SameValue
          CFI R9 SameValue
          CFI R10 SameValue
          CFI R11 SameValue
          CFI R12 SameValue
          CFI R13 SameValue
          CFI R14 SameValue
          CFI R15 SameValue
          CFI R16 SameValue
          CFI R17 SameValue
          CFI R18 SameValue
          CFI R19 SameValue
          CFI R20 SameValue
          CFI R21 SameValue
          CFI R22 SameValue
          CFI R23 SameValue
          CFI R24 SameValue
          CFI R25 SameValue
          CFI R26 SameValue
          CFI R27 SameValue
          CFI R28 Undefined
          CFI R29 Undefined
          CFI R30 SameValue
          CFI R31 SameValue
          CFI ?RetHighByteMask SameValue
          CFI SPH Undefined
          CFI SPL Undefined
          CFI Y SameValue
          CFI EndCommon cfiCommon2
        

`??funINT0_vect??INTVEC 2` SYMBOL "??INTVEC 2", ??funINT0_vect

`??funTIMER1_OVF_vect??INTVEC 16` SYMBOL "??INTVEC 16", ??funTIMER1_OVF_vect

`??usart_rxc_my??INTVEC 22` SYMBOL "??INTVEC 22", ??usart_rxc_my

// F:\Dulov\RemoteAMP\main.cpp
//    1 //***************************************************************************
//    2 //  
//    3 //  Author(s)...: dav COBRA 
//    4 //  Target(s)...: ATMega8
//    5 //  Compiler....: 6 40
//    6 //  ТЕСТ1
//    7 //  Description.: Система  управления  для  Усилителя  Мощности   V-ниже
//    8 //  v1.1 - добавлена поддержка включения усилителя тыловых колонок вместо Source5
//    9 //       - изменена установка auto off
//   10 //  v1.2 - теперь во время мигания(только Source) светодиодов  команды пульта обрабатываются
//   11 //       - новая команда пульта - возврат в предыдущий source
//   12 //       - команды пульта можно продублировать на втором пульте, т.е. на каждую функцию 2 кнопки пульта
//   13 //       - вместо импульсов громкости можно формировать постоянный сигнал
//   14 //       - подправлены задержки
//   15 //       - обновлен алгоритм кодирования
//   16 // v1.22 - исправлена ошибка задержки вкл AC
//   17 // v1.23 - исправлен при включении включается SOURCE1 
//   18 // v1.24 - исправлен баг AUTOOFF на 30 минут 
//   19 // v1.25 - исправлен баг AUTOOFF при выключениии питания 
//   20 //
//   21 //  Data........: 04 2016
//   22 //
//   23 //   - ВЫКЛЮЧИТЬ ОПЦИЮ clustering of variables В optimization compilator !!!!
//   24 //***************************************************************************
//   25 #include <stdbool.h>//поддержка bool
//   26 #include <iom8.h>//<ioavr.h>

        ASEGN ABSOLUTE:DATA:NOROOT,028H
// union <unnamed> volatile __io _A_ACSR
_A_ACSR:
        DS8 1

        ASEGN ABSOLUTE:DATA:NOROOT,029H
// union <unnamed> volatile __io _A_UBRRL
_A_UBRRL:
        DS8 1

        ASEGN ABSOLUTE:DATA:NOROOT,02aH
// union <unnamed> volatile __io _A_UCSRB
_A_UCSRB:
        DS8 1

        ASEGN ABSOLUTE:DATA:NOROOT,02bH
// union <unnamed> volatile __io _A_UCSRA
_A_UCSRA:
        DS8 1

        ASEGN ABSOLUTE:DATA:NOROOT,02cH
// union <unnamed> volatile __io _A_UDR
_A_UDR:
        DS8 1

        ASEGN ABSOLUTE:DATA:NOROOT,030H
// union <unnamed> volatile __io _A_PIND
_A_PIND:
        DS8 1

        ASEGN ABSOLUTE:DATA:NOROOT,031H
// union <unnamed> volatile __io _A_DDRD
_A_DDRD:
        DS8 1

        ASEGN ABSOLUTE:DATA:NOROOT,032H
// union <unnamed> volatile __io _A_PORTD
_A_PORTD:
        DS8 1

        ASEGN ABSOLUTE:DATA:NOROOT,034H
// union <unnamed> volatile __io _A_DDRC
_A_DDRC:
        DS8 1

        ASEGN ABSOLUTE:DATA:NOROOT,035H
// union <unnamed> volatile __io _A_PORTC
_A_PORTC:
        DS8 1

        ASEGN ABSOLUTE:DATA:NOROOT,037H
// union <unnamed> volatile __io _A_DDRB
_A_DDRB:
        DS8 1

        ASEGN ABSOLUTE:DATA:NOROOT,038H
// union <unnamed> volatile __io _A_PORTB
_A_PORTB:
        DS8 1

        ASEGN ABSOLUTE:DATA:NOROOT,040H
// union <unnamed> volatile __io _A_UBRRH
_A_UBRRH:
        DS8 1

        ASEGN ABSOLUTE:DATA:NOROOT,046H
// union <unnamed> volatile __io _A_ICR1
_A_ICR1:
        DS8 2

        ASEGN ABSOLUTE:DATA:NOROOT,048H
// union <unnamed> volatile __io _A_OCR1B
_A_OCR1B:
        DS8 2

        ASEGN ABSOLUTE:DATA:NOROOT,04aH
// union <unnamed> volatile __io _A_OCR1A
_A_OCR1A:
        DS8 2

        ASEGN ABSOLUTE:DATA:NOROOT,04cH
// union <unnamed> volatile __io _A_TCNT1
_A_TCNT1:
        DS8 2

        ASEGN ABSOLUTE:DATA:NOROOT,04eH
// union <unnamed> volatile __io _A_TCCR1B
_A_TCCR1B:
        DS8 1

        ASEGN ABSOLUTE:DATA:NOROOT,04fH
// union <unnamed> volatile __io _A_TCCR1A
_A_TCCR1A:
        DS8 1

        ASEGN ABSOLUTE:DATA:NOROOT,052H
// union <unnamed> volatile __io _A_TCNT0
_A_TCNT0:
        DS8 1

        ASEGN ABSOLUTE:DATA:NOROOT,055H
// union <unnamed> volatile __io _A_MCUCR
_A_MCUCR:
        DS8 1

        ASEGN ABSOLUTE:DATA:NOROOT,058H
// union <unnamed> volatile __io _A_TIFR
_A_TIFR:
        DS8 1

        ASEGN ABSOLUTE:DATA:NOROOT,059H
// union <unnamed> volatile __io _A_TIMSK
_A_TIMSK:
        DS8 1

        ASEGN ABSOLUTE:DATA:NOROOT,05bH
// union <unnamed> volatile __io _A_GICR
_A_GICR:
        DS8 1
//   27 //#include <inavr.h>  
//   28 #include <intrinsics.h>
//   29 #include "init.h"
//   30 #include "du.h"  

        RSEG EEPROM_N:XDATA:NOROOT(0)
// unsigned int __eeprom k[120]
k:
        DS8 240

        RSEG EEPROM_N:XDATA:NOROOT(0)
// unsigned char __eeprom fmode
fmode:
        DS8 1

        RSEG EEPROM_N:XDATA:NOROOT(0)
// unsigned char __eeprom modegro
modegro:
        DS8 1

        RSEG NEAR_Z:DATA:NOROOT(0)
        REQUIRE `?<Segment init: NEAR_Z>`
// unsigned int cod1
cod1:
        DS8 2

        RSEG NEAR_Z:DATA:NOROOT(0)
        REQUIRE `?<Segment init: NEAR_Z>`
// unsigned int cod2
cod2:
        DS8 2

        RSEG NEAR_Z:DATA:NOROOT(0)
        REQUIRE `?<Segment init: NEAR_Z>`
// unsigned int cod3
cod3:
        DS8 2

        RSEG NEAR_Z:DATA:NOROOT(0)
        REQUIRE `?<Segment init: NEAR_Z>`
// unsigned int cod4
cod4:
        DS8 2

        RSEG NEAR_Z:DATA:NOROOT(0)
        REQUIRE `?<Segment init: NEAR_Z>`
// unsigned char perepoln
perepoln:
        DS8 1

        RSEG NEAR_Z:DATA:NOROOT(0)
        REQUIRE `?<Segment init: NEAR_Z>`
// unsigned char t1
t1:
        DS8 1

        RSEG NEAR_Z:DATA:NOROOT(0)
        REQUIRE `?<Segment init: NEAR_Z>`
// unsigned char t2
t2:
        DS8 1

        RSEG NEAR_Z:DATA:NOROOT(0)
        REQUIRE `?<Segment init: NEAR_Z>`
// static bool ini
??ini:
        DS8 1

        RSEG NEAR_Z:DATA:NOROOT(0)
        REQUIRE `?<Segment init: NEAR_Z>`
// unsigned int dim1[50]
dim1:
        DS8 100

        RSEG NEAR_Z:DATA:NOROOT(0)
        REQUIRE `?<Segment init: NEAR_Z>`
// unsigned int dim2[50]
dim2:
        DS8 100

        RSEG NEAR_Z:DATA:NOROOT(0)
        REQUIRE `?<Segment init: NEAR_Z>`
// char ct
ct:
        DS8 1

        RSEG NEAR_Z:DATA:NOROOT(0)
        REQUIRE `?<Segment init: NEAR_Z>`
// unsigned int minimallen
minimallen:
        DS8 2

        RSEG NEAR_Z:DATA:NOROOT(0)
        REQUIRE `?<Segment init: NEAR_Z>`
// float len[50]
len:
        DS8 200

        RSEG NEAR_Z:DATA:NOROOT(0)
        REQUIRE `?<Segment init: NEAR_Z>`
// static bool intok
??intok:
        DS8 1

        RSEG NEAR_Z:DATA:NOROOT(0)
        REQUIRE `?<Segment init: NEAR_Z>`
// static bool big
??big:
        DS8 1

        RSEG NEAR_Z:DATA:NOROOT(0)
        REQUIRE `?<Segment init: NEAR_Z>`
// char cod_ok
cod_ok:
        DS8 1

        RSEG NEAR_Z:DATA:NOROOT(0)
        REQUIRE `?<Segment init: NEAR_Z>`
// unsigned char c1
c1:
        DS8 1

        RSEG NEAR_Z:DATA:NOROOT(0)
        REQUIRE `?<Segment init: NEAR_Z>`
// unsigned char c2
c2:
        DS8 1

        RSEG NEAR_Z:DATA:NOROOT(0)
        REQUIRE `?<Segment init: NEAR_Z>`
// unsigned char c3
c3:
        DS8 1

        RSEG NEAR_I:DATA:NOROOT(0)
        REQUIRE `?<Segment init: NEAR_I>`
`?<Constant " error ct big =">`:
        DS8 16
        REQUIRE `?<Initializer for <Constant " error ct big =">`

        RSEG NEAR_I:DATA:NOROOT(0)
        REQUIRE `?<Segment init: NEAR_I>`
`?<Constant "  /   cod1= ">`:
        DS8 13
        REQUIRE `?<Initializer for <Constant "  /   cod1= ">>`

        RSEG NEAR_I:DATA:NOROOT(0)
        REQUIRE `?<Segment init: NEAR_I>`
`?<Constant "/   cod2= ">`:
        DS8 11
        REQUIRE `?<Initializer for <Constant "/   cod2= ">>`

        RSEG NEAR_I:DATA:NOROOT(0)
        REQUIRE `?<Segment init: NEAR_I>`
`?<Constant "/   cod3= ">`:
        DS8 11
        REQUIRE `?<Initializer for <Constant "/   cod3= ">>`

        RSEG NEAR_I:DATA:NOROOT(0)
        REQUIRE `?<Segment init: NEAR_I>`
`?<Constant "  / abslen= ">`:
        DS8 13
        REQUIRE `?<Initializer for <Constant "  / abslen= ">>`

        RSEG NEAR_I:DATA:NOROOT(0)
        REQUIRE `?<Segment init: NEAR_I>`
`?<Constant "  / len= ">`:
        DS8 10
        REQUIRE `?<Initializer for <Constant "  / len= ">>`

        RSEG NEAR_I:DATA:NOROOT(0)
        REQUIRE `?<Segment init: NEAR_I>`
`?<Constant "  ">`:
        DS8 3
        REQUIRE `?<Initializer for <Constant "  ">>`

        RSEG NEAR_I:DATA:NOROOT(0)
        REQUIRE `?<Segment init: NEAR_I>`
`?<Constant "  / cod1= ">`:
        DS8 11
        REQUIRE `?<Initializer for <Constant "  / cod1= ">>`

        RSEG NEAR_I:DATA:NOROOT(0)
        REQUIRE `?<Segment init: NEAR_I>`
`?<Constant " / cod2= ">`:
        DS8 10
        REQUIRE `?<Initializer for <Constant " / cod2= ">>`

        RSEG NEAR_I:DATA:NOROOT(0)
        REQUIRE `?<Segment init: NEAR_I>`
`?<Constant " / cod3= ">`:
        DS8 10
        REQUIRE `?<Initializer for <Constant " / cod3= ">>`

        RSEG NEAR_I:DATA:NOROOT(0)
        REQUIRE `?<Segment init: NEAR_I>`
`?<Constant "/ minlen=">`:
        DS8 10
        REQUIRE `?<Initializer for <Constant "/ minlen=">>`

        RSEG NEAR_I:DATA:NOROOT(0)
        REQUIRE `?<Segment init: NEAR_I>`
`?<Constant "OFF>adr=">`:
        DS8 9
        REQUIRE `?<Initializer for <Constant "OFF>adr=">>`

        RSEG NEAR_I:DATA:NOROOT(0)
        REQUIRE `?<Segment init: NEAR_I>`
`?<Constant "ON>adr=">`:
        DS8 8
        REQUIRE `?<Initializer for <Constant "ON>adr=">>`

        RSEG NEAR_I:DATA:NOROOT(0)
        REQUIRE `?<Segment init: NEAR_I>`
`?<Constant "normal>no find command ">`:
        DS8 24
        REQUIRE `?<Initializer for <Constant "normal>no find co`

        RSEG NEAR_I:DATA:NOROOT(0)
        REQUIRE `?<Segment init: NEAR_I>`
`?<Constant "normal>command find  ...">`:
        DS8 27
        REQUIRE `?<Initializer for <Constant "normal>command fi`

        RSEG NEAR_I:DATA:NOROOT(0)
        REQUIRE `?<Segment init: NEAR_I>`
`?<Constant "write ..">`:
        DS8 9
        REQUIRE `?<Initializer for <Constant "write ..">>`

        RSEG NEAR_I:DATA:NOROOT(0)
        REQUIRE `?<Segment init: NEAR_I>`
`?<Constant "OK !   ">`:
        DS8 8
        REQUIRE `?<Initializer for <Constant "OK !   ">>`

        RSEG NEAR_I:DATA:NOROOT(0)
        REQUIRE `?<Segment init: NEAR_I>`
`?<Constant "-------------- vkluch...">`:
        DS8 53
        REQUIRE `?<Initializer for <Constant "-------------- vk`

        RSEG NEAR_I:DATA:NOROOT(0)
        REQUIRE `?<Segment init: NEAR_I>`
`?<Constant " ==  EEPROM read == ">`:
        DS8 21
        REQUIRE `?<Initializer for <Constant " ==  EEPROM read `

        RSEG NEAR_I:DATA:NOROOT(0)
        REQUIRE `?<Segment init: NEAR_I>`
`?<Constant " > ">`:
        DS8 4
        REQUIRE `?<Initializer for <Constant " > ">>`

        RSEG NEAR_I:DATA:NOROOT(0)
        REQUIRE `?<Segment init: NEAR_I>`
`?<Constant " get: ">`:
        DS8 7
        REQUIRE `?<Initializer for <Constant " get: ">>`

        RSEG NEAR_I:DATA:NOROOT(0)
        REQUIRE `?<Segment init: NEAR_I>`
`?<Constant "  regim  no source5 >">`:
        DS8 22
        REQUIRE `?<Initializer for <Constant "  regim  no sourc`

        RSEG NEAR_I:DATA:NOROOT(0)
        REQUIRE `?<Segment init: NEAR_I>`
`?<Constant "  regim  PROGRAMMING ...">`:
        DS8 33
        REQUIRE `?<Initializer for <Constant "  regim  PROGRAMM`

        RSEG NEAR_I:DATA:NOROOT(0)
        REQUIRE `?<Segment init: NEAR_I>`
`?<Constant "  regim  normal  READY >">`:
        DS8 25
        REQUIRE `?<Initializer for <Constant "  regim  normal  `

        RSEG NEAR_I:DATA:NOROOT(0)
        REQUIRE `?<Segment init: NEAR_I>`
// char ind
ind:
        DS8 1
        REQUIRE `?<Initializer for ind>`

        RSEG CODE:CODE:NOROOT(1)
// __version_3 void du_init()
??du_init:
          CFI Block cfiBlock0 Using cfiCommon0
          CFI Function ??du_init
        LDI     R16, 1
        STS     ??ini, R16
        LDI     R16, 0
        STS     ??intok, R16
        LDI     R16, 1
        OUT     0x2E, R16
        LDI     R16, 0
        STS     ct, R16
        RET
          CFI EndBlock cfiBlock0
        REQUIRE _A_TCCR1B

        RSEG CODE:CODE:NOROOT(1)
// __version_3 __interrupt void funINT0_vect()
??funINT0_vect:
          CFI Block cfiBlock1 Using cfiCommon1
          CFI Function ??funINT0_vect
        ST      -Y, R17
          CFI R17 Frame(CFA_Y, -1)
          CFI CFA_Y Y+1
        ST      -Y, R16
          CFI R16 Frame(CFA_Y, -2)
          CFI CFA_Y Y+2
        IN      R17, 0x3F
        LDI     R16, 1
        STS     ??intok, R16
        IN      R16, 0x2C
        STS     t1, R16
        IN      R16, 0x2D
        STS     t2, R16
        LDS     R16, t1
        TST     R16
        BREQ    ??funINT0_vect_1
        LDI     R16, 0
        OUT     0x2D, R16
        OUT     0x2C, R16
??funINT0_vect_1:
        OUT     0x3F, R17
        LD      R16, Y+
          CFI R16 SameValue
          CFI CFA_Y Y+1
        LD      R17, Y+
          CFI R17 SameValue
          CFI CFA_Y Y+0
        RETI
          CFI EndBlock cfiBlock1
        REQUIRE _A_TCNT1

        RSEG CODE:CODE:NOROOT(1)
// __version_3 char du_main(unsigned char)
??du_main:
          CFI Block cfiBlock2 Using cfiCommon0
          CFI Function ??du_main
        FUNCALL ??du_main, ??du_init
        LOCFRAME CSTACK, 8, STACK
        LOCFRAME RSTACK, 2, STACK
        ARGFRAME RSTACK, 0, STACK
        FUNCALL ??du_main, ??rprintfStr
        LOCFRAME CSTACK, 8, STACK
        LOCFRAME RSTACK, 2, STACK
        ARGFRAME RSTACK, 0, STACK
        FUNCALL ??du_main, ??rprintfFloat
        LOCFRAME CSTACK, 8, STACK
        LOCFRAME RSTACK, 2, STACK
        ARGFRAME RSTACK, 0, STACK
        FUNCALL ??du_main, ??coding
        LOCFRAME CSTACK, 8, STACK
        LOCFRAME RSTACK, 2, STACK
        ARGFRAME RSTACK, 0, STACK
        FUNCALL ??du_main, ??rprintfStr
        LOCFRAME CSTACK, 8, STACK
        LOCFRAME RSTACK, 2, STACK
        ARGFRAME RSTACK, 0, STACK
        FUNCALL ??du_main, ??rprintfFloat
        LOCFRAME CSTACK, 8, STACK
        LOCFRAME RSTACK, 2, STACK
        ARGFRAME RSTACK, 0, STACK
        FUNCALL ??du_main, ??rprintfStr
        LOCFRAME CSTACK, 8, STACK
        LOCFRAME RSTACK, 2, STACK
        ARGFRAME RSTACK, 0, STACK
        FUNCALL ??du_main, ??rprintfFloat
        LOCFRAME CSTACK, 8, STACK
        LOCFRAME RSTACK, 2, STACK
        ARGFRAME RSTACK, 0, STACK
        FUNCALL ??du_main, ??rprintfStr
        LOCFRAME CSTACK, 8, STACK
        LOCFRAME RSTACK, 2, STACK
        ARGFRAME RSTACK, 0, STACK
        FUNCALL ??du_main, ??rprintfFloat
        LOCFRAME CSTACK, 8, STACK
        LOCFRAME RSTACK, 2, STACK
        ARGFRAME RSTACK, 0, STACK
        FUNCALL ??du_main, ??USART_SendChar
        LOCFRAME CSTACK, 8, STACK
        LOCFRAME RSTACK, 2, STACK
        ARGFRAME RSTACK, 0, STACK
        RCALL   ?PROLOGUE8_L09
          CFI R7 Frame(CFA_Y, -1)
          CFI R6 Frame(CFA_Y, -2)
          CFI R5 Frame(CFA_Y, -3)
          CFI R4 Frame(CFA_Y, -4)
          CFI R27 Frame(CFA_Y, -5)
          CFI R26 Frame(CFA_Y, -6)
          CFI R25 Frame(CFA_Y, -7)
          CFI R24 Frame(CFA_Y, -8)
          CFI CFA_Y Y+8
        REQUIRE ?Register_R4_is_cg_reg
        REQUIRE ?Register_R5_is_cg_reg
        REQUIRE ?Register_R6_is_cg_reg
        REQUIRE ?Register_R7_is_cg_reg
        MOV     R25, R16
        LDI     R16, 0
        STS     cod_ok, R16
        LDS     R16, ??ini
        TST     R16
        BRNE    ??du_main_1
        RCALL   ??du_init
??du_main_1:
        LDS     R16, ??intok
        TST     R16
        BREQ    ??du_main_2
        LDS     R16, ??state
        TST     R16
        BREQ    ??du_main_3
        CBI     0x18, 0x05
        LDI     R16, 0
        RJMP    ??du_main_4
??du_main_3:
        SBI     0x18, 0x05
        LDI     R16, 1
??du_main_4:
        STS     ??state, R16
        RCALL   ?Subroutine21
??CrossCallReturnLabel_23:
        LDI     R17, 2
        MUL     R16, R17
        LDS     R16, t1
        LDI     R17, 0
        RCALL   ?Subroutine95
??CrossCallReturnLabel_155:
        RCALL   ?Subroutine98
??CrossCallReturnLabel_350:
        LDS     R16, t2
        RCALL   ?Subroutine96
??CrossCallReturnLabel_158:
        RCALL   ?Subroutine98
??CrossCallReturnLabel_351:
        LDI     R30, LOW(ct)
        LDI     R31, (ct) >> 8
        RCALL   ?Subroutine101
??CrossCallReturnLabel_340:
        CPI     R16, 49
        BRCS    ??du_main_5
        DEC     R16
        ST      Z, R16
??du_main_5:
        STS     ??intok, R17
??du_main_2:
        LDS     R16, perepoln
        TST     R16
        BRNE    $+2+2
        RJMP    ??CrossCallReturnLabel_249
        LDS     R16, ??state2
        TST     R16
        BREQ    ??du_main_6
        CBI     0x18, 0x02
        LDI     R16, 0
        RJMP    ??du_main_7
??du_main_6:
        SBI     0x18, 0x02
        LDI     R16, 1
??du_main_7:
        STS     ??state2, R16
        RCALL   ?Subroutine10
??CrossCallReturnLabel_11:
        STS     c1, R16
        STS     c2, R16
        STS     c3, R16
        LDI     R16, 255
        RCALL   ?Subroutine99
??CrossCallReturnLabel_171:
        RCALL   ?Subroutine97
??CrossCallReturnLabel_161:
        RCALL   ?Subroutine21
??CrossCallReturnLabel_24:
        CPI     R16, 50
        BRCS    ??CrossCallReturnLabel_329
        LDI     R16, LOW(`?<Constant " error ct big =">`)
        LDI     R17, (`?<Constant " error ct big =">`) >> 8
        RCALL   ??rprintfStr
        RCALL   ?Subroutine21
??CrossCallReturnLabel_25:
        RCALL   ?Subroutine19
??CrossCallReturnLabel_329:
        RCALL   ?Subroutine21
??CrossCallReturnLabel_26:
        CPI     R16, 6
        BRCS    ??du_main_8
        LDS     R16, ??big
        TST     R16
        BREQ    ??du_main_9
??du_main_8:
        LDS     R16, ??big
        TST     R16
        BREQ    ??du_main_10
??du_main_9:
        LDI     R24, 1
        RJMP    ??du_main_11
??du_main_12:
        RCALL   ?Subroutine23
??CrossCallReturnLabel_29:
        LDI     R16, 4
        MUL     R24, R16
        RCALL   ??Subroutine143_0
??CrossCallReturnLabel_301:
        ST      Z, R4
        STD     Z+1, R17
        STD     Z+2, R18
        STD     Z+3, R19
        LDI     R20, 1
        LDI     R21, 0
        LDI     R22, 97
        LDI     R23, 68
        MOV     R16, R4
        RCALL   ?F_CMP_GE_L04
        BRCC    ??CrossCallReturnLabel_352
        RCALL   ?Subroutine33
??CrossCallReturnLabel_193:
        RCALL   ?F_CMP_LT_L04
        BRCC    ??CrossCallReturnLabel_352
        RCALL   ?F2SL_L04
        RCALL   ?Subroutine99
??CrossCallReturnLabel_172:
        RCALL   ?Subroutine98
??CrossCallReturnLabel_352:
        INC     R24
??du_main_11:
        RCALL   ?Subroutine21
??CrossCallReturnLabel_27:
        CP      R24, R16
        BRCS    ??du_main_12
        LDI     R24, 1
        RJMP    ??du_main_13
??du_main_14:
        RCALL   ?Subroutine23
??CrossCallReturnLabel_30:
        RCALL   ?Subroutine33
??CrossCallReturnLabel_194:
        RCALL   ?F_DIV_L04
        LDI     R20, 4
        RCALL   ?Subroutine30
??CrossCallReturnLabel_302:
        RCALL   ??Subroutine147_0
??CrossCallReturnLabel_345:
        RCALL   ?Subroutine55
??CrossCallReturnLabel_71:
        RCALL   ?F_CMP_EQ_L04
        BREQ    ??du_main_15
        MOV     R18, R25
        MOV     R16, R24
        LDI     R17, 0
        RCALL   ??coding
??du_main_15:
        INC     R24
??du_main_13:
        RCALL   ?Subroutine21
??CrossCallReturnLabel_28:
        CP      R24, R16
        BRCS    ??du_main_14
??du_main_10:
        LDI     R24, 0
        LDI     R20, 4
??du_main_16:
        RCALL   ?Subroutine102
??CrossCallReturnLabel_175:
        LDI     R16, 0
        RCALL   ?Subroutine95
??CrossCallReturnLabel_156:
        RCALL   ?Subroutine97
??CrossCallReturnLabel_162:
        RCALL   ?Subroutine96
??CrossCallReturnLabel_159:
        RCALL   ?Subroutine97
??CrossCallReturnLabel_163:
        RCALL   ?Subroutine30
??CrossCallReturnLabel_303:
        RCALL   ?Subroutine28
??CrossCallReturnLabel_31:
        INC     R24
        CPI     R24, 50
        BRCS    ??du_main_16
        STS     perepoln, R16
        STS     t1, R16
        STS     t2, R16
        STS     ct, R16
        STS     ??big, R16
        CPI     R25, 1
        BRNE    ??CrossCallReturnLabel_249
        LDS     R16, cod_ok
        TST     R16
        BREQ    ??CrossCallReturnLabel_249
        LDI     R16, LOW(`?<Constant "  /   cod1= ">`)
        LDI     R17, (`?<Constant "  /   cod1= ">`) >> 8
        RCALL   ?Subroutine31
??CrossCallReturnLabel_335:
        LDI     R16, LOW(`?<Constant "/   cod2= ">`)
        LDI     R17, (`?<Constant "/   cod2= ">`) >> 8
        RCALL   ?Subroutine42
??CrossCallReturnLabel_414:
        RCALL   ??Subroutine145_0
??CrossCallReturnLabel_333:
        LDI     R16, LOW(`?<Constant "/   cod3= ">`)
        LDI     R17, (`?<Constant "/   cod3= ">`) >> 8
        RCALL   ?Subroutine49
??CrossCallReturnLabel_408:
        RCALL   ??Subroutine145_0
??CrossCallReturnLabel_332:
        RCALL   ?Subroutine128
??CrossCallReturnLabel_249:
        LDS     R16, cod_ok
        LDI     R30, 8
        RJMP    ?EPILOGUE_B8_L09
          CFI EndBlock cfiBlock2
        REQUIRE _A_PORTB

        RSEG CODE:CODE:NOROOT(1)
?Subroutine33:
          CFI Block cfiCond3 Using cfiCommon0
          CFI Function ??du_main
          CFI Conditional ??CrossCallReturnLabel_193
          CFI R24 Frame(CFA_Y, -8)
          CFI R25 Frame(CFA_Y, -7)
          CFI R26 Frame(CFA_Y, -6)
          CFI R27 Frame(CFA_Y, -5)
          CFI R4 Frame(CFA_Y, -4)
          CFI R5 Frame(CFA_Y, -3)
          CFI R6 Frame(CFA_Y, -2)
          CFI R7 Frame(CFA_Y, -1)
          CFI CFA_SP SP+4
          CFI CFA_Y Y+8
          CFI Block cfiCond4 Using cfiCommon0
          CFI (cfiCond4) Function ??du_main
          CFI (cfiCond4) Conditional ??CrossCallReturnLabel_194
          CFI (cfiCond4) R24 Frame(CFA_Y, -8)
          CFI (cfiCond4) R25 Frame(CFA_Y, -7)
          CFI (cfiCond4) R26 Frame(CFA_Y, -6)
          CFI (cfiCond4) R27 Frame(CFA_Y, -5)
          CFI (cfiCond4) R4 Frame(CFA_Y, -4)
          CFI (cfiCond4) R5 Frame(CFA_Y, -3)
          CFI (cfiCond4) R6 Frame(CFA_Y, -2)
          CFI (cfiCond4) R7 Frame(CFA_Y, -1)
          CFI (cfiCond4) CFA_SP SP+4
          CFI (cfiCond4) CFA_Y Y+8
          CFI Block cfiPicker5 Using cfiCommon2
          CFI (cfiPicker5) NoFunction
          CFI (cfiPicker5) Picker
        RCALL   ?Subroutine99
??CrossCallReturnLabel_174:
        RCALL   ?Subroutine100
          CFI EndBlock cfiCond3
          CFI EndBlock cfiCond4
          CFI EndBlock cfiPicker5
??CrossCallReturnLabel_308:
        REQUIRE ?Subroutine107
        ;               // Fall through to label ?Subroutine107

        RSEG CODE:CODE:NOROOT(1)
?Subroutine107:
          CFI Block cfiCond6 Using cfiCommon0
          CFI Function ??du_main
          CFI Conditional ??CrossCallReturnLabel_193
          CFI R24 Frame(CFA_Y, -8)
          CFI R25 Frame(CFA_Y, -7)
          CFI R26 Frame(CFA_Y, -6)
          CFI R27 Frame(CFA_Y, -5)
          CFI R4 Frame(CFA_Y, -4)
          CFI R5 Frame(CFA_Y, -3)
          CFI R6 Frame(CFA_Y, -2)
          CFI R7 Frame(CFA_Y, -1)
          CFI CFA_SP SP+4
          CFI CFA_Y Y+8
          CFI Block cfiCond7 Using cfiCommon0
          CFI (cfiCond7) Function ??du_main
          CFI (cfiCond7) Conditional ??CrossCallReturnLabel_194
          CFI (cfiCond7) R24 Frame(CFA_Y, -8)
          CFI (cfiCond7) R25 Frame(CFA_Y, -7)
          CFI (cfiCond7) R26 Frame(CFA_Y, -6)
          CFI (cfiCond7) R27 Frame(CFA_Y, -5)
          CFI (cfiCond7) R4 Frame(CFA_Y, -4)
          CFI (cfiCond7) R5 Frame(CFA_Y, -3)
          CFI (cfiCond7) R6 Frame(CFA_Y, -2)
          CFI (cfiCond7) R7 Frame(CFA_Y, -1)
          CFI (cfiCond7) CFA_SP SP+4
          CFI (cfiCond7) CFA_Y Y+8
          CFI Block cfiCond8 Using cfiCommon0
          CFI (cfiCond8) Function ??rprintfFloat
          CFI (cfiCond8) Conditional ??CrossCallReturnLabel_191
          CFI (cfiCond8) R24 Frame(CFA_Y, -12)
          CFI (cfiCond8) R25 Frame(CFA_Y, -11)
          CFI (cfiCond8) R26 Frame(CFA_Y, -10)
          CFI (cfiCond8) R27 Frame(CFA_Y, -9)
          CFI (cfiCond8) R4 Frame(CFA_Y, -8)
          CFI (cfiCond8) R5 Frame(CFA_Y, -7)
          CFI (cfiCond8) R6 Frame(CFA_Y, -6)
          CFI (cfiCond8) R7 Frame(CFA_Y, -5)
          CFI (cfiCond8) R8 Frame(CFA_Y, -4)
          CFI (cfiCond8) R9 Frame(CFA_Y, -3)
          CFI (cfiCond8) R10 Frame(CFA_Y, -2)
          CFI (cfiCond8) R11 Frame(CFA_Y, -1)
          CFI (cfiCond8) CFA_SP SP+4
          CFI (cfiCond8) CFA_Y Y+12
          CFI Block cfiCond9 Using cfiCommon0
          CFI (cfiCond9) Function ??rprintfFloat
          CFI (cfiCond9) Conditional ??CrossCallReturnLabel_192
          CFI (cfiCond9) R24 Frame(CFA_Y, -12)
          CFI (cfiCond9) R25 Frame(CFA_Y, -11)
          CFI (cfiCond9) R26 Frame(CFA_Y, -10)
          CFI (cfiCond9) R27 Frame(CFA_Y, -9)
          CFI (cfiCond9) R4 Frame(CFA_Y, -8)
          CFI (cfiCond9) R5 Frame(CFA_Y, -7)
          CFI (cfiCond9) R6 Frame(CFA_Y, -6)
          CFI (cfiCond9) R7 Frame(CFA_Y, -5)
          CFI (cfiCond9) R8 Frame(CFA_Y, -4)
          CFI (cfiCond9) R9 Frame(CFA_Y, -3)
          CFI (cfiCond9) R10 Frame(CFA_Y, -2)
          CFI (cfiCond9) R11 Frame(CFA_Y, -1)
          CFI (cfiCond9) CFA_SP SP+4
          CFI (cfiCond9) CFA_Y Y+12
          CFI Block cfiCond10 Using cfiCommon0
          CFI (cfiCond10) Function ??rprintfFloat
          CFI (cfiCond10) Conditional ??CrossCallReturnLabel_195, ??CrossCallReturnLabel_69
          CFI (cfiCond10) R24 Frame(CFA_Y, -12)
          CFI (cfiCond10) R25 Frame(CFA_Y, -11)
          CFI (cfiCond10) R26 Frame(CFA_Y, -10)
          CFI (cfiCond10) R27 Frame(CFA_Y, -9)
          CFI (cfiCond10) R4 Frame(CFA_Y, -8)
          CFI (cfiCond10) R5 Frame(CFA_Y, -7)
          CFI (cfiCond10) R6 Frame(CFA_Y, -6)
          CFI (cfiCond10) R7 Frame(CFA_Y, -5)
          CFI (cfiCond10) R8 Frame(CFA_Y, -4)
          CFI (cfiCond10) R9 Frame(CFA_Y, -3)
          CFI (cfiCond10) R10 Frame(CFA_Y, -2)
          CFI (cfiCond10) R11 Frame(CFA_Y, -1)
          CFI (cfiCond10) CFA_SP SP+6
          CFI (cfiCond10) CFA_Y Y+12
          CFI Block cfiCond11 Using cfiCommon0
          CFI (cfiCond11) Function ??rprintfFloat
          CFI (cfiCond11) Conditional ??CrossCallReturnLabel_195, ??CrossCallReturnLabel_70
          CFI (cfiCond11) R24 Frame(CFA_Y, -12)
          CFI (cfiCond11) R25 Frame(CFA_Y, -11)
          CFI (cfiCond11) R26 Frame(CFA_Y, -10)
          CFI (cfiCond11) R27 Frame(CFA_Y, -9)
          CFI (cfiCond11) R4 Frame(CFA_Y, -8)
          CFI (cfiCond11) R5 Frame(CFA_Y, -7)
          CFI (cfiCond11) R6 Frame(CFA_Y, -6)
          CFI (cfiCond11) R7 Frame(CFA_Y, -5)
          CFI (cfiCond11) R8 Frame(CFA_Y, -4)
          CFI (cfiCond11) R9 Frame(CFA_Y, -3)
          CFI (cfiCond11) R10 Frame(CFA_Y, -2)
          CFI (cfiCond11) R11 Frame(CFA_Y, -1)
          CFI (cfiCond11) CFA_SP SP+6
          CFI (cfiCond11) CFA_Y Y+12
          CFI Block cfiPicker12 Using cfiCommon2
          CFI (cfiPicker12) NoFunction
          CFI (cfiPicker12) Picker
        MOVW    R17:R16, R5:R4
        MOVW    R19:R18, R7:R6
        RET
          CFI EndBlock cfiCond6
          CFI EndBlock cfiCond7
          CFI EndBlock cfiCond8
          CFI EndBlock cfiCond9
          CFI EndBlock cfiCond10
          CFI EndBlock cfiCond11
          CFI EndBlock cfiPicker12

        RSEG CODE:CODE:NOROOT(1)
?Subroutine100:
          CFI Block cfiCond13 Using cfiCommon0
          CFI Function ??du_main
          CFI Conditional ??CrossCallReturnLabel_308, ??CrossCallReturnLabel_193
          CFI R24 Frame(CFA_Y, -8)
          CFI R25 Frame(CFA_Y, -7)
          CFI R26 Frame(CFA_Y, -6)
          CFI R27 Frame(CFA_Y, -5)
          CFI R4 Frame(CFA_Y, -4)
          CFI R5 Frame(CFA_Y, -3)
          CFI R6 Frame(CFA_Y, -2)
          CFI R7 Frame(CFA_Y, -1)
          CFI CFA_SP SP+6
          CFI CFA_Y Y+8
          CFI Block cfiCond14 Using cfiCommon0
          CFI (cfiCond14) Function ??du_main
          CFI (cfiCond14) Conditional ??CrossCallReturnLabel_308, ??CrossCallReturnLabel_194
          CFI (cfiCond14) R24 Frame(CFA_Y, -8)
          CFI (cfiCond14) R25 Frame(CFA_Y, -7)
          CFI (cfiCond14) R26 Frame(CFA_Y, -6)
          CFI (cfiCond14) R27 Frame(CFA_Y, -5)
          CFI (cfiCond14) R4 Frame(CFA_Y, -4)
          CFI (cfiCond14) R5 Frame(CFA_Y, -3)
          CFI (cfiCond14) R6 Frame(CFA_Y, -2)
          CFI (cfiCond14) R7 Frame(CFA_Y, -1)
          CFI (cfiCond14) CFA_SP SP+6
          CFI (cfiCond14) CFA_Y Y+8
          CFI Block cfiCond15 Using cfiCommon0
          CFI (cfiCond15) Function ??du_main
          CFI (cfiCond15) Conditional ??CrossCallReturnLabel_309, ??CrossCallReturnLabel_335
          CFI (cfiCond15) R24 Frame(CFA_Y, -8)
          CFI (cfiCond15) R25 Frame(CFA_Y, -7)
          CFI (cfiCond15) R26 Frame(CFA_Y, -6)
          CFI (cfiCond15) R27 Frame(CFA_Y, -5)
          CFI (cfiCond15) R4 Frame(CFA_Y, -4)
          CFI (cfiCond15) R5 Frame(CFA_Y, -3)
          CFI (cfiCond15) R6 Frame(CFA_Y, -2)
          CFI (cfiCond15) R7 Frame(CFA_Y, -1)
          CFI (cfiCond15) CFA_SP SP+6
          CFI (cfiCond15) CFA_Y Y+8
          CFI Block cfiCond16 Using cfiCommon0
          CFI (cfiCond16) Function ??coding
          CFI (cfiCond16) Conditional ??CrossCallReturnLabel_309, ??CrossCallReturnLabel_334
          CFI (cfiCond16) R24 Frame(CFA_Y, -10)
          CFI (cfiCond16) R25 Frame(CFA_Y, -9)
          CFI (cfiCond16) R26 Frame(CFA_Y, -8)
          CFI (cfiCond16) R27 Frame(CFA_Y, -7)
          CFI (cfiCond16) R4 Frame(CFA_Y, -6)
          CFI (cfiCond16) R5 Frame(CFA_Y, -5)
          CFI (cfiCond16) R6 Frame(CFA_Y, -4)
          CFI (cfiCond16) R7 Frame(CFA_Y, -3)
          CFI (cfiCond16) R8 Frame(CFA_Y, -2)
          CFI (cfiCond16) R9 Frame(CFA_Y, -1)
          CFI (cfiCond16) CFA_SP SP+6
          CFI (cfiCond16) CFA_Y Y+10
          CFI Block cfiCond17 Using cfiCommon0
          CFI (cfiCond17) Function ??du_main
          CFI (cfiCond17) Conditional ??CrossCallReturnLabel_309, ??CrossCallReturnLabel_333
          CFI (cfiCond17) R24 Frame(CFA_Y, -8)
          CFI (cfiCond17) R25 Frame(CFA_Y, -7)
          CFI (cfiCond17) R26 Frame(CFA_Y, -6)
          CFI (cfiCond17) R27 Frame(CFA_Y, -5)
          CFI (cfiCond17) R4 Frame(CFA_Y, -4)
          CFI (cfiCond17) R5 Frame(CFA_Y, -3)
          CFI (cfiCond17) R6 Frame(CFA_Y, -2)
          CFI (cfiCond17) R7 Frame(CFA_Y, -1)
          CFI (cfiCond17) CFA_SP SP+6
          CFI (cfiCond17) CFA_Y Y+8
          CFI Block cfiCond18 Using cfiCommon0
          CFI (cfiCond18) Function ??du_main
          CFI (cfiCond18) Conditional ??CrossCallReturnLabel_309, ??CrossCallReturnLabel_332
          CFI (cfiCond18) R24 Frame(CFA_Y, -8)
          CFI (cfiCond18) R25 Frame(CFA_Y, -7)
          CFI (cfiCond18) R26 Frame(CFA_Y, -6)
          CFI (cfiCond18) R27 Frame(CFA_Y, -5)
          CFI (cfiCond18) R4 Frame(CFA_Y, -4)
          CFI (cfiCond18) R5 Frame(CFA_Y, -3)
          CFI (cfiCond18) R6 Frame(CFA_Y, -2)
          CFI (cfiCond18) R7 Frame(CFA_Y, -1)
          CFI (cfiCond18) CFA_SP SP+6
          CFI (cfiCond18) CFA_Y Y+8
          CFI Block cfiCond19 Using cfiCommon0
          CFI (cfiCond19) Function ??coding
          CFI (cfiCond19) Conditional ??CrossCallReturnLabel_309, ??CrossCallReturnLabel_331
          CFI (cfiCond19) R24 Frame(CFA_Y, -10)
          CFI (cfiCond19) R25 Frame(CFA_Y, -9)
          CFI (cfiCond19) R26 Frame(CFA_Y, -8)
          CFI (cfiCond19) R27 Frame(CFA_Y, -7)
          CFI (cfiCond19) R4 Frame(CFA_Y, -6)
          CFI (cfiCond19) R5 Frame(CFA_Y, -5)
          CFI (cfiCond19) R6 Frame(CFA_Y, -4)
          CFI (cfiCond19) R7 Frame(CFA_Y, -3)
          CFI (cfiCond19) R8 Frame(CFA_Y, -2)
          CFI (cfiCond19) R9 Frame(CFA_Y, -1)
          CFI (cfiCond19) CFA_SP SP+6
          CFI (cfiCond19) CFA_Y Y+10
          CFI Block cfiCond20 Using cfiCommon0
          CFI (cfiCond20) Function ??coding
          CFI (cfiCond20) Conditional ??CrossCallReturnLabel_309, ??CrossCallReturnLabel_330
          CFI (cfiCond20) R24 Frame(CFA_Y, -10)
          CFI (cfiCond20) R25 Frame(CFA_Y, -9)
          CFI (cfiCond20) R26 Frame(CFA_Y, -8)
          CFI (cfiCond20) R27 Frame(CFA_Y, -7)
          CFI (cfiCond20) R4 Frame(CFA_Y, -6)
          CFI (cfiCond20) R5 Frame(CFA_Y, -5)
          CFI (cfiCond20) R6 Frame(CFA_Y, -4)
          CFI (cfiCond20) R7 Frame(CFA_Y, -3)
          CFI (cfiCond20) R8 Frame(CFA_Y, -2)
          CFI (cfiCond20) R9 Frame(CFA_Y, -1)
          CFI (cfiCond20) CFA_SP SP+6
          CFI (cfiCond20) CFA_Y Y+10
          CFI Block cfiPicker21 Using cfiCommon2
          CFI (cfiPicker21) NoFunction
          CFI (cfiPicker21) Picker
        RCALL   ?Subroutine125
??CrossCallReturnLabel_322:
        RJMP    ?Subroutine126
          CFI EndBlock cfiCond13
          CFI EndBlock cfiCond14
          CFI EndBlock cfiCond15
          CFI EndBlock cfiCond16
          CFI EndBlock cfiCond17
          CFI EndBlock cfiCond18
          CFI EndBlock cfiCond19
          CFI EndBlock cfiCond20
          CFI EndBlock cfiPicker21

        RSEG CODE:CODE:NOROOT(1)
?Subroutine99:
          CFI Block cfiCond22 Using cfiCommon0
          CFI Function ??du_main
          CFI Conditional ??CrossCallReturnLabel_171
          CFI R24 Frame(CFA_Y, -8)
          CFI R25 Frame(CFA_Y, -7)
          CFI R26 Frame(CFA_Y, -6)
          CFI R27 Frame(CFA_Y, -5)
          CFI R4 Frame(CFA_Y, -4)
          CFI R5 Frame(CFA_Y, -3)
          CFI R6 Frame(CFA_Y, -2)
          CFI R7 Frame(CFA_Y, -1)
          CFI CFA_SP SP+4
          CFI CFA_Y Y+8
          CFI Block cfiCond23 Using cfiCommon0
          CFI (cfiCond23) Function ??du_main
          CFI (cfiCond23) Conditional ??CrossCallReturnLabel_172
          CFI (cfiCond23) R24 Frame(CFA_Y, -8)
          CFI (cfiCond23) R25 Frame(CFA_Y, -7)
          CFI (cfiCond23) R26 Frame(CFA_Y, -6)
          CFI (cfiCond23) R27 Frame(CFA_Y, -5)
          CFI (cfiCond23) R4 Frame(CFA_Y, -4)
          CFI (cfiCond23) R5 Frame(CFA_Y, -3)
          CFI (cfiCond23) R6 Frame(CFA_Y, -2)
          CFI (cfiCond23) R7 Frame(CFA_Y, -1)
          CFI (cfiCond23) CFA_SP SP+4
          CFI (cfiCond23) CFA_Y Y+8
          CFI Block cfiCond24 Using cfiCommon0
          CFI (cfiCond24) Function ??du_main
          CFI (cfiCond24) Conditional ??CrossCallReturnLabel_174, ??CrossCallReturnLabel_193
          CFI (cfiCond24) R24 Frame(CFA_Y, -8)
          CFI (cfiCond24) R25 Frame(CFA_Y, -7)
          CFI (cfiCond24) R26 Frame(CFA_Y, -6)
          CFI (cfiCond24) R27 Frame(CFA_Y, -5)
          CFI (cfiCond24) R4 Frame(CFA_Y, -4)
          CFI (cfiCond24) R5 Frame(CFA_Y, -3)
          CFI (cfiCond24) R6 Frame(CFA_Y, -2)
          CFI (cfiCond24) R7 Frame(CFA_Y, -1)
          CFI (cfiCond24) CFA_SP SP+6
          CFI (cfiCond24) CFA_Y Y+8
          CFI Block cfiCond25 Using cfiCommon0
          CFI (cfiCond25) Function ??du_main
          CFI (cfiCond25) Conditional ??CrossCallReturnLabel_174, ??CrossCallReturnLabel_194
          CFI (cfiCond25) R24 Frame(CFA_Y, -8)
          CFI (cfiCond25) R25 Frame(CFA_Y, -7)
          CFI (cfiCond25) R26 Frame(CFA_Y, -6)
          CFI (cfiCond25) R27 Frame(CFA_Y, -5)
          CFI (cfiCond25) R4 Frame(CFA_Y, -4)
          CFI (cfiCond25) R5 Frame(CFA_Y, -3)
          CFI (cfiCond25) R6 Frame(CFA_Y, -2)
          CFI (cfiCond25) R7 Frame(CFA_Y, -1)
          CFI (cfiCond25) CFA_SP SP+6
          CFI (cfiCond25) CFA_Y Y+8
          CFI Block cfiCond26 Using cfiCommon0
          CFI (cfiCond26) Function ??coding
          CFI (cfiCond26) Conditional ??CrossCallReturnLabel_173
          CFI (cfiCond26) R24 Frame(CFA_Y, -10)
          CFI (cfiCond26) R25 Frame(CFA_Y, -9)
          CFI (cfiCond26) R26 Frame(CFA_Y, -8)
          CFI (cfiCond26) R27 Frame(CFA_Y, -7)
          CFI (cfiCond26) R4 Frame(CFA_Y, -6)
          CFI (cfiCond26) R5 Frame(CFA_Y, -5)
          CFI (cfiCond26) R6 Frame(CFA_Y, -4)
          CFI (cfiCond26) R7 Frame(CFA_Y, -3)
          CFI (cfiCond26) R8 Frame(CFA_Y, -2)
          CFI (cfiCond26) R9 Frame(CFA_Y, -1)
          CFI (cfiCond26) CFA_SP SP+4
          CFI (cfiCond26) CFA_Y Y+10
          CFI Block cfiPicker27 Using cfiCommon2
          CFI (cfiPicker27) NoFunction
          CFI (cfiPicker27) Picker
        LDI     R30, LOW(minimallen)
        LDI     R31, (minimallen) >> 8
        RET
          CFI EndBlock cfiCond22
          CFI EndBlock cfiCond23
          CFI EndBlock cfiCond24
          CFI EndBlock cfiCond25
          CFI EndBlock cfiCond26
          CFI EndBlock cfiPicker27

        RSEG CODE:CODE:NOROOT(1)
?Subroutine30:
          CFI Block cfiCond28 Using cfiCommon0
          CFI Function ??du_main
          CFI Conditional ??CrossCallReturnLabel_302
          CFI R24 Frame(CFA_Y, -8)
          CFI R25 Frame(CFA_Y, -7)
          CFI R26 Frame(CFA_Y, -6)
          CFI R27 Frame(CFA_Y, -5)
          CFI R4 Frame(CFA_Y, -4)
          CFI R5 Frame(CFA_Y, -3)
          CFI R6 Frame(CFA_Y, -2)
          CFI R7 Frame(CFA_Y, -1)
          CFI CFA_SP SP+4
          CFI CFA_Y Y+8
          CFI Block cfiCond29 Using cfiCommon0
          CFI (cfiCond29) Function ??du_main
          CFI (cfiCond29) Conditional ??CrossCallReturnLabel_303
          CFI (cfiCond29) R24 Frame(CFA_Y, -8)
          CFI (cfiCond29) R25 Frame(CFA_Y, -7)
          CFI (cfiCond29) R26 Frame(CFA_Y, -6)
          CFI (cfiCond29) R27 Frame(CFA_Y, -5)
          CFI (cfiCond29) R4 Frame(CFA_Y, -4)
          CFI (cfiCond29) R5 Frame(CFA_Y, -3)
          CFI (cfiCond29) R6 Frame(CFA_Y, -2)
          CFI (cfiCond29) R7 Frame(CFA_Y, -1)
          CFI (cfiCond29) CFA_SP SP+4
          CFI (cfiCond29) CFA_Y Y+8
          CFI Block cfiPicker30 Using cfiCommon2
          CFI (cfiPicker30) NoFunction
          CFI (cfiPicker30) Picker
        MUL     R24, R20
          CFI EndBlock cfiCond28
          CFI EndBlock cfiCond29
          CFI EndBlock cfiPicker30
        REQUIRE ??Subroutine143_0
        ;               // Fall through to label ??Subroutine143_0

        RSEG CODE:CODE:NOROOT(1)
??Subroutine143_0:
          CFI Block cfiCond31 Using cfiCommon0
          CFI Function ??du_main
          CFI Conditional ??CrossCallReturnLabel_301
          CFI R24 Frame(CFA_Y, -8)
          CFI R25 Frame(CFA_Y, -7)
          CFI R26 Frame(CFA_Y, -6)
          CFI R27 Frame(CFA_Y, -5)
          CFI R4 Frame(CFA_Y, -4)
          CFI R5 Frame(CFA_Y, -3)
          CFI R6 Frame(CFA_Y, -2)
          CFI R7 Frame(CFA_Y, -1)
          CFI CFA_SP SP+4
          CFI CFA_Y Y+8
          CFI Block cfiCond32 Using cfiCommon0
          CFI (cfiCond32) Function ??du_main
          CFI (cfiCond32) Conditional ??CrossCallReturnLabel_302
          CFI (cfiCond32) R24 Frame(CFA_Y, -8)
          CFI (cfiCond32) R25 Frame(CFA_Y, -7)
          CFI (cfiCond32) R26 Frame(CFA_Y, -6)
          CFI (cfiCond32) R27 Frame(CFA_Y, -5)
          CFI (cfiCond32) R4 Frame(CFA_Y, -4)
          CFI (cfiCond32) R5 Frame(CFA_Y, -3)
          CFI (cfiCond32) R6 Frame(CFA_Y, -2)
          CFI (cfiCond32) R7 Frame(CFA_Y, -1)
          CFI (cfiCond32) CFA_SP SP+4
          CFI (cfiCond32) CFA_Y Y+8
          CFI Block cfiCond33 Using cfiCommon0
          CFI (cfiCond33) Function ??du_main
          CFI (cfiCond33) Conditional ??CrossCallReturnLabel_303
          CFI (cfiCond33) R24 Frame(CFA_Y, -8)
          CFI (cfiCond33) R25 Frame(CFA_Y, -7)
          CFI (cfiCond33) R26 Frame(CFA_Y, -6)
          CFI (cfiCond33) R27 Frame(CFA_Y, -5)
          CFI (cfiCond33) R4 Frame(CFA_Y, -4)
          CFI (cfiCond33) R5 Frame(CFA_Y, -3)
          CFI (cfiCond33) R6 Frame(CFA_Y, -2)
          CFI (cfiCond33) R7 Frame(CFA_Y, -1)
          CFI (cfiCond33) CFA_SP SP+4
          CFI (cfiCond33) CFA_Y Y+8
          CFI Block cfiPicker34 Using cfiCommon2
          CFI (cfiPicker34) NoFunction
          CFI (cfiPicker34) Picker
        MOVW    R31:R30, R1:R0
        SUBI    R30, LOW((-(len) & 0xFFFF))
        SBCI    R31, (-(len) & 0xFFFF) >> 8
        RET
          CFI EndBlock cfiCond31
          CFI EndBlock cfiCond32
          CFI EndBlock cfiCond33
          CFI EndBlock cfiPicker34

        RSEG CODE:CODE:NOROOT(1)
?Subroutine23:
          CFI Block cfiCond35 Using cfiCommon0
          CFI Function ??du_main
          CFI Conditional ??CrossCallReturnLabel_29
          CFI R24 Frame(CFA_Y, -8)
          CFI R25 Frame(CFA_Y, -7)
          CFI R26 Frame(CFA_Y, -6)
          CFI R27 Frame(CFA_Y, -5)
          CFI R4 Frame(CFA_Y, -4)
          CFI R5 Frame(CFA_Y, -3)
          CFI R6 Frame(CFA_Y, -2)
          CFI R7 Frame(CFA_Y, -1)
          CFI CFA_SP SP+4
          CFI CFA_Y Y+8
          CFI Block cfiCond36 Using cfiCommon0
          CFI (cfiCond36) Function ??du_main
          CFI (cfiCond36) Conditional ??CrossCallReturnLabel_30
          CFI (cfiCond36) R24 Frame(CFA_Y, -8)
          CFI (cfiCond36) R25 Frame(CFA_Y, -7)
          CFI (cfiCond36) R26 Frame(CFA_Y, -6)
          CFI (cfiCond36) R27 Frame(CFA_Y, -5)
          CFI (cfiCond36) R4 Frame(CFA_Y, -4)
          CFI (cfiCond36) R5 Frame(CFA_Y, -3)
          CFI (cfiCond36) R6 Frame(CFA_Y, -2)
          CFI (cfiCond36) R7 Frame(CFA_Y, -1)
          CFI (cfiCond36) CFA_SP SP+4
          CFI (cfiCond36) CFA_Y Y+8
          CFI Block cfiPicker37 Using cfiCommon2
          CFI (cfiPicker37) NoFunction
          CFI (cfiPicker37) Picker
        RCALL   ?Subroutine102
??CrossCallReturnLabel_178:
        RCALL   ?Subroutine95
??CrossCallReturnLabel_157:
        RCALL   ?Subroutine125
??CrossCallReturnLabel_316:
        RCALL   ?Subroutine96
??CrossCallReturnLabel_160:
        LD      R19, Z
        LDI     R18, 0
        ADD     R17, R19
        RCALL   ?Subroutine106
??CrossCallReturnLabel_189:
        MOVW    R5:R4, R17:R16
        MOVW    R7:R6, R19:R18
        RET
          CFI EndBlock cfiCond35
          CFI EndBlock cfiCond36
          CFI EndBlock cfiPicker37

        RSEG CODE:CODE:NOROOT(1)
?Subroutine96:
          CFI Block cfiCond38 Using cfiCommon0
          CFI Function ??du_main
          CFI Conditional ??CrossCallReturnLabel_158
          CFI R24 Frame(CFA_Y, -8)
          CFI R25 Frame(CFA_Y, -7)
          CFI R26 Frame(CFA_Y, -6)
          CFI R27 Frame(CFA_Y, -5)
          CFI R4 Frame(CFA_Y, -4)
          CFI R5 Frame(CFA_Y, -3)
          CFI R6 Frame(CFA_Y, -2)
          CFI R7 Frame(CFA_Y, -1)
          CFI CFA_SP SP+4
          CFI CFA_Y Y+8
          CFI Block cfiCond39 Using cfiCommon0
          CFI (cfiCond39) Function ??du_main
          CFI (cfiCond39) Conditional ??CrossCallReturnLabel_159
          CFI (cfiCond39) R24 Frame(CFA_Y, -8)
          CFI (cfiCond39) R25 Frame(CFA_Y, -7)
          CFI (cfiCond39) R26 Frame(CFA_Y, -6)
          CFI (cfiCond39) R27 Frame(CFA_Y, -5)
          CFI (cfiCond39) R4 Frame(CFA_Y, -4)
          CFI (cfiCond39) R5 Frame(CFA_Y, -3)
          CFI (cfiCond39) R6 Frame(CFA_Y, -2)
          CFI (cfiCond39) R7 Frame(CFA_Y, -1)
          CFI (cfiCond39) CFA_SP SP+4
          CFI (cfiCond39) CFA_Y Y+8
          CFI Block cfiCond40 Using cfiCommon0
          CFI (cfiCond40) Function ??du_main
          CFI (cfiCond40) Conditional ??CrossCallReturnLabel_160, ??CrossCallReturnLabel_29
          CFI (cfiCond40) R24 Frame(CFA_Y, -8)
          CFI (cfiCond40) R25 Frame(CFA_Y, -7)
          CFI (cfiCond40) R26 Frame(CFA_Y, -6)
          CFI (cfiCond40) R27 Frame(CFA_Y, -5)
          CFI (cfiCond40) R4 Frame(CFA_Y, -4)
          CFI (cfiCond40) R5 Frame(CFA_Y, -3)
          CFI (cfiCond40) R6 Frame(CFA_Y, -2)
          CFI (cfiCond40) R7 Frame(CFA_Y, -1)
          CFI (cfiCond40) CFA_SP SP+6
          CFI (cfiCond40) CFA_Y Y+8
          CFI Block cfiCond41 Using cfiCommon0
          CFI (cfiCond41) Function ??du_main
          CFI (cfiCond41) Conditional ??CrossCallReturnLabel_160, ??CrossCallReturnLabel_30
          CFI (cfiCond41) R24 Frame(CFA_Y, -8)
          CFI (cfiCond41) R25 Frame(CFA_Y, -7)
          CFI (cfiCond41) R26 Frame(CFA_Y, -6)
          CFI (cfiCond41) R27 Frame(CFA_Y, -5)
          CFI (cfiCond41) R4 Frame(CFA_Y, -4)
          CFI (cfiCond41) R5 Frame(CFA_Y, -3)
          CFI (cfiCond41) R6 Frame(CFA_Y, -2)
          CFI (cfiCond41) R7 Frame(CFA_Y, -1)
          CFI (cfiCond41) CFA_SP SP+6
          CFI (cfiCond41) CFA_Y Y+8
          CFI Block cfiPicker42 Using cfiCommon2
          CFI (cfiPicker42) NoFunction
          CFI (cfiPicker42) Picker
        MOVW    R31:R30, R1:R0
        SUBI    R30, LOW((-(dim2) & 0xFFFF))
        SBCI    R31, (-(dim2) & 0xFFFF) >> 8
        RET
          CFI EndBlock cfiCond38
          CFI EndBlock cfiCond39
          CFI EndBlock cfiCond40
          CFI EndBlock cfiCond41
          CFI EndBlock cfiPicker42

        RSEG CODE:CODE:NOROOT(1)
?Subroutine95:
          CFI Block cfiCond43 Using cfiCommon0
          CFI Function ??du_main
          CFI Conditional ??CrossCallReturnLabel_155
          CFI R24 Frame(CFA_Y, -8)
          CFI R25 Frame(CFA_Y, -7)
          CFI R26 Frame(CFA_Y, -6)
          CFI R27 Frame(CFA_Y, -5)
          CFI R4 Frame(CFA_Y, -4)
          CFI R5 Frame(CFA_Y, -3)
          CFI R6 Frame(CFA_Y, -2)
          CFI R7 Frame(CFA_Y, -1)
          CFI CFA_SP SP+4
          CFI CFA_Y Y+8
          CFI Block cfiCond44 Using cfiCommon0
          CFI (cfiCond44) Function ??du_main
          CFI (cfiCond44) Conditional ??CrossCallReturnLabel_156
          CFI (cfiCond44) R24 Frame(CFA_Y, -8)
          CFI (cfiCond44) R25 Frame(CFA_Y, -7)
          CFI (cfiCond44) R26 Frame(CFA_Y, -6)
          CFI (cfiCond44) R27 Frame(CFA_Y, -5)
          CFI (cfiCond44) R4 Frame(CFA_Y, -4)
          CFI (cfiCond44) R5 Frame(CFA_Y, -3)
          CFI (cfiCond44) R6 Frame(CFA_Y, -2)
          CFI (cfiCond44) R7 Frame(CFA_Y, -1)
          CFI (cfiCond44) CFA_SP SP+4
          CFI (cfiCond44) CFA_Y Y+8
          CFI Block cfiCond45 Using cfiCommon0
          CFI (cfiCond45) Function ??du_main
          CFI (cfiCond45) Conditional ??CrossCallReturnLabel_157, ??CrossCallReturnLabel_29
          CFI (cfiCond45) R24 Frame(CFA_Y, -8)
          CFI (cfiCond45) R25 Frame(CFA_Y, -7)
          CFI (cfiCond45) R26 Frame(CFA_Y, -6)
          CFI (cfiCond45) R27 Frame(CFA_Y, -5)
          CFI (cfiCond45) R4 Frame(CFA_Y, -4)
          CFI (cfiCond45) R5 Frame(CFA_Y, -3)
          CFI (cfiCond45) R6 Frame(CFA_Y, -2)
          CFI (cfiCond45) R7 Frame(CFA_Y, -1)
          CFI (cfiCond45) CFA_SP SP+6
          CFI (cfiCond45) CFA_Y Y+8
          CFI Block cfiCond46 Using cfiCommon0
          CFI (cfiCond46) Function ??du_main
          CFI (cfiCond46) Conditional ??CrossCallReturnLabel_157, ??CrossCallReturnLabel_30
          CFI (cfiCond46) R24 Frame(CFA_Y, -8)
          CFI (cfiCond46) R25 Frame(CFA_Y, -7)
          CFI (cfiCond46) R26 Frame(CFA_Y, -6)
          CFI (cfiCond46) R27 Frame(CFA_Y, -5)
          CFI (cfiCond46) R4 Frame(CFA_Y, -4)
          CFI (cfiCond46) R5 Frame(CFA_Y, -3)
          CFI (cfiCond46) R6 Frame(CFA_Y, -2)
          CFI (cfiCond46) R7 Frame(CFA_Y, -1)
          CFI (cfiCond46) CFA_SP SP+6
          CFI (cfiCond46) CFA_Y Y+8
          CFI Block cfiPicker47 Using cfiCommon2
          CFI (cfiPicker47) NoFunction
          CFI (cfiPicker47) Picker
        MOVW    R31:R30, R1:R0
        SUBI    R30, LOW((-(dim1) & 0xFFFF))
        SBCI    R31, (-(dim1) & 0xFFFF) >> 8
        RET
          CFI EndBlock cfiCond43
          CFI EndBlock cfiCond44
          CFI EndBlock cfiCond45
          CFI EndBlock cfiCond46
          CFI EndBlock cfiPicker47

        RSEG CODE:CODE:NOROOT(1)
?Subroutine21:
          CFI Block cfiCond48 Using cfiCommon0
          CFI Function ??du_main
          CFI Conditional ??CrossCallReturnLabel_23
          CFI R24 Frame(CFA_Y, -8)
          CFI R25 Frame(CFA_Y, -7)
          CFI R26 Frame(CFA_Y, -6)
          CFI R27 Frame(CFA_Y, -5)
          CFI R4 Frame(CFA_Y, -4)
          CFI R5 Frame(CFA_Y, -3)
          CFI R6 Frame(CFA_Y, -2)
          CFI R7 Frame(CFA_Y, -1)
          CFI CFA_SP SP+4
          CFI CFA_Y Y+8
          CFI Block cfiCond49 Using cfiCommon0
          CFI (cfiCond49) Function ??du_main
          CFI (cfiCond49) Conditional ??CrossCallReturnLabel_24
          CFI (cfiCond49) R24 Frame(CFA_Y, -8)
          CFI (cfiCond49) R25 Frame(CFA_Y, -7)
          CFI (cfiCond49) R26 Frame(CFA_Y, -6)
          CFI (cfiCond49) R27 Frame(CFA_Y, -5)
          CFI (cfiCond49) R4 Frame(CFA_Y, -4)
          CFI (cfiCond49) R5 Frame(CFA_Y, -3)
          CFI (cfiCond49) R6 Frame(CFA_Y, -2)
          CFI (cfiCond49) R7 Frame(CFA_Y, -1)
          CFI (cfiCond49) CFA_SP SP+4
          CFI (cfiCond49) CFA_Y Y+8
          CFI Block cfiCond50 Using cfiCommon0
          CFI (cfiCond50) Function ??du_main
          CFI (cfiCond50) Conditional ??CrossCallReturnLabel_25
          CFI (cfiCond50) R24 Frame(CFA_Y, -8)
          CFI (cfiCond50) R25 Frame(CFA_Y, -7)
          CFI (cfiCond50) R26 Frame(CFA_Y, -6)
          CFI (cfiCond50) R27 Frame(CFA_Y, -5)
          CFI (cfiCond50) R4 Frame(CFA_Y, -4)
          CFI (cfiCond50) R5 Frame(CFA_Y, -3)
          CFI (cfiCond50) R6 Frame(CFA_Y, -2)
          CFI (cfiCond50) R7 Frame(CFA_Y, -1)
          CFI (cfiCond50) CFA_SP SP+4
          CFI (cfiCond50) CFA_Y Y+8
          CFI Block cfiCond51 Using cfiCommon0
          CFI (cfiCond51) Function ??du_main
          CFI (cfiCond51) Conditional ??CrossCallReturnLabel_26
          CFI (cfiCond51) R24 Frame(CFA_Y, -8)
          CFI (cfiCond51) R25 Frame(CFA_Y, -7)
          CFI (cfiCond51) R26 Frame(CFA_Y, -6)
          CFI (cfiCond51) R27 Frame(CFA_Y, -5)
          CFI (cfiCond51) R4 Frame(CFA_Y, -4)
          CFI (cfiCond51) R5 Frame(CFA_Y, -3)
          CFI (cfiCond51) R6 Frame(CFA_Y, -2)
          CFI (cfiCond51) R7 Frame(CFA_Y, -1)
          CFI (cfiCond51) CFA_SP SP+4
          CFI (cfiCond51) CFA_Y Y+8
          CFI Block cfiCond52 Using cfiCommon0
          CFI (cfiCond52) Function ??du_main
          CFI (cfiCond52) Conditional ??CrossCallReturnLabel_27
          CFI (cfiCond52) R24 Frame(CFA_Y, -8)
          CFI (cfiCond52) R25 Frame(CFA_Y, -7)
          CFI (cfiCond52) R26 Frame(CFA_Y, -6)
          CFI (cfiCond52) R27 Frame(CFA_Y, -5)
          CFI (cfiCond52) R4 Frame(CFA_Y, -4)
          CFI (cfiCond52) R5 Frame(CFA_Y, -3)
          CFI (cfiCond52) R6 Frame(CFA_Y, -2)
          CFI (cfiCond52) R7 Frame(CFA_Y, -1)
          CFI (cfiCond52) CFA_SP SP+4
          CFI (cfiCond52) CFA_Y Y+8
          CFI Block cfiCond53 Using cfiCommon0
          CFI (cfiCond53) Function ??du_main
          CFI (cfiCond53) Conditional ??CrossCallReturnLabel_28
          CFI (cfiCond53) R24 Frame(CFA_Y, -8)
          CFI (cfiCond53) R25 Frame(CFA_Y, -7)
          CFI (cfiCond53) R26 Frame(CFA_Y, -6)
          CFI (cfiCond53) R27 Frame(CFA_Y, -5)
          CFI (cfiCond53) R4 Frame(CFA_Y, -4)
          CFI (cfiCond53) R5 Frame(CFA_Y, -3)
          CFI (cfiCond53) R6 Frame(CFA_Y, -2)
          CFI (cfiCond53) R7 Frame(CFA_Y, -1)
          CFI (cfiCond53) CFA_SP SP+4
          CFI (cfiCond53) CFA_Y Y+8
          CFI Block cfiPicker54 Using cfiCommon2
          CFI (cfiPicker54) NoFunction
          CFI (cfiPicker54) Picker
        LDS     R16, ct
        RET
          CFI EndBlock cfiCond48
          CFI EndBlock cfiCond49
          CFI EndBlock cfiCond50
          CFI EndBlock cfiCond51
          CFI EndBlock cfiCond52
          CFI EndBlock cfiCond53
          CFI EndBlock cfiPicker54

        RSEG NEAR_Z:DATA:NOROOT(0)
        REQUIRE `?<Segment init: NEAR_Z>`
// bool du_main(unsigned char)::state
??state:
        DS8 1

        RSEG NEAR_Z:DATA:NOROOT(0)
        REQUIRE `?<Segment init: NEAR_Z>`
// bool du_main(unsigned char)::state2
??state2:
        DS8 1

        RSEG CODE:CODE:NOROOT(1)
// __version_3 void coding(unsigned int, unsigned char)
??coding:
          CFI Block cfiBlock55 Using cfiCommon0
          CFI Function ??coding
        FUNCALL ??coding, ??rprintfFloat
        LOCFRAME CSTACK, 10, STACK
        LOCFRAME RSTACK, 2, STACK
        ARGFRAME RSTACK, 0, STACK
        FUNCALL ??coding, ??rprintfStr
        LOCFRAME CSTACK, 10, STACK
        LOCFRAME RSTACK, 2, STACK
        ARGFRAME RSTACK, 0, STACK
        FUNCALL ??coding, ??rprintfFloat
        LOCFRAME CSTACK, 10, STACK
        LOCFRAME RSTACK, 2, STACK
        ARGFRAME RSTACK, 0, STACK
        FUNCALL ??coding, ??rprintfStr
        LOCFRAME CSTACK, 10, STACK
        LOCFRAME RSTACK, 2, STACK
        ARGFRAME RSTACK, 0, STACK
        FUNCALL ??coding, ??rprintfFloat
        LOCFRAME CSTACK, 10, STACK
        LOCFRAME RSTACK, 2, STACK
        ARGFRAME RSTACK, 0, STACK
        FUNCALL ??coding, ??rprintfStr
        LOCFRAME CSTACK, 10, STACK
        LOCFRAME RSTACK, 2, STACK
        ARGFRAME RSTACK, 0, STACK
        FUNCALL ??coding, ??rprintfStr
        LOCFRAME CSTACK, 10, STACK
        LOCFRAME RSTACK, 2, STACK
        ARGFRAME RSTACK, 0, STACK
        FUNCALL ??coding, ??rprintfFloat
        LOCFRAME CSTACK, 10, STACK
        LOCFRAME RSTACK, 2, STACK
        ARGFRAME RSTACK, 0, STACK
        FUNCALL ??coding, ??rprintfStr
        LOCFRAME CSTACK, 10, STACK
        LOCFRAME RSTACK, 2, STACK
        ARGFRAME RSTACK, 0, STACK
        FUNCALL ??coding, ??rprintfFloat
        LOCFRAME CSTACK, 10, STACK
        LOCFRAME RSTACK, 2, STACK
        ARGFRAME RSTACK, 0, STACK
        FUNCALL ??coding, ??rprintfStr
        LOCFRAME CSTACK, 10, STACK
        LOCFRAME RSTACK, 2, STACK
        ARGFRAME RSTACK, 0, STACK
        FUNCALL ??coding, ??rprintfFloat
        LOCFRAME CSTACK, 10, STACK
        LOCFRAME RSTACK, 2, STACK
        ARGFRAME RSTACK, 0, STACK
        FUNCALL ??coding, ??rprintfStr
        LOCFRAME CSTACK, 10, STACK
        LOCFRAME RSTACK, 2, STACK
        ARGFRAME RSTACK, 0, STACK
        FUNCALL ??coding, ??rprintfFloat
        LOCFRAME CSTACK, 10, STACK
        LOCFRAME RSTACK, 2, STACK
        ARGFRAME RSTACK, 0, STACK
        FUNCALL ??coding, ??USART_SendChar
        LOCFRAME CSTACK, 10, STACK
        LOCFRAME RSTACK, 2, STACK
        ARGFRAME RSTACK, 0, STACK
        RCALL   ?PROLOGUE10_L09
          CFI R9 Frame(CFA_Y, -1)
          CFI R8 Frame(CFA_Y, -2)
          CFI R7 Frame(CFA_Y, -3)
          CFI R6 Frame(CFA_Y, -4)
          CFI R5 Frame(CFA_Y, -5)
          CFI R4 Frame(CFA_Y, -6)
          CFI R27 Frame(CFA_Y, -7)
          CFI R26 Frame(CFA_Y, -8)
          CFI R25 Frame(CFA_Y, -9)
          CFI R24 Frame(CFA_Y, -10)
          CFI CFA_Y Y+10
        REQUIRE ?Register_R4_is_cg_reg
        REQUIRE ?Register_R5_is_cg_reg
        REQUIRE ?Register_R6_is_cg_reg
        REQUIRE ?Register_R8_is_cg_reg
        REQUIRE ?Register_R9_is_cg_reg
        MOVW    R25:R24, R17:R16
        MOV     R6, R18
        RCALL   ?Subroutine108
??CrossCallReturnLabel_196:
        LDI     R26, LOW(len)
        LDI     R27, (len) >> 8
        ADD     R26, R16
        ADC     R27, R17
        LD      R0, X+
        LD      R1, X+
        LD      R2, X+
        LD      R3, X
        SBIW    R27:R26, 3
        CPI     R24, 2
        LDI     R16, 0
        CPC     R25, R16
        BRCC    $+2+2
        RJMP    ??CrossCallReturnLabel_200
        MOVW    R5:R4, R25:R24
        LSL     R4
        ROL     R5
        LDS     R16, ind
        CPI     R16, 3
        BREQ    $+2+2
        RJMP    ??coding_1
        LDS     R20, c3
        RCALL   ?Subroutine1
??CrossCallReturnLabel_2:
        BRCC    ??coding_2
        RCALL   ??Subroutine155_0
??CrossCallReturnLabel_410:
        RCALL   ?Subroutine27
??CrossCallReturnLabel_367:
        RCALL   ?Subroutine57
??CrossCallReturnLabel_75:
        BRCC    ??coding_3
        RCALL   ?Subroutine60
??CrossCallReturnLabel_81:
        BRCS    ??coding_4
??coding_3:
        RCALL   ?Subroutine61
??CrossCallReturnLabel_84:
        BRCC    ??coding_5
        RCALL   ?Subroutine62
??CrossCallReturnLabel_87:
        BRCC    ??coding_5
        RCALL   ??Subroutine155_0
??CrossCallReturnLabel_411:
        RCALL   ?Subroutine32
??CrossCallReturnLabel_34:
        RCALL   ?Subroutine98
??CrossCallReturnLabel_353:
        RCALL   ?Subroutine41
??CrossCallReturnLabel_306:
        ST      Z, R16
        CPI     R16, 15
        BRCC    ??coding_6
??coding_4:
        RCALL   ?Subroutine48
??CrossCallReturnLabel_204:
        LDS     R20, c3
        RCALL   ?Subroutine2
??CrossCallReturnLabel_5:
        RJMP    ??CrossCallReturnLabel_354
??coding_2:
        RCALL   ?Subroutine58
??CrossCallReturnLabel_78:
        BRCC    ??CrossCallReturnLabel_367
        RCALL   ??Subroutine155_0
??CrossCallReturnLabel_412:
        RCALL   ?Subroutine103
??CrossCallReturnLabel_179:
        RCALL   ?Subroutine98
??CrossCallReturnLabel_354:
        RCALL   ?Subroutine41
??CrossCallReturnLabel_307:
        RJMP    ??coding_7
??coding_5:
        RCALL   ?Subroutine52
??CrossCallReturnLabel_63:
        BRCC    ??coding_6
        RCALL   ?Subroutine53
??CrossCallReturnLabel_66:
        BRCC    ??coding_6
        LDI     R30, LOW(c3)
        LDI     R31, (c3) >> 8
        RCALL   ?Subroutine34
??CrossCallReturnLabel_37:
        BRCC    ??coding_6
        INC     R16
??coding_7:
        ST      Z, R16
??coding_6:
        LDS     R16, c3
        CPI     R16, 16
        BRCC    $+2+2
        RJMP    ??coding_8
        LDI     R16, 1
        STS     ind, R16
        RCALL   ?Subroutine43
??CrossCallReturnLabel_43:
        RCALL   ?Subroutine38
??CrossCallReturnLabel_197:
        RCALL   ?Subroutine98
??CrossCallReturnLabel_355:
        RCALL   ??Subroutine156_0
??CrossCallReturnLabel_416:
        RCALL   ?Subroutine38
??CrossCallReturnLabel_198:
        RCALL   ?Subroutine98
??CrossCallReturnLabel_356:
        STS     c1, R21
        STS     c2, R21
        STS     c3, R21
        RJMP    ??coding_9
??coding_1:
        CPI     R16, 2
        BRNE    ??coding_10
        LDS     R20, c2
        RCALL   ?Subroutine1
??CrossCallReturnLabel_3:
        BRCC    ??coding_11
        RCALL   ??Subroutine156_0
??CrossCallReturnLabel_417:
        RCALL   ?Subroutine27
??CrossCallReturnLabel_368:
        RCALL   ?Subroutine57
??CrossCallReturnLabel_76:
        BRCC    ??coding_12
        RCALL   ?Subroutine60
??CrossCallReturnLabel_82:
        BRCS    ??coding_13
??coding_12:
        RCALL   ?Subroutine61
??CrossCallReturnLabel_85:
        BRCC    ??coding_14
        RCALL   ?Subroutine62
??CrossCallReturnLabel_88:
        BRCC    ??coding_14
        RCALL   ??Subroutine156_0
??CrossCallReturnLabel_418:
        RCALL   ?Subroutine32
??CrossCallReturnLabel_35:
        RCALL   ?Subroutine25
??CrossCallReturnLabel_336:
        CPI     R16, 15
        BRCC    ??coding_15
??coding_13:
        RCALL   ??Subroutine156_0
??CrossCallReturnLabel_419:
        RCALL   ?Subroutine110
??CrossCallReturnLabel_201:
        LDS     R20, c2
        RCALL   ?Subroutine2
??CrossCallReturnLabel_6:
        LDI     R30, LOW(c2)
        LDI     R31, (c2) >> 8
        RCALL   ??Subroutine144_0
??CrossCallReturnLabel_304:
        RJMP    ??coding_16
??coding_11:
        RCALL   ?Subroutine58
??CrossCallReturnLabel_79:
        BRCC    ??CrossCallReturnLabel_368
        RCALL   ??Subroutine156_0
??CrossCallReturnLabel_420:
        RCALL   ?Subroutine103
??CrossCallReturnLabel_180:
        RCALL   ?Subroutine25
??CrossCallReturnLabel_337:
        RCALL   ??Subroutine156_0
??CrossCallReturnLabel_421:
        LD      R16, Z
        RCALL   ??Subroutine148_0
??CrossCallReturnLabel_365:
        RJMP    ??coding_15
??coding_14:
        RCALL   ?Subroutine52
??CrossCallReturnLabel_64:
        BRCC    ??coding_15
        RCALL   ?Subroutine53
??CrossCallReturnLabel_67:
        BRCC    ??coding_15
        LDI     R30, LOW(c2)
        LDI     R31, (c2) >> 8
        RCALL   ?Subroutine34
??CrossCallReturnLabel_38:
        BRCC    ??coding_15
        INC     R16
??coding_16:
        ST      Z, R16
??coding_15:
        LDS     R16, c2
        CPI     R16, 16
        BRCS    ??coding_8
        LDI     R16, 3
        RJMP    ??coding_17
??coding_10:
        CPI     R16, 1
        BRNE    ??coding_8
??coding_9:
        LDS     R20, c1
        RCALL   ?Subroutine1
??CrossCallReturnLabel_4:
        BRCC    ??coding_18
        RCALL   ?Subroutine43
??CrossCallReturnLabel_44:
        RCALL   ?Subroutine27
??CrossCallReturnLabel_369:
        RCALL   ?Subroutine57
??CrossCallReturnLabel_77:
        BRCC    ??coding_19
        RCALL   ?Subroutine60
??CrossCallReturnLabel_83:
        BRCS    ??coding_20
??coding_19:
        RCALL   ?Subroutine61
??CrossCallReturnLabel_86:
        BRCC    ??coding_21
        RCALL   ?Subroutine62
??CrossCallReturnLabel_89:
        BRCC    ??coding_21
        RCALL   ?Subroutine43
??CrossCallReturnLabel_45:
        RCALL   ?Subroutine32
??CrossCallReturnLabel_36:
        RCALL   ?Subroutine26
??CrossCallReturnLabel_338:
        CPI     R16, 15
        BRCC    ??coding_22
??coding_20:
        RCALL   ?Subroutine43
??CrossCallReturnLabel_46:
        RCALL   ?Subroutine110
??CrossCallReturnLabel_202:
        LDS     R20, c1
        RCALL   ?Subroutine2
??CrossCallReturnLabel_7:
        LDI     R30, LOW(c1)
        LDI     R31, (c1) >> 8
        RCALL   ??Subroutine144_0
??CrossCallReturnLabel_305:
        RJMP    ??coding_23
??coding_18:
        RCALL   ?Subroutine58
??CrossCallReturnLabel_80:
        BRCC    ??CrossCallReturnLabel_369
        RCALL   ?Subroutine43
??CrossCallReturnLabel_47:
        RCALL   ?Subroutine103
??CrossCallReturnLabel_181:
        RCALL   ?Subroutine26
??CrossCallReturnLabel_339:
        RCALL   ?Subroutine43
??CrossCallReturnLabel_48:
        LD      R16, Z
        RCALL   ??Subroutine148_0
??CrossCallReturnLabel_366:
        RJMP    ??coding_22
??coding_21:
        RCALL   ?Subroutine52
??CrossCallReturnLabel_65:
        BRCC    ??coding_22
        RCALL   ?Subroutine53
??CrossCallReturnLabel_68:
        BRCC    ??coding_22
        LDI     R30, LOW(c1)
        LDI     R31, (c1) >> 8
        RCALL   ?Subroutine34
??CrossCallReturnLabel_39:
        BRCC    ??coding_22
        INC     R16
??coding_23:
        ST      Z, R16
??coding_22:
        LDS     R16, c1
        CPI     R16, 16
        BRCS    ??coding_8
        LDI     R16, 2
??coding_17:
        STS     ind, R16
??coding_8:
        LDI     R16, 1
        STS     cod_ok, R16
        TST     R6
        BRNE    ??CrossCallReturnLabel_200
        MOVW    R17:R16, R25:R24
        LDI     R18, 0
        RCALL   ?Subroutine50
??CrossCallReturnLabel_59:
        LDI     R16, 2
        RCALL   ??rprintfFloat
        LDI     R16, LOW(`?<Constant "  / abslen= ">`)
        LDI     R17, (`?<Constant "  / abslen= ">`) >> 8
        RCALL   ??rprintfStr
        LSL     R24
        ROL     R25
        MOVW    R31:R30, R25:R24
        SUBI    R30, LOW((-(dim1) & 0xFFFF))
        SBCI    R31, (-(dim1) & 0xFFFF) >> 8
        RCALL   ?Subroutine125
??CrossCallReturnLabel_310:
        MOVW    R31:R30, R25:R24
        SUBI    R30, LOW((-(dim2) & 0xFFFF))
        SBCI    R31, (-(dim2) & 0xFFFF) >> 8
        LD      R19, Z
        LDI     R18, 0
        ADD     R17, R19
        RCALL   ?Subroutine50
??CrossCallReturnLabel_60:
        LDI     R16, 9
        RCALL   ??rprintfFloat
        LDI     R16, LOW(`?<Constant "  / len= ">`)
        LDI     R17, (`?<Constant "  / len= ">`) >> 8
        RCALL   ??rprintfStr
        LD      R20, X+
        LD      R21, X+
        LD      R22, X+
        LD      R23, X
        LDI     R16, 4
        RCALL   ??rprintfFloat
        LDI     R16, LOW(`?<Constant "  ">`)
        LDI     R17, (`?<Constant "  ">`) >> 8
        RCALL   ??rprintfStr
        LDI     R16, LOW(`?<Constant "  / cod1= ">`)
        LDI     R17, (`?<Constant "  / cod1= ">`) >> 8
        RCALL   ?Subroutine31
??CrossCallReturnLabel_334:
        LDI     R16, LOW(`?<Constant " / cod2= ">`)
        LDI     R17, (`?<Constant " / cod2= ">`) >> 8
        RCALL   ?Subroutine42
??CrossCallReturnLabel_415:
        RCALL   ??Subroutine145_0
??CrossCallReturnLabel_331:
        LDI     R16, LOW(`?<Constant " / cod3= ">`)
        LDI     R17, (`?<Constant " / cod3= ">`) >> 8
        RCALL   ?Subroutine49
??CrossCallReturnLabel_409:
        RCALL   ??Subroutine145_0
??CrossCallReturnLabel_330:
        LDI     R16, LOW(`?<Constant "/ minlen=">`)
        LDI     R17, (`?<Constant "/ minlen=">`) >> 8
        RCALL   ??rprintfStr
        RCALL   ?Subroutine99
??CrossCallReturnLabel_173:
        RCALL   ?Subroutine125
??CrossCallReturnLabel_311:
        RCALL   ?Subroutine44
??CrossCallReturnLabel_200:
        LDI     R30, 10
        RJMP    ?EPILOGUE_B10_L09
          CFI EndBlock cfiBlock55

        RSEG CODE:CODE:NOROOT(1)
?Subroutine62:
          CFI Block cfiCond56 Using cfiCommon0
          CFI Function ??coding
          CFI Conditional ??CrossCallReturnLabel_87
          CFI R24 Frame(CFA_Y, -10)
          CFI R25 Frame(CFA_Y, -9)
          CFI R26 Frame(CFA_Y, -8)
          CFI R27 Frame(CFA_Y, -7)
          CFI R4 Frame(CFA_Y, -6)
          CFI R5 Frame(CFA_Y, -5)
          CFI R6 Frame(CFA_Y, -4)
          CFI R7 Frame(CFA_Y, -3)
          CFI R8 Frame(CFA_Y, -2)
          CFI R9 Frame(CFA_Y, -1)
          CFI CFA_SP SP+4
          CFI CFA_Y Y+10
          CFI Block cfiCond57 Using cfiCommon0
          CFI (cfiCond57) Function ??coding
          CFI (cfiCond57) Conditional ??CrossCallReturnLabel_88
          CFI (cfiCond57) R24 Frame(CFA_Y, -10)
          CFI (cfiCond57) R25 Frame(CFA_Y, -9)
          CFI (cfiCond57) R26 Frame(CFA_Y, -8)
          CFI (cfiCond57) R27 Frame(CFA_Y, -7)
          CFI (cfiCond57) R4 Frame(CFA_Y, -6)
          CFI (cfiCond57) R5 Frame(CFA_Y, -5)
          CFI (cfiCond57) R6 Frame(CFA_Y, -4)
          CFI (cfiCond57) R7 Frame(CFA_Y, -3)
          CFI (cfiCond57) R8 Frame(CFA_Y, -2)
          CFI (cfiCond57) R9 Frame(CFA_Y, -1)
          CFI (cfiCond57) CFA_SP SP+4
          CFI (cfiCond57) CFA_Y Y+10
          CFI Block cfiCond58 Using cfiCommon0
          CFI (cfiCond58) Function ??coding
          CFI (cfiCond58) Conditional ??CrossCallReturnLabel_89
          CFI (cfiCond58) R24 Frame(CFA_Y, -10)
          CFI (cfiCond58) R25 Frame(CFA_Y, -9)
          CFI (cfiCond58) R26 Frame(CFA_Y, -8)
          CFI (cfiCond58) R27 Frame(CFA_Y, -7)
          CFI (cfiCond58) R4 Frame(CFA_Y, -6)
          CFI (cfiCond58) R5 Frame(CFA_Y, -5)
          CFI (cfiCond58) R6 Frame(CFA_Y, -4)
          CFI (cfiCond58) R7 Frame(CFA_Y, -3)
          CFI (cfiCond58) R8 Frame(CFA_Y, -2)
          CFI (cfiCond58) R9 Frame(CFA_Y, -1)
          CFI (cfiCond58) CFA_SP SP+4
          CFI (cfiCond58) CFA_Y Y+10
          CFI Block cfiPicker59 Using cfiCommon2
          CFI (cfiPicker59) NoFunction
          CFI (cfiPicker59) Picker
        LDI     R22, 160
        RJMP    ?F_CMP_LT_L04
          CFI EndBlock cfiCond56
          CFI EndBlock cfiCond57
          CFI EndBlock cfiCond58
          CFI EndBlock cfiPicker59

        RSEG CODE:CODE:NOROOT(1)
?Subroutine61:
          CFI Block cfiCond60 Using cfiCommon0
          CFI Function ??coding
          CFI Conditional ??CrossCallReturnLabel_84
          CFI R24 Frame(CFA_Y, -10)
          CFI R25 Frame(CFA_Y, -9)
          CFI R26 Frame(CFA_Y, -8)
          CFI R27 Frame(CFA_Y, -7)
          CFI R4 Frame(CFA_Y, -6)
          CFI R5 Frame(CFA_Y, -5)
          CFI R6 Frame(CFA_Y, -4)
          CFI R7 Frame(CFA_Y, -3)
          CFI R8 Frame(CFA_Y, -2)
          CFI R9 Frame(CFA_Y, -1)
          CFI CFA_SP SP+4
          CFI CFA_Y Y+10
          CFI Block cfiCond61 Using cfiCommon0
          CFI (cfiCond61) Function ??coding
          CFI (cfiCond61) Conditional ??CrossCallReturnLabel_85
          CFI (cfiCond61) R24 Frame(CFA_Y, -10)
          CFI (cfiCond61) R25 Frame(CFA_Y, -9)
          CFI (cfiCond61) R26 Frame(CFA_Y, -8)
          CFI (cfiCond61) R27 Frame(CFA_Y, -7)
          CFI (cfiCond61) R4 Frame(CFA_Y, -6)
          CFI (cfiCond61) R5 Frame(CFA_Y, -5)
          CFI (cfiCond61) R6 Frame(CFA_Y, -4)
          CFI (cfiCond61) R7 Frame(CFA_Y, -3)
          CFI (cfiCond61) R8 Frame(CFA_Y, -2)
          CFI (cfiCond61) R9 Frame(CFA_Y, -1)
          CFI (cfiCond61) CFA_SP SP+4
          CFI (cfiCond61) CFA_Y Y+10
          CFI Block cfiCond62 Using cfiCommon0
          CFI (cfiCond62) Function ??coding
          CFI (cfiCond62) Conditional ??CrossCallReturnLabel_86
          CFI (cfiCond62) R24 Frame(CFA_Y, -10)
          CFI (cfiCond62) R25 Frame(CFA_Y, -9)
          CFI (cfiCond62) R26 Frame(CFA_Y, -8)
          CFI (cfiCond62) R27 Frame(CFA_Y, -7)
          CFI (cfiCond62) R4 Frame(CFA_Y, -6)
          CFI (cfiCond62) R5 Frame(CFA_Y, -5)
          CFI (cfiCond62) R6 Frame(CFA_Y, -4)
          CFI (cfiCond62) R7 Frame(CFA_Y, -3)
          CFI (cfiCond62) R8 Frame(CFA_Y, -2)
          CFI (cfiCond62) R9 Frame(CFA_Y, -1)
          CFI (cfiCond62) CFA_SP SP+4
          CFI (cfiCond62) CFA_Y Y+10
          CFI Block cfiPicker63 Using cfiCommon2
          CFI (cfiPicker63) NoFunction
          CFI (cfiPicker63) Picker
        LDI     R22, 64
        RJMP    ?F_CMP_GE_L04
          CFI EndBlock cfiCond60
          CFI EndBlock cfiCond61
          CFI EndBlock cfiCond62
          CFI EndBlock cfiPicker63

        RSEG CODE:CODE:NOROOT(1)
?Subroutine60:
          CFI Block cfiCond64 Using cfiCommon0
          CFI Function ??coding
          CFI Conditional ??CrossCallReturnLabel_81
          CFI R24 Frame(CFA_Y, -10)
          CFI R25 Frame(CFA_Y, -9)
          CFI R26 Frame(CFA_Y, -8)
          CFI R27 Frame(CFA_Y, -7)
          CFI R4 Frame(CFA_Y, -6)
          CFI R5 Frame(CFA_Y, -5)
          CFI R6 Frame(CFA_Y, -4)
          CFI R7 Frame(CFA_Y, -3)
          CFI R8 Frame(CFA_Y, -2)
          CFI R9 Frame(CFA_Y, -1)
          CFI CFA_SP SP+4
          CFI CFA_Y Y+10
          CFI Block cfiCond65 Using cfiCommon0
          CFI (cfiCond65) Function ??coding
          CFI (cfiCond65) Conditional ??CrossCallReturnLabel_82
          CFI (cfiCond65) R24 Frame(CFA_Y, -10)
          CFI (cfiCond65) R25 Frame(CFA_Y, -9)
          CFI (cfiCond65) R26 Frame(CFA_Y, -8)
          CFI (cfiCond65) R27 Frame(CFA_Y, -7)
          CFI (cfiCond65) R4 Frame(CFA_Y, -6)
          CFI (cfiCond65) R5 Frame(CFA_Y, -5)
          CFI (cfiCond65) R6 Frame(CFA_Y, -4)
          CFI (cfiCond65) R7 Frame(CFA_Y, -3)
          CFI (cfiCond65) R8 Frame(CFA_Y, -2)
          CFI (cfiCond65) R9 Frame(CFA_Y, -1)
          CFI (cfiCond65) CFA_SP SP+4
          CFI (cfiCond65) CFA_Y Y+10
          CFI Block cfiCond66 Using cfiCommon0
          CFI (cfiCond66) Function ??coding
          CFI (cfiCond66) Conditional ??CrossCallReturnLabel_83
          CFI (cfiCond66) R24 Frame(CFA_Y, -10)
          CFI (cfiCond66) R25 Frame(CFA_Y, -9)
          CFI (cfiCond66) R26 Frame(CFA_Y, -8)
          CFI (cfiCond66) R27 Frame(CFA_Y, -7)
          CFI (cfiCond66) R4 Frame(CFA_Y, -6)
          CFI (cfiCond66) R5 Frame(CFA_Y, -5)
          CFI (cfiCond66) R6 Frame(CFA_Y, -4)
          CFI (cfiCond66) R7 Frame(CFA_Y, -3)
          CFI (cfiCond66) R8 Frame(CFA_Y, -2)
          CFI (cfiCond66) R9 Frame(CFA_Y, -1)
          CFI (cfiCond66) CFA_SP SP+4
          CFI (cfiCond66) CFA_Y Y+10
          CFI Block cfiPicker67 Using cfiCommon2
          CFI (cfiPicker67) NoFunction
          CFI (cfiPicker67) Picker
        LDI     R22, 64
        RJMP    ?F_CMP_LT_L04
          CFI EndBlock cfiCond64
          CFI EndBlock cfiCond65
          CFI EndBlock cfiCond66
          CFI EndBlock cfiPicker67

        RSEG CODE:CODE:NOROOT(1)
?Subroutine58:
          CFI Block cfiCond68 Using cfiCommon0
          CFI Function ??coding
          CFI Conditional ??CrossCallReturnLabel_78
          CFI R24 Frame(CFA_Y, -10)
          CFI R25 Frame(CFA_Y, -9)
          CFI R26 Frame(CFA_Y, -8)
          CFI R27 Frame(CFA_Y, -7)
          CFI R4 Frame(CFA_Y, -6)
          CFI R5 Frame(CFA_Y, -5)
          CFI R6 Frame(CFA_Y, -4)
          CFI R7 Frame(CFA_Y, -3)
          CFI R8 Frame(CFA_Y, -2)
          CFI R9 Frame(CFA_Y, -1)
          CFI CFA_SP SP+4
          CFI CFA_Y Y+10
          CFI Block cfiCond69 Using cfiCommon0
          CFI (cfiCond69) Function ??coding
          CFI (cfiCond69) Conditional ??CrossCallReturnLabel_79
          CFI (cfiCond69) R24 Frame(CFA_Y, -10)
          CFI (cfiCond69) R25 Frame(CFA_Y, -9)
          CFI (cfiCond69) R26 Frame(CFA_Y, -8)
          CFI (cfiCond69) R27 Frame(CFA_Y, -7)
          CFI (cfiCond69) R4 Frame(CFA_Y, -6)
          CFI (cfiCond69) R5 Frame(CFA_Y, -5)
          CFI (cfiCond69) R6 Frame(CFA_Y, -4)
          CFI (cfiCond69) R7 Frame(CFA_Y, -3)
          CFI (cfiCond69) R8 Frame(CFA_Y, -2)
          CFI (cfiCond69) R9 Frame(CFA_Y, -1)
          CFI (cfiCond69) CFA_SP SP+4
          CFI (cfiCond69) CFA_Y Y+10
          CFI Block cfiCond70 Using cfiCommon0
          CFI (cfiCond70) Function ??coding
          CFI (cfiCond70) Conditional ??CrossCallReturnLabel_80
          CFI (cfiCond70) R24 Frame(CFA_Y, -10)
          CFI (cfiCond70) R25 Frame(CFA_Y, -9)
          CFI (cfiCond70) R26 Frame(CFA_Y, -8)
          CFI (cfiCond70) R27 Frame(CFA_Y, -7)
          CFI (cfiCond70) R4 Frame(CFA_Y, -6)
          CFI (cfiCond70) R5 Frame(CFA_Y, -5)
          CFI (cfiCond70) R6 Frame(CFA_Y, -4)
          CFI (cfiCond70) R7 Frame(CFA_Y, -3)
          CFI (cfiCond70) R8 Frame(CFA_Y, -2)
          CFI (cfiCond70) R9 Frame(CFA_Y, -1)
          CFI (cfiCond70) CFA_SP SP+4
          CFI (cfiCond70) CFA_Y Y+10
          CFI Block cfiPicker71 Using cfiCommon2
          CFI (cfiPicker71) NoFunction
          CFI (cfiPicker71) Picker
        LDI     R22, 0
        LDI     R23, 64
        RJMP    ?F_CMP_LT_L04
          CFI EndBlock cfiCond68
          CFI EndBlock cfiCond69
          CFI EndBlock cfiCond70
          CFI EndBlock cfiPicker71

        RSEG CODE:CODE:NOROOT(1)
?Subroutine57:
          CFI Block cfiCond72 Using cfiCommon0
          CFI Function ??coding
          CFI Conditional ??CrossCallReturnLabel_75
          CFI R24 Frame(CFA_Y, -10)
          CFI R25 Frame(CFA_Y, -9)
          CFI R26 Frame(CFA_Y, -8)
          CFI R27 Frame(CFA_Y, -7)
          CFI R4 Frame(CFA_Y, -6)
          CFI R5 Frame(CFA_Y, -5)
          CFI R6 Frame(CFA_Y, -4)
          CFI R7 Frame(CFA_Y, -3)
          CFI R8 Frame(CFA_Y, -2)
          CFI R9 Frame(CFA_Y, -1)
          CFI CFA_SP SP+4
          CFI CFA_Y Y+10
          CFI Block cfiCond73 Using cfiCommon0
          CFI (cfiCond73) Function ??coding
          CFI (cfiCond73) Conditional ??CrossCallReturnLabel_76
          CFI (cfiCond73) R24 Frame(CFA_Y, -10)
          CFI (cfiCond73) R25 Frame(CFA_Y, -9)
          CFI (cfiCond73) R26 Frame(CFA_Y, -8)
          CFI (cfiCond73) R27 Frame(CFA_Y, -7)
          CFI (cfiCond73) R4 Frame(CFA_Y, -6)
          CFI (cfiCond73) R5 Frame(CFA_Y, -5)
          CFI (cfiCond73) R6 Frame(CFA_Y, -4)
          CFI (cfiCond73) R7 Frame(CFA_Y, -3)
          CFI (cfiCond73) R8 Frame(CFA_Y, -2)
          CFI (cfiCond73) R9 Frame(CFA_Y, -1)
          CFI (cfiCond73) CFA_SP SP+4
          CFI (cfiCond73) CFA_Y Y+10
          CFI Block cfiCond74 Using cfiCommon0
          CFI (cfiCond74) Function ??coding
          CFI (cfiCond74) Conditional ??CrossCallReturnLabel_77
          CFI (cfiCond74) R24 Frame(CFA_Y, -10)
          CFI (cfiCond74) R25 Frame(CFA_Y, -9)
          CFI (cfiCond74) R26 Frame(CFA_Y, -8)
          CFI (cfiCond74) R27 Frame(CFA_Y, -7)
          CFI (cfiCond74) R4 Frame(CFA_Y, -6)
          CFI (cfiCond74) R5 Frame(CFA_Y, -5)
          CFI (cfiCond74) R6 Frame(CFA_Y, -4)
          CFI (cfiCond74) R7 Frame(CFA_Y, -3)
          CFI (cfiCond74) R8 Frame(CFA_Y, -2)
          CFI (cfiCond74) R9 Frame(CFA_Y, -1)
          CFI (cfiCond74) CFA_SP SP+4
          CFI (cfiCond74) CFA_Y Y+10
          CFI Block cfiPicker75 Using cfiCommon2
          CFI (cfiPicker75) NoFunction
          CFI (cfiPicker75) Picker
        LDI     R22, 0
        LDI     R23, 64
        MOVW    R17:R16, R1:R0
        RJMP    ?F_CMP_GE_L04
          CFI EndBlock cfiCond72
          CFI EndBlock cfiCond73
          CFI EndBlock cfiCond74
          CFI EndBlock cfiPicker75

        RSEG CODE:CODE:NOROOT(1)
?Subroutine53:
          CFI Block cfiCond76 Using cfiCommon0
          CFI Function ??coding
          CFI Conditional ??CrossCallReturnLabel_66
          CFI R24 Frame(CFA_Y, -10)
          CFI R25 Frame(CFA_Y, -9)
          CFI R26 Frame(CFA_Y, -8)
          CFI R27 Frame(CFA_Y, -7)
          CFI R4 Frame(CFA_Y, -6)
          CFI R5 Frame(CFA_Y, -5)
          CFI R6 Frame(CFA_Y, -4)
          CFI R7 Frame(CFA_Y, -3)
          CFI R8 Frame(CFA_Y, -2)
          CFI R9 Frame(CFA_Y, -1)
          CFI CFA_SP SP+4
          CFI CFA_Y Y+10
          CFI Block cfiCond77 Using cfiCommon0
          CFI (cfiCond77) Function ??coding
          CFI (cfiCond77) Conditional ??CrossCallReturnLabel_67
          CFI (cfiCond77) R24 Frame(CFA_Y, -10)
          CFI (cfiCond77) R25 Frame(CFA_Y, -9)
          CFI (cfiCond77) R26 Frame(CFA_Y, -8)
          CFI (cfiCond77) R27 Frame(CFA_Y, -7)
          CFI (cfiCond77) R4 Frame(CFA_Y, -6)
          CFI (cfiCond77) R5 Frame(CFA_Y, -5)
          CFI (cfiCond77) R6 Frame(CFA_Y, -4)
          CFI (cfiCond77) R7 Frame(CFA_Y, -3)
          CFI (cfiCond77) R8 Frame(CFA_Y, -2)
          CFI (cfiCond77) R9 Frame(CFA_Y, -1)
          CFI (cfiCond77) CFA_SP SP+4
          CFI (cfiCond77) CFA_Y Y+10
          CFI Block cfiCond78 Using cfiCommon0
          CFI (cfiCond78) Function ??coding
          CFI (cfiCond78) Conditional ??CrossCallReturnLabel_68
          CFI (cfiCond78) R24 Frame(CFA_Y, -10)
          CFI (cfiCond78) R25 Frame(CFA_Y, -9)
          CFI (cfiCond78) R26 Frame(CFA_Y, -8)
          CFI (cfiCond78) R27 Frame(CFA_Y, -7)
          CFI (cfiCond78) R4 Frame(CFA_Y, -6)
          CFI (cfiCond78) R5 Frame(CFA_Y, -5)
          CFI (cfiCond78) R6 Frame(CFA_Y, -4)
          CFI (cfiCond78) R7 Frame(CFA_Y, -3)
          CFI (cfiCond78) R8 Frame(CFA_Y, -2)
          CFI (cfiCond78) R9 Frame(CFA_Y, -1)
          CFI (cfiCond78) CFA_SP SP+4
          CFI (cfiCond78) CFA_Y Y+10
          CFI Block cfiPicker79 Using cfiCommon2
          CFI (cfiPicker79) NoFunction
          CFI (cfiPicker79) Picker
        LDI     R20, 0
        LDI     R22, 224
        RJMP    ?F_CMP_LT_L04
          CFI EndBlock cfiCond76
          CFI EndBlock cfiCond77
          CFI EndBlock cfiCond78
          CFI EndBlock cfiPicker79

        RSEG CODE:CODE:NOROOT(1)
?Subroutine52:
          CFI Block cfiCond80 Using cfiCommon0
          CFI Function ??coding
          CFI Conditional ??CrossCallReturnLabel_63
          CFI R24 Frame(CFA_Y, -10)
          CFI R25 Frame(CFA_Y, -9)
          CFI R26 Frame(CFA_Y, -8)
          CFI R27 Frame(CFA_Y, -7)
          CFI R4 Frame(CFA_Y, -6)
          CFI R5 Frame(CFA_Y, -5)
          CFI R6 Frame(CFA_Y, -4)
          CFI R7 Frame(CFA_Y, -3)
          CFI R8 Frame(CFA_Y, -2)
          CFI R9 Frame(CFA_Y, -1)
          CFI CFA_SP SP+4
          CFI CFA_Y Y+10
          CFI Block cfiCond81 Using cfiCommon0
          CFI (cfiCond81) Function ??coding
          CFI (cfiCond81) Conditional ??CrossCallReturnLabel_64
          CFI (cfiCond81) R24 Frame(CFA_Y, -10)
          CFI (cfiCond81) R25 Frame(CFA_Y, -9)
          CFI (cfiCond81) R26 Frame(CFA_Y, -8)
          CFI (cfiCond81) R27 Frame(CFA_Y, -7)
          CFI (cfiCond81) R4 Frame(CFA_Y, -6)
          CFI (cfiCond81) R5 Frame(CFA_Y, -5)
          CFI (cfiCond81) R6 Frame(CFA_Y, -4)
          CFI (cfiCond81) R7 Frame(CFA_Y, -3)
          CFI (cfiCond81) R8 Frame(CFA_Y, -2)
          CFI (cfiCond81) R9 Frame(CFA_Y, -1)
          CFI (cfiCond81) CFA_SP SP+4
          CFI (cfiCond81) CFA_Y Y+10
          CFI Block cfiCond82 Using cfiCommon0
          CFI (cfiCond82) Function ??coding
          CFI (cfiCond82) Conditional ??CrossCallReturnLabel_65
          CFI (cfiCond82) R24 Frame(CFA_Y, -10)
          CFI (cfiCond82) R25 Frame(CFA_Y, -9)
          CFI (cfiCond82) R26 Frame(CFA_Y, -8)
          CFI (cfiCond82) R27 Frame(CFA_Y, -7)
          CFI (cfiCond82) R4 Frame(CFA_Y, -6)
          CFI (cfiCond82) R5 Frame(CFA_Y, -5)
          CFI (cfiCond82) R6 Frame(CFA_Y, -4)
          CFI (cfiCond82) R7 Frame(CFA_Y, -3)
          CFI (cfiCond82) R8 Frame(CFA_Y, -2)
          CFI (cfiCond82) R9 Frame(CFA_Y, -1)
          CFI (cfiCond82) CFA_SP SP+4
          CFI (cfiCond82) CFA_Y Y+10
          CFI Block cfiPicker83 Using cfiCommon2
          CFI (cfiPicker83) NoFunction
          CFI (cfiPicker83) Picker
        LDI     R20, 1
        LDI     R22, 160
        RJMP    ?F_CMP_GE_L04
          CFI EndBlock cfiCond80
          CFI EndBlock cfiCond81
          CFI EndBlock cfiCond82
          CFI EndBlock cfiPicker83

        RSEG CODE:CODE:NOROOT(1)
?Subroutine50:
          CFI Block cfiCond84 Using cfiCommon0
          CFI Function ??coding
          CFI Conditional ??CrossCallReturnLabel_59
          CFI R24 Frame(CFA_Y, -10)
          CFI R25 Frame(CFA_Y, -9)
          CFI R26 Frame(CFA_Y, -8)
          CFI R27 Frame(CFA_Y, -7)
          CFI R4 Frame(CFA_Y, -6)
          CFI R5 Frame(CFA_Y, -5)
          CFI R6 Frame(CFA_Y, -4)
          CFI R7 Frame(CFA_Y, -3)
          CFI R8 Frame(CFA_Y, -2)
          CFI R9 Frame(CFA_Y, -1)
          CFI CFA_SP SP+4
          CFI CFA_Y Y+10
          CFI Block cfiCond85 Using cfiCommon0
          CFI (cfiCond85) Function ??coding
          CFI (cfiCond85) Conditional ??CrossCallReturnLabel_60
          CFI (cfiCond85) R24 Frame(CFA_Y, -10)
          CFI (cfiCond85) R25 Frame(CFA_Y, -9)
          CFI (cfiCond85) R26 Frame(CFA_Y, -8)
          CFI (cfiCond85) R27 Frame(CFA_Y, -7)
          CFI (cfiCond85) R4 Frame(CFA_Y, -6)
          CFI (cfiCond85) R5 Frame(CFA_Y, -5)
          CFI (cfiCond85) R6 Frame(CFA_Y, -4)
          CFI (cfiCond85) R7 Frame(CFA_Y, -3)
          CFI (cfiCond85) R8 Frame(CFA_Y, -2)
          CFI (cfiCond85) R9 Frame(CFA_Y, -1)
          CFI (cfiCond85) CFA_SP SP+4
          CFI (cfiCond85) CFA_Y Y+10
          CFI Block cfiPicker86 Using cfiCommon2
          CFI (cfiPicker86) NoFunction
          CFI (cfiPicker86) Picker
        RCALL   ?Subroutine106
??CrossCallReturnLabel_190:
        RJMP    ?Subroutine129
          CFI EndBlock cfiCond84
          CFI EndBlock cfiCond85
          CFI EndBlock cfiPicker86

        RSEG CODE:CODE:NOROOT(1)
?Subroutine41:
          CFI Block cfiCond87 Using cfiCommon0
          CFI Function ??coding
          CFI Conditional ??CrossCallReturnLabel_306
          CFI R24 Frame(CFA_Y, -10)
          CFI R25 Frame(CFA_Y, -9)
          CFI R26 Frame(CFA_Y, -8)
          CFI R27 Frame(CFA_Y, -7)
          CFI R4 Frame(CFA_Y, -6)
          CFI R5 Frame(CFA_Y, -5)
          CFI R6 Frame(CFA_Y, -4)
          CFI R7 Frame(CFA_Y, -3)
          CFI R8 Frame(CFA_Y, -2)
          CFI R9 Frame(CFA_Y, -1)
          CFI CFA_SP SP+4
          CFI CFA_Y Y+10
          CFI Block cfiCond88 Using cfiCommon0
          CFI (cfiCond88) Function ??coding
          CFI (cfiCond88) Conditional ??CrossCallReturnLabel_307
          CFI (cfiCond88) R24 Frame(CFA_Y, -10)
          CFI (cfiCond88) R25 Frame(CFA_Y, -9)
          CFI (cfiCond88) R26 Frame(CFA_Y, -8)
          CFI (cfiCond88) R27 Frame(CFA_Y, -7)
          CFI (cfiCond88) R4 Frame(CFA_Y, -6)
          CFI (cfiCond88) R5 Frame(CFA_Y, -5)
          CFI (cfiCond88) R6 Frame(CFA_Y, -4)
          CFI (cfiCond88) R7 Frame(CFA_Y, -3)
          CFI (cfiCond88) R8 Frame(CFA_Y, -2)
          CFI (cfiCond88) R9 Frame(CFA_Y, -1)
          CFI (cfiCond88) CFA_SP SP+4
          CFI (cfiCond88) CFA_Y Y+10
          CFI Block cfiPicker89 Using cfiCommon2
          CFI (cfiPicker89) NoFunction
          CFI (cfiPicker89) Picker
        LDI     R30, LOW(c3)
        LDI     R31, (c3) >> 8
          CFI EndBlock cfiCond87
          CFI EndBlock cfiCond88
          CFI EndBlock cfiPicker89
        REQUIRE ??Subroutine144_0
        ;               // Fall through to label ??Subroutine144_0

        RSEG CODE:CODE:NOROOT(1)
??Subroutine144_0:
          CFI Block cfiCond90 Using cfiCommon0
          CFI Function ??coding
          CFI Conditional ??CrossCallReturnLabel_304
          CFI R24 Frame(CFA_Y, -10)
          CFI R25 Frame(CFA_Y, -9)
          CFI R26 Frame(CFA_Y, -8)
          CFI R27 Frame(CFA_Y, -7)
          CFI R4 Frame(CFA_Y, -6)
          CFI R5 Frame(CFA_Y, -5)
          CFI R6 Frame(CFA_Y, -4)
          CFI R7 Frame(CFA_Y, -3)
          CFI R8 Frame(CFA_Y, -2)
          CFI R9 Frame(CFA_Y, -1)
          CFI CFA_SP SP+4
          CFI CFA_Y Y+10
          CFI Block cfiCond91 Using cfiCommon0
          CFI (cfiCond91) Function ??coding
          CFI (cfiCond91) Conditional ??CrossCallReturnLabel_305
          CFI (cfiCond91) R24 Frame(CFA_Y, -10)
          CFI (cfiCond91) R25 Frame(CFA_Y, -9)
          CFI (cfiCond91) R26 Frame(CFA_Y, -8)
          CFI (cfiCond91) R27 Frame(CFA_Y, -7)
          CFI (cfiCond91) R4 Frame(CFA_Y, -6)
          CFI (cfiCond91) R5 Frame(CFA_Y, -5)
          CFI (cfiCond91) R6 Frame(CFA_Y, -4)
          CFI (cfiCond91) R7 Frame(CFA_Y, -3)
          CFI (cfiCond91) R8 Frame(CFA_Y, -2)
          CFI (cfiCond91) R9 Frame(CFA_Y, -1)
          CFI (cfiCond91) CFA_SP SP+4
          CFI (cfiCond91) CFA_Y Y+10
          CFI Block cfiCond92 Using cfiCommon0
          CFI (cfiCond92) Function ??coding
          CFI (cfiCond92) Conditional ??CrossCallReturnLabel_306
          CFI (cfiCond92) R24 Frame(CFA_Y, -10)
          CFI (cfiCond92) R25 Frame(CFA_Y, -9)
          CFI (cfiCond92) R26 Frame(CFA_Y, -8)
          CFI (cfiCond92) R27 Frame(CFA_Y, -7)
          CFI (cfiCond92) R4 Frame(CFA_Y, -6)
          CFI (cfiCond92) R5 Frame(CFA_Y, -5)
          CFI (cfiCond92) R6 Frame(CFA_Y, -4)
          CFI (cfiCond92) R7 Frame(CFA_Y, -3)
          CFI (cfiCond92) R8 Frame(CFA_Y, -2)
          CFI (cfiCond92) R9 Frame(CFA_Y, -1)
          CFI (cfiCond92) CFA_SP SP+4
          CFI (cfiCond92) CFA_Y Y+10
          CFI Block cfiCond93 Using cfiCommon0
          CFI (cfiCond93) Function ??coding
          CFI (cfiCond93) Conditional ??CrossCallReturnLabel_307
          CFI (cfiCond93) R24 Frame(CFA_Y, -10)
          CFI (cfiCond93) R25 Frame(CFA_Y, -9)
          CFI (cfiCond93) R26 Frame(CFA_Y, -8)
          CFI (cfiCond93) R27 Frame(CFA_Y, -7)
          CFI (cfiCond93) R4 Frame(CFA_Y, -6)
          CFI (cfiCond93) R5 Frame(CFA_Y, -5)
          CFI (cfiCond93) R6 Frame(CFA_Y, -4)
          CFI (cfiCond93) R7 Frame(CFA_Y, -3)
          CFI (cfiCond93) R8 Frame(CFA_Y, -2)
          CFI (cfiCond93) R9 Frame(CFA_Y, -1)
          CFI (cfiCond93) CFA_SP SP+4
          CFI (cfiCond93) CFA_Y Y+10
          CFI Block cfiPicker94 Using cfiCommon2
          CFI (cfiPicker94) NoFunction
          CFI (cfiPicker94) Picker
        LD      R16, Z
        SUBI    R16, 254
        RET
          CFI EndBlock cfiCond90
          CFI EndBlock cfiCond91
          CFI EndBlock cfiCond92
          CFI EndBlock cfiCond93
          CFI EndBlock cfiPicker94

        RSEG CODE:CODE:NOROOT(1)
?Subroutine38:
          CFI Block cfiCond95 Using cfiCommon0
          CFI Function ??coding
          CFI Conditional ??CrossCallReturnLabel_197
          CFI R24 Frame(CFA_Y, -10)
          CFI R25 Frame(CFA_Y, -9)
          CFI R26 Frame(CFA_Y, -8)
          CFI R27 Frame(CFA_Y, -7)
          CFI R4 Frame(CFA_Y, -6)
          CFI R5 Frame(CFA_Y, -5)
          CFI R6 Frame(CFA_Y, -4)
          CFI R7 Frame(CFA_Y, -3)
          CFI R8 Frame(CFA_Y, -2)
          CFI R9 Frame(CFA_Y, -1)
          CFI CFA_SP SP+4
          CFI CFA_Y Y+10
          CFI Block cfiCond96 Using cfiCommon0
          CFI (cfiCond96) Function ??coding
          CFI (cfiCond96) Conditional ??CrossCallReturnLabel_198
          CFI (cfiCond96) R24 Frame(CFA_Y, -10)
          CFI (cfiCond96) R25 Frame(CFA_Y, -9)
          CFI (cfiCond96) R26 Frame(CFA_Y, -8)
          CFI (cfiCond96) R27 Frame(CFA_Y, -7)
          CFI (cfiCond96) R4 Frame(CFA_Y, -6)
          CFI (cfiCond96) R5 Frame(CFA_Y, -5)
          CFI (cfiCond96) R6 Frame(CFA_Y, -4)
          CFI (cfiCond96) R7 Frame(CFA_Y, -3)
          CFI (cfiCond96) R8 Frame(CFA_Y, -2)
          CFI (cfiCond96) R9 Frame(CFA_Y, -1)
          CFI (cfiCond96) CFA_SP SP+4
          CFI (cfiCond96) CFA_Y Y+10
          CFI Block cfiPicker97 Using cfiCommon2
          CFI (cfiPicker97) NoFunction
          CFI (cfiPicker97) Picker
        RCALL   ?Subroutine125
          CFI EndBlock cfiCond95
          CFI EndBlock cfiCond96
          CFI EndBlock cfiPicker97
??CrossCallReturnLabel_319:
        REQUIRE ?Subroutine108
        ;               // Fall through to label ?Subroutine108

        RSEG CODE:CODE:NOROOT(1)
?Subroutine108:
          CFI Block cfiCond98 Using cfiCommon0
          CFI Function ??coding
          CFI Conditional ??CrossCallReturnLabel_196
          CFI R24 Frame(CFA_Y, -10)
          CFI R25 Frame(CFA_Y, -9)
          CFI R26 Frame(CFA_Y, -8)
          CFI R27 Frame(CFA_Y, -7)
          CFI R4 Frame(CFA_Y, -6)
          CFI R5 Frame(CFA_Y, -5)
          CFI R6 Frame(CFA_Y, -4)
          CFI R7 Frame(CFA_Y, -3)
          CFI R8 Frame(CFA_Y, -2)
          CFI R9 Frame(CFA_Y, -1)
          CFI CFA_SP SP+4
          CFI CFA_Y Y+10
          CFI Block cfiCond99 Using cfiCommon0
          CFI (cfiCond99) Function ??coding
          CFI (cfiCond99) Conditional ??CrossCallReturnLabel_197
          CFI (cfiCond99) R24 Frame(CFA_Y, -10)
          CFI (cfiCond99) R25 Frame(CFA_Y, -9)
          CFI (cfiCond99) R26 Frame(CFA_Y, -8)
          CFI (cfiCond99) R27 Frame(CFA_Y, -7)
          CFI (cfiCond99) R4 Frame(CFA_Y, -6)
          CFI (cfiCond99) R5 Frame(CFA_Y, -5)
          CFI (cfiCond99) R6 Frame(CFA_Y, -4)
          CFI (cfiCond99) R7 Frame(CFA_Y, -3)
          CFI (cfiCond99) R8 Frame(CFA_Y, -2)
          CFI (cfiCond99) R9 Frame(CFA_Y, -1)
          CFI (cfiCond99) CFA_SP SP+4
          CFI (cfiCond99) CFA_Y Y+10
          CFI Block cfiCond100 Using cfiCommon0
          CFI (cfiCond100) Function ??coding
          CFI (cfiCond100) Conditional ??CrossCallReturnLabel_198
          CFI (cfiCond100) R24 Frame(CFA_Y, -10)
          CFI (cfiCond100) R25 Frame(CFA_Y, -9)
          CFI (cfiCond100) R26 Frame(CFA_Y, -8)
          CFI (cfiCond100) R27 Frame(CFA_Y, -7)
          CFI (cfiCond100) R4 Frame(CFA_Y, -6)
          CFI (cfiCond100) R5 Frame(CFA_Y, -5)
          CFI (cfiCond100) R6 Frame(CFA_Y, -4)
          CFI (cfiCond100) R7 Frame(CFA_Y, -3)
          CFI (cfiCond100) R8 Frame(CFA_Y, -2)
          CFI (cfiCond100) R9 Frame(CFA_Y, -1)
          CFI (cfiCond100) CFA_SP SP+4
          CFI (cfiCond100) CFA_Y Y+10
          CFI Block cfiPicker101 Using cfiCommon2
          CFI (cfiPicker101) NoFunction
          CFI (cfiPicker101) Picker
        LSL     R16
        ROL     R17
        LSL     R16
        ROL     R17
        RET
          CFI EndBlock cfiCond98
          CFI EndBlock cfiCond99
          CFI EndBlock cfiCond100
          CFI EndBlock cfiPicker101

        RSEG CODE:CODE:NOROOT(1)
?Subroutine103:
          CFI Block cfiCond102 Using cfiCommon0
          CFI Function ??coding
          CFI Conditional ??CrossCallReturnLabel_179
          CFI R24 Frame(CFA_Y, -10)
          CFI R25 Frame(CFA_Y, -9)
          CFI R26 Frame(CFA_Y, -8)
          CFI R27 Frame(CFA_Y, -7)
          CFI R4 Frame(CFA_Y, -6)
          CFI R5 Frame(CFA_Y, -5)
          CFI R6 Frame(CFA_Y, -4)
          CFI R7 Frame(CFA_Y, -3)
          CFI R8 Frame(CFA_Y, -2)
          CFI R9 Frame(CFA_Y, -1)
          CFI CFA_SP SP+4
          CFI CFA_Y Y+10
          CFI Block cfiCond103 Using cfiCommon0
          CFI (cfiCond103) Function ??coding
          CFI (cfiCond103) Conditional ??CrossCallReturnLabel_180
          CFI (cfiCond103) R24 Frame(CFA_Y, -10)
          CFI (cfiCond103) R25 Frame(CFA_Y, -9)
          CFI (cfiCond103) R26 Frame(CFA_Y, -8)
          CFI (cfiCond103) R27 Frame(CFA_Y, -7)
          CFI (cfiCond103) R4 Frame(CFA_Y, -6)
          CFI (cfiCond103) R5 Frame(CFA_Y, -5)
          CFI (cfiCond103) R6 Frame(CFA_Y, -4)
          CFI (cfiCond103) R7 Frame(CFA_Y, -3)
          CFI (cfiCond103) R8 Frame(CFA_Y, -2)
          CFI (cfiCond103) R9 Frame(CFA_Y, -1)
          CFI (cfiCond103) CFA_SP SP+4
          CFI (cfiCond103) CFA_Y Y+10
          CFI Block cfiCond104 Using cfiCommon0
          CFI (cfiCond104) Function ??coding
          CFI (cfiCond104) Conditional ??CrossCallReturnLabel_181
          CFI (cfiCond104) R24 Frame(CFA_Y, -10)
          CFI (cfiCond104) R25 Frame(CFA_Y, -9)
          CFI (cfiCond104) R26 Frame(CFA_Y, -8)
          CFI (cfiCond104) R27 Frame(CFA_Y, -7)
          CFI (cfiCond104) R4 Frame(CFA_Y, -6)
          CFI (cfiCond104) R5 Frame(CFA_Y, -5)
          CFI (cfiCond104) R6 Frame(CFA_Y, -4)
          CFI (cfiCond104) R7 Frame(CFA_Y, -3)
          CFI (cfiCond104) R8 Frame(CFA_Y, -2)
          CFI (cfiCond104) R9 Frame(CFA_Y, -1)
          CFI (cfiCond104) CFA_SP SP+4
          CFI (cfiCond104) CFA_Y Y+10
          CFI Block cfiCond105 Using cfiCommon0
          CFI (cfiCond105) Function ??coding
          CFI (cfiCond105) Conditional ??CrossCallReturnLabel_182, ??CrossCallReturnLabel_34
          CFI (cfiCond105) R24 Frame(CFA_Y, -10)
          CFI (cfiCond105) R25 Frame(CFA_Y, -9)
          CFI (cfiCond105) R26 Frame(CFA_Y, -8)
          CFI (cfiCond105) R27 Frame(CFA_Y, -7)
          CFI (cfiCond105) R4 Frame(CFA_Y, -6)
          CFI (cfiCond105) R5 Frame(CFA_Y, -5)
          CFI (cfiCond105) R6 Frame(CFA_Y, -4)
          CFI (cfiCond105) R7 Frame(CFA_Y, -3)
          CFI (cfiCond105) R8 Frame(CFA_Y, -2)
          CFI (cfiCond105) R9 Frame(CFA_Y, -1)
          CFI (cfiCond105) CFA_SP SP+6
          CFI (cfiCond105) CFA_Y Y+10
          CFI Block cfiCond106 Using cfiCommon0
          CFI (cfiCond106) Function ??coding
          CFI (cfiCond106) Conditional ??CrossCallReturnLabel_182, ??CrossCallReturnLabel_35
          CFI (cfiCond106) R24 Frame(CFA_Y, -10)
          CFI (cfiCond106) R25 Frame(CFA_Y, -9)
          CFI (cfiCond106) R26 Frame(CFA_Y, -8)
          CFI (cfiCond106) R27 Frame(CFA_Y, -7)
          CFI (cfiCond106) R4 Frame(CFA_Y, -6)
          CFI (cfiCond106) R5 Frame(CFA_Y, -5)
          CFI (cfiCond106) R6 Frame(CFA_Y, -4)
          CFI (cfiCond106) R7 Frame(CFA_Y, -3)
          CFI (cfiCond106) R8 Frame(CFA_Y, -2)
          CFI (cfiCond106) R9 Frame(CFA_Y, -1)
          CFI (cfiCond106) CFA_SP SP+6
          CFI (cfiCond106) CFA_Y Y+10
          CFI Block cfiCond107 Using cfiCommon0
          CFI (cfiCond107) Function ??coding
          CFI (cfiCond107) Conditional ??CrossCallReturnLabel_182, ??CrossCallReturnLabel_36
          CFI (cfiCond107) R24 Frame(CFA_Y, -10)
          CFI (cfiCond107) R25 Frame(CFA_Y, -9)
          CFI (cfiCond107) R26 Frame(CFA_Y, -8)
          CFI (cfiCond107) R27 Frame(CFA_Y, -7)
          CFI (cfiCond107) R4 Frame(CFA_Y, -6)
          CFI (cfiCond107) R5 Frame(CFA_Y, -5)
          CFI (cfiCond107) R6 Frame(CFA_Y, -4)
          CFI (cfiCond107) R7 Frame(CFA_Y, -3)
          CFI (cfiCond107) R8 Frame(CFA_Y, -2)
          CFI (cfiCond107) R9 Frame(CFA_Y, -1)
          CFI (cfiCond107) CFA_SP SP+6
          CFI (cfiCond107) CFA_Y Y+10
          CFI Block cfiPicker108 Using cfiCommon2
          CFI (cfiPicker108) NoFunction
          CFI (cfiPicker108) Picker
        RCALL   ?Subroutine125
??CrossCallReturnLabel_320:
        OR      R16, R8
        OR      R17, R9
        RET
          CFI EndBlock cfiCond102
          CFI EndBlock cfiCond103
          CFI EndBlock cfiCond104
          CFI EndBlock cfiCond105
          CFI EndBlock cfiCond106
          CFI EndBlock cfiCond107
          CFI EndBlock cfiPicker108

        RSEG CODE:CODE:NOROOT(1)
?Subroutine34:
          CFI Block cfiCond109 Using cfiCommon0
          CFI Function ??coding
          CFI Conditional ??CrossCallReturnLabel_37
          CFI R24 Frame(CFA_Y, -10)
          CFI R25 Frame(CFA_Y, -9)
          CFI R26 Frame(CFA_Y, -8)
          CFI R27 Frame(CFA_Y, -7)
          CFI R4 Frame(CFA_Y, -6)
          CFI R5 Frame(CFA_Y, -5)
          CFI R6 Frame(CFA_Y, -4)
          CFI R7 Frame(CFA_Y, -3)
          CFI R8 Frame(CFA_Y, -2)
          CFI R9 Frame(CFA_Y, -1)
          CFI CFA_SP SP+4
          CFI CFA_Y Y+10
          CFI Block cfiCond110 Using cfiCommon0
          CFI (cfiCond110) Function ??coding
          CFI (cfiCond110) Conditional ??CrossCallReturnLabel_38
          CFI (cfiCond110) R24 Frame(CFA_Y, -10)
          CFI (cfiCond110) R25 Frame(CFA_Y, -9)
          CFI (cfiCond110) R26 Frame(CFA_Y, -8)
          CFI (cfiCond110) R27 Frame(CFA_Y, -7)
          CFI (cfiCond110) R4 Frame(CFA_Y, -6)
          CFI (cfiCond110) R5 Frame(CFA_Y, -5)
          CFI (cfiCond110) R6 Frame(CFA_Y, -4)
          CFI (cfiCond110) R7 Frame(CFA_Y, -3)
          CFI (cfiCond110) R8 Frame(CFA_Y, -2)
          CFI (cfiCond110) R9 Frame(CFA_Y, -1)
          CFI (cfiCond110) CFA_SP SP+4
          CFI (cfiCond110) CFA_Y Y+10
          CFI Block cfiCond111 Using cfiCommon0
          CFI (cfiCond111) Function ??coding
          CFI (cfiCond111) Conditional ??CrossCallReturnLabel_39
          CFI (cfiCond111) R24 Frame(CFA_Y, -10)
          CFI (cfiCond111) R25 Frame(CFA_Y, -9)
          CFI (cfiCond111) R26 Frame(CFA_Y, -8)
          CFI (cfiCond111) R27 Frame(CFA_Y, -7)
          CFI (cfiCond111) R4 Frame(CFA_Y, -6)
          CFI (cfiCond111) R5 Frame(CFA_Y, -5)
          CFI (cfiCond111) R6 Frame(CFA_Y, -4)
          CFI (cfiCond111) R7 Frame(CFA_Y, -3)
          CFI (cfiCond111) R8 Frame(CFA_Y, -2)
          CFI (cfiCond111) R9 Frame(CFA_Y, -1)
          CFI (cfiCond111) CFA_SP SP+4
          CFI (cfiCond111) CFA_Y Y+10
          CFI Block cfiPicker112 Using cfiCommon2
          CFI (cfiPicker112) NoFunction
          CFI (cfiPicker112) Picker
        RCALL   ?Subroutine101
??CrossCallReturnLabel_344:
        CPI     R16, 16
        RET
          CFI EndBlock cfiCond109
          CFI EndBlock cfiCond110
          CFI EndBlock cfiCond111
          CFI EndBlock cfiPicker112

        RSEG CODE:CODE:NOROOT(1)
?Subroutine32:
          CFI Block cfiCond113 Using cfiCommon0
          CFI Function ??coding
          CFI Conditional ??CrossCallReturnLabel_34
          CFI R24 Frame(CFA_Y, -10)
          CFI R25 Frame(CFA_Y, -9)
          CFI R26 Frame(CFA_Y, -8)
          CFI R27 Frame(CFA_Y, -7)
          CFI R4 Frame(CFA_Y, -6)
          CFI R5 Frame(CFA_Y, -5)
          CFI R6 Frame(CFA_Y, -4)
          CFI R7 Frame(CFA_Y, -3)
          CFI R8 Frame(CFA_Y, -2)
          CFI R9 Frame(CFA_Y, -1)
          CFI CFA_SP SP+4
          CFI CFA_Y Y+10
          CFI Block cfiCond114 Using cfiCommon0
          CFI (cfiCond114) Function ??coding
          CFI (cfiCond114) Conditional ??CrossCallReturnLabel_35
          CFI (cfiCond114) R24 Frame(CFA_Y, -10)
          CFI (cfiCond114) R25 Frame(CFA_Y, -9)
          CFI (cfiCond114) R26 Frame(CFA_Y, -8)
          CFI (cfiCond114) R27 Frame(CFA_Y, -7)
          CFI (cfiCond114) R4 Frame(CFA_Y, -6)
          CFI (cfiCond114) R5 Frame(CFA_Y, -5)
          CFI (cfiCond114) R6 Frame(CFA_Y, -4)
          CFI (cfiCond114) R7 Frame(CFA_Y, -3)
          CFI (cfiCond114) R8 Frame(CFA_Y, -2)
          CFI (cfiCond114) R9 Frame(CFA_Y, -1)
          CFI (cfiCond114) CFA_SP SP+4
          CFI (cfiCond114) CFA_Y Y+10
          CFI Block cfiCond115 Using cfiCommon0
          CFI (cfiCond115) Function ??coding
          CFI (cfiCond115) Conditional ??CrossCallReturnLabel_36
          CFI (cfiCond115) R24 Frame(CFA_Y, -10)
          CFI (cfiCond115) R25 Frame(CFA_Y, -9)
          CFI (cfiCond115) R26 Frame(CFA_Y, -8)
          CFI (cfiCond115) R27 Frame(CFA_Y, -7)
          CFI (cfiCond115) R4 Frame(CFA_Y, -6)
          CFI (cfiCond115) R5 Frame(CFA_Y, -5)
          CFI (cfiCond115) R6 Frame(CFA_Y, -4)
          CFI (cfiCond115) R7 Frame(CFA_Y, -3)
          CFI (cfiCond115) R8 Frame(CFA_Y, -2)
          CFI (cfiCond115) R9 Frame(CFA_Y, -1)
          CFI (cfiCond115) CFA_SP SP+4
          CFI (cfiCond115) CFA_Y Y+10
          CFI Block cfiPicker116 Using cfiCommon2
          CFI (cfiPicker116) NoFunction
          CFI (cfiPicker116) Picker
        RCALL   ?Subroutine103
??CrossCallReturnLabel_182:
        ADD     R16, R4
        ADC     R17, R5
        RET
          CFI EndBlock cfiCond113
          CFI EndBlock cfiCond114
          CFI EndBlock cfiCond115
          CFI EndBlock cfiPicker116

        RSEG CODE:CODE:NOROOT(1)
?Subroutine31:
          CFI Block cfiCond117 Using cfiCommon0
          CFI Function ??du_main
          CFI Conditional ??CrossCallReturnLabel_335
          CFI R24 Frame(CFA_Y, -8)
          CFI R25 Frame(CFA_Y, -7)
          CFI R26 Frame(CFA_Y, -6)
          CFI R27 Frame(CFA_Y, -5)
          CFI R4 Frame(CFA_Y, -4)
          CFI R5 Frame(CFA_Y, -3)
          CFI R6 Frame(CFA_Y, -2)
          CFI R7 Frame(CFA_Y, -1)
          CFI CFA_SP SP+4
          CFI CFA_Y Y+8
          CFI Block cfiCond118 Using cfiCommon0
          CFI (cfiCond118) Function ??coding
          CFI (cfiCond118) Conditional ??CrossCallReturnLabel_334
          CFI (cfiCond118) R24 Frame(CFA_Y, -10)
          CFI (cfiCond118) R25 Frame(CFA_Y, -9)
          CFI (cfiCond118) R26 Frame(CFA_Y, -8)
          CFI (cfiCond118) R27 Frame(CFA_Y, -7)
          CFI (cfiCond118) R4 Frame(CFA_Y, -6)
          CFI (cfiCond118) R5 Frame(CFA_Y, -5)
          CFI (cfiCond118) R6 Frame(CFA_Y, -4)
          CFI (cfiCond118) R7 Frame(CFA_Y, -3)
          CFI (cfiCond118) R8 Frame(CFA_Y, -2)
          CFI (cfiCond118) R9 Frame(CFA_Y, -1)
          CFI (cfiCond118) CFA_SP SP+4
          CFI (cfiCond118) CFA_Y Y+10
          CFI Block cfiPicker119 Using cfiCommon2
          CFI (cfiPicker119) NoFunction
          CFI (cfiPicker119) Picker
        RCALL   ??rprintfStr
        LDI     R30, LOW(cod1)
        LDI     R31, (cod1) >> 8
          CFI EndBlock cfiCond117
          CFI EndBlock cfiCond118
          CFI EndBlock cfiPicker119
        REQUIRE ?Subroutine141
        REQUIRE ??Subroutine145_0
        ;               // Fall through to label ??Subroutine145_0

        RSEG CODE:CODE:NOROOT(1)
??Subroutine145_0:
          CFI Block cfiCond120 Using cfiCommon0
          CFI Function ??du_main
          CFI Conditional ??CrossCallReturnLabel_333
          CFI R24 Frame(CFA_Y, -8)
          CFI R25 Frame(CFA_Y, -7)
          CFI R26 Frame(CFA_Y, -6)
          CFI R27 Frame(CFA_Y, -5)
          CFI R4 Frame(CFA_Y, -4)
          CFI R5 Frame(CFA_Y, -3)
          CFI R6 Frame(CFA_Y, -2)
          CFI R7 Frame(CFA_Y, -1)
          CFI CFA_SP SP+4
          CFI CFA_Y Y+8
          CFI Block cfiCond121 Using cfiCommon0
          CFI (cfiCond121) Function ??du_main
          CFI (cfiCond121) Conditional ??CrossCallReturnLabel_332
          CFI (cfiCond121) R24 Frame(CFA_Y, -8)
          CFI (cfiCond121) R25 Frame(CFA_Y, -7)
          CFI (cfiCond121) R26 Frame(CFA_Y, -6)
          CFI (cfiCond121) R27 Frame(CFA_Y, -5)
          CFI (cfiCond121) R4 Frame(CFA_Y, -4)
          CFI (cfiCond121) R5 Frame(CFA_Y, -3)
          CFI (cfiCond121) R6 Frame(CFA_Y, -2)
          CFI (cfiCond121) R7 Frame(CFA_Y, -1)
          CFI (cfiCond121) CFA_SP SP+4
          CFI (cfiCond121) CFA_Y Y+8
          CFI Block cfiCond122 Using cfiCommon0
          CFI (cfiCond122) Function ??coding
          CFI (cfiCond122) Conditional ??CrossCallReturnLabel_331
          CFI (cfiCond122) R24 Frame(CFA_Y, -10)
          CFI (cfiCond122) R25 Frame(CFA_Y, -9)
          CFI (cfiCond122) R26 Frame(CFA_Y, -8)
          CFI (cfiCond122) R27 Frame(CFA_Y, -7)
          CFI (cfiCond122) R4 Frame(CFA_Y, -6)
          CFI (cfiCond122) R5 Frame(CFA_Y, -5)
          CFI (cfiCond122) R6 Frame(CFA_Y, -4)
          CFI (cfiCond122) R7 Frame(CFA_Y, -3)
          CFI (cfiCond122) R8 Frame(CFA_Y, -2)
          CFI (cfiCond122) R9 Frame(CFA_Y, -1)
          CFI (cfiCond122) CFA_SP SP+4
          CFI (cfiCond122) CFA_Y Y+10
          CFI Block cfiCond123 Using cfiCommon0
          CFI (cfiCond123) Function ??coding
          CFI (cfiCond123) Conditional ??CrossCallReturnLabel_330
          CFI (cfiCond123) R24 Frame(CFA_Y, -10)
          CFI (cfiCond123) R25 Frame(CFA_Y, -9)
          CFI (cfiCond123) R26 Frame(CFA_Y, -8)
          CFI (cfiCond123) R27 Frame(CFA_Y, -7)
          CFI (cfiCond123) R4 Frame(CFA_Y, -6)
          CFI (cfiCond123) R5 Frame(CFA_Y, -5)
          CFI (cfiCond123) R6 Frame(CFA_Y, -4)
          CFI (cfiCond123) R7 Frame(CFA_Y, -3)
          CFI (cfiCond123) R8 Frame(CFA_Y, -2)
          CFI (cfiCond123) R9 Frame(CFA_Y, -1)
          CFI (cfiCond123) CFA_SP SP+4
          CFI (cfiCond123) CFA_Y Y+10
          CFI Block cfiCond124 Using cfiCommon0
          CFI (cfiCond124) Function ??du_main
          CFI (cfiCond124) Conditional ??CrossCallReturnLabel_335
          CFI (cfiCond124) R24 Frame(CFA_Y, -8)
          CFI (cfiCond124) R25 Frame(CFA_Y, -7)
          CFI (cfiCond124) R26 Frame(CFA_Y, -6)
          CFI (cfiCond124) R27 Frame(CFA_Y, -5)
          CFI (cfiCond124) R4 Frame(CFA_Y, -4)
          CFI (cfiCond124) R5 Frame(CFA_Y, -3)
          CFI (cfiCond124) R6 Frame(CFA_Y, -2)
          CFI (cfiCond124) R7 Frame(CFA_Y, -1)
          CFI (cfiCond124) CFA_SP SP+4
          CFI (cfiCond124) CFA_Y Y+8
          CFI Block cfiCond125 Using cfiCommon0
          CFI (cfiCond125) Function ??coding
          CFI (cfiCond125) Conditional ??CrossCallReturnLabel_334
          CFI (cfiCond125) R24 Frame(CFA_Y, -10)
          CFI (cfiCond125) R25 Frame(CFA_Y, -9)
          CFI (cfiCond125) R26 Frame(CFA_Y, -8)
          CFI (cfiCond125) R27 Frame(CFA_Y, -7)
          CFI (cfiCond125) R4 Frame(CFA_Y, -6)
          CFI (cfiCond125) R5 Frame(CFA_Y, -5)
          CFI (cfiCond125) R6 Frame(CFA_Y, -4)
          CFI (cfiCond125) R7 Frame(CFA_Y, -3)
          CFI (cfiCond125) R8 Frame(CFA_Y, -2)
          CFI (cfiCond125) R9 Frame(CFA_Y, -1)
          CFI (cfiCond125) CFA_SP SP+4
          CFI (cfiCond125) CFA_Y Y+10
          CFI Block cfiPicker126 Using cfiCommon2
          CFI (cfiPicker126) NoFunction
          CFI (cfiPicker126) Picker
        RCALL   ?Subroutine100
          CFI EndBlock cfiCond120
          CFI EndBlock cfiCond121
          CFI EndBlock cfiCond122
          CFI EndBlock cfiCond123
          CFI EndBlock cfiCond124
          CFI EndBlock cfiCond125
          CFI EndBlock cfiPicker126
??CrossCallReturnLabel_309:
        REQUIRE ?Subroutine141
        ;               // Fall through to label ?Subroutine141

        RSEG CODE:CODE:NOROOT(1)
?Subroutine141:
          CFI Block cfiCond127 Using cfiCommon0
          CFI Function ??du_main
          CFI Conditional ??CrossCallReturnLabel_335
          CFI R24 Frame(CFA_Y, -8)
          CFI R25 Frame(CFA_Y, -7)
          CFI R26 Frame(CFA_Y, -6)
          CFI R27 Frame(CFA_Y, -5)
          CFI R4 Frame(CFA_Y, -4)
          CFI R5 Frame(CFA_Y, -3)
          CFI R6 Frame(CFA_Y, -2)
          CFI R7 Frame(CFA_Y, -1)
          CFI CFA_SP SP+4
          CFI CFA_Y Y+8
          CFI Block cfiCond128 Using cfiCommon0
          CFI (cfiCond128) Function ??coding
          CFI (cfiCond128) Conditional ??CrossCallReturnLabel_334
          CFI (cfiCond128) R24 Frame(CFA_Y, -10)
          CFI (cfiCond128) R25 Frame(CFA_Y, -9)
          CFI (cfiCond128) R26 Frame(CFA_Y, -8)
          CFI (cfiCond128) R27 Frame(CFA_Y, -7)
          CFI (cfiCond128) R4 Frame(CFA_Y, -6)
          CFI (cfiCond128) R5 Frame(CFA_Y, -5)
          CFI (cfiCond128) R6 Frame(CFA_Y, -4)
          CFI (cfiCond128) R7 Frame(CFA_Y, -3)
          CFI (cfiCond128) R8 Frame(CFA_Y, -2)
          CFI (cfiCond128) R9 Frame(CFA_Y, -1)
          CFI (cfiCond128) CFA_SP SP+4
          CFI (cfiCond128) CFA_Y Y+10
          CFI Block cfiCond129 Using cfiCommon0
          CFI (cfiCond129) Function ??du_main
          CFI (cfiCond129) Conditional ??CrossCallReturnLabel_333
          CFI (cfiCond129) R24 Frame(CFA_Y, -8)
          CFI (cfiCond129) R25 Frame(CFA_Y, -7)
          CFI (cfiCond129) R26 Frame(CFA_Y, -6)
          CFI (cfiCond129) R27 Frame(CFA_Y, -5)
          CFI (cfiCond129) R4 Frame(CFA_Y, -4)
          CFI (cfiCond129) R5 Frame(CFA_Y, -3)
          CFI (cfiCond129) R6 Frame(CFA_Y, -2)
          CFI (cfiCond129) R7 Frame(CFA_Y, -1)
          CFI (cfiCond129) CFA_SP SP+4
          CFI (cfiCond129) CFA_Y Y+8
          CFI Block cfiCond130 Using cfiCommon0
          CFI (cfiCond130) Function ??du_main
          CFI (cfiCond130) Conditional ??CrossCallReturnLabel_332
          CFI (cfiCond130) R24 Frame(CFA_Y, -8)
          CFI (cfiCond130) R25 Frame(CFA_Y, -7)
          CFI (cfiCond130) R26 Frame(CFA_Y, -6)
          CFI (cfiCond130) R27 Frame(CFA_Y, -5)
          CFI (cfiCond130) R4 Frame(CFA_Y, -4)
          CFI (cfiCond130) R5 Frame(CFA_Y, -3)
          CFI (cfiCond130) R6 Frame(CFA_Y, -2)
          CFI (cfiCond130) R7 Frame(CFA_Y, -1)
          CFI (cfiCond130) CFA_SP SP+4
          CFI (cfiCond130) CFA_Y Y+8
          CFI Block cfiCond131 Using cfiCommon0
          CFI (cfiCond131) Function ??coding
          CFI (cfiCond131) Conditional ??CrossCallReturnLabel_331
          CFI (cfiCond131) R24 Frame(CFA_Y, -10)
          CFI (cfiCond131) R25 Frame(CFA_Y, -9)
          CFI (cfiCond131) R26 Frame(CFA_Y, -8)
          CFI (cfiCond131) R27 Frame(CFA_Y, -7)
          CFI (cfiCond131) R4 Frame(CFA_Y, -6)
          CFI (cfiCond131) R5 Frame(CFA_Y, -5)
          CFI (cfiCond131) R6 Frame(CFA_Y, -4)
          CFI (cfiCond131) R7 Frame(CFA_Y, -3)
          CFI (cfiCond131) R8 Frame(CFA_Y, -2)
          CFI (cfiCond131) R9 Frame(CFA_Y, -1)
          CFI (cfiCond131) CFA_SP SP+4
          CFI (cfiCond131) CFA_Y Y+10
          CFI Block cfiCond132 Using cfiCommon0
          CFI (cfiCond132) Function ??coding
          CFI (cfiCond132) Conditional ??CrossCallReturnLabel_330
          CFI (cfiCond132) R24 Frame(CFA_Y, -10)
          CFI (cfiCond132) R25 Frame(CFA_Y, -9)
          CFI (cfiCond132) R26 Frame(CFA_Y, -8)
          CFI (cfiCond132) R27 Frame(CFA_Y, -7)
          CFI (cfiCond132) R4 Frame(CFA_Y, -6)
          CFI (cfiCond132) R5 Frame(CFA_Y, -5)
          CFI (cfiCond132) R6 Frame(CFA_Y, -4)
          CFI (cfiCond132) R7 Frame(CFA_Y, -3)
          CFI (cfiCond132) R8 Frame(CFA_Y, -2)
          CFI (cfiCond132) R9 Frame(CFA_Y, -1)
          CFI (cfiCond132) CFA_SP SP+4
          CFI (cfiCond132) CFA_Y Y+10
          CFI Block cfiCond133 Using cfiCommon0
          CFI (cfiCond133) Function ??du_main
          CFI (cfiCond133) Conditional ??CrossCallReturnLabel_329
          CFI (cfiCond133) R24 Frame(CFA_Y, -8)
          CFI (cfiCond133) R25 Frame(CFA_Y, -7)
          CFI (cfiCond133) R26 Frame(CFA_Y, -6)
          CFI (cfiCond133) R27 Frame(CFA_Y, -5)
          CFI (cfiCond133) R4 Frame(CFA_Y, -4)
          CFI (cfiCond133) R5 Frame(CFA_Y, -3)
          CFI (cfiCond133) R6 Frame(CFA_Y, -2)
          CFI (cfiCond133) R7 Frame(CFA_Y, -1)
          CFI (cfiCond133) CFA_SP SP+4
          CFI (cfiCond133) CFA_Y Y+8
          CFI Block cfiCond134 Using cfiCommon0
          CFI (cfiCond134) Function ??normal
          CFI (cfiCond134) Conditional ??CrossCallReturnLabel_328
          CFI (cfiCond134) R24 Frame(CFA_Y, -1)
          CFI (cfiCond134) CFA_SP SP+4
          CFI (cfiCond134) CFA_Y Y+1
          CFI Block cfiPicker135 Using cfiCommon2
          CFI (cfiPicker135) NoFunction
          CFI (cfiPicker135) Picker
        LDI     R16, 6
        RJMP    ??rprintfFloat
          CFI EndBlock cfiCond127
          CFI EndBlock cfiCond128
          CFI EndBlock cfiCond129
          CFI EndBlock cfiCond130
          CFI EndBlock cfiCond131
          CFI EndBlock cfiCond132
          CFI EndBlock cfiCond133
          CFI EndBlock cfiCond134
          CFI EndBlock cfiPicker135

        RSEG CODE:CODE:NOROOT(1)
?Subroutine26:
          CFI Block cfiCond136 Using cfiCommon0
          CFI Function ??coding
          CFI Conditional ??CrossCallReturnLabel_338
          CFI R24 Frame(CFA_Y, -10)
          CFI R25 Frame(CFA_Y, -9)
          CFI R26 Frame(CFA_Y, -8)
          CFI R27 Frame(CFA_Y, -7)
          CFI R4 Frame(CFA_Y, -6)
          CFI R5 Frame(CFA_Y, -5)
          CFI R6 Frame(CFA_Y, -4)
          CFI R7 Frame(CFA_Y, -3)
          CFI R8 Frame(CFA_Y, -2)
          CFI R9 Frame(CFA_Y, -1)
          CFI CFA_SP SP+4
          CFI CFA_Y Y+10
          CFI Block cfiCond137 Using cfiCommon0
          CFI (cfiCond137) Function ??coding
          CFI (cfiCond137) Conditional ??CrossCallReturnLabel_339
          CFI (cfiCond137) R24 Frame(CFA_Y, -10)
          CFI (cfiCond137) R25 Frame(CFA_Y, -9)
          CFI (cfiCond137) R26 Frame(CFA_Y, -8)
          CFI (cfiCond137) R27 Frame(CFA_Y, -7)
          CFI (cfiCond137) R4 Frame(CFA_Y, -6)
          CFI (cfiCond137) R5 Frame(CFA_Y, -5)
          CFI (cfiCond137) R6 Frame(CFA_Y, -4)
          CFI (cfiCond137) R7 Frame(CFA_Y, -3)
          CFI (cfiCond137) R8 Frame(CFA_Y, -2)
          CFI (cfiCond137) R9 Frame(CFA_Y, -1)
          CFI (cfiCond137) CFA_SP SP+4
          CFI (cfiCond137) CFA_Y Y+10
          CFI Block cfiPicker138 Using cfiCommon2
          CFI (cfiPicker138) NoFunction
          CFI (cfiPicker138) Picker
        RCALL   ?Subroutine98
??CrossCallReturnLabel_363:
        LDI     R30, LOW(c1)
        LDI     R31, (c1) >> 8
          CFI EndBlock cfiCond136
          CFI EndBlock cfiCond137
          CFI EndBlock cfiPicker138
        REQUIRE ?Subroutine130
        ;               // Fall through to label ?Subroutine130

        RSEG CODE:CODE:NOROOT(1)
?Subroutine130:
          CFI Block cfiCond139 Using cfiCommon0
          CFI Function ??coding
          CFI Conditional ??CrossCallReturnLabel_338
          CFI R24 Frame(CFA_Y, -10)
          CFI R25 Frame(CFA_Y, -9)
          CFI R26 Frame(CFA_Y, -8)
          CFI R27 Frame(CFA_Y, -7)
          CFI R4 Frame(CFA_Y, -6)
          CFI R5 Frame(CFA_Y, -5)
          CFI R6 Frame(CFA_Y, -4)
          CFI R7 Frame(CFA_Y, -3)
          CFI R8 Frame(CFA_Y, -2)
          CFI R9 Frame(CFA_Y, -1)
          CFI CFA_SP SP+4
          CFI CFA_Y Y+10
          CFI Block cfiCond140 Using cfiCommon0
          CFI (cfiCond140) Function ??coding
          CFI (cfiCond140) Conditional ??CrossCallReturnLabel_339
          CFI (cfiCond140) R24 Frame(CFA_Y, -10)
          CFI (cfiCond140) R25 Frame(CFA_Y, -9)
          CFI (cfiCond140) R26 Frame(CFA_Y, -8)
          CFI (cfiCond140) R27 Frame(CFA_Y, -7)
          CFI (cfiCond140) R4 Frame(CFA_Y, -6)
          CFI (cfiCond140) R5 Frame(CFA_Y, -5)
          CFI (cfiCond140) R6 Frame(CFA_Y, -4)
          CFI (cfiCond140) R7 Frame(CFA_Y, -3)
          CFI (cfiCond140) R8 Frame(CFA_Y, -2)
          CFI (cfiCond140) R9 Frame(CFA_Y, -1)
          CFI (cfiCond140) CFA_SP SP+4
          CFI (cfiCond140) CFA_Y Y+10
          CFI Block cfiCond141 Using cfiCommon0
          CFI (cfiCond141) Function ??coding
          CFI (cfiCond141) Conditional ??CrossCallReturnLabel_336
          CFI (cfiCond141) R24 Frame(CFA_Y, -10)
          CFI (cfiCond141) R25 Frame(CFA_Y, -9)
          CFI (cfiCond141) R26 Frame(CFA_Y, -8)
          CFI (cfiCond141) R27 Frame(CFA_Y, -7)
          CFI (cfiCond141) R4 Frame(CFA_Y, -6)
          CFI (cfiCond141) R5 Frame(CFA_Y, -5)
          CFI (cfiCond141) R6 Frame(CFA_Y, -4)
          CFI (cfiCond141) R7 Frame(CFA_Y, -3)
          CFI (cfiCond141) R8 Frame(CFA_Y, -2)
          CFI (cfiCond141) R9 Frame(CFA_Y, -1)
          CFI (cfiCond141) CFA_SP SP+4
          CFI (cfiCond141) CFA_Y Y+10
          CFI Block cfiCond142 Using cfiCommon0
          CFI (cfiCond142) Function ??coding
          CFI (cfiCond142) Conditional ??CrossCallReturnLabel_337
          CFI (cfiCond142) R24 Frame(CFA_Y, -10)
          CFI (cfiCond142) R25 Frame(CFA_Y, -9)
          CFI (cfiCond142) R26 Frame(CFA_Y, -8)
          CFI (cfiCond142) R27 Frame(CFA_Y, -7)
          CFI (cfiCond142) R4 Frame(CFA_Y, -6)
          CFI (cfiCond142) R5 Frame(CFA_Y, -5)
          CFI (cfiCond142) R6 Frame(CFA_Y, -4)
          CFI (cfiCond142) R7 Frame(CFA_Y, -3)
          CFI (cfiCond142) R8 Frame(CFA_Y, -2)
          CFI (cfiCond142) R9 Frame(CFA_Y, -1)
          CFI (cfiCond142) CFA_SP SP+4
          CFI (cfiCond142) CFA_Y Y+10
          CFI Block cfiPicker143 Using cfiCommon2
          CFI (cfiPicker143) NoFunction
          CFI (cfiPicker143) Picker
        LD      R16, Z
        SUBI    R16, 254
          CFI EndBlock cfiCond139
          CFI EndBlock cfiCond140
          CFI EndBlock cfiCond141
          CFI EndBlock cfiCond142
          CFI EndBlock cfiPicker143
        REQUIRE ??Subroutine146_0
        ;               // Fall through to label ??Subroutine146_0

        RSEG CODE:CODE:NOROOT(1)
??Subroutine146_0:
          CFI Block cfiCond144 Using cfiCommon0
          CFI Function ??coding
          CFI Conditional ??CrossCallReturnLabel_344, ??CrossCallReturnLabel_37
          CFI R24 Frame(CFA_Y, -10)
          CFI R25 Frame(CFA_Y, -9)
          CFI R26 Frame(CFA_Y, -8)
          CFI R27 Frame(CFA_Y, -7)
          CFI R4 Frame(CFA_Y, -6)
          CFI R5 Frame(CFA_Y, -5)
          CFI R6 Frame(CFA_Y, -4)
          CFI R7 Frame(CFA_Y, -3)
          CFI R8 Frame(CFA_Y, -2)
          CFI R9 Frame(CFA_Y, -1)
          CFI CFA_SP SP+6
          CFI CFA_Y Y+10
          CFI Block cfiCond145 Using cfiCommon0
          CFI (cfiCond145) Function ??coding
          CFI (cfiCond145) Conditional ??CrossCallReturnLabel_344, ??CrossCallReturnLabel_38
          CFI (cfiCond145) R24 Frame(CFA_Y, -10)
          CFI (cfiCond145) R25 Frame(CFA_Y, -9)
          CFI (cfiCond145) R26 Frame(CFA_Y, -8)
          CFI (cfiCond145) R27 Frame(CFA_Y, -7)
          CFI (cfiCond145) R4 Frame(CFA_Y, -6)
          CFI (cfiCond145) R5 Frame(CFA_Y, -5)
          CFI (cfiCond145) R6 Frame(CFA_Y, -4)
          CFI (cfiCond145) R7 Frame(CFA_Y, -3)
          CFI (cfiCond145) R8 Frame(CFA_Y, -2)
          CFI (cfiCond145) R9 Frame(CFA_Y, -1)
          CFI (cfiCond145) CFA_SP SP+6
          CFI (cfiCond145) CFA_Y Y+10
          CFI Block cfiCond146 Using cfiCommon0
          CFI (cfiCond146) Function ??coding
          CFI (cfiCond146) Conditional ??CrossCallReturnLabel_344, ??CrossCallReturnLabel_39
          CFI (cfiCond146) R24 Frame(CFA_Y, -10)
          CFI (cfiCond146) R25 Frame(CFA_Y, -9)
          CFI (cfiCond146) R26 Frame(CFA_Y, -8)
          CFI (cfiCond146) R27 Frame(CFA_Y, -7)
          CFI (cfiCond146) R4 Frame(CFA_Y, -6)
          CFI (cfiCond146) R5 Frame(CFA_Y, -5)
          CFI (cfiCond146) R6 Frame(CFA_Y, -4)
          CFI (cfiCond146) R7 Frame(CFA_Y, -3)
          CFI (cfiCond146) R8 Frame(CFA_Y, -2)
          CFI (cfiCond146) R9 Frame(CFA_Y, -1)
          CFI (cfiCond146) CFA_SP SP+6
          CFI (cfiCond146) CFA_Y Y+10
          CFI Block cfiCond147 Using cfiCommon0
          CFI (cfiCond147) Function ??du_main
          CFI (cfiCond147) Conditional ??CrossCallReturnLabel_340
          CFI (cfiCond147) R24 Frame(CFA_Y, -8)
          CFI (cfiCond147) R25 Frame(CFA_Y, -7)
          CFI (cfiCond147) R26 Frame(CFA_Y, -6)
          CFI (cfiCond147) R27 Frame(CFA_Y, -5)
          CFI (cfiCond147) R4 Frame(CFA_Y, -4)
          CFI (cfiCond147) R5 Frame(CFA_Y, -3)
          CFI (cfiCond147) R6 Frame(CFA_Y, -2)
          CFI (cfiCond147) R7 Frame(CFA_Y, -1)
          CFI (cfiCond147) CFA_SP SP+4
          CFI (cfiCond147) CFA_Y Y+8
          CFI Block cfiCond148 Using cfiCommon0
          CFI (cfiCond148) Function ??migWORK
          CFI (cfiCond148) Conditional ??CrossCallReturnLabel_341
          CFI (cfiCond148) R24 Frame(CFA_Y, -1)
          CFI (cfiCond148) CFA_SP SP+4
          CFI (cfiCond148) CFA_Y Y+1
          CFI Block cfiCond149 Using cfiCommon0
          CFI (cfiCond149) Function main
          CFI (cfiCond149) Conditional ??CrossCallReturnLabel_342
          CFI (cfiCond149) R24 Frame(CFA_Y, -1)
          CFI (cfiCond149) CFA_SP SP+4
          CFI (cfiCond149) CFA_Y Y+1
          CFI Block cfiCond150 Using cfiCommon0
          CFI (cfiCond150) Function ??programming
          CFI (cfiCond150) Conditional ??CrossCallReturnLabel_343, ??CrossCallReturnLabel_12
          CFI (cfiCond150) R24 Frame(CFA_Y, -1)
          CFI (cfiCond150) CFA_SP SP+6
          CFI (cfiCond150) CFA_Y Y+1
          CFI Block cfiCond151 Using cfiCommon0
          CFI (cfiCond151) Function ??programming
          CFI (cfiCond151) Conditional ??CrossCallReturnLabel_343, ??CrossCallReturnLabel_13
          CFI (cfiCond151) R24 Frame(CFA_Y, -1)
          CFI (cfiCond151) CFA_SP SP+6
          CFI (cfiCond151) CFA_Y Y+1
          CFI Block cfiCond152 Using cfiCommon0
          CFI (cfiCond152) Function ??coding
          CFI (cfiCond152) Conditional ??CrossCallReturnLabel_338
          CFI (cfiCond152) R24 Frame(CFA_Y, -10)
          CFI (cfiCond152) R25 Frame(CFA_Y, -9)
          CFI (cfiCond152) R26 Frame(CFA_Y, -8)
          CFI (cfiCond152) R27 Frame(CFA_Y, -7)
          CFI (cfiCond152) R4 Frame(CFA_Y, -6)
          CFI (cfiCond152) R5 Frame(CFA_Y, -5)
          CFI (cfiCond152) R6 Frame(CFA_Y, -4)
          CFI (cfiCond152) R7 Frame(CFA_Y, -3)
          CFI (cfiCond152) R8 Frame(CFA_Y, -2)
          CFI (cfiCond152) R9 Frame(CFA_Y, -1)
          CFI (cfiCond152) CFA_SP SP+4
          CFI (cfiCond152) CFA_Y Y+10
          CFI Block cfiCond153 Using cfiCommon0
          CFI (cfiCond153) Function ??coding
          CFI (cfiCond153) Conditional ??CrossCallReturnLabel_339
          CFI (cfiCond153) R24 Frame(CFA_Y, -10)
          CFI (cfiCond153) R25 Frame(CFA_Y, -9)
          CFI (cfiCond153) R26 Frame(CFA_Y, -8)
          CFI (cfiCond153) R27 Frame(CFA_Y, -7)
          CFI (cfiCond153) R4 Frame(CFA_Y, -6)
          CFI (cfiCond153) R5 Frame(CFA_Y, -5)
          CFI (cfiCond153) R6 Frame(CFA_Y, -4)
          CFI (cfiCond153) R7 Frame(CFA_Y, -3)
          CFI (cfiCond153) R8 Frame(CFA_Y, -2)
          CFI (cfiCond153) R9 Frame(CFA_Y, -1)
          CFI (cfiCond153) CFA_SP SP+4
          CFI (cfiCond153) CFA_Y Y+10
          CFI Block cfiCond154 Using cfiCommon0
          CFI (cfiCond154) Function ??coding
          CFI (cfiCond154) Conditional ??CrossCallReturnLabel_336
          CFI (cfiCond154) R24 Frame(CFA_Y, -10)
          CFI (cfiCond154) R25 Frame(CFA_Y, -9)
          CFI (cfiCond154) R26 Frame(CFA_Y, -8)
          CFI (cfiCond154) R27 Frame(CFA_Y, -7)
          CFI (cfiCond154) R4 Frame(CFA_Y, -6)
          CFI (cfiCond154) R5 Frame(CFA_Y, -5)
          CFI (cfiCond154) R6 Frame(CFA_Y, -4)
          CFI (cfiCond154) R7 Frame(CFA_Y, -3)
          CFI (cfiCond154) R8 Frame(CFA_Y, -2)
          CFI (cfiCond154) R9 Frame(CFA_Y, -1)
          CFI (cfiCond154) CFA_SP SP+4
          CFI (cfiCond154) CFA_Y Y+10
          CFI Block cfiCond155 Using cfiCommon0
          CFI (cfiCond155) Function ??coding
          CFI (cfiCond155) Conditional ??CrossCallReturnLabel_337
          CFI (cfiCond155) R24 Frame(CFA_Y, -10)
          CFI (cfiCond155) R25 Frame(CFA_Y, -9)
          CFI (cfiCond155) R26 Frame(CFA_Y, -8)
          CFI (cfiCond155) R27 Frame(CFA_Y, -7)
          CFI (cfiCond155) R4 Frame(CFA_Y, -6)
          CFI (cfiCond155) R5 Frame(CFA_Y, -5)
          CFI (cfiCond155) R6 Frame(CFA_Y, -4)
          CFI (cfiCond155) R7 Frame(CFA_Y, -3)
          CFI (cfiCond155) R8 Frame(CFA_Y, -2)
          CFI (cfiCond155) R9 Frame(CFA_Y, -1)
          CFI (cfiCond155) CFA_SP SP+4
          CFI (cfiCond155) CFA_Y Y+10
          CFI Block cfiPicker156 Using cfiCommon2
          CFI (cfiPicker156) NoFunction
          CFI (cfiPicker156) Picker
        ST      Z, R16
        RET
          CFI EndBlock cfiCond144
          CFI EndBlock cfiCond145
          CFI EndBlock cfiCond146
          CFI EndBlock cfiCond147
          CFI EndBlock cfiCond148
          CFI EndBlock cfiCond149
          CFI EndBlock cfiCond150
          CFI EndBlock cfiCond151
          CFI EndBlock cfiCond152
          CFI EndBlock cfiCond153
          CFI EndBlock cfiCond154
          CFI EndBlock cfiCond155
          CFI EndBlock cfiPicker156

        RSEG CODE:CODE:NOROOT(1)
?Subroutine25:
          CFI Block cfiCond157 Using cfiCommon0
          CFI Function ??coding
          CFI Conditional ??CrossCallReturnLabel_336
          CFI R24 Frame(CFA_Y, -10)
          CFI R25 Frame(CFA_Y, -9)
          CFI R26 Frame(CFA_Y, -8)
          CFI R27 Frame(CFA_Y, -7)
          CFI R4 Frame(CFA_Y, -6)
          CFI R5 Frame(CFA_Y, -5)
          CFI R6 Frame(CFA_Y, -4)
          CFI R7 Frame(CFA_Y, -3)
          CFI R8 Frame(CFA_Y, -2)
          CFI R9 Frame(CFA_Y, -1)
          CFI CFA_SP SP+4
          CFI CFA_Y Y+10
          CFI Block cfiCond158 Using cfiCommon0
          CFI (cfiCond158) Function ??coding
          CFI (cfiCond158) Conditional ??CrossCallReturnLabel_337
          CFI (cfiCond158) R24 Frame(CFA_Y, -10)
          CFI (cfiCond158) R25 Frame(CFA_Y, -9)
          CFI (cfiCond158) R26 Frame(CFA_Y, -8)
          CFI (cfiCond158) R27 Frame(CFA_Y, -7)
          CFI (cfiCond158) R4 Frame(CFA_Y, -6)
          CFI (cfiCond158) R5 Frame(CFA_Y, -5)
          CFI (cfiCond158) R6 Frame(CFA_Y, -4)
          CFI (cfiCond158) R7 Frame(CFA_Y, -3)
          CFI (cfiCond158) R8 Frame(CFA_Y, -2)
          CFI (cfiCond158) R9 Frame(CFA_Y, -1)
          CFI (cfiCond158) CFA_SP SP+4
          CFI (cfiCond158) CFA_Y Y+10
          CFI Block cfiPicker159 Using cfiCommon2
          CFI (cfiPicker159) NoFunction
          CFI (cfiPicker159) Picker
        RCALL   ?Subroutine98
??CrossCallReturnLabel_362:
        LDI     R30, LOW(c2)
        LDI     R31, (c2) >> 8
        RJMP    ?Subroutine130
          CFI EndBlock cfiCond157
          CFI EndBlock cfiCond158
          CFI EndBlock cfiPicker159

        RSEG CODE:CODE:NOROOT(1)
?Subroutine2:
          CFI Block cfiCond160 Using cfiCommon0
          CFI Function ??coding
          CFI Conditional ??CrossCallReturnLabel_5
          CFI R24 Frame(CFA_Y, -10)
          CFI R25 Frame(CFA_Y, -9)
          CFI R26 Frame(CFA_Y, -8)
          CFI R27 Frame(CFA_Y, -7)
          CFI R4 Frame(CFA_Y, -6)
          CFI R5 Frame(CFA_Y, -5)
          CFI R6 Frame(CFA_Y, -4)
          CFI R7 Frame(CFA_Y, -3)
          CFI R8 Frame(CFA_Y, -2)
          CFI R9 Frame(CFA_Y, -1)
          CFI CFA_SP SP+4
          CFI CFA_Y Y+10
          CFI Block cfiCond161 Using cfiCommon0
          CFI (cfiCond161) Function ??coding
          CFI (cfiCond161) Conditional ??CrossCallReturnLabel_6
          CFI (cfiCond161) R24 Frame(CFA_Y, -10)
          CFI (cfiCond161) R25 Frame(CFA_Y, -9)
          CFI (cfiCond161) R26 Frame(CFA_Y, -8)
          CFI (cfiCond161) R27 Frame(CFA_Y, -7)
          CFI (cfiCond161) R4 Frame(CFA_Y, -6)
          CFI (cfiCond161) R5 Frame(CFA_Y, -5)
          CFI (cfiCond161) R6 Frame(CFA_Y, -4)
          CFI (cfiCond161) R7 Frame(CFA_Y, -3)
          CFI (cfiCond161) R8 Frame(CFA_Y, -2)
          CFI (cfiCond161) R9 Frame(CFA_Y, -1)
          CFI (cfiCond161) CFA_SP SP+4
          CFI (cfiCond161) CFA_Y Y+10
          CFI Block cfiCond162 Using cfiCommon0
          CFI (cfiCond162) Function ??coding
          CFI (cfiCond162) Conditional ??CrossCallReturnLabel_7
          CFI (cfiCond162) R24 Frame(CFA_Y, -10)
          CFI (cfiCond162) R25 Frame(CFA_Y, -9)
          CFI (cfiCond162) R26 Frame(CFA_Y, -8)
          CFI (cfiCond162) R27 Frame(CFA_Y, -7)
          CFI (cfiCond162) R4 Frame(CFA_Y, -6)
          CFI (cfiCond162) R5 Frame(CFA_Y, -5)
          CFI (cfiCond162) R6 Frame(CFA_Y, -4)
          CFI (cfiCond162) R7 Frame(CFA_Y, -3)
          CFI (cfiCond162) R8 Frame(CFA_Y, -2)
          CFI (cfiCond162) R9 Frame(CFA_Y, -1)
          CFI (cfiCond162) CFA_SP SP+4
          CFI (cfiCond162) CFA_Y Y+10
          CFI Block cfiPicker163 Using cfiCommon2
          CFI (cfiPicker163) NoFunction
          CFI (cfiPicker163) Picker
        RCALL   ?Subroutine93
??CrossCallReturnLabel_151:
        OR      R18, R16
        OR      R19, R17
        ADD     R18, R24
        ADC     R19, R25
        ST      Z, R18
        STD     Z+1, R19
        RET
          CFI EndBlock cfiCond160
          CFI EndBlock cfiCond161
          CFI EndBlock cfiCond162
          CFI EndBlock cfiPicker163

        RSEG CODE:CODE:NOROOT(1)
?Subroutine1:
          CFI Block cfiCond164 Using cfiCommon0
          CFI Function ??coding
          CFI Conditional ??CrossCallReturnLabel_2
          CFI R24 Frame(CFA_Y, -10)
          CFI R25 Frame(CFA_Y, -9)
          CFI R26 Frame(CFA_Y, -8)
          CFI R27 Frame(CFA_Y, -7)
          CFI R4 Frame(CFA_Y, -6)
          CFI R5 Frame(CFA_Y, -5)
          CFI R6 Frame(CFA_Y, -4)
          CFI R7 Frame(CFA_Y, -3)
          CFI R8 Frame(CFA_Y, -2)
          CFI R9 Frame(CFA_Y, -1)
          CFI CFA_SP SP+4
          CFI CFA_Y Y+10
          CFI Block cfiCond165 Using cfiCommon0
          CFI (cfiCond165) Function ??coding
          CFI (cfiCond165) Conditional ??CrossCallReturnLabel_3
          CFI (cfiCond165) R24 Frame(CFA_Y, -10)
          CFI (cfiCond165) R25 Frame(CFA_Y, -9)
          CFI (cfiCond165) R26 Frame(CFA_Y, -8)
          CFI (cfiCond165) R27 Frame(CFA_Y, -7)
          CFI (cfiCond165) R4 Frame(CFA_Y, -6)
          CFI (cfiCond165) R5 Frame(CFA_Y, -5)
          CFI (cfiCond165) R6 Frame(CFA_Y, -4)
          CFI (cfiCond165) R7 Frame(CFA_Y, -3)
          CFI (cfiCond165) R8 Frame(CFA_Y, -2)
          CFI (cfiCond165) R9 Frame(CFA_Y, -1)
          CFI (cfiCond165) CFA_SP SP+4
          CFI (cfiCond165) CFA_Y Y+10
          CFI Block cfiCond166 Using cfiCommon0
          CFI (cfiCond166) Function ??coding
          CFI (cfiCond166) Conditional ??CrossCallReturnLabel_4
          CFI (cfiCond166) R24 Frame(CFA_Y, -10)
          CFI (cfiCond166) R25 Frame(CFA_Y, -9)
          CFI (cfiCond166) R26 Frame(CFA_Y, -8)
          CFI (cfiCond166) R27 Frame(CFA_Y, -7)
          CFI (cfiCond166) R4 Frame(CFA_Y, -6)
          CFI (cfiCond166) R5 Frame(CFA_Y, -5)
          CFI (cfiCond166) R6 Frame(CFA_Y, -4)
          CFI (cfiCond166) R7 Frame(CFA_Y, -3)
          CFI (cfiCond166) R8 Frame(CFA_Y, -2)
          CFI (cfiCond166) R9 Frame(CFA_Y, -1)
          CFI (cfiCond166) CFA_SP SP+4
          CFI (cfiCond166) CFA_Y Y+10
          CFI Block cfiPicker167 Using cfiCommon2
          CFI (cfiPicker167) NoFunction
          CFI (cfiPicker167) Picker
        RCALL   ?Subroutine93
??CrossCallReturnLabel_150:
        MOVW    R9:R8, R17:R16
        RCALL   ?Subroutine111
??CrossCallReturnLabel_206:
        LDI     R22, 192
        LDI     R23, 63
        MOVW    R17:R16, R1:R0
        MOVW    R19:R18, R3:R2
        RJMP    ?F_CMP_LT_L04
          CFI EndBlock cfiCond164
          CFI EndBlock cfiCond165
          CFI EndBlock cfiCond166
          CFI EndBlock cfiPicker167

        RSEG CODE:CODE:NOROOT(1)
// __version_3 __interrupt void funTIMER1_OVF_vect()
??funTIMER1_OVF_vect:
          CFI Block cfiBlock168 Using cfiCommon1
          CFI Function ??funTIMER1_OVF_vect
        ST      -Y, R16
          CFI R16 Frame(CFA_Y, -1)
          CFI CFA_Y Y+1
        LDI     R16, 1
        STS     perepoln, R16
          CFI EndBlock cfiBlock168
        REQUIRE ?Subroutine140
        ;               // Fall through to label ?Subroutine140

        RSEG CODE:CODE:NOROOT(1)
?Subroutine140:
          CFI Block cfiBlock169 Using cfiCommon1
          CFI NoFunction
          CFI CFA_Y Y+1
          CFI R16 Frame(CFA_Y, -1)
        LD      R16, Y+
          CFI CFA_Y Y+0
          CFI R16 SameValue
        RETI
          CFI EndBlock cfiBlock169
//   31 #include "SoftTimers.h" 

        RSEG NEAR_Z:DATA:NOROOT(0)
        REQUIRE `?<Segment init: NEAR_Z>`
// unsigned long T1
T1:
        DS8 4

        RSEG NEAR_Z:DATA:NOROOT(0)
        REQUIRE `?<Segment init: NEAR_Z>`
// unsigned long T2
T2:
        DS8 4

        RSEG NEAR_Z:DATA:NOROOT(0)
        REQUIRE `?<Segment init: NEAR_Z>`
// unsigned long T3
T3:
        DS8 4

        RSEG NEAR_Z:DATA:NOROOT(0)
        REQUIRE `?<Segment init: NEAR_Z>`
// bool T1out
T1out:
        DS8 1

        RSEG NEAR_Z:DATA:NOROOT(0)
        REQUIRE `?<Segment init: NEAR_Z>`
// bool T2out
T2out:
        DS8 1

        RSEG NEAR_Z:DATA:NOROOT(0)
        REQUIRE `?<Segment init: NEAR_Z>`
// bool T3out
T3out:
        DS8 1

        RSEG NEAR_Z:DATA:NOROOT(0)
        REQUIRE `?<Segment init: NEAR_Z>`
// unsigned long T1max
T1max:
        DS8 4

        RSEG NEAR_Z:DATA:NOROOT(0)
        REQUIRE `?<Segment init: NEAR_Z>`
// unsigned long T2max
T2max:
        DS8 4

        RSEG NEAR_Z:DATA:NOROOT(0)
        REQUIRE `?<Segment init: NEAR_Z>`
// unsigned long T3max
T3max:
        DS8 4

        RSEG NEAR_Z:DATA:NOROOT(0)
        REQUIRE `?<Segment init: NEAR_Z>`
// unsigned int T1x
T1x:
        DS8 2

        RSEG NEAR_Z:DATA:NOROOT(0)
        REQUIRE `?<Segment init: NEAR_Z>`
// unsigned int T2x
T2x:
        DS8 2

        RSEG NEAR_Z:DATA:NOROOT(0)
        REQUIRE `?<Segment init: NEAR_Z>`
// unsigned int T3x
T3x:
        DS8 2

        RSEG NEAR_I:DATA:NOROOT(0)
        REQUIRE `?<Segment init: NEAR_I>`
// unsigned long Calibr
Calibr:
        DS8 4
        REQUIRE `?<Initializer for Calibr>`

        RSEG NEAR_Z:DATA:NOROOT(0)
        REQUIRE `?<Segment init: NEAR_Z>`
// static unsigned char raz
??raz:
        DS8 1

        RSEG NEAR_I:DATA:NOROOT(0)
        REQUIRE `?<Segment init: NEAR_I>`
// static unsigned char port
??port:
        DS8 1
        REQUIRE `?<Initializer for port>`

        RSEG NEAR_Z:DATA:NOROOT(0)
        REQUIRE `?<Segment init: NEAR_Z>`
// static unsigned char razct
??razct:
        DS8 1

        RSEG CODE:CODE:NOROOT(1)
// __version_3 void ResetT1()
??ResetT1:
          CFI Block cfiBlock170 Using cfiCommon0
          CFI Function ??ResetT1
        LDI     R16, 0
        LDI     R30, LOW(T1)
        LDI     R31, (T1) >> 8
        RCALL   ?Subroutine28
??CrossCallReturnLabel_32:
        LDI     R30, LOW(T1x)
        LDI     R31, (T1x) >> 8
        RCALL   ?Subroutine97
??CrossCallReturnLabel_164:
        STS     T1out, R16
        RET
          CFI EndBlock cfiBlock170

        RSEG CODE:CODE:NOROOT(1)
?Subroutine28:
          CFI Block cfiCond171 Using cfiCommon0
          CFI Function ??du_main
          CFI Conditional ??CrossCallReturnLabel_31
          CFI R24 Frame(CFA_Y, -8)
          CFI R25 Frame(CFA_Y, -7)
          CFI R26 Frame(CFA_Y, -6)
          CFI R27 Frame(CFA_Y, -5)
          CFI R4 Frame(CFA_Y, -4)
          CFI R5 Frame(CFA_Y, -3)
          CFI R6 Frame(CFA_Y, -2)
          CFI R7 Frame(CFA_Y, -1)
          CFI CFA_SP SP+4
          CFI CFA_Y Y+8
          CFI Block cfiCond172 Using cfiCommon0
          CFI (cfiCond172) Function ??ResetT1
          CFI (cfiCond172) Conditional ??CrossCallReturnLabel_32
          CFI (cfiCond172) CFA_SP SP+4
          CFI Block cfiCond173 Using cfiCommon0
          CFI (cfiCond173) Function ??ResetT2
          CFI (cfiCond173) Conditional ??CrossCallReturnLabel_33
          CFI (cfiCond173) CFA_SP SP+4
          CFI Block cfiPicker174 Using cfiCommon2
          CFI (cfiPicker174) NoFunction
          CFI (cfiPicker174) Picker
        RCALL   ?Subroutine97
??CrossCallReturnLabel_170:
        STD     Z+2, R16
        STD     Z+3, R16
        RET
          CFI EndBlock cfiCond171
          CFI EndBlock cfiCond172
          CFI EndBlock cfiCond173
          CFI EndBlock cfiPicker174

        RSEG CODE:CODE:NOROOT(1)
// __version_3 void iniT1(unsigned long)
??iniT1:
          CFI Block cfiBlock175 Using cfiCommon0
          CFI Function ??iniT1
        FUNCALL ??iniT1, ??ResetT1
        LOCFRAME CSTACK, 0, STACK
        LOCFRAME RSTACK, 2, STACK
        ARGFRAME RSTACK, 0, STACK
        LDI     R30, LOW(T1max)
        LDI     R31, (T1max) >> 8
        RCALL   ??Subroutine147_0
??CrossCallReturnLabel_346:
        RJMP    ??ResetT1
          CFI EndBlock cfiBlock175

        RSEG CODE:CODE:NOROOT(1)
// __version_3 void WorkT1()
??WorkT1:
          CFI Block cfiBlock176 Using cfiCommon0
          CFI Function ??WorkT1
        LDS     R16, T1out
        TST     R16
        BRNE    ??WorkT1_1
        LDI     R30, LOW(T1x)
        LDI     R31, (T1x) >> 8
        RCALL   ?Subroutine36
??CrossCallReturnLabel_40:
        RCALL   ?Subroutine98
??CrossCallReturnLabel_357:
        LDI     R18, 0
        LDI     R30, LOW(Calibr)
        LDI     R31, (Calibr) >> 8
        RCALL   ?Subroutine112
??CrossCallReturnLabel_210:
        CPC     R18, R23
        BRCS    ??CrossCallReturnLabel_348
        LDI     R30, LOW(T1x)
        LDI     R31, (T1x) >> 8
        ST      Z, R18
        STD     Z+1, R18
        LDI     R30, LOW(T1)
        LDI     R31, (T1) >> 8
        RCALL   ?Subroutine24
??CrossCallReturnLabel_348:
        LDI     R30, LOW(T1)
        LDI     R31, (T1) >> 8
        RCALL   ?Subroutine104
??CrossCallReturnLabel_183:
        LDI     R30, LOW(T1max)
        LDI     R31, (T1max) >> 8
        RCALL   ?Subroutine63
??CrossCallReturnLabel_90:
        BRCS    ??WorkT1_1
        LDI     R16, 1
        STS     T1out, R16
??WorkT1_1:
        RET
          CFI EndBlock cfiBlock176

        RSEG CODE:CODE:NOROOT(1)
// __version_3 void ResetT2()
??ResetT2:
          CFI Block cfiBlock177 Using cfiCommon0
          CFI Function ??ResetT2
        LDI     R16, 0
        LDI     R30, LOW(T2)
        LDI     R31, (T2) >> 8
        RCALL   ?Subroutine28
??CrossCallReturnLabel_33:
        LDI     R30, LOW(T2x)
        LDI     R31, (T2x) >> 8
        RCALL   ?Subroutine97
          CFI EndBlock cfiBlock177
??CrossCallReturnLabel_165:
        REQUIRE ?Subroutine131
        ;               // Fall through to label ?Subroutine131

        RSEG CODE:CODE:NOROOT(1)
?Subroutine131:
          CFI Block cfiCond178 Using cfiCommon0
          CFI Function ??WorkT2
          CFI Conditional ??CrossCallReturnLabel_252
          CFI R24 Frame(CFA_Y, -3)
          CFI R25 Frame(CFA_Y, -2)
          CFI R26 Frame(CFA_Y, -1)
          CFI CFA_SP SP+4
          CFI CFA_Y Y+3
          CFI Block cfiCond179 Using cfiCommon0
          CFI (cfiCond179) Function ??migWORK
          CFI (cfiCond179) Conditional ??CrossCallReturnLabel_253
          CFI (cfiCond179) R24 Frame(CFA_Y, -1)
          CFI (cfiCond179) CFA_SP SP+4
          CFI (cfiCond179) CFA_Y Y+1
          CFI Block cfiBlock180 Using cfiCommon0
          CFI (cfiBlock180) NoFunction
          CFI Block cfiPicker181 Using cfiCommon2
          CFI (cfiPicker181) NoFunction
          CFI (cfiPicker181) Picker
        STS     T2out, R16
        RET
          CFI EndBlock cfiCond178
          CFI EndBlock cfiCond179
          CFI EndBlock cfiBlock180
          CFI EndBlock cfiPicker181

        RSEG CODE:CODE:NOROOT(1)
// __version_3 void iniT2(unsigned long)
??iniT2:
          CFI Block cfiBlock182 Using cfiCommon0
          CFI Function ??iniT2
        FUNCALL ??iniT2, ??ResetT2
        LOCFRAME CSTACK, 0, STACK
        LOCFRAME RSTACK, 2, STACK
        ARGFRAME RSTACK, 0, STACK
        LDI     R30, LOW(T2max)
        LDI     R31, (T2max) >> 8
        RCALL   ??Subroutine147_0
??CrossCallReturnLabel_347:
        RJMP    ??ResetT2
          CFI EndBlock cfiBlock182

        RSEG CODE:CODE:NOROOT(1)
?Subroutine24:
          CFI Block cfiCond183 Using cfiCommon0
          CFI Function ??WorkT1
          CFI Conditional ??CrossCallReturnLabel_348
          CFI CFA_SP SP+4
          CFI Block cfiCond184 Using cfiCommon0
          CFI (cfiCond184) Function ??WorkT2
          CFI (cfiCond184) Conditional ??CrossCallReturnLabel_349
          CFI (cfiCond184) R24 Frame(CFA_Y, -3)
          CFI (cfiCond184) R25 Frame(CFA_Y, -2)
          CFI (cfiCond184) R26 Frame(CFA_Y, -1)
          CFI (cfiCond184) CFA_SP SP+4
          CFI (cfiCond184) CFA_Y Y+3
          CFI Block cfiPicker185 Using cfiCommon2
          CFI (cfiPicker185) NoFunction
          CFI (cfiPicker185) Picker
        RCALL   ?Subroutine104
??CrossCallReturnLabel_186:
        SUBI    R16, 255
        SBCI    R17, 255
        SBCI    R18, 255
        SBCI    R19, 255
          CFI EndBlock cfiCond183
          CFI EndBlock cfiCond184
          CFI EndBlock cfiPicker185
        REQUIRE ??Subroutine147_0
        ;               // Fall through to label ??Subroutine147_0

        RSEG CODE:CODE:NOROOT(1)
??Subroutine147_0:
          CFI Block cfiCond186 Using cfiCommon0
          CFI Function ??du_main
          CFI Conditional ??CrossCallReturnLabel_345
          CFI R24 Frame(CFA_Y, -8)
          CFI R25 Frame(CFA_Y, -7)
          CFI R26 Frame(CFA_Y, -6)
          CFI R27 Frame(CFA_Y, -5)
          CFI R4 Frame(CFA_Y, -4)
          CFI R5 Frame(CFA_Y, -3)
          CFI R6 Frame(CFA_Y, -2)
          CFI R7 Frame(CFA_Y, -1)
          CFI CFA_SP SP+4
          CFI CFA_Y Y+8
          CFI Block cfiCond187 Using cfiCommon0
          CFI (cfiCond187) Function ??iniT1
          CFI (cfiCond187) Conditional ??CrossCallReturnLabel_346
          CFI (cfiCond187) CFA_SP SP+4
          CFI Block cfiCond188 Using cfiCommon0
          CFI (cfiCond188) Function ??iniT2
          CFI (cfiCond188) Conditional ??CrossCallReturnLabel_347
          CFI (cfiCond188) CFA_SP SP+4
          CFI Block cfiCond189 Using cfiCommon0
          CFI (cfiCond189) Function ??WorkT1
          CFI (cfiCond189) Conditional ??CrossCallReturnLabel_348
          CFI (cfiCond189) CFA_SP SP+4
          CFI Block cfiCond190 Using cfiCommon0
          CFI (cfiCond190) Function ??WorkT2
          CFI (cfiCond190) Conditional ??CrossCallReturnLabel_349
          CFI (cfiCond190) R24 Frame(CFA_Y, -3)
          CFI (cfiCond190) R25 Frame(CFA_Y, -2)
          CFI (cfiCond190) R26 Frame(CFA_Y, -1)
          CFI (cfiCond190) CFA_SP SP+4
          CFI (cfiCond190) CFA_Y Y+3
          CFI Block cfiPicker191 Using cfiCommon2
          CFI (cfiPicker191) NoFunction
          CFI (cfiPicker191) Picker
        RCALL   ?Subroutine98
??CrossCallReturnLabel_364:
        STD     Z+2, R18
        STD     Z+3, R19
        RET
          CFI EndBlock cfiCond186
          CFI EndBlock cfiCond187
          CFI EndBlock cfiCond188
          CFI EndBlock cfiCond189
          CFI EndBlock cfiCond190
          CFI EndBlock cfiPicker191

        RSEG CODE:CODE:NOROOT(1)
// __version_3 void WorkT2()
??WorkT2:
          CFI Block cfiBlock192 Using cfiCommon0
          CFI Function ??WorkT2
        RCALL   ?PROLOGUE3_L09
          CFI R26 Frame(CFA_Y, -1)
          CFI R25 Frame(CFA_Y, -2)
          CFI R24 Frame(CFA_Y, -3)
          CFI CFA_Y Y+3
        LDS     R16, T2out
        TST     R16
        BRNE    ??CrossCallReturnLabel_252
        LDI     R30, LOW(T2x)
        LDI     R31, (T2x) >> 8
        RCALL   ?Subroutine36
??CrossCallReturnLabel_41:
        RCALL   ?Subroutine98
??CrossCallReturnLabel_358:
        MOVW    R25:R24, R17:R16
        LDI     R26, 0
        LDI     R20, 232
        LDI     R21, 3
        LDI     R22, 0
        LDI     R23, 0
        LDI     R30, LOW(Calibr)
        LDI     R31, (Calibr) >> 8
        RCALL   ?Subroutine104
??CrossCallReturnLabel_184:
        RCALL   ?UL_DIVMOD_L03
        CP      R24, R16
        CPC     R25, R17
        CPC     R26, R18
        CPC     R26, R19
        BRCS    ??CrossCallReturnLabel_349
        LDI     R30, LOW(T2x)
        LDI     R31, (T2x) >> 8
        ST      Z, R26
        STD     Z+1, R26
        LDI     R30, LOW(T2)
        LDI     R31, (T2) >> 8
        RCALL   ?Subroutine24
??CrossCallReturnLabel_349:
        LDI     R30, LOW(T2)
        LDI     R31, (T2) >> 8
        RCALL   ?Subroutine104
??CrossCallReturnLabel_185:
        LDI     R30, LOW(T2max)
        LDI     R31, (T2max) >> 8
        RCALL   ?Subroutine63
??CrossCallReturnLabel_91:
        BRCS    ??CrossCallReturnLabel_252
        RCALL   ?Subroutine7
??CrossCallReturnLabel_252:
        LDI     R30, 3
        RJMP    ?EPILOGUE_B3_L09
          CFI EndBlock cfiBlock192

        RSEG CODE:CODE:NOROOT(1)
?Subroutine63:
          CFI Block cfiCond193 Using cfiCommon0
          CFI Function ??WorkT1
          CFI Conditional ??CrossCallReturnLabel_90
          CFI CFA_SP SP+4
          CFI Block cfiCond194 Using cfiCommon0
          CFI (cfiCond194) Function ??WorkT2
          CFI (cfiCond194) Conditional ??CrossCallReturnLabel_91
          CFI (cfiCond194) R24 Frame(CFA_Y, -3)
          CFI (cfiCond194) R25 Frame(CFA_Y, -2)
          CFI (cfiCond194) R26 Frame(CFA_Y, -1)
          CFI (cfiCond194) CFA_SP SP+4
          CFI (cfiCond194) CFA_Y Y+3
          CFI Block cfiPicker195 Using cfiCommon2
          CFI (cfiPicker195) NoFunction
          CFI (cfiPicker195) Picker
        RCALL   ?Subroutine112
??CrossCallReturnLabel_211:
        CPC     R19, R23
        RET
          CFI EndBlock cfiCond193
          CFI EndBlock cfiCond194
          CFI EndBlock cfiPicker195

        RSEG CODE:CODE:NOROOT(1)
?Subroutine112:
          CFI Block cfiCond196 Using cfiCommon0
          CFI Function ??WorkT1
          CFI Conditional ??CrossCallReturnLabel_210
          CFI CFA_SP SP+4
          CFI Block cfiCond197 Using cfiCommon0
          CFI (cfiCond197) Function ??WorkT1
          CFI (cfiCond197) Conditional ??CrossCallReturnLabel_211, ??CrossCallReturnLabel_90
          CFI (cfiCond197) CFA_SP SP+6
          CFI Block cfiCond198 Using cfiCommon0
          CFI (cfiCond198) Function ??WorkT2
          CFI (cfiCond198) Conditional ??CrossCallReturnLabel_211, ??CrossCallReturnLabel_91
          CFI (cfiCond198) R24 Frame(CFA_Y, -3)
          CFI (cfiCond198) R25 Frame(CFA_Y, -2)
          CFI (cfiCond198) R26 Frame(CFA_Y, -1)
          CFI (cfiCond198) CFA_SP SP+6
          CFI (cfiCond198) CFA_Y Y+3
          CFI Block cfiPicker199 Using cfiCommon2
          CFI (cfiPicker199) NoFunction
          CFI (cfiPicker199) Picker
        LD      R20, Z
        LDD     R21, Z+1
        LDD     R22, Z+2
        LDD     R23, Z+3
        CP      R16, R20
        CPC     R17, R21
        CPC     R18, R22
        RET
          CFI EndBlock cfiCond196
          CFI EndBlock cfiCond197
          CFI EndBlock cfiCond198
          CFI EndBlock cfiPicker199

        RSEG CODE:CODE:NOROOT(1)
?Subroutine104:
          CFI Block cfiCond200 Using cfiCommon0
          CFI Function ??WorkT1
          CFI Conditional ??CrossCallReturnLabel_186, ??CrossCallReturnLabel_348
          CFI CFA_SP SP+6
          CFI Block cfiCond201 Using cfiCommon0
          CFI (cfiCond201) Function ??WorkT2
          CFI (cfiCond201) Conditional ??CrossCallReturnLabel_186, ??CrossCallReturnLabel_349
          CFI (cfiCond201) R24 Frame(CFA_Y, -3)
          CFI (cfiCond201) R25 Frame(CFA_Y, -2)
          CFI (cfiCond201) R26 Frame(CFA_Y, -1)
          CFI (cfiCond201) CFA_SP SP+6
          CFI (cfiCond201) CFA_Y Y+3
          CFI Block cfiCond202 Using cfiCommon0
          CFI (cfiCond202) Function ??WorkT1
          CFI (cfiCond202) Conditional ??CrossCallReturnLabel_183
          CFI (cfiCond202) CFA_SP SP+4
          CFI Block cfiCond203 Using cfiCommon0
          CFI (cfiCond203) Function ??WorkT2
          CFI (cfiCond203) Conditional ??CrossCallReturnLabel_184
          CFI (cfiCond203) R24 Frame(CFA_Y, -3)
          CFI (cfiCond203) R25 Frame(CFA_Y, -2)
          CFI (cfiCond203) R26 Frame(CFA_Y, -1)
          CFI (cfiCond203) CFA_SP SP+4
          CFI (cfiCond203) CFA_Y Y+3
          CFI Block cfiCond204 Using cfiCommon0
          CFI (cfiCond204) Function ??WorkT2
          CFI (cfiCond204) Conditional ??CrossCallReturnLabel_185
          CFI (cfiCond204) R24 Frame(CFA_Y, -3)
          CFI (cfiCond204) R25 Frame(CFA_Y, -2)
          CFI (cfiCond204) R26 Frame(CFA_Y, -1)
          CFI (cfiCond204) CFA_SP SP+4
          CFI (cfiCond204) CFA_Y Y+3
          CFI Block cfiPicker205 Using cfiCommon2
          CFI (cfiPicker205) NoFunction
          CFI (cfiPicker205) Picker
        RCALL   ?Subroutine125
??CrossCallReturnLabel_321:
        LDD     R18, Z+2
        LDD     R19, Z+3
        RET
          CFI EndBlock cfiCond200
          CFI EndBlock cfiCond201
          CFI EndBlock cfiCond202
          CFI EndBlock cfiCond203
          CFI EndBlock cfiCond204
          CFI EndBlock cfiPicker205

        RSEG CODE:CODE:NOROOT(1)
?Subroutine36:
          CFI Block cfiCond206 Using cfiCommon0
          CFI Function ??WorkT1
          CFI Conditional ??CrossCallReturnLabel_40
          CFI CFA_SP SP+4
          CFI Block cfiCond207 Using cfiCommon0
          CFI (cfiCond207) Function ??WorkT2
          CFI (cfiCond207) Conditional ??CrossCallReturnLabel_41
          CFI (cfiCond207) R24 Frame(CFA_Y, -3)
          CFI (cfiCond207) R25 Frame(CFA_Y, -2)
          CFI (cfiCond207) R26 Frame(CFA_Y, -1)
          CFI (cfiCond207) CFA_SP SP+4
          CFI (cfiCond207) CFA_Y Y+3
          CFI Block cfiCond208 Using cfiCommon0
          CFI (cfiCond208) Function ??normal
          CFI (cfiCond208) Conditional ??CrossCallReturnLabel_42
          CFI (cfiCond208) R24 Frame(CFA_Y, -1)
          CFI (cfiCond208) CFA_SP SP+4
          CFI (cfiCond208) CFA_Y Y+1
          CFI Block cfiPicker209 Using cfiCommon2
          CFI (cfiPicker209) NoFunction
          CFI (cfiPicker209) Picker
        RCALL   ?Subroutine125
??CrossCallReturnLabel_318:
        SUBI    R16, 255
        SBCI    R17, 255
        RET
          CFI EndBlock cfiCond206
          CFI EndBlock cfiCond207
          CFI EndBlock cfiCond208
          CFI EndBlock cfiPicker209

        RSEG CODE:CODE:NOROOT(1)
?Subroutine27:
          CFI Block cfiCond210 Using cfiCommon0
          CFI Function ??coding
          CFI Conditional ??CrossCallReturnLabel_367
          CFI R24 Frame(CFA_Y, -10)
          CFI R25 Frame(CFA_Y, -9)
          CFI R26 Frame(CFA_Y, -8)
          CFI R27 Frame(CFA_Y, -7)
          CFI R4 Frame(CFA_Y, -6)
          CFI R5 Frame(CFA_Y, -5)
          CFI R6 Frame(CFA_Y, -4)
          CFI R7 Frame(CFA_Y, -3)
          CFI R8 Frame(CFA_Y, -2)
          CFI R9 Frame(CFA_Y, -1)
          CFI CFA_SP SP+4
          CFI CFA_Y Y+10
          CFI Block cfiCond211 Using cfiCommon0
          CFI (cfiCond211) Function ??coding
          CFI (cfiCond211) Conditional ??CrossCallReturnLabel_368
          CFI (cfiCond211) R24 Frame(CFA_Y, -10)
          CFI (cfiCond211) R25 Frame(CFA_Y, -9)
          CFI (cfiCond211) R26 Frame(CFA_Y, -8)
          CFI (cfiCond211) R27 Frame(CFA_Y, -7)
          CFI (cfiCond211) R4 Frame(CFA_Y, -6)
          CFI (cfiCond211) R5 Frame(CFA_Y, -5)
          CFI (cfiCond211) R6 Frame(CFA_Y, -4)
          CFI (cfiCond211) R7 Frame(CFA_Y, -3)
          CFI (cfiCond211) R8 Frame(CFA_Y, -2)
          CFI (cfiCond211) R9 Frame(CFA_Y, -1)
          CFI (cfiCond211) CFA_SP SP+4
          CFI (cfiCond211) CFA_Y Y+10
          CFI Block cfiCond212 Using cfiCommon0
          CFI (cfiCond212) Function ??coding
          CFI (cfiCond212) Conditional ??CrossCallReturnLabel_369
          CFI (cfiCond212) R24 Frame(CFA_Y, -10)
          CFI (cfiCond212) R25 Frame(CFA_Y, -9)
          CFI (cfiCond212) R26 Frame(CFA_Y, -8)
          CFI (cfiCond212) R27 Frame(CFA_Y, -7)
          CFI (cfiCond212) R4 Frame(CFA_Y, -6)
          CFI (cfiCond212) R5 Frame(CFA_Y, -5)
          CFI (cfiCond212) R6 Frame(CFA_Y, -4)
          CFI (cfiCond212) R7 Frame(CFA_Y, -3)
          CFI (cfiCond212) R8 Frame(CFA_Y, -2)
          CFI (cfiCond212) R9 Frame(CFA_Y, -1)
          CFI (cfiCond212) CFA_SP SP+4
          CFI (cfiCond212) CFA_Y Y+10
          CFI Block cfiPicker213 Using cfiCommon2
          CFI (cfiPicker213) NoFunction
          CFI (cfiPicker213) Picker
        RCALL   ?Subroutine125
          CFI EndBlock cfiCond210
          CFI EndBlock cfiCond211
          CFI EndBlock cfiCond212
          CFI EndBlock cfiPicker213
??CrossCallReturnLabel_317:
        REQUIRE ?Subroutine98
        REQUIRE ??Subroutine148_0
        ;               // Fall through to label ??Subroutine148_0

        RSEG CODE:CODE:NOROOT(1)
??Subroutine148_0:
          CFI Block cfiCond214 Using cfiCommon0
          CFI Function ??coding
          CFI Conditional ??CrossCallReturnLabel_365
          CFI R24 Frame(CFA_Y, -10)
          CFI R25 Frame(CFA_Y, -9)
          CFI R26 Frame(CFA_Y, -8)
          CFI R27 Frame(CFA_Y, -7)
          CFI R4 Frame(CFA_Y, -6)
          CFI R5 Frame(CFA_Y, -5)
          CFI R6 Frame(CFA_Y, -4)
          CFI R7 Frame(CFA_Y, -3)
          CFI R8 Frame(CFA_Y, -2)
          CFI R9 Frame(CFA_Y, -1)
          CFI CFA_SP SP+4
          CFI CFA_Y Y+10
          CFI Block cfiCond215 Using cfiCommon0
          CFI (cfiCond215) Function ??coding
          CFI (cfiCond215) Conditional ??CrossCallReturnLabel_366
          CFI (cfiCond215) R24 Frame(CFA_Y, -10)
          CFI (cfiCond215) R25 Frame(CFA_Y, -9)
          CFI (cfiCond215) R26 Frame(CFA_Y, -8)
          CFI (cfiCond215) R27 Frame(CFA_Y, -7)
          CFI (cfiCond215) R4 Frame(CFA_Y, -6)
          CFI (cfiCond215) R5 Frame(CFA_Y, -5)
          CFI (cfiCond215) R6 Frame(CFA_Y, -4)
          CFI (cfiCond215) R7 Frame(CFA_Y, -3)
          CFI (cfiCond215) R8 Frame(CFA_Y, -2)
          CFI (cfiCond215) R9 Frame(CFA_Y, -1)
          CFI (cfiCond215) CFA_SP SP+4
          CFI (cfiCond215) CFA_Y Y+10
          CFI Block cfiCond216 Using cfiCommon0
          CFI (cfiCond216) Function ??coding
          CFI (cfiCond216) Conditional ??CrossCallReturnLabel_367
          CFI (cfiCond216) R24 Frame(CFA_Y, -10)
          CFI (cfiCond216) R25 Frame(CFA_Y, -9)
          CFI (cfiCond216) R26 Frame(CFA_Y, -8)
          CFI (cfiCond216) R27 Frame(CFA_Y, -7)
          CFI (cfiCond216) R4 Frame(CFA_Y, -6)
          CFI (cfiCond216) R5 Frame(CFA_Y, -5)
          CFI (cfiCond216) R6 Frame(CFA_Y, -4)
          CFI (cfiCond216) R7 Frame(CFA_Y, -3)
          CFI (cfiCond216) R8 Frame(CFA_Y, -2)
          CFI (cfiCond216) R9 Frame(CFA_Y, -1)
          CFI (cfiCond216) CFA_SP SP+4
          CFI (cfiCond216) CFA_Y Y+10
          CFI Block cfiCond217 Using cfiCommon0
          CFI (cfiCond217) Function ??coding
          CFI (cfiCond217) Conditional ??CrossCallReturnLabel_368
          CFI (cfiCond217) R24 Frame(CFA_Y, -10)
          CFI (cfiCond217) R25 Frame(CFA_Y, -9)
          CFI (cfiCond217) R26 Frame(CFA_Y, -8)
          CFI (cfiCond217) R27 Frame(CFA_Y, -7)
          CFI (cfiCond217) R4 Frame(CFA_Y, -6)
          CFI (cfiCond217) R5 Frame(CFA_Y, -5)
          CFI (cfiCond217) R6 Frame(CFA_Y, -4)
          CFI (cfiCond217) R7 Frame(CFA_Y, -3)
          CFI (cfiCond217) R8 Frame(CFA_Y, -2)
          CFI (cfiCond217) R9 Frame(CFA_Y, -1)
          CFI (cfiCond217) CFA_SP SP+4
          CFI (cfiCond217) CFA_Y Y+10
          CFI Block cfiCond218 Using cfiCommon0
          CFI (cfiCond218) Function ??coding
          CFI (cfiCond218) Conditional ??CrossCallReturnLabel_369
          CFI (cfiCond218) R24 Frame(CFA_Y, -10)
          CFI (cfiCond218) R25 Frame(CFA_Y, -9)
          CFI (cfiCond218) R26 Frame(CFA_Y, -8)
          CFI (cfiCond218) R27 Frame(CFA_Y, -7)
          CFI (cfiCond218) R4 Frame(CFA_Y, -6)
          CFI (cfiCond218) R5 Frame(CFA_Y, -5)
          CFI (cfiCond218) R6 Frame(CFA_Y, -4)
          CFI (cfiCond218) R7 Frame(CFA_Y, -3)
          CFI (cfiCond218) R8 Frame(CFA_Y, -2)
          CFI (cfiCond218) R9 Frame(CFA_Y, -1)
          CFI (cfiCond218) CFA_SP SP+4
          CFI (cfiCond218) CFA_Y Y+10
          CFI Block cfiPicker219 Using cfiCommon2
          CFI (cfiPicker219) NoFunction
          CFI (cfiPicker219) Picker
        ADD     R16, R24
        ADC     R17, R25
          CFI EndBlock cfiCond214
          CFI EndBlock cfiCond215
          CFI EndBlock cfiCond216
          CFI EndBlock cfiCond217
          CFI EndBlock cfiCond218
          CFI EndBlock cfiPicker219
        REQUIRE ?Subroutine98
        ;               // Fall through to label ?Subroutine98

        RSEG CODE:CODE:NOROOT(1)
?Subroutine98:
          CFI Block cfiCond220 Using cfiCommon0
          CFI Function ??coding
          CFI Conditional ??CrossCallReturnLabel_363, ??CrossCallReturnLabel_338
          CFI R24 Frame(CFA_Y, -10)
          CFI R25 Frame(CFA_Y, -9)
          CFI R26 Frame(CFA_Y, -8)
          CFI R27 Frame(CFA_Y, -7)
          CFI R4 Frame(CFA_Y, -6)
          CFI R5 Frame(CFA_Y, -5)
          CFI R6 Frame(CFA_Y, -4)
          CFI R7 Frame(CFA_Y, -3)
          CFI R8 Frame(CFA_Y, -2)
          CFI R9 Frame(CFA_Y, -1)
          CFI CFA_SP SP+6
          CFI CFA_Y Y+10
          CFI Block cfiCond221 Using cfiCommon0
          CFI (cfiCond221) Function ??coding
          CFI (cfiCond221) Conditional ??CrossCallReturnLabel_363, ??CrossCallReturnLabel_339
          CFI (cfiCond221) R24 Frame(CFA_Y, -10)
          CFI (cfiCond221) R25 Frame(CFA_Y, -9)
          CFI (cfiCond221) R26 Frame(CFA_Y, -8)
          CFI (cfiCond221) R27 Frame(CFA_Y, -7)
          CFI (cfiCond221) R4 Frame(CFA_Y, -6)
          CFI (cfiCond221) R5 Frame(CFA_Y, -5)
          CFI (cfiCond221) R6 Frame(CFA_Y, -4)
          CFI (cfiCond221) R7 Frame(CFA_Y, -3)
          CFI (cfiCond221) R8 Frame(CFA_Y, -2)
          CFI (cfiCond221) R9 Frame(CFA_Y, -1)
          CFI (cfiCond221) CFA_SP SP+6
          CFI (cfiCond221) CFA_Y Y+10
          CFI Block cfiCond222 Using cfiCommon0
          CFI (cfiCond222) Function ??coding
          CFI (cfiCond222) Conditional ??CrossCallReturnLabel_362, ??CrossCallReturnLabel_336
          CFI (cfiCond222) R24 Frame(CFA_Y, -10)
          CFI (cfiCond222) R25 Frame(CFA_Y, -9)
          CFI (cfiCond222) R26 Frame(CFA_Y, -8)
          CFI (cfiCond222) R27 Frame(CFA_Y, -7)
          CFI (cfiCond222) R4 Frame(CFA_Y, -6)
          CFI (cfiCond222) R5 Frame(CFA_Y, -5)
          CFI (cfiCond222) R6 Frame(CFA_Y, -4)
          CFI (cfiCond222) R7 Frame(CFA_Y, -3)
          CFI (cfiCond222) R8 Frame(CFA_Y, -2)
          CFI (cfiCond222) R9 Frame(CFA_Y, -1)
          CFI (cfiCond222) CFA_SP SP+6
          CFI (cfiCond222) CFA_Y Y+10
          CFI Block cfiCond223 Using cfiCommon0
          CFI (cfiCond223) Function ??coding
          CFI (cfiCond223) Conditional ??CrossCallReturnLabel_362, ??CrossCallReturnLabel_337
          CFI (cfiCond223) R24 Frame(CFA_Y, -10)
          CFI (cfiCond223) R25 Frame(CFA_Y, -9)
          CFI (cfiCond223) R26 Frame(CFA_Y, -8)
          CFI (cfiCond223) R27 Frame(CFA_Y, -7)
          CFI (cfiCond223) R4 Frame(CFA_Y, -6)
          CFI (cfiCond223) R5 Frame(CFA_Y, -5)
          CFI (cfiCond223) R6 Frame(CFA_Y, -4)
          CFI (cfiCond223) R7 Frame(CFA_Y, -3)
          CFI (cfiCond223) R8 Frame(CFA_Y, -2)
          CFI (cfiCond223) R9 Frame(CFA_Y, -1)
          CFI (cfiCond223) CFA_SP SP+6
          CFI (cfiCond223) CFA_Y Y+10
          CFI Block cfiCond224 Using cfiCommon0
          CFI (cfiCond224) Function ??WorkT1
          CFI (cfiCond224) Conditional ??CrossCallReturnLabel_364, ??CrossCallReturnLabel_348
          CFI (cfiCond224) CFA_SP SP+6
          CFI Block cfiCond225 Using cfiCommon0
          CFI (cfiCond225) Function ??WorkT2
          CFI (cfiCond225) Conditional ??CrossCallReturnLabel_364, ??CrossCallReturnLabel_349
          CFI (cfiCond225) R24 Frame(CFA_Y, -3)
          CFI (cfiCond225) R25 Frame(CFA_Y, -2)
          CFI (cfiCond225) R26 Frame(CFA_Y, -1)
          CFI (cfiCond225) CFA_SP SP+6
          CFI (cfiCond225) CFA_Y Y+3
          CFI Block cfiCond226 Using cfiCommon0
          CFI (cfiCond226) Function ??du_main
          CFI (cfiCond226) Conditional ??CrossCallReturnLabel_364, ??CrossCallReturnLabel_345
          CFI (cfiCond226) R24 Frame(CFA_Y, -8)
          CFI (cfiCond226) R25 Frame(CFA_Y, -7)
          CFI (cfiCond226) R26 Frame(CFA_Y, -6)
          CFI (cfiCond226) R27 Frame(CFA_Y, -5)
          CFI (cfiCond226) R4 Frame(CFA_Y, -4)
          CFI (cfiCond226) R5 Frame(CFA_Y, -3)
          CFI (cfiCond226) R6 Frame(CFA_Y, -2)
          CFI (cfiCond226) R7 Frame(CFA_Y, -1)
          CFI (cfiCond226) CFA_SP SP+6
          CFI (cfiCond226) CFA_Y Y+8
          CFI Block cfiCond227 Using cfiCommon0
          CFI (cfiCond227) Function ??iniT1
          CFI (cfiCond227) Conditional ??CrossCallReturnLabel_364, ??CrossCallReturnLabel_346
          CFI (cfiCond227) CFA_SP SP+6
          CFI Block cfiCond228 Using cfiCommon0
          CFI (cfiCond228) Function ??iniT2
          CFI (cfiCond228) Conditional ??CrossCallReturnLabel_364, ??CrossCallReturnLabel_347
          CFI (cfiCond228) CFA_SP SP+6
          CFI Block cfiCond229 Using cfiCommon0
          CFI (cfiCond229) Function ??coding
          CFI (cfiCond229) Conditional ??CrossCallReturnLabel_367
          CFI (cfiCond229) R24 Frame(CFA_Y, -10)
          CFI (cfiCond229) R25 Frame(CFA_Y, -9)
          CFI (cfiCond229) R26 Frame(CFA_Y, -8)
          CFI (cfiCond229) R27 Frame(CFA_Y, -7)
          CFI (cfiCond229) R4 Frame(CFA_Y, -6)
          CFI (cfiCond229) R5 Frame(CFA_Y, -5)
          CFI (cfiCond229) R6 Frame(CFA_Y, -4)
          CFI (cfiCond229) R7 Frame(CFA_Y, -3)
          CFI (cfiCond229) R8 Frame(CFA_Y, -2)
          CFI (cfiCond229) R9 Frame(CFA_Y, -1)
          CFI (cfiCond229) CFA_SP SP+4
          CFI (cfiCond229) CFA_Y Y+10
          CFI Block cfiCond230 Using cfiCommon0
          CFI (cfiCond230) Function ??coding
          CFI (cfiCond230) Conditional ??CrossCallReturnLabel_368
          CFI (cfiCond230) R24 Frame(CFA_Y, -10)
          CFI (cfiCond230) R25 Frame(CFA_Y, -9)
          CFI (cfiCond230) R26 Frame(CFA_Y, -8)
          CFI (cfiCond230) R27 Frame(CFA_Y, -7)
          CFI (cfiCond230) R4 Frame(CFA_Y, -6)
          CFI (cfiCond230) R5 Frame(CFA_Y, -5)
          CFI (cfiCond230) R6 Frame(CFA_Y, -4)
          CFI (cfiCond230) R7 Frame(CFA_Y, -3)
          CFI (cfiCond230) R8 Frame(CFA_Y, -2)
          CFI (cfiCond230) R9 Frame(CFA_Y, -1)
          CFI (cfiCond230) CFA_SP SP+4
          CFI (cfiCond230) CFA_Y Y+10
          CFI Block cfiCond231 Using cfiCommon0
          CFI (cfiCond231) Function ??coding
          CFI (cfiCond231) Conditional ??CrossCallReturnLabel_369
          CFI (cfiCond231) R24 Frame(CFA_Y, -10)
          CFI (cfiCond231) R25 Frame(CFA_Y, -9)
          CFI (cfiCond231) R26 Frame(CFA_Y, -8)
          CFI (cfiCond231) R27 Frame(CFA_Y, -7)
          CFI (cfiCond231) R4 Frame(CFA_Y, -6)
          CFI (cfiCond231) R5 Frame(CFA_Y, -5)
          CFI (cfiCond231) R6 Frame(CFA_Y, -4)
          CFI (cfiCond231) R7 Frame(CFA_Y, -3)
          CFI (cfiCond231) R8 Frame(CFA_Y, -2)
          CFI (cfiCond231) R9 Frame(CFA_Y, -1)
          CFI (cfiCond231) CFA_SP SP+4
          CFI (cfiCond231) CFA_Y Y+10
          CFI Block cfiCond232 Using cfiCommon0
          CFI (cfiCond232) Function ??coding
          CFI (cfiCond232) Conditional ??CrossCallReturnLabel_365
          CFI (cfiCond232) R24 Frame(CFA_Y, -10)
          CFI (cfiCond232) R25 Frame(CFA_Y, -9)
          CFI (cfiCond232) R26 Frame(CFA_Y, -8)
          CFI (cfiCond232) R27 Frame(CFA_Y, -7)
          CFI (cfiCond232) R4 Frame(CFA_Y, -6)
          CFI (cfiCond232) R5 Frame(CFA_Y, -5)
          CFI (cfiCond232) R6 Frame(CFA_Y, -4)
          CFI (cfiCond232) R7 Frame(CFA_Y, -3)
          CFI (cfiCond232) R8 Frame(CFA_Y, -2)
          CFI (cfiCond232) R9 Frame(CFA_Y, -1)
          CFI (cfiCond232) CFA_SP SP+4
          CFI (cfiCond232) CFA_Y Y+10
          CFI Block cfiCond233 Using cfiCommon0
          CFI (cfiCond233) Function ??coding
          CFI (cfiCond233) Conditional ??CrossCallReturnLabel_366
          CFI (cfiCond233) R24 Frame(CFA_Y, -10)
          CFI (cfiCond233) R25 Frame(CFA_Y, -9)
          CFI (cfiCond233) R26 Frame(CFA_Y, -8)
          CFI (cfiCond233) R27 Frame(CFA_Y, -7)
          CFI (cfiCond233) R4 Frame(CFA_Y, -6)
          CFI (cfiCond233) R5 Frame(CFA_Y, -5)
          CFI (cfiCond233) R6 Frame(CFA_Y, -4)
          CFI (cfiCond233) R7 Frame(CFA_Y, -3)
          CFI (cfiCond233) R8 Frame(CFA_Y, -2)
          CFI (cfiCond233) R9 Frame(CFA_Y, -1)
          CFI (cfiCond233) CFA_SP SP+4
          CFI (cfiCond233) CFA_Y Y+10
          CFI Block cfiCond234 Using cfiCommon0
          CFI (cfiCond234) Function ??du_main
          CFI (cfiCond234) Conditional ??CrossCallReturnLabel_350
          CFI (cfiCond234) R24 Frame(CFA_Y, -8)
          CFI (cfiCond234) R25 Frame(CFA_Y, -7)
          CFI (cfiCond234) R26 Frame(CFA_Y, -6)
          CFI (cfiCond234) R27 Frame(CFA_Y, -5)
          CFI (cfiCond234) R4 Frame(CFA_Y, -4)
          CFI (cfiCond234) R5 Frame(CFA_Y, -3)
          CFI (cfiCond234) R6 Frame(CFA_Y, -2)
          CFI (cfiCond234) R7 Frame(CFA_Y, -1)
          CFI (cfiCond234) CFA_SP SP+4
          CFI (cfiCond234) CFA_Y Y+8
          CFI Block cfiCond235 Using cfiCommon0
          CFI (cfiCond235) Function ??du_main
          CFI (cfiCond235) Conditional ??CrossCallReturnLabel_351
          CFI (cfiCond235) R24 Frame(CFA_Y, -8)
          CFI (cfiCond235) R25 Frame(CFA_Y, -7)
          CFI (cfiCond235) R26 Frame(CFA_Y, -6)
          CFI (cfiCond235) R27 Frame(CFA_Y, -5)
          CFI (cfiCond235) R4 Frame(CFA_Y, -4)
          CFI (cfiCond235) R5 Frame(CFA_Y, -3)
          CFI (cfiCond235) R6 Frame(CFA_Y, -2)
          CFI (cfiCond235) R7 Frame(CFA_Y, -1)
          CFI (cfiCond235) CFA_SP SP+4
          CFI (cfiCond235) CFA_Y Y+8
          CFI Block cfiCond236 Using cfiCommon0
          CFI (cfiCond236) Function ??du_main
          CFI (cfiCond236) Conditional ??CrossCallReturnLabel_352
          CFI (cfiCond236) R24 Frame(CFA_Y, -8)
          CFI (cfiCond236) R25 Frame(CFA_Y, -7)
          CFI (cfiCond236) R26 Frame(CFA_Y, -6)
          CFI (cfiCond236) R27 Frame(CFA_Y, -5)
          CFI (cfiCond236) R4 Frame(CFA_Y, -4)
          CFI (cfiCond236) R5 Frame(CFA_Y, -3)
          CFI (cfiCond236) R6 Frame(CFA_Y, -2)
          CFI (cfiCond236) R7 Frame(CFA_Y, -1)
          CFI (cfiCond236) CFA_SP SP+4
          CFI (cfiCond236) CFA_Y Y+8
          CFI Block cfiCond237 Using cfiCommon0
          CFI (cfiCond237) Function ??coding
          CFI (cfiCond237) Conditional ??CrossCallReturnLabel_353
          CFI (cfiCond237) R24 Frame(CFA_Y, -10)
          CFI (cfiCond237) R25 Frame(CFA_Y, -9)
          CFI (cfiCond237) R26 Frame(CFA_Y, -8)
          CFI (cfiCond237) R27 Frame(CFA_Y, -7)
          CFI (cfiCond237) R4 Frame(CFA_Y, -6)
          CFI (cfiCond237) R5 Frame(CFA_Y, -5)
          CFI (cfiCond237) R6 Frame(CFA_Y, -4)
          CFI (cfiCond237) R7 Frame(CFA_Y, -3)
          CFI (cfiCond237) R8 Frame(CFA_Y, -2)
          CFI (cfiCond237) R9 Frame(CFA_Y, -1)
          CFI (cfiCond237) CFA_SP SP+4
          CFI (cfiCond237) CFA_Y Y+10
          CFI Block cfiCond238 Using cfiCommon0
          CFI (cfiCond238) Function ??coding
          CFI (cfiCond238) Conditional ??CrossCallReturnLabel_354
          CFI (cfiCond238) R24 Frame(CFA_Y, -10)
          CFI (cfiCond238) R25 Frame(CFA_Y, -9)
          CFI (cfiCond238) R26 Frame(CFA_Y, -8)
          CFI (cfiCond238) R27 Frame(CFA_Y, -7)
          CFI (cfiCond238) R4 Frame(CFA_Y, -6)
          CFI (cfiCond238) R5 Frame(CFA_Y, -5)
          CFI (cfiCond238) R6 Frame(CFA_Y, -4)
          CFI (cfiCond238) R7 Frame(CFA_Y, -3)
          CFI (cfiCond238) R8 Frame(CFA_Y, -2)
          CFI (cfiCond238) R9 Frame(CFA_Y, -1)
          CFI (cfiCond238) CFA_SP SP+4
          CFI (cfiCond238) CFA_Y Y+10
          CFI Block cfiCond239 Using cfiCommon0
          CFI (cfiCond239) Function ??coding
          CFI (cfiCond239) Conditional ??CrossCallReturnLabel_355
          CFI (cfiCond239) R24 Frame(CFA_Y, -10)
          CFI (cfiCond239) R25 Frame(CFA_Y, -9)
          CFI (cfiCond239) R26 Frame(CFA_Y, -8)
          CFI (cfiCond239) R27 Frame(CFA_Y, -7)
          CFI (cfiCond239) R4 Frame(CFA_Y, -6)
          CFI (cfiCond239) R5 Frame(CFA_Y, -5)
          CFI (cfiCond239) R6 Frame(CFA_Y, -4)
          CFI (cfiCond239) R7 Frame(CFA_Y, -3)
          CFI (cfiCond239) R8 Frame(CFA_Y, -2)
          CFI (cfiCond239) R9 Frame(CFA_Y, -1)
          CFI (cfiCond239) CFA_SP SP+4
          CFI (cfiCond239) CFA_Y Y+10
          CFI Block cfiCond240 Using cfiCommon0
          CFI (cfiCond240) Function ??coding
          CFI (cfiCond240) Conditional ??CrossCallReturnLabel_356
          CFI (cfiCond240) R24 Frame(CFA_Y, -10)
          CFI (cfiCond240) R25 Frame(CFA_Y, -9)
          CFI (cfiCond240) R26 Frame(CFA_Y, -8)
          CFI (cfiCond240) R27 Frame(CFA_Y, -7)
          CFI (cfiCond240) R4 Frame(CFA_Y, -6)
          CFI (cfiCond240) R5 Frame(CFA_Y, -5)
          CFI (cfiCond240) R6 Frame(CFA_Y, -4)
          CFI (cfiCond240) R7 Frame(CFA_Y, -3)
          CFI (cfiCond240) R8 Frame(CFA_Y, -2)
          CFI (cfiCond240) R9 Frame(CFA_Y, -1)
          CFI (cfiCond240) CFA_SP SP+4
          CFI (cfiCond240) CFA_Y Y+10
          CFI Block cfiCond241 Using cfiCommon0
          CFI (cfiCond241) Function ??WorkT1
          CFI (cfiCond241) Conditional ??CrossCallReturnLabel_357
          CFI (cfiCond241) CFA_SP SP+4
          CFI Block cfiCond242 Using cfiCommon0
          CFI (cfiCond242) Function ??WorkT2
          CFI (cfiCond242) Conditional ??CrossCallReturnLabel_358
          CFI (cfiCond242) R24 Frame(CFA_Y, -3)
          CFI (cfiCond242) R25 Frame(CFA_Y, -2)
          CFI (cfiCond242) R26 Frame(CFA_Y, -1)
          CFI (cfiCond242) CFA_SP SP+4
          CFI (cfiCond242) CFA_Y Y+3
          CFI Block cfiCond243 Using cfiCommon0
          CFI (cfiCond243) Function main
          CFI (cfiCond243) Conditional ??CrossCallReturnLabel_359
          CFI (cfiCond243) R24 Frame(CFA_Y, -1)
          CFI (cfiCond243) CFA_SP SP+4
          CFI (cfiCond243) CFA_Y Y+1
          CFI Block cfiCond244 Using cfiCommon0
          CFI (cfiCond244) Function ??pult
          CFI (cfiCond244) Conditional ??CrossCallReturnLabel_360
          CFI (cfiCond244) CFA_SP SP+4
          CFI Block cfiCond245 Using cfiCommon0
          CFI (cfiCond245) Function ??normal
          CFI (cfiCond245) Conditional ??CrossCallReturnLabel_361
          CFI (cfiCond245) R24 Frame(CFA_Y, -1)
          CFI (cfiCond245) CFA_SP SP+4
          CFI (cfiCond245) CFA_Y Y+1
          CFI Block cfiPicker246 Using cfiCommon2
          CFI (cfiPicker246) NoFunction
          CFI (cfiPicker246) Picker
        ST      Z, R16
        STD     Z+1, R17
        RET
          CFI EndBlock cfiCond220
          CFI EndBlock cfiCond221
          CFI EndBlock cfiCond222
          CFI EndBlock cfiCond223
          CFI EndBlock cfiCond224
          CFI EndBlock cfiCond225
          CFI EndBlock cfiCond226
          CFI EndBlock cfiCond227
          CFI EndBlock cfiCond228
          CFI EndBlock cfiCond229
          CFI EndBlock cfiCond230
          CFI EndBlock cfiCond231
          CFI EndBlock cfiCond232
          CFI EndBlock cfiCond233
          CFI EndBlock cfiCond234
          CFI EndBlock cfiCond235
          CFI EndBlock cfiCond236
          CFI EndBlock cfiCond237
          CFI EndBlock cfiCond238
          CFI EndBlock cfiCond239
          CFI EndBlock cfiCond240
          CFI EndBlock cfiCond241
          CFI EndBlock cfiCond242
          CFI EndBlock cfiCond243
          CFI EndBlock cfiCond244
          CFI EndBlock cfiCond245
          CFI EndBlock cfiPicker246

        RSEG CODE:CODE:NOROOT(1)
// __version_3 void migINI(unsigned char, unsigned char, bool)
??migINI:
          CFI Block cfiBlock247 Using cfiCommon0
          CFI Function ??migINI
        FUNCALL ??migINI, ??iniT2
        LOCFRAME CSTACK, 0, STACK
        LOCFRAME RSTACK, 2, STACK
        ARGFRAME RSTACK, 0, STACK
        MOV     R19, R16
        MOVW    R21:R20, R17:R16
        RCALL   ?Subroutine93
??CrossCallReturnLabel_148:
        IN      R17, 0x18
        OR      R17, R16
        OUT     0x18, R17
        LDS     R16, ??port
        CPI     R16, 255
        BREQ    ??migINI_1
        RCALL   ?Subroutine5
??CrossCallReturnLabel_153:
        TST     R18
        BREQ    ??migINI_2
        IN      R17, 0x18
        OR      R17, R16
        RJMP    ??migINI_3
??migINI_2:
        COM     R16
        IN      R17, 0x18
        AND     R17, R16
??migINI_3:
        OUT     0x18, R17
??migINI_1:
        STS     ??raz, R21
        STS     ??port, R19
        LDI     R16, 0
        STS     ??razct, R16
        LDI     R16, 5
        RCALL   ??Subroutine149_0
          CFI EndBlock cfiBlock247
??CrossCallReturnLabel_370:
        REQUIRE ?Subroutine7
        REQUIRE _A_PORTB
        ;               // Fall through to label ?Subroutine7

        RSEG CODE:CODE:NOROOT(1)
?Subroutine7:
          CFI Block cfiCond248 Using cfiCommon0
          CFI Function ??WorkT2
          CFI Conditional ??CrossCallReturnLabel_252
          CFI R24 Frame(CFA_Y, -3)
          CFI R25 Frame(CFA_Y, -2)
          CFI R26 Frame(CFA_Y, -1)
          CFI CFA_SP SP+4
          CFI CFA_Y Y+3
          CFI Block cfiCond249 Using cfiCommon0
          CFI (cfiCond249) Function ??migWORK
          CFI (cfiCond249) Conditional ??CrossCallReturnLabel_253
          CFI (cfiCond249) R24 Frame(CFA_Y, -1)
          CFI (cfiCond249) CFA_SP SP+4
          CFI (cfiCond249) CFA_Y Y+1
          CFI Block cfiBlock250 Using cfiCommon0
          CFI (cfiBlock250) NoFunction
          CFI Block cfiPicker251 Using cfiCommon2
          CFI (cfiPicker251) NoFunction
          CFI (cfiPicker251) Picker
        LDI     R16, 1
        RJMP    ?Subroutine131
          CFI EndBlock cfiCond248
          CFI EndBlock cfiCond249
          CFI EndBlock cfiBlock250
          CFI EndBlock cfiPicker251

        RSEG CODE:CODE:NOROOT(1)
// __version_3 void migWORK()
??migWORK:
          CFI Block cfiBlock252 Using cfiCommon0
          CFI Function ??migWORK
        FUNCALL ??migWORK, ??WorkT2
        LOCFRAME CSTACK, 1, STACK
        LOCFRAME RSTACK, 2, STACK
        ARGFRAME RSTACK, 0, STACK
        FUNCALL ??migWORK, ??iniT2
        LOCFRAME CSTACK, 1, STACK
        LOCFRAME RSTACK, 2, STACK
        ARGFRAME RSTACK, 0, STACK
        FUNCALL ??migWORK, ??iniT2
        LOCFRAME CSTACK, 1, STACK
        LOCFRAME RSTACK, 2, STACK
        ARGFRAME RSTACK, 0, STACK
        ST      -Y, R24
          CFI R24 Frame(CFA_Y, -1)
          CFI CFA_Y Y+1
        RCALL   ??WorkT2
        LDS     R16, T2out
        TST     R16
        BREQ    ??migWORK_1
        LDS     R16, ??port
        CPI     R16, 255
        BREQ    ??migWORK_1
        RCALL   ?Subroutine5
??CrossCallReturnLabel_154:
        MOV     R24, R16
        LDS     R16, ??sost
        TST     R16
        BRNE    ??migWORK_2
        LDI     R16, 1
        RCALL   ?Subroutine20
??CrossCallReturnLabel_372:
        IN      R16, 0x18
        OR      R16, R24
        OUT     0x18, R16
        LDI     R30, LOW(??razct)
        LDI     R31, (??razct) >> 8
        RCALL   ?Subroutine101
??CrossCallReturnLabel_341:
        RJMP    ??migWORK_1
??migWORK_2:
        LDI     R16, 0
        RCALL   ?Subroutine20
??CrossCallReturnLabel_371:
        COM     R24
        IN      R16, 0x18
        AND     R16, R24
        OUT     0x18, R16
??migWORK_1:
        LDS     R16, ??razct
        LDS     R17, ??raz
        CP      R16, R17
        BRCS    ??migWORK_3
        RCALL   ?Subroutine7
??CrossCallReturnLabel_253:
        LDI     R16, 255
        STS     ??port, R16
??migWORK_3:
        RJMP    ?Subroutine135
          CFI EndBlock cfiBlock252
        REQUIRE _A_PORTB

        RSEG CODE:CODE:NOROOT(1)
?Subroutine101:
          CFI Block cfiCond253 Using cfiCommon0
          CFI Function ??coding
          CFI Conditional ??CrossCallReturnLabel_344, ??CrossCallReturnLabel_37
          CFI R24 Frame(CFA_Y, -10)
          CFI R25 Frame(CFA_Y, -9)
          CFI R26 Frame(CFA_Y, -8)
          CFI R27 Frame(CFA_Y, -7)
          CFI R4 Frame(CFA_Y, -6)
          CFI R5 Frame(CFA_Y, -5)
          CFI R6 Frame(CFA_Y, -4)
          CFI R7 Frame(CFA_Y, -3)
          CFI R8 Frame(CFA_Y, -2)
          CFI R9 Frame(CFA_Y, -1)
          CFI CFA_SP SP+6
          CFI CFA_Y Y+10
          CFI Block cfiCond254 Using cfiCommon0
          CFI (cfiCond254) Function ??coding
          CFI (cfiCond254) Conditional ??CrossCallReturnLabel_344, ??CrossCallReturnLabel_38
          CFI (cfiCond254) R24 Frame(CFA_Y, -10)
          CFI (cfiCond254) R25 Frame(CFA_Y, -9)
          CFI (cfiCond254) R26 Frame(CFA_Y, -8)
          CFI (cfiCond254) R27 Frame(CFA_Y, -7)
          CFI (cfiCond254) R4 Frame(CFA_Y, -6)
          CFI (cfiCond254) R5 Frame(CFA_Y, -5)
          CFI (cfiCond254) R6 Frame(CFA_Y, -4)
          CFI (cfiCond254) R7 Frame(CFA_Y, -3)
          CFI (cfiCond254) R8 Frame(CFA_Y, -2)
          CFI (cfiCond254) R9 Frame(CFA_Y, -1)
          CFI (cfiCond254) CFA_SP SP+6
          CFI (cfiCond254) CFA_Y Y+10
          CFI Block cfiCond255 Using cfiCommon0
          CFI (cfiCond255) Function ??coding
          CFI (cfiCond255) Conditional ??CrossCallReturnLabel_344, ??CrossCallReturnLabel_39
          CFI (cfiCond255) R24 Frame(CFA_Y, -10)
          CFI (cfiCond255) R25 Frame(CFA_Y, -9)
          CFI (cfiCond255) R26 Frame(CFA_Y, -8)
          CFI (cfiCond255) R27 Frame(CFA_Y, -7)
          CFI (cfiCond255) R4 Frame(CFA_Y, -6)
          CFI (cfiCond255) R5 Frame(CFA_Y, -5)
          CFI (cfiCond255) R6 Frame(CFA_Y, -4)
          CFI (cfiCond255) R7 Frame(CFA_Y, -3)
          CFI (cfiCond255) R8 Frame(CFA_Y, -2)
          CFI (cfiCond255) R9 Frame(CFA_Y, -1)
          CFI (cfiCond255) CFA_SP SP+6
          CFI (cfiCond255) CFA_Y Y+10
          CFI Block cfiCond256 Using cfiCommon0
          CFI (cfiCond256) Function ??du_main
          CFI (cfiCond256) Conditional ??CrossCallReturnLabel_340
          CFI (cfiCond256) R24 Frame(CFA_Y, -8)
          CFI (cfiCond256) R25 Frame(CFA_Y, -7)
          CFI (cfiCond256) R26 Frame(CFA_Y, -6)
          CFI (cfiCond256) R27 Frame(CFA_Y, -5)
          CFI (cfiCond256) R4 Frame(CFA_Y, -4)
          CFI (cfiCond256) R5 Frame(CFA_Y, -3)
          CFI (cfiCond256) R6 Frame(CFA_Y, -2)
          CFI (cfiCond256) R7 Frame(CFA_Y, -1)
          CFI (cfiCond256) CFA_SP SP+4
          CFI (cfiCond256) CFA_Y Y+8
          CFI Block cfiCond257 Using cfiCommon0
          CFI (cfiCond257) Function ??migWORK
          CFI (cfiCond257) Conditional ??CrossCallReturnLabel_341
          CFI (cfiCond257) R24 Frame(CFA_Y, -1)
          CFI (cfiCond257) CFA_SP SP+4
          CFI (cfiCond257) CFA_Y Y+1
          CFI Block cfiCond258 Using cfiCommon0
          CFI (cfiCond258) Function main
          CFI (cfiCond258) Conditional ??CrossCallReturnLabel_342
          CFI (cfiCond258) R24 Frame(CFA_Y, -1)
          CFI (cfiCond258) CFA_SP SP+4
          CFI (cfiCond258) CFA_Y Y+1
          CFI Block cfiCond259 Using cfiCommon0
          CFI (cfiCond259) Function ??programming
          CFI (cfiCond259) Conditional ??CrossCallReturnLabel_343, ??CrossCallReturnLabel_12
          CFI (cfiCond259) R24 Frame(CFA_Y, -1)
          CFI (cfiCond259) CFA_SP SP+6
          CFI (cfiCond259) CFA_Y Y+1
          CFI Block cfiCond260 Using cfiCommon0
          CFI (cfiCond260) Function ??programming
          CFI (cfiCond260) Conditional ??CrossCallReturnLabel_343, ??CrossCallReturnLabel_13
          CFI (cfiCond260) R24 Frame(CFA_Y, -1)
          CFI (cfiCond260) CFA_SP SP+6
          CFI (cfiCond260) CFA_Y Y+1
          CFI Block cfiPicker261 Using cfiCommon2
          CFI (cfiPicker261) NoFunction
          CFI (cfiPicker261) Picker
        LD      R16, Z
        INC     R16
        RJMP    ??Subroutine146_0
          CFI EndBlock cfiCond253
          CFI EndBlock cfiCond254
          CFI EndBlock cfiCond255
          CFI EndBlock cfiCond256
          CFI EndBlock cfiCond257
          CFI EndBlock cfiCond258
          CFI EndBlock cfiCond259
          CFI EndBlock cfiCond260
          CFI EndBlock cfiPicker261

        RSEG CODE:CODE:NOROOT(1)
?Subroutine20:
          CFI Block cfiCond262 Using cfiCommon0
          CFI Function ??migWORK
          CFI Conditional ??CrossCallReturnLabel_372
          CFI R24 Frame(CFA_Y, -1)
          CFI CFA_SP SP+4
          CFI CFA_Y Y+1
          CFI Block cfiCond263 Using cfiCommon0
          CFI (cfiCond263) Function ??migWORK
          CFI (cfiCond263) Conditional ??CrossCallReturnLabel_371
          CFI (cfiCond263) R24 Frame(CFA_Y, -1)
          CFI (cfiCond263) CFA_SP SP+4
          CFI (cfiCond263) CFA_Y Y+1
          CFI Block cfiPicker264 Using cfiCommon2
          CFI (cfiPicker264) NoFunction
          CFI (cfiPicker264) Picker
        STS     ??sost, R16
        LDI     R16, 200
          CFI EndBlock cfiCond262
          CFI EndBlock cfiCond263
          CFI EndBlock cfiPicker264
        REQUIRE ??Subroutine149_0
        ;               // Fall through to label ??Subroutine149_0

        RSEG CODE:CODE:NOROOT(1)
??Subroutine149_0:
          CFI Block cfiCond265 Using cfiCommon0
          CFI Function ??migINI
          CFI Conditional ??CrossCallReturnLabel_370
          CFI CFA_SP SP+4
          CFI Block cfiCond266 Using cfiCommon0
          CFI (cfiCond266) Function ??migWORK
          CFI (cfiCond266) Conditional ??CrossCallReturnLabel_372
          CFI (cfiCond266) R24 Frame(CFA_Y, -1)
          CFI (cfiCond266) CFA_SP SP+4
          CFI (cfiCond266) CFA_Y Y+1
          CFI Block cfiCond267 Using cfiCommon0
          CFI (cfiCond267) Function ??migWORK
          CFI (cfiCond267) Conditional ??CrossCallReturnLabel_371
          CFI (cfiCond267) R24 Frame(CFA_Y, -1)
          CFI (cfiCond267) CFA_SP SP+4
          CFI (cfiCond267) CFA_Y Y+1
          CFI Block cfiPicker268 Using cfiCommon2
          CFI (cfiPicker268) NoFunction
          CFI (cfiPicker268) Picker
        LDI     R17, 0
        LDI     R18, 0
        LDI     R19, 0
        RJMP    ??iniT2
          CFI EndBlock cfiCond265
          CFI EndBlock cfiCond266
          CFI EndBlock cfiCond267
          CFI EndBlock cfiPicker268

        RSEG NEAR_Z:DATA:NOROOT(0)
        REQUIRE `?<Segment init: NEAR_Z>`
// bool migWORK()::sost
??sost:
        DS8 1
//   32 #include "keys.h"
//   33 //#include <stdlib.h>
//   34 //#include <math.h> 
//   35 #include "usart.h"
//   36 //#include <stdarg.h>
//   37 //************************************************************************* 
//   38 #define AC_ON    SET(PORTD,6)
//   39 #define AC_OFF   RES(PORTD,6)
//   40 void diag(void);
//   41 void led_all(bool a);
//   42 void resled(void);
//   43 void source(void);
//   44 void resOUT(void);  
//   45 void gro(uchar a);
//   46 void normal(uchar rez);
//   47 void writeCOD(void);
//   48 uchar analizCOD(void);
//   49 void programming(uchar rez);
//   50 uchar getadr(void);
//   51 #define acon 20000;//время включения АС при подаче питания

        RSEG NEAR_I:DATA:NOROOT(0)
        REQUIRE `?<Segment init: NEAR_I>`
//   52 uint tON=acon; 
tON:
        DS8 2
        REQUIRE `?<Initializer for tON>`
//   53 #define MAXFUNC 23  //последний(включительно)действующий tekfunc(кол-во фукций)
//   54 //uint kbuf[MAXEEP];

        RSEG NEAR_Z:DATA:NOROOT(0)
        REQUIRE `?<Segment init: NEAR_Z>`
//   55 uchar write;
`write`:
        DS8 1

        RSEG NEAR_Z:DATA:NOROOT(0)
        REQUIRE `?<Segment init: NEAR_Z>`
//   56 uchar pr;
pr:
        DS8 1

        RSEG NEAR_Z:DATA:NOROOT(0)
        REQUIRE `?<Segment init: NEAR_Z>`
//   57 static bool get=0;
??get:
        DS8 1

        RSEG NEAR_Z:DATA:NOROOT(0)
        REQUIRE `?<Segment init: NEAR_Z>`
//   58 bool onok;  
onok:
        DS8 1

        RSEG NEAR_Z:DATA:NOROOT(0)
        REQUIRE `?<Segment init: NEAR_Z>`
//   59 bool on,mute;
on:
        DS8 1

        RSEG NEAR_Z:DATA:NOROOT(0)
        REQUIRE `?<Segment init: NEAR_Z>`
mute:
        DS8 1

        RSEG NEAR_Z:DATA:NOROOT(0)
        REQUIRE `?<Segment init: NEAR_Z>`
//   60 bool zader,aoff;
zader:
        DS8 1

        RSEG NEAR_Z:DATA:NOROOT(0)
        REQUIRE `?<Segment init: NEAR_Z>`
aoff:
        DS8 1

        RSEG NEAR_Z:DATA:NOROOT(0)
        REQUIRE `?<Segment init: NEAR_Z>`
//   61 uint timerzad; 
timerzad:
        DS8 2

        RSEG NEAR_Z:DATA:NOROOT(0)
        REQUIRE `?<Segment init: NEAR_Z>`
//   62 uchar pultadr; uchar rez;
pultadr:
        DS8 1

        RSEG NEAR_Z:DATA:NOROOT(0)
        REQUIRE `?<Segment init: NEAR_Z>`
rez:
        DS8 1

        RSEG NEAR_Z:DATA:NOROOT(0)
        REQUIRE `?<Segment init: NEAR_Z>`
//   63 extern   bool u=0,til=0; 
u:
        DS8 1

        RSEG NEAR_Z:DATA:NOROOT(0)
        REQUIRE `?<Segment init: NEAR_Z>`
til:
        DS8 1

        RSEG NEAR_Z:DATA:NOROOT(0)
        REQUIRE `?<Segment init: NEAR_Z>`
//   64 extern  uchar mode=0,tekfunc=0; 
mode:
        DS8 1

        RSEG NEAR_Z:DATA:NOROOT(0)
        REQUIRE `?<Segment init: NEAR_Z>`
tekfunc:
        DS8 1

        RSEG NEAR_I:DATA:NOROOT(0)
        REQUIRE `?<Segment init: NEAR_I>`
//   65 static uchar lastsel=1,sel=1,gro1=0,gro2=0,regaoff=0;
??lastsel:
        DS8 1
        REQUIRE `?<Initializer for lastsel>`

        RSEG NEAR_I:DATA:NOROOT(0)
        REQUIRE `?<Segment init: NEAR_I>`
??sel:
        DS8 1
        REQUIRE `?<Initializer for sel>`

        RSEG NEAR_Z:DATA:NOROOT(0)
        REQUIRE `?<Segment init: NEAR_Z>`
??gro1:
        DS8 1

        RSEG NEAR_Z:DATA:NOROOT(0)
        REQUIRE `?<Segment init: NEAR_Z>`
??gro2:
        DS8 1

        RSEG NEAR_Z:DATA:NOROOT(0)
        REQUIRE `?<Segment init: NEAR_Z>`
??regaoff:
        DS8 1
//   66 //***************************************************************************
//   67 //                  M  A  I  N
//   68 //***************************************************************************

        RSEG CODE:CODE:NOROOT(1)
//   69 int main( void )
main:
          CFI Block cfiBlock269 Using cfiCommon0
          CFI Function main
//   70 {//main
        FUNCALL main, ??iniPORTS
        LOCFRAME CSTACK, 1, STACK
        LOCFRAME RSTACK, 2, STACK
        ARGFRAME RSTACK, 0, STACK
        FUNCALL main, ??USART_Init
        LOCFRAME CSTACK, 1, STACK
        LOCFRAME RSTACK, 2, STACK
        ARGFRAME RSTACK, 0, STACK
        FUNCALL main, ??led_all
        LOCFRAME CSTACK, 1, STACK
        LOCFRAME RSTACK, 2, STACK
        ARGFRAME RSTACK, 0, STACK
        FUNCALL main, ??writeCOD
        LOCFRAME CSTACK, 1, STACK
        LOCFRAME RSTACK, 2, STACK
        ARGFRAME RSTACK, 0, STACK
        FUNCALL main, ??led_all
        LOCFRAME CSTACK, 1, STACK
        LOCFRAME RSTACK, 2, STACK
        ARGFRAME RSTACK, 0, STACK
        FUNCALL main, ??getadr
        LOCFRAME CSTACK, 1, STACK
        LOCFRAME RSTACK, 2, STACK
        ARGFRAME RSTACK, 0, STACK
        FUNCALL main, ??led_all
        LOCFRAME CSTACK, 1, STACK
        LOCFRAME RSTACK, 2, STACK
        ARGFRAME RSTACK, 0, STACK
        FUNCALL main, ??getadr
        LOCFRAME CSTACK, 1, STACK
        LOCFRAME RSTACK, 2, STACK
        ARGFRAME RSTACK, 0, STACK
        FUNCALL main, ??du_main
        LOCFRAME CSTACK, 1, STACK
        LOCFRAME RSTACK, 2, STACK
        ARGFRAME RSTACK, 0, STACK
        FUNCALL main, ??analizCOD
        LOCFRAME CSTACK, 1, STACK
        LOCFRAME RSTACK, 2, STACK
        ARGFRAME RSTACK, 0, STACK
        FUNCALL main, ??rprintfStr
        LOCFRAME CSTACK, 1, STACK
        LOCFRAME RSTACK, 2, STACK
        ARGFRAME RSTACK, 0, STACK
        FUNCALL main, ??rprintfFloat
        LOCFRAME CSTACK, 1, STACK
        LOCFRAME RSTACK, 2, STACK
        ARGFRAME RSTACK, 0, STACK
        FUNCALL main, ??USART_SendChar
        LOCFRAME CSTACK, 1, STACK
        LOCFRAME RSTACK, 2, STACK
        ARGFRAME RSTACK, 0, STACK
        FUNCALL main, ??rprintfStr
        LOCFRAME CSTACK, 1, STACK
        LOCFRAME RSTACK, 2, STACK
        ARGFRAME RSTACK, 0, STACK
        FUNCALL main, ??rprintfFloat
        LOCFRAME CSTACK, 1, STACK
        LOCFRAME RSTACK, 2, STACK
        ARGFRAME RSTACK, 0, STACK
        FUNCALL main, ??USART_SendChar
        LOCFRAME CSTACK, 1, STACK
        LOCFRAME RSTACK, 2, STACK
        ARGFRAME RSTACK, 0, STACK
        FUNCALL main, ??source
        LOCFRAME CSTACK, 1, STACK
        LOCFRAME RSTACK, 2, STACK
        ARGFRAME RSTACK, 0, STACK
        FUNCALL main, ??resOUT
        LOCFRAME CSTACK, 1, STACK
        LOCFRAME RSTACK, 2, STACK
        ARGFRAME RSTACK, 0, STACK
        FUNCALL main, ??normal
        LOCFRAME CSTACK, 1, STACK
        LOCFRAME RSTACK, 2, STACK
        ARGFRAME RSTACK, 0, STACK
        FUNCALL main, ??programming
        LOCFRAME CSTACK, 1, STACK
        LOCFRAME RSTACK, 2, STACK
        ARGFRAME RSTACK, 0, STACK
        FUNCALL main, ??diag
        LOCFRAME CSTACK, 1, STACK
        LOCFRAME RSTACK, 2, STACK
        ARGFRAME RSTACK, 0, STACK
        ST      -Y, R24
          CFI R24 Frame(CFA_Y, -1)
          CFI CFA_Y Y+1
//   71   
//   72    aoff=0; onok=0; pr=0; on=0; mute=0; zader=0;  til=0;
        LDI     R16, 0
        RCALL   ?Subroutine114
??CrossCallReturnLabel_214:
        STS     onok, R16
        STS     pr, R16
        RCALL   ??Subroutine150_0
??CrossCallReturnLabel_373:
        STS     mute, R16
        RCALL   ?Subroutine65
//   73   iniPORTS();    
??CrossCallReturnLabel_94:
        RCALL   ??iniPORTS
//   74  //----------------------------------
//   75    if (keyONsm) u=1;//включаем UART
        SBIC    0x10, 0x05
        RJMP    ??main_0
        LDI     R16, 1
        STS     u, R16
//   76  // u=1; 
//   77   USART_Init(u);
??main_0:
        LDS     R16, u
        RCALL   ??USART_Init
//   78 //----------------------------------
//   79   mode=fmode; //смена режима работы
        LDI     R20, LOW(fmode)
        LDI     R21, (fmode) >> 8
        RCALL   __eeget8_16
        STS     mode, R16
//   80   if (mode!=1 && mode!=0) { fmode=0; mode=0;   }//ini
        CPI     R16, 1
        BREQ    ??main_1
        TST     R16
        BREQ    ??main_1
        RCALL   ?Subroutine12
??CrossCallReturnLabel_221:
        STS     mode, R16
//   81   if (modegro!=1 && modegro!=0) { modegro=0; p1;   }//ini
??main_1:
        RCALL   ?Subroutine66
??CrossCallReturnLabel_290:
        BREQ    ??CrossCallReturnLabel_96
        RCALL   ?Subroutine71
??CrossCallReturnLabel_274:
        BREQ    ??CrossCallReturnLabel_96
        RCALL   ?Subroutine13
??CrossCallReturnLabel_224:
        RCALL   ?Subroutine67
//   82   
//   83   if (keyMUTE && !keyAOFFsm) {
??CrossCallReturnLabel_96:
        SBIC    0x10, 0x01
        RJMP    ??main_2
        SBIC    0x10, 0x05
        RJMP    ??main_2
        SBIS    0x10, 0x00
        RJMP    ??main_2
//   84   if (mode==0 && modegro==0)   {  fmode=1; p5;   SET(PORTB,4);  while(1) {}   }
        RCALL   ?Subroutine72
??CrossCallReturnLabel_277:
        BRNE    ??main_3
        RCALL   ?Subroutine71
??CrossCallReturnLabel_275:
        BRNE    ??main_4
        LDI     R16, 1
        RCALL   ?Subroutine116
??CrossCallReturnLabel_220:
        RCALL   ?Subroutine127
??CrossCallReturnLabel_377:
        SBI     0x18, 0x04
??main_5:
        RJMP    ??main_5
//   85   if (mode==1 && modegro==0)   {  modegro=1; p5; SET(PORTB,2);  SET(PORTB,3);  SET(PORTB,4);  while(1) {}  }
??main_3:
        CPI     R16, 1
        BRNE    ??main_2
        RCALL   ?Subroutine71
??CrossCallReturnLabel_276:
        BRNE    ??main_6
        LDI     R16, 1
        RCALL   ?Subroutine117
??CrossCallReturnLabel_223:
        RCALL   ?Subroutine68
??CrossCallReturnLabel_288:
        SBI     0x18, 0x04
??main_7:
        RJMP    ??main_7
??main_6:
        RCALL   ?Subroutine66
??CrossCallReturnLabel_291:
        BRNE    ??main_2
//   86   if (mode==1 && modegro==1)   {  fmode=0; p5; SET(PORTB,2);  SET(PORTB,3);    while(1) {}  } 
        RCALL   ?Subroutine12
??CrossCallReturnLabel_222:
        RCALL   ?Subroutine68
??CrossCallReturnLabel_289:
        RJMP    ??CrossCallReturnLabel_289
??main_4:
        RCALL   ?Subroutine66
??CrossCallReturnLabel_292:
        BRNE    ??main_2
//   87   if (mode==0 && modegro==1)   {  modegro=0; p5;  led_all(1);    while(1) {}   }
        RCALL   ?Subroutine13
??CrossCallReturnLabel_225:
        RCALL   ?Subroutine127
??CrossCallReturnLabel_378:
        RCALL   ??Subroutine153_0
??CrossCallReturnLabel_402:
        RJMP    ??CrossCallReturnLabel_402
//   88   
//   89                               }
//   90   
//   91  // modegro=1; mode=1;
//   92 //-----------------------------------
//   93   
//   94    if (keySELsm) {write=1; }//включаем программирование пульта
??main_2:
        SBIC    0x10, 0x01
        RJMP    ??main_8
        LDI     R16, 1
        STS     `write`, R16
//   95    if (keySELsm==1 && keyAOFFsm==1)//очистка
??main_8:
        SBIC    0x10, 0x01
        RJMP    ??main_9
        SBIC    0x10, 0x00
        RJMP    ??main_9
//   96       {
//   97         write=1; cod1=0;cod2=0;cod3=0;
        LDI     R16, 1
        STS     `write`, R16
        RCALL   ?Subroutine10
//   98         for (uchar i=0; i<=MAXFUNC; i++) {writeCOD();tekfunc++;}
??CrossCallReturnLabel_10:
        LDI     R24, 24
??main_10:
        RCALL   ??writeCOD
        LDI     R30, LOW(tekfunc)
        LDI     R31, (tekfunc) >> 8
        RCALL   ?Subroutine101
??CrossCallReturnLabel_342:
        DEC     R24
        BRNE    ??main_10
//   99         tekfunc=0;
//  100         led_all(1); while(1) {} //зависаем
        RCALL   ??Subroutine153_0
??CrossCallReturnLabel_401:
        RJMP    ??CrossCallReturnLabel_401
//  101       }
//  102 
//  103    if (write==1) //мигание первого программируемого
??main_9:
        RCALL   ?Subroutine79
??CrossCallReturnLabel_298:
        BRNE    ??main_11
//  104    {
//  105      for (uchar i=0; i<3; i++) {getadr(); p3;led_all(0); p3;}
        LDI     R24, 3
??main_12:
        RCALL   ??getadr
        RCALL   ?Subroutine75
??CrossCallReturnLabel_104:
        RCALL   ?Subroutine16
??CrossCallReturnLabel_18:
        RCALL   ?Subroutine75
??CrossCallReturnLabel_105:
        DEC     R24
        BRNE    ??main_12
//  106     
//  107      getadr();
        RCALL   ??getadr
//  108    }
//  109            
//  110    //---------------------------------------
//  111  //   for (uchar i=0; i<MAXEEP-1; i++) kbuf[i]=k[i];//читаем ееprom
//  112   //-----------------------------------------
//  113   //---------------------------------- 
//  114 
//  115      __enable_interrupt(); 
??main_11:
        SEI
//  116   
//  117   
//  118   
//  119    
//  120   
//  121   
//  122   
//  123   
//  124   
//  125   
//  126   
//  127   
//  128   
//  129   
//  130   
//  131   
//  132   
//  133   
//  134   
//  135   
//  136   
//  137   while(1){//-----------------------------------бесконечный цикл
//  138 
//  139    rez=du_main(pr);//вызов обработчика пульта
??main_13:
        LDS     R16, pr
        RCALL   ??du_main
        STS     rez, R16
//  140    
//  141    if (write==0)  {//------------------------------------- 
        LDS     R16, `write`
        TST     R16
        BREQ    $+2+2
        RJMP    ??main_14
//  142     
//  143      pultadr=0; 
        RCALL   ??Subroutine152_0
//  144      if (rez) pultadr=analizCOD();  
??CrossCallReturnLabel_391:
        LDS     R16, rez
        TST     R16
        BREQ    ??CrossCallReturnLabel_386
        RCALL   ?Subroutine80
//  145      
//  146      if ((keyON||pultadr==25 || pultadr==90) && on==1 && zader!=1) { rprintfStr("OFF>adr="); rprintfFloat(9, pultadr ); ent;
??CrossCallReturnLabel_386:
        SBIC    0x10, 0x05
        RJMP    ??main_15
        SBIS    0x10, 0x00
        RJMP    ??main_15
        SBIC    0x10, 0x01
        RJMP    ??main_16
??main_15:
        RCALL   ?Subroutine78
??CrossCallReturnLabel_112:
        CPI     R16, 25
        BREQ    ??main_16
        CPI     R16, 90
        BRNE    ??CrossCallReturnLabel_388
??main_16:
        LDS     R17, on
        LDS     R18, zader
        LDI     R16, 1
        EOR     R18, R16
        AND     R17, R18
        BREQ    ??CrossCallReturnLabel_388
        LDI     R16, LOW(`?<Constant "OFF>adr=">`)
        LDI     R17, (`?<Constant "OFF>adr=">`) >> 8
        RCALL   ?Subroutine18
//  147                     on=0;onok=0; p5; zader=0;  til=0; gro1=0; gro2=0; pultadr=0;  }//OFF
??CrossCallReturnLabel_21:
        RCALL   ?Subroutine14
??CrossCallReturnLabel_14:
        RCALL   ?Subroutine119
??CrossCallReturnLabel_228:
        RCALL   ?Subroutine65
??CrossCallReturnLabel_95:
        STS     ??gro1, R16
        STS     ??gro2, R16
        RCALL   ?Subroutine133
//  148      if ((keyON||pultadr==25 || pultadr==90) && on==0) {rprintfStr("ON>adr="); rprintfFloat(9, pultadr ); ent;
??CrossCallReturnLabel_388:
        SBIC    0x10, 0x05
        RJMP    ??main_17
        SBIS    0x10, 0x00
        RJMP    ??main_17
        SBIC    0x10, 0x01
        RJMP    ??main_18
??main_17:
        RCALL   ?Subroutine78
??CrossCallReturnLabel_113:
        CPI     R16, 25
        BREQ    ??main_18
        CPI     R16, 90
        BRNE    ??CrossCallReturnLabel_392
??main_18:
        LDS     R16, on
        TST     R16
        BRNE    ??CrossCallReturnLabel_392
        LDI     R16, LOW(`?<Constant "ON>adr=">`)
        LDI     R17, (`?<Constant "ON>adr=">`) >> 8
        RCALL   ?Subroutine18
//  149                     SET(PORTD,4); SET(PORTD,7);p5; on=1; mute=0; zader=1;timerzad=0;source();pultadr=0;  }//ON
??CrossCallReturnLabel_22:
        SBI     0x12, 0x04
        SBI     0x12, 0x07
        RCALL   ?Subroutine127
??CrossCallReturnLabel_379:
        LDI     R16, 1
        RCALL   ??Subroutine150_0
??CrossCallReturnLabel_374:
        LDI     R16, 0
        STS     mute, R16
        RCALL   ?Subroutine3
??CrossCallReturnLabel_9:
        RCALL   ??Subroutine152_0
//  150      
//  151     //выключение
//  152     if (on==0 && onok==0) { on=0; aoff=0; p5; zader=0; regaoff=0; AC_OFF; delay_s(1); tON=acon; 
??CrossCallReturnLabel_392:
        LDS     R16, on
        LDS     R17, onok
        OR      R16, R17
        BRNE    ??main_19
        RCALL   ?Subroutine115
??CrossCallReturnLabel_375:
        RCALL   ?Subroutine15
??CrossCallReturnLabel_254:
        CBI     0x12, 0x06
        RCALL   ?Subroutine76
??CrossCallReturnLabel_106:
        LDI     R16, 32
        LDI     R17, 78
        LDI     R30, LOW(tON)
        LDI     R31, (tON) >> 8
        RCALL   ?Subroutine98
//  153     						PORTB=0; RES(PORTD,7);RES(PORTD,4); resOUT(); RES(PORTC,5); RES(PORTC,0);RES(PORTD,3); onok=1;
??CrossCallReturnLabel_359:
        LDI     R16, 0
        OUT     0x18, R16
        CBI     0x12, 0x07
        CBI     0x12, 0x04
        RCALL   ??resOUT
        CBI     0x15, 0x05
        CBI     0x15, 0x00
        CBI     0x12, 0x03
        LDI     R16, 1
        STS     onok, R16
//  154                           }
//  155                                   
//  156   
//  157     pultadr=0;  if (on==1) normal(rez);
??main_19:
        RCALL   ??Subroutine152_0
??CrossCallReturnLabel_393:
        LDS     R16, on
        TST     R16
        BREQ    ??main_14
        LDS     R16, rez
        RCALL   ??normal
//  158    
//  159                   }//------------------------------------- 
//  160   
//  161    if (write==1) programming(rez);
??main_14:
        RCALL   ?Subroutine79
??CrossCallReturnLabel_299:
        BRNE    ??main_20
        LDS     R16, rez
        RCALL   ??programming
//  162    
//  163    diag();  
??main_20:
        RCALL   ??diag
        RJMP    ??main_13
          CFI EndBlock cfiBlock269
        REQUIRE _A_PIND
        REQUIRE _A_PORTB
        REQUIRE _A_PORTD
        REQUIRE _A_PORTC
//  164      
//  165     
//  166    
//  167   }//-------------------------------------------бесконечный цикл
//  168   
//  169 }//main

        RSEG CODE:CODE:NOROOT(1)
?Subroutine75:
          CFI Block cfiCond270 Using cfiCommon0
          CFI Function main
          CFI Conditional ??CrossCallReturnLabel_104
          CFI R24 Frame(CFA_Y, -1)
          CFI CFA_SP SP+4
          CFI CFA_Y Y+1
          CFI Block cfiCond271 Using cfiCommon0
          CFI (cfiCond271) Function main
          CFI (cfiCond271) Conditional ??CrossCallReturnLabel_105
          CFI (cfiCond271) R24 Frame(CFA_Y, -1)
          CFI (cfiCond271) CFA_SP SP+4
          CFI (cfiCond271) CFA_Y Y+1
          CFI Block cfiPicker272 Using cfiCommon2
          CFI (cfiPicker272) NoFunction
          CFI (cfiPicker272) Picker
        LDI     R16, 127
        LDI     R17, 169
        LDI     R18, 3
        SUBI    R16, 1
        SBCI    R17, 0
        SBCI    R18, 0
        BRNE    $-6
        RJMP    $+2
        NOP
        RET
          CFI EndBlock cfiCond270
          CFI EndBlock cfiCond271
          CFI EndBlock cfiPicker272

        RSEG CODE:CODE:NOROOT(1)
?Subroutine71:
          CFI Block cfiCond273 Using cfiCommon0
          CFI Function main
          CFI Conditional ??CrossCallReturnLabel_274
          CFI R24 Frame(CFA_Y, -1)
          CFI CFA_SP SP+4
          CFI CFA_Y Y+1
          CFI Block cfiCond274 Using cfiCommon0
          CFI (cfiCond274) Function main
          CFI (cfiCond274) Conditional ??CrossCallReturnLabel_275
          CFI (cfiCond274) R24 Frame(CFA_Y, -1)
          CFI (cfiCond274) CFA_SP SP+4
          CFI (cfiCond274) CFA_Y Y+1
          CFI Block cfiCond275 Using cfiCommon0
          CFI (cfiCond275) Function main
          CFI (cfiCond275) Conditional ??CrossCallReturnLabel_276
          CFI (cfiCond275) R24 Frame(CFA_Y, -1)
          CFI (cfiCond275) CFA_SP SP+4
          CFI (cfiCond275) CFA_Y Y+1
          CFI Block cfiPicker276 Using cfiCommon2
          CFI (cfiPicker276) NoFunction
          CFI (cfiPicker276) Picker
        RCALL   ?Subroutine118
??CrossCallReturnLabel_227:
        RJMP    ?Subroutine136
          CFI EndBlock cfiCond273
          CFI EndBlock cfiCond274
          CFI EndBlock cfiCond275
          CFI EndBlock cfiPicker276

        RSEG CODE:CODE:NOROOT(1)
?Subroutine127:
          CFI Block cfiCond277 Using cfiCommon0
          CFI Function main
          CFI Conditional ??CrossCallReturnLabel_377
          CFI R24 Frame(CFA_Y, -1)
          CFI CFA_SP SP+4
          CFI CFA_Y Y+1
          CFI Block cfiCond278 Using cfiCommon0
          CFI (cfiCond278) Function main
          CFI (cfiCond278) Conditional ??CrossCallReturnLabel_378
          CFI (cfiCond278) R24 Frame(CFA_Y, -1)
          CFI (cfiCond278) CFA_SP SP+4
          CFI (cfiCond278) CFA_Y Y+1
          CFI Block cfiCond279 Using cfiCommon0
          CFI (cfiCond279) Function main
          CFI (cfiCond279) Conditional ??CrossCallReturnLabel_379
          CFI (cfiCond279) R24 Frame(CFA_Y, -1)
          CFI (cfiCond279) CFA_SP SP+4
          CFI (cfiCond279) CFA_Y Y+1
          CFI Block cfiCond280 Using cfiCommon0
          CFI (cfiCond280) Function main
          CFI (cfiCond280) Conditional ??CrossCallReturnLabel_380, ??CrossCallReturnLabel_288
          CFI (cfiCond280) R24 Frame(CFA_Y, -1)
          CFI (cfiCond280) CFA_SP SP+6
          CFI (cfiCond280) CFA_Y Y+1
          CFI Block cfiCond281 Using cfiCommon0
          CFI (cfiCond281) Function main
          CFI (cfiCond281) Conditional ??CrossCallReturnLabel_380, ??CrossCallReturnLabel_289
          CFI (cfiCond281) R24 Frame(CFA_Y, -1)
          CFI (cfiCond281) CFA_SP SP+6
          CFI (cfiCond281) CFA_Y Y+1
          CFI Block cfiCond282 Using cfiCommon0
          CFI (cfiCond282) Function ??normal
          CFI (cfiCond282) Conditional ??CrossCallReturnLabel_382, ??CrossCallReturnLabel_383
          CFI (cfiCond282) R24 Frame(CFA_Y, -1)
          CFI (cfiCond282) CFA_SP SP+6
          CFI (cfiCond282) CFA_Y Y+1
          CFI Block cfiCond283 Using cfiCommon0
          CFI (cfiCond283) Function ??normal
          CFI (cfiCond283) Conditional ??CrossCallReturnLabel_382, ??CrossCallReturnLabel_384
          CFI (cfiCond283) R24 Frame(CFA_Y, -1)
          CFI (cfiCond283) CFA_SP SP+6
          CFI (cfiCond283) CFA_Y Y+1
          CFI Block cfiCond284 Using cfiCommon0
          CFI (cfiCond284) Function ??normal
          CFI (cfiCond284) Conditional ??CrossCallReturnLabel_382, ??CrossCallReturnLabel_385
          CFI (cfiCond284) R24 Frame(CFA_Y, -1)
          CFI (cfiCond284) CFA_SP SP+6
          CFI (cfiCond284) CFA_Y Y+1
          CFI Block cfiCond285 Using cfiCommon0
          CFI (cfiCond285) Function main
          CFI (cfiCond285) Conditional ??CrossCallReturnLabel_381, ??CrossCallReturnLabel_228
          CFI (cfiCond285) R24 Frame(CFA_Y, -1)
          CFI (cfiCond285) CFA_SP SP+6
          CFI (cfiCond285) CFA_Y Y+1
          CFI Block cfiCond286 Using cfiCommon0
          CFI (cfiCond286) Function ??normal
          CFI (cfiCond286) Conditional ??CrossCallReturnLabel_381, ??CrossCallReturnLabel_229
          CFI (cfiCond286) R24 Frame(CFA_Y, -1)
          CFI (cfiCond286) CFA_SP SP+6
          CFI (cfiCond286) CFA_Y Y+1
          CFI Block cfiCond287 Using cfiCommon0
          CFI (cfiCond287) Function main
          CFI (cfiCond287) Conditional ??CrossCallReturnLabel_381, ??CrossCallReturnLabel_230, ??CrossCallReturnLabel_254
          CFI (cfiCond287) R24 Frame(CFA_Y, -1)
          CFI (cfiCond287) CFA_SP SP+8
          CFI (cfiCond287) CFA_Y Y+1
          CFI Block cfiCond288 Using cfiCommon0
          CFI (cfiCond288) Function ??normal
          CFI (cfiCond288) Conditional ??CrossCallReturnLabel_381, ??CrossCallReturnLabel_230, ??CrossCallReturnLabel_255
          CFI (cfiCond288) R24 Frame(CFA_Y, -1)
          CFI (cfiCond288) CFA_SP SP+8
          CFI (cfiCond288) CFA_Y Y+1
          CFI Block cfiPicker289 Using cfiCommon2
          CFI (cfiPicker289) NoFunction
          CFI (cfiPicker289) Picker
        LDI     R16, 127
        LDI     R17, 26
        LDI     R18, 6
        SUBI    R16, 1
        SBCI    R17, 0
        SBCI    R18, 0
        BRNE    $-6
        RJMP    $+2
        NOP
        RET
          CFI EndBlock cfiCond277
          CFI EndBlock cfiCond278
          CFI EndBlock cfiCond279
          CFI EndBlock cfiCond280
          CFI EndBlock cfiCond281
          CFI EndBlock cfiCond282
          CFI EndBlock cfiCond283
          CFI EndBlock cfiCond284
          CFI EndBlock cfiCond285
          CFI EndBlock cfiCond286
          CFI EndBlock cfiCond287
          CFI EndBlock cfiCond288
          CFI EndBlock cfiPicker289

        RSEG CODE:CODE:NOROOT(1)
?Subroutine68:
          CFI Block cfiCond290 Using cfiCommon0
          CFI Function main
          CFI Conditional ??CrossCallReturnLabel_288
          CFI R24 Frame(CFA_Y, -1)
          CFI CFA_SP SP+4
          CFI CFA_Y Y+1
          CFI Block cfiCond291 Using cfiCommon0
          CFI (cfiCond291) Function main
          CFI (cfiCond291) Conditional ??CrossCallReturnLabel_289
          CFI (cfiCond291) R24 Frame(CFA_Y, -1)
          CFI (cfiCond291) CFA_SP SP+4
          CFI (cfiCond291) CFA_Y Y+1
          CFI Block cfiPicker292 Using cfiCommon2
          CFI (cfiPicker292) NoFunction
          CFI (cfiPicker292) Picker
        RCALL   ?Subroutine127
??CrossCallReturnLabel_380:
        SBI     0x18, 0x02
          CFI EndBlock cfiCond290
          CFI EndBlock cfiCond291
          CFI EndBlock cfiPicker292
        REQUIRE ?Subroutine137
        ;               // Fall through to label ?Subroutine137

        RSEG CODE:CODE:NOROOT(1)
?Subroutine137:
          CFI Block cfiCond293 Using cfiCommon0
          CFI Function main
          CFI Conditional ??CrossCallReturnLabel_288
          CFI R24 Frame(CFA_Y, -1)
          CFI CFA_SP SP+4
          CFI CFA_Y Y+1
          CFI Block cfiCond294 Using cfiCommon0
          CFI (cfiCond294) Function main
          CFI (cfiCond294) Conditional ??CrossCallReturnLabel_289
          CFI (cfiCond294) R24 Frame(CFA_Y, -1)
          CFI (cfiCond294) CFA_SP SP+4
          CFI (cfiCond294) CFA_Y Y+1
          CFI Block cfiBlock295 Using cfiCommon0
          CFI (cfiBlock295) NoFunction
          CFI Block cfiPicker296 Using cfiCommon2
          CFI (cfiPicker296) NoFunction
          CFI (cfiPicker296) Picker
        SBI     0x18, 0x03
        RET
          CFI EndBlock cfiCond293
          CFI EndBlock cfiCond294
          CFI EndBlock cfiBlock295
          CFI EndBlock cfiPicker296

        RSEG CODE:CODE:NOROOT(1)
?Subroutine65:
          CFI Block cfiCond297 Using cfiCommon0
          CFI Function main
          CFI Conditional ??CrossCallReturnLabel_94
          CFI R24 Frame(CFA_Y, -1)
          CFI CFA_SP SP+4
          CFI CFA_Y Y+1
          CFI Block cfiCond298 Using cfiCommon0
          CFI (cfiCond298) Function main
          CFI (cfiCond298) Conditional ??CrossCallReturnLabel_95
          CFI (cfiCond298) R24 Frame(CFA_Y, -1)
          CFI (cfiCond298) CFA_SP SP+4
          CFI (cfiCond298) CFA_Y Y+1
          CFI Block cfiPicker299 Using cfiCommon2
          CFI (cfiPicker299) NoFunction
          CFI (cfiPicker299) Picker
        RCALL   ?Subroutine121
??CrossCallReturnLabel_234:
        STS     til, R16
        RET
          CFI EndBlock cfiCond297
          CFI EndBlock cfiCond298
          CFI EndBlock cfiPicker299

        RSEG CODE:CODE:NOROOT(1)
?Subroutine18:
          CFI Block cfiCond300 Using cfiCommon0
          CFI Function main
          CFI Conditional ??CrossCallReturnLabel_21
          CFI R24 Frame(CFA_Y, -1)
          CFI CFA_SP SP+4
          CFI CFA_Y Y+1
          CFI Block cfiCond301 Using cfiCommon0
          CFI (cfiCond301) Function main
          CFI (cfiCond301) Conditional ??CrossCallReturnLabel_22
          CFI (cfiCond301) R24 Frame(CFA_Y, -1)
          CFI (cfiCond301) CFA_SP SP+4
          CFI (cfiCond301) CFA_Y Y+1
          CFI Block cfiPicker302 Using cfiCommon2
          CFI (cfiPicker302) NoFunction
          CFI (cfiPicker302) Picker
        RCALL   ??rprintfStr
        LDS     R16, pultadr
        RCALL   ?Subroutine94
??CrossCallReturnLabel_326:
        RJMP    ?Subroutine109
          CFI EndBlock cfiCond300
          CFI EndBlock cfiCond301
          CFI EndBlock cfiPicker302

        RSEG CODE:CODE:NOROOT(1)
?Subroutine13:
          CFI Block cfiCond303 Using cfiCommon0
          CFI Function main
          CFI Conditional ??CrossCallReturnLabel_224
          CFI R24 Frame(CFA_Y, -1)
          CFI CFA_SP SP+4
          CFI CFA_Y Y+1
          CFI Block cfiCond304 Using cfiCommon0
          CFI (cfiCond304) Function main
          CFI (cfiCond304) Conditional ??CrossCallReturnLabel_225
          CFI (cfiCond304) R24 Frame(CFA_Y, -1)
          CFI (cfiCond304) CFA_SP SP+4
          CFI (cfiCond304) CFA_Y Y+1
          CFI Block cfiPicker305 Using cfiCommon2
          CFI (cfiPicker305) NoFunction
          CFI (cfiPicker305) Picker
        LDI     R16, 0
          CFI EndBlock cfiCond303
          CFI EndBlock cfiCond304
          CFI EndBlock cfiPicker305
        REQUIRE ?Subroutine117
        ;               // Fall through to label ?Subroutine117

        RSEG CODE:CODE:NOROOT(1)
?Subroutine117:
          CFI Block cfiCond306 Using cfiCommon0
          CFI Function main
          CFI Conditional ??CrossCallReturnLabel_223
          CFI R24 Frame(CFA_Y, -1)
          CFI CFA_SP SP+4
          CFI CFA_Y Y+1
          CFI Block cfiCond307 Using cfiCommon0
          CFI (cfiCond307) Function main
          CFI (cfiCond307) Conditional ??CrossCallReturnLabel_224
          CFI (cfiCond307) R24 Frame(CFA_Y, -1)
          CFI (cfiCond307) CFA_SP SP+4
          CFI (cfiCond307) CFA_Y Y+1
          CFI Block cfiCond308 Using cfiCommon0
          CFI (cfiCond308) Function main
          CFI (cfiCond308) Conditional ??CrossCallReturnLabel_225
          CFI (cfiCond308) R24 Frame(CFA_Y, -1)
          CFI (cfiCond308) CFA_SP SP+4
          CFI (cfiCond308) CFA_Y Y+1
          CFI Block cfiPicker309 Using cfiCommon2
          CFI (cfiPicker309) NoFunction
          CFI (cfiPicker309) Picker
        LDI     R20, LOW(modegro)
        LDI     R21, (modegro) >> 8
        RJMP    __eeput8_16
          CFI EndBlock cfiCond306
          CFI EndBlock cfiCond307
          CFI EndBlock cfiCond308
          CFI EndBlock cfiPicker309

        RSEG CODE:CODE:NOROOT(1)
?Subroutine12:
          CFI Block cfiCond310 Using cfiCommon0
          CFI Function main
          CFI Conditional ??CrossCallReturnLabel_221
          CFI R24 Frame(CFA_Y, -1)
          CFI CFA_SP SP+4
          CFI CFA_Y Y+1
          CFI Block cfiCond311 Using cfiCommon0
          CFI (cfiCond311) Function main
          CFI (cfiCond311) Conditional ??CrossCallReturnLabel_222
          CFI (cfiCond311) R24 Frame(CFA_Y, -1)
          CFI (cfiCond311) CFA_SP SP+4
          CFI (cfiCond311) CFA_Y Y+1
          CFI Block cfiPicker312 Using cfiCommon2
          CFI (cfiPicker312) NoFunction
          CFI (cfiPicker312) Picker
        LDI     R16, 0
          CFI EndBlock cfiCond310
          CFI EndBlock cfiCond311
          CFI EndBlock cfiPicker312
        REQUIRE ?Subroutine116
        ;               // Fall through to label ?Subroutine116

        RSEG CODE:CODE:NOROOT(1)
?Subroutine116:
          CFI Block cfiCond313 Using cfiCommon0
          CFI Function main
          CFI Conditional ??CrossCallReturnLabel_220
          CFI R24 Frame(CFA_Y, -1)
          CFI CFA_SP SP+4
          CFI CFA_Y Y+1
          CFI Block cfiCond314 Using cfiCommon0
          CFI (cfiCond314) Function main
          CFI (cfiCond314) Conditional ??CrossCallReturnLabel_221
          CFI (cfiCond314) R24 Frame(CFA_Y, -1)
          CFI (cfiCond314) CFA_SP SP+4
          CFI (cfiCond314) CFA_Y Y+1
          CFI Block cfiCond315 Using cfiCommon0
          CFI (cfiCond315) Function main
          CFI (cfiCond315) Conditional ??CrossCallReturnLabel_222
          CFI (cfiCond315) R24 Frame(CFA_Y, -1)
          CFI (cfiCond315) CFA_SP SP+4
          CFI (cfiCond315) CFA_Y Y+1
          CFI Block cfiPicker316 Using cfiCommon2
          CFI (cfiPicker316) NoFunction
          CFI (cfiPicker316) Picker
        LDI     R20, LOW(fmode)
        LDI     R21, (fmode) >> 8
        RJMP    __eeput8_16
          CFI EndBlock cfiCond313
          CFI EndBlock cfiCond314
          CFI EndBlock cfiCond315
          CFI EndBlock cfiPicker316

        RSEG CODE:CODE:NOROOT(1)
?Subroutine10:
          CFI Block cfiCond317 Using cfiCommon0
          CFI Function ??du_main
          CFI Conditional ??CrossCallReturnLabel_11
          CFI R24 Frame(CFA_Y, -8)
          CFI R25 Frame(CFA_Y, -7)
          CFI R26 Frame(CFA_Y, -6)
          CFI R27 Frame(CFA_Y, -5)
          CFI R4 Frame(CFA_Y, -4)
          CFI R5 Frame(CFA_Y, -3)
          CFI R6 Frame(CFA_Y, -2)
          CFI R7 Frame(CFA_Y, -1)
          CFI CFA_SP SP+4
          CFI CFA_Y Y+8
          CFI Block cfiCond318 Using cfiCommon0
          CFI (cfiCond318) Function main
          CFI (cfiCond318) Conditional ??CrossCallReturnLabel_10
          CFI (cfiCond318) R24 Frame(CFA_Y, -1)
          CFI (cfiCond318) CFA_SP SP+4
          CFI (cfiCond318) CFA_Y Y+1
          CFI Block cfiPicker319 Using cfiCommon2
          CFI (cfiPicker319) NoFunction
          CFI (cfiPicker319) Picker
        LDI     R16, 0
        LDI     R30, LOW(cod1)
        LDI     R31, (cod1) >> 8
        RCALL   ?Subroutine97
??CrossCallReturnLabel_168:
        LDI     R30, LOW(cod2)
        LDI     R31, (cod2) >> 8
        RCALL   ?Subroutine97
??CrossCallReturnLabel_169:
        LDI     R30, LOW(cod3)
        LDI     R31, (cod3) >> 8
          CFI EndBlock cfiCond317
          CFI EndBlock cfiCond318
          CFI EndBlock cfiPicker319
        REQUIRE ?Subroutine97
        ;               // Fall through to label ?Subroutine97

        RSEG CODE:CODE:NOROOT(1)
?Subroutine97:
          CFI Block cfiCond320 Using cfiCommon0
          CFI Function ??du_main
          CFI Conditional ??CrossCallReturnLabel_170, ??CrossCallReturnLabel_31
          CFI R24 Frame(CFA_Y, -8)
          CFI R25 Frame(CFA_Y, -7)
          CFI R26 Frame(CFA_Y, -6)
          CFI R27 Frame(CFA_Y, -5)
          CFI R4 Frame(CFA_Y, -4)
          CFI R5 Frame(CFA_Y, -3)
          CFI R6 Frame(CFA_Y, -2)
          CFI R7 Frame(CFA_Y, -1)
          CFI CFA_SP SP+6
          CFI CFA_Y Y+8
          CFI Block cfiCond321 Using cfiCommon0
          CFI (cfiCond321) Function ??ResetT1
          CFI (cfiCond321) Conditional ??CrossCallReturnLabel_170, ??CrossCallReturnLabel_32
          CFI (cfiCond321) CFA_SP SP+6
          CFI Block cfiCond322 Using cfiCommon0
          CFI (cfiCond322) Function ??ResetT2
          CFI (cfiCond322) Conditional ??CrossCallReturnLabel_170, ??CrossCallReturnLabel_33
          CFI (cfiCond322) CFA_SP SP+6
          CFI Block cfiCond323 Using cfiCommon0
          CFI (cfiCond323) Function ??du_main
          CFI (cfiCond323) Conditional ??CrossCallReturnLabel_161
          CFI (cfiCond323) R24 Frame(CFA_Y, -8)
          CFI (cfiCond323) R25 Frame(CFA_Y, -7)
          CFI (cfiCond323) R26 Frame(CFA_Y, -6)
          CFI (cfiCond323) R27 Frame(CFA_Y, -5)
          CFI (cfiCond323) R4 Frame(CFA_Y, -4)
          CFI (cfiCond323) R5 Frame(CFA_Y, -3)
          CFI (cfiCond323) R6 Frame(CFA_Y, -2)
          CFI (cfiCond323) R7 Frame(CFA_Y, -1)
          CFI (cfiCond323) CFA_SP SP+4
          CFI (cfiCond323) CFA_Y Y+8
          CFI Block cfiCond324 Using cfiCommon0
          CFI (cfiCond324) Function ??du_main
          CFI (cfiCond324) Conditional ??CrossCallReturnLabel_162
          CFI (cfiCond324) R24 Frame(CFA_Y, -8)
          CFI (cfiCond324) R25 Frame(CFA_Y, -7)
          CFI (cfiCond324) R26 Frame(CFA_Y, -6)
          CFI (cfiCond324) R27 Frame(CFA_Y, -5)
          CFI (cfiCond324) R4 Frame(CFA_Y, -4)
          CFI (cfiCond324) R5 Frame(CFA_Y, -3)
          CFI (cfiCond324) R6 Frame(CFA_Y, -2)
          CFI (cfiCond324) R7 Frame(CFA_Y, -1)
          CFI (cfiCond324) CFA_SP SP+4
          CFI (cfiCond324) CFA_Y Y+8
          CFI Block cfiCond325 Using cfiCommon0
          CFI (cfiCond325) Function ??du_main
          CFI (cfiCond325) Conditional ??CrossCallReturnLabel_163
          CFI (cfiCond325) R24 Frame(CFA_Y, -8)
          CFI (cfiCond325) R25 Frame(CFA_Y, -7)
          CFI (cfiCond325) R26 Frame(CFA_Y, -6)
          CFI (cfiCond325) R27 Frame(CFA_Y, -5)
          CFI (cfiCond325) R4 Frame(CFA_Y, -4)
          CFI (cfiCond325) R5 Frame(CFA_Y, -3)
          CFI (cfiCond325) R6 Frame(CFA_Y, -2)
          CFI (cfiCond325) R7 Frame(CFA_Y, -1)
          CFI (cfiCond325) CFA_SP SP+4
          CFI (cfiCond325) CFA_Y Y+8
          CFI Block cfiCond326 Using cfiCommon0
          CFI (cfiCond326) Function ??ResetT1
          CFI (cfiCond326) Conditional ??CrossCallReturnLabel_164
          CFI (cfiCond326) CFA_SP SP+4
          CFI Block cfiCond327 Using cfiCommon0
          CFI (cfiCond327) Function ??ResetT2
          CFI (cfiCond327) Conditional ??CrossCallReturnLabel_165
          CFI (cfiCond327) CFA_SP SP+4
          CFI Block cfiCond328 Using cfiCommon0
          CFI (cfiCond328) Function ??normal
          CFI (cfiCond328) Conditional ??CrossCallReturnLabel_166
          CFI (cfiCond328) R24 Frame(CFA_Y, -1)
          CFI (cfiCond328) CFA_SP SP+4
          CFI (cfiCond328) CFA_Y Y+1
          CFI Block cfiCond329 Using cfiCommon0
          CFI (cfiCond329) Function ??du_main
          CFI (cfiCond329) Conditional ??CrossCallReturnLabel_168, ??CrossCallReturnLabel_11
          CFI (cfiCond329) R24 Frame(CFA_Y, -8)
          CFI (cfiCond329) R25 Frame(CFA_Y, -7)
          CFI (cfiCond329) R26 Frame(CFA_Y, -6)
          CFI (cfiCond329) R27 Frame(CFA_Y, -5)
          CFI (cfiCond329) R4 Frame(CFA_Y, -4)
          CFI (cfiCond329) R5 Frame(CFA_Y, -3)
          CFI (cfiCond329) R6 Frame(CFA_Y, -2)
          CFI (cfiCond329) R7 Frame(CFA_Y, -1)
          CFI (cfiCond329) CFA_SP SP+6
          CFI (cfiCond329) CFA_Y Y+8
          CFI Block cfiCond330 Using cfiCommon0
          CFI (cfiCond330) Function main
          CFI (cfiCond330) Conditional ??CrossCallReturnLabel_168, ??CrossCallReturnLabel_10
          CFI (cfiCond330) R24 Frame(CFA_Y, -1)
          CFI (cfiCond330) CFA_SP SP+6
          CFI (cfiCond330) CFA_Y Y+1
          CFI Block cfiCond331 Using cfiCommon0
          CFI (cfiCond331) Function ??du_main
          CFI (cfiCond331) Conditional ??CrossCallReturnLabel_169, ??CrossCallReturnLabel_11
          CFI (cfiCond331) R24 Frame(CFA_Y, -8)
          CFI (cfiCond331) R25 Frame(CFA_Y, -7)
          CFI (cfiCond331) R26 Frame(CFA_Y, -6)
          CFI (cfiCond331) R27 Frame(CFA_Y, -5)
          CFI (cfiCond331) R4 Frame(CFA_Y, -4)
          CFI (cfiCond331) R5 Frame(CFA_Y, -3)
          CFI (cfiCond331) R6 Frame(CFA_Y, -2)
          CFI (cfiCond331) R7 Frame(CFA_Y, -1)
          CFI (cfiCond331) CFA_SP SP+6
          CFI (cfiCond331) CFA_Y Y+8
          CFI Block cfiCond332 Using cfiCommon0
          CFI (cfiCond332) Function main
          CFI (cfiCond332) Conditional ??CrossCallReturnLabel_169, ??CrossCallReturnLabel_10
          CFI (cfiCond332) R24 Frame(CFA_Y, -1)
          CFI (cfiCond332) CFA_SP SP+6
          CFI (cfiCond332) CFA_Y Y+1
          CFI Block cfiCond333 Using cfiCommon0
          CFI (cfiCond333) Function ??du_main
          CFI (cfiCond333) Conditional ??CrossCallReturnLabel_11
          CFI (cfiCond333) R24 Frame(CFA_Y, -8)
          CFI (cfiCond333) R25 Frame(CFA_Y, -7)
          CFI (cfiCond333) R26 Frame(CFA_Y, -6)
          CFI (cfiCond333) R27 Frame(CFA_Y, -5)
          CFI (cfiCond333) R4 Frame(CFA_Y, -4)
          CFI (cfiCond333) R5 Frame(CFA_Y, -3)
          CFI (cfiCond333) R6 Frame(CFA_Y, -2)
          CFI (cfiCond333) R7 Frame(CFA_Y, -1)
          CFI (cfiCond333) CFA_SP SP+4
          CFI (cfiCond333) CFA_Y Y+8
          CFI Block cfiCond334 Using cfiCommon0
          CFI (cfiCond334) Function main
          CFI (cfiCond334) Conditional ??CrossCallReturnLabel_10
          CFI (cfiCond334) R24 Frame(CFA_Y, -1)
          CFI (cfiCond334) CFA_SP SP+4
          CFI (cfiCond334) CFA_Y Y+1
          CFI Block cfiCond335 Using cfiCommon0
          CFI (cfiCond335) Function main
          CFI (cfiCond335) Conditional ??CrossCallReturnLabel_167, ??CrossCallReturnLabel_9
          CFI (cfiCond335) R24 Frame(CFA_Y, -1)
          CFI (cfiCond335) CFA_SP SP+6
          CFI (cfiCond335) CFA_Y Y+1
          CFI Block cfiCond336 Using cfiCommon0
          CFI (cfiCond336) Function ??pult
          CFI (cfiCond336) Conditional ??CrossCallReturnLabel_167, ??CrossCallReturnLabel_8
          CFI (cfiCond336) CFA_SP SP+6
          CFI Block cfiPicker337 Using cfiCommon2
          CFI (cfiPicker337) NoFunction
          CFI (cfiPicker337) Picker
        ST      Z, R16
        STD     Z+1, R16
        RET
          CFI EndBlock cfiCond320
          CFI EndBlock cfiCond321
          CFI EndBlock cfiCond322
          CFI EndBlock cfiCond323
          CFI EndBlock cfiCond324
          CFI EndBlock cfiCond325
          CFI EndBlock cfiCond326
          CFI EndBlock cfiCond327
          CFI EndBlock cfiCond328
          CFI EndBlock cfiCond329
          CFI EndBlock cfiCond330
          CFI EndBlock cfiCond331
          CFI EndBlock cfiCond332
          CFI EndBlock cfiCond333
          CFI EndBlock cfiCond334
          CFI EndBlock cfiCond335
          CFI EndBlock cfiCond336
          CFI EndBlock cfiPicker337
//  170 //***************************************************************************
//  171 
//  172 
//  173 
//  174 
//  175 
//  176 
//  177 
//  178 
//  179 
//  180 
//  181 
//  182  
//  183 

        RSEG CODE:CODE:NOROOT(1)
//  184 uchar getadr()//адреса  команд
??getadr:
          CFI Block cfiBlock338 Using cfiCommon0
          CFI Function ??getadr
//  185 {
//  186   uchar adr=0;
        LDI     R16, 0
//  187   if (tekfunc==0) {adr=1; SET(PORTB,0);}//s1
        LDS     R17, tekfunc
        TST     R17
        BRNE    ??getadr_1
        LDI     R16, 1
        RJMP    ??getadr_2
//  188   if (tekfunc==1) {adr=5; SET(PORTB,1);}
??getadr_1:
        CPI     R17, 1
        BRNE    ??getadr_3
        LDI     R16, 5
        RJMP    ??getadr_4
//  189   if (tekfunc==2) {adr=10;SET(PORTB,2);}
??getadr_3:
        CPI     R17, 2
        BRNE    ??getadr_5
        LDI     R16, 10
        RJMP    ??getadr_6
//  190   if (tekfunc==3) {adr=15;SET(PORTB,3);}
??getadr_5:
        CPI     R17, 3
        BRNE    ??getadr_7
        LDI     R16, 15
        RJMP    ??getadr_8
//  191   if (tekfunc==4) {adr=20;SET(PORTB,4);}//s5 или ONтыл
??getadr_7:
        CPI     R17, 4
        BRNE    ??getadr_9
        LDI     R16, 20
        RJMP    ??getadr_10
//  192   if (tekfunc==5) {adr=55;SET(PORTB,0);SET(PORTB,2);SET(PORTB,4);}//command return
??getadr_9:
        CPI     R17, 5
        BRNE    ??getadr_11
        LDI     R16, 55
        RJMP    ??getadr_12
//  193   if (tekfunc==6) {adr=25;SET(PORTD,7);}//on standby
??getadr_11:
        CPI     R17, 6
        BRNE    ??getadr_13
        LDI     R16, 25
        RJMP    ??getadr_14
//  194   if (tekfunc==7) {adr=30;SET(PORTB,5);}//aoff
??getadr_13:
        CPI     R17, 7
        BRNE    ??getadr_15
        LDI     R16, 30
        RJMP    ??getadr_16
//  195   if (tekfunc==8) {adr=35;AC_ON;}//mute
??getadr_15:
        CPI     R17, 8
        BRNE    ??getadr_17
        LDI     R16, 35
        RJMP    ??getadr_18
//  196   if (tekfunc==9) {adr=40; }//select
??getadr_17:
        CPI     R17, 9
        BRNE    ??getadr_19
        LDI     R16, 40
        RET
//  197   if (tekfunc==10) {adr=45; }//громкость увеличить
??getadr_19:
        CPI     R17, 10
        BRNE    ??getadr_20
        LDI     R16, 45
        RET
//  198   if (tekfunc==11) {adr=50; }//громкость уменьшить
??getadr_20:
        CPI     R17, 11
        BRNE    ??getadr_21
        LDI     R16, 50
        RET
//  199   
//  200   //дублирование команд
//  201    if (tekfunc==12) {adr=60; SET(PORTB,0);}//s1
??getadr_21:
        CPI     R17, 12
        BRNE    ??getadr_22
        LDI     R16, 60
??getadr_2:
        SBI     0x18, 0x00
        RET
//  202   if (tekfunc==13) {adr=65; SET(PORTB,1);}
??getadr_22:
        CPI     R17, 13
        BRNE    ??getadr_23
        LDI     R16, 65
??getadr_4:
        SBI     0x18, 0x01
        RET
//  203   if (tekfunc==14) {adr=70;SET(PORTB,2);}
??getadr_23:
        CPI     R17, 14
        BRNE    ??getadr_24
        LDI     R16, 70
??getadr_6:
        SBI     0x18, 0x02
        RET
//  204   if (tekfunc==15) {adr=75;SET(PORTB,3);}
??getadr_24:
        CPI     R17, 15
        BRNE    ??getadr_25
        LDI     R16, 75
??getadr_8:
        RJMP    ?Subroutine137
//  205   if (tekfunc==16) {adr=80;SET(PORTB,4);}//s5 или ONтыл
??getadr_25:
        CPI     R17, 16
        BRNE    ??getadr_26
        LDI     R16, 80
        RJMP    ??getadr_10
//  206   if (tekfunc==17) {adr=85;SET(PORTB,0);SET(PORTB,2);SET(PORTB,4);}//command return
??getadr_26:
        CPI     R17, 17
        BRNE    ??getadr_27
        LDI     R16, 85
??getadr_12:
        SBI     0x18, 0x00
        SBI     0x18, 0x02
??getadr_10:
        SBI     0x18, 0x04
        RET
//  207   if (tekfunc==18) {adr=90;SET(PORTD,7);}//on standby
??getadr_27:
        CPI     R17, 18
        BRNE    ??getadr_28
        LDI     R16, 90
??getadr_14:
        RJMP    ?Subroutine138
//  208   if (tekfunc==19) {adr=95;SET(PORTB,5);}//aoff
??getadr_28:
        CPI     R17, 19
        BRNE    ??getadr_29
        LDI     R16, 95
??getadr_16:
        SBI     0x18, 0x05
        RET
//  209   if (tekfunc==20) {adr=100;AC_ON;}//mute
??getadr_29:
        CPI     R17, 20
        BRNE    ??getadr_30
        LDI     R16, 100
??getadr_18:
        SBI     0x12, 0x06
        RET
//  210   if (tekfunc==21) {adr=105; }//select
??getadr_30:
        CPI     R17, 21
        BRNE    ??getadr_31
        LDI     R16, 105
        RET
//  211   if (tekfunc==22) {adr=110; }//громкость увеличить
??getadr_31:
        CPI     R17, 22
        BRNE    ??getadr_32
        LDI     R16, 110
        RET
//  212   if (tekfunc==23) {adr=115; }//громкость уменьшить
??getadr_32:
        CPI     R17, 23
        BRNE    ??getadr_33
        LDI     R16, 115
//  213   return(adr);
??getadr_33:
        RET
          CFI EndBlock cfiBlock338
        REQUIRE _A_PORTB
        REQUIRE _A_PORTD
//  214 }

        RSEG CODE:CODE:NOROOT(1)
?Subroutine138:
          CFI Block cfiBlock339 Using cfiCommon0
          CFI NoFunction
        SBI     0x12, 0x07
        RET
          CFI EndBlock cfiBlock339

        RSEG CODE:CODE:NOROOT(1)
//  215 void pult() 
??pult:
          CFI Block cfiBlock340 Using cfiCommon0
          CFI Function ??pult
//  216 {
//  217    tON=1500; zader=1;timerzad=0; source(); p2;   //время включения АС при переключениях
        FUNCALL ??pult, ??source
        LOCFRAME CSTACK, 0, STACK
        LOCFRAME RSTACK, 2, STACK
        ARGFRAME RSTACK, 0, STACK
        LDI     R16, 220
        LDI     R17, 5
        LDI     R30, LOW(tON)
        LDI     R31, (tON) >> 8
        RCALL   ?Subroutine98
??CrossCallReturnLabel_360:
        RCALL   ?Subroutine3
??CrossCallReturnLabel_8:
        RJMP    ?Subroutine82
          CFI EndBlock cfiBlock340
//  218 }

        RSEG CODE:CODE:NOROOT(1)
?Subroutine3:
          CFI Block cfiCond341 Using cfiCommon0
          CFI Function main
          CFI Conditional ??CrossCallReturnLabel_9
          CFI R24 Frame(CFA_Y, -1)
          CFI CFA_SP SP+4
          CFI CFA_Y Y+1
          CFI Block cfiCond342 Using cfiCommon0
          CFI (cfiCond342) Function ??pult
          CFI (cfiCond342) Conditional ??CrossCallReturnLabel_8
          CFI (cfiCond342) CFA_SP SP+4
          CFI Block cfiPicker343 Using cfiCommon2
          CFI (cfiPicker343) NoFunction
          CFI (cfiPicker343) Picker
        LDI     R16, 1
        RCALL   ?Subroutine121
??CrossCallReturnLabel_232:
        LDI     R16, 0
        LDI     R30, LOW(timerzad)
        LDI     R31, (timerzad) >> 8
        RCALL   ?Subroutine97
??CrossCallReturnLabel_167:
        RJMP    ??source
          CFI EndBlock cfiCond341
          CFI EndBlock cfiCond342
          CFI EndBlock cfiPicker343
//  219 
//  220 
//  221 
//  222 

        RSEG CODE:CODE:NOROOT(1)
//  223 void normal(uchar rez)//-----------------------главная логика --------------------
??normal:
          CFI Block cfiBlock344 Using cfiCommon0
          CFI Function ??normal
//  224 {   
        FUNCALL ??normal, ??migWORK
        LOCFRAME CSTACK, 1, STACK
        LOCFRAME RSTACK, 2, STACK
        ARGFRAME RSTACK, 0, STACK
        FUNCALL ??normal, ??analizCOD
        LOCFRAME CSTACK, 1, STACK
        LOCFRAME RSTACK, 2, STACK
        ARGFRAME RSTACK, 0, STACK
        FUNCALL ??normal, ??rprintfStr
        LOCFRAME CSTACK, 1, STACK
        LOCFRAME RSTACK, 2, STACK
        ARGFRAME RSTACK, 0, STACK
        FUNCALL ??normal, ??USART_SendChar
        LOCFRAME CSTACK, 1, STACK
        LOCFRAME RSTACK, 2, STACK
        ARGFRAME RSTACK, 0, STACK
        FUNCALL ??normal, ??rprintfStr
        LOCFRAME CSTACK, 1, STACK
        LOCFRAME RSTACK, 2, STACK
        ARGFRAME RSTACK, 0, STACK
        FUNCALL ??normal, ??rprintfFloat
        LOCFRAME CSTACK, 1, STACK
        LOCFRAME RSTACK, 2, STACK
        ARGFRAME RSTACK, 0, STACK
        FUNCALL ??normal, ??USART_SendChar
        LOCFRAME CSTACK, 1, STACK
        LOCFRAME RSTACK, 2, STACK
        ARGFRAME RSTACK, 0, STACK
        FUNCALL ??normal, ??pult
        LOCFRAME CSTACK, 1, STACK
        LOCFRAME RSTACK, 2, STACK
        ARGFRAME RSTACK, 0, STACK
        FUNCALL ??normal, ??migINI
        LOCFRAME CSTACK, 1, STACK
        LOCFRAME RSTACK, 2, STACK
        ARGFRAME RSTACK, 0, STACK
        FUNCALL ??normal, ??pult
        LOCFRAME CSTACK, 1, STACK
        LOCFRAME RSTACK, 2, STACK
        ARGFRAME RSTACK, 0, STACK
        FUNCALL ??normal, ??migINI
        LOCFRAME CSTACK, 1, STACK
        LOCFRAME RSTACK, 2, STACK
        ARGFRAME RSTACK, 0, STACK
        FUNCALL ??normal, ??pult
        LOCFRAME CSTACK, 1, STACK
        LOCFRAME RSTACK, 2, STACK
        ARGFRAME RSTACK, 0, STACK
        FUNCALL ??normal, ??migINI
        LOCFRAME CSTACK, 1, STACK
        LOCFRAME RSTACK, 2, STACK
        ARGFRAME RSTACK, 0, STACK
        FUNCALL ??normal, ??pult
        LOCFRAME CSTACK, 1, STACK
        LOCFRAME RSTACK, 2, STACK
        ARGFRAME RSTACK, 0, STACK
        FUNCALL ??normal, ??migINI
        LOCFRAME CSTACK, 1, STACK
        LOCFRAME RSTACK, 2, STACK
        ARGFRAME RSTACK, 0, STACK
        FUNCALL ??normal, ??pult
        LOCFRAME CSTACK, 1, STACK
        LOCFRAME RSTACK, 2, STACK
        ARGFRAME RSTACK, 0, STACK
        FUNCALL ??normal, ??migINI
        LOCFRAME CSTACK, 1, STACK
        LOCFRAME RSTACK, 2, STACK
        ARGFRAME RSTACK, 0, STACK
        FUNCALL ??normal, ??iniT1
        LOCFRAME CSTACK, 1, STACK
        LOCFRAME RSTACK, 2, STACK
        ARGFRAME RSTACK, 0, STACK
        FUNCALL ??normal, ??iniT1
        LOCFRAME CSTACK, 1, STACK
        LOCFRAME RSTACK, 2, STACK
        ARGFRAME RSTACK, 0, STACK
        FUNCALL ??normal, ??iniT1
        LOCFRAME CSTACK, 1, STACK
        LOCFRAME RSTACK, 2, STACK
        ARGFRAME RSTACK, 0, STACK
        FUNCALL ??normal, ??WorkT1
        LOCFRAME CSTACK, 1, STACK
        LOCFRAME RSTACK, 2, STACK
        ARGFRAME RSTACK, 0, STACK
        FUNCALL ??normal, ??pult
        LOCFRAME CSTACK, 1, STACK
        LOCFRAME RSTACK, 2, STACK
        ARGFRAME RSTACK, 0, STACK
        FUNCALL ??normal, ??pult
        LOCFRAME CSTACK, 1, STACK
        LOCFRAME RSTACK, 2, STACK
        ARGFRAME RSTACK, 0, STACK
        FUNCALL ??normal, ??pult
        LOCFRAME CSTACK, 1, STACK
        LOCFRAME RSTACK, 2, STACK
        ARGFRAME RSTACK, 0, STACK
        FUNCALL ??normal, ??gro
        LOCFRAME CSTACK, 1, STACK
        LOCFRAME RSTACK, 2, STACK
        ARGFRAME RSTACK, 0, STACK
        FUNCALL ??normal, ??gro
        LOCFRAME CSTACK, 1, STACK
        LOCFRAME RSTACK, 2, STACK
        ARGFRAME RSTACK, 0, STACK
        ST      -Y, R24
          CFI R24 Frame(CFA_Y, -1)
          CFI CFA_Y Y+1
        MOV     R24, R16
//  225    pultadr=0; 
        RCALL   ??Subroutine152_0
//  226   
//  227    migWORK();
??CrossCallReturnLabel_394:
        RCALL   ??migWORK
//  228    
//  229   
//  230    if (rez)
        TST     R24
        BRNE    $+2+2
        RJMP    ??CrossCallReturnLabel_98
//  231    {//если есть команда с пульта
//  232      
//  233      pultadr=analizCOD();
        RCALL   ?Subroutine80
//  234      
//  235      if (pultadr==0){  RES(PORTD,7); delay_ms(100); SET(PORTD,7);
??CrossCallReturnLabel_387:
        TST     R16
        BRNE    ??normal_1
        CBI     0x12, 0x07
        RCALL   ?Subroutine67
??CrossCallReturnLabel_97:
        SBI     0x12, 0x07
//  236       rprintfStr("normal>no find command ");  ent;}
        LDI     R16, LOW(`?<Constant "normal>no find command ">`)
        LDI     R17, (`?<Constant "normal>no find command ">`) >> 8
        RCALL   ??rprintfStr
        RJMP    ??CrossCallReturnLabel_328
//  237      else { rprintfStr("normal>command find  adr= ");
??normal_1:
        LDI     R16, LOW(`?<Constant "normal>command find  ...">`)
        LDI     R17, (`?<Constant "normal>command find  ...">`) >> 8
        RCALL   ??rprintfStr
//  238       rprintfFloat(6, pultadr ); ent;}
        RCALL   ?Subroutine78
??CrossCallReturnLabel_114:
        RCALL   ?Subroutine19
??CrossCallReturnLabel_328:
        RCALL   ?Subroutine128
//  239      
//  240      if (pultadr==1 || pultadr==60) {if (sel!=1)  { AC_OFF; lastsel=sel; sel=1; pult(); } else   migINI(sel-1, 3 ,0); 
??CrossCallReturnLabel_250:
        RCALL   ?Subroutine78
??CrossCallReturnLabel_115:
        CPI     R16, 1
        BREQ    ??normal_2
        CPI     R16, 60
        BRNE    ??normal_3
??normal_2:
        RCALL   ?Subroutine134
??CrossCallReturnLabel_262:
        CPI     R16, 1
        BREQ    ??normal_4
        RCALL   ?Subroutine74
??CrossCallReturnLabel_99:
        LDI     R16, 1
        RCALL   ?Subroutine84
??CrossCallReturnLabel_134:
        RJMP    ??normal_3
??normal_4:
        RCALL   ?Subroutine47
//  241  }
??CrossCallReturnLabel_54:
        LDI     R16, 0
        RCALL   ??migINI
//  242      if (pultadr==5 || pultadr==65) {if (sel!=2)  {AC_OFF; lastsel=sel;sel=2; pult(); }  else  migINI(sel-1, 3 ,0); 
??normal_3:
        RCALL   ?Subroutine78
??CrossCallReturnLabel_116:
        CPI     R16, 5
        BREQ    ??normal_5
        CPI     R16, 65
        BRNE    ??normal_6
??normal_5:
        RCALL   ?Subroutine134
??CrossCallReturnLabel_263:
        CPI     R16, 2
        BREQ    ??normal_7
        RCALL   ?Subroutine74
??CrossCallReturnLabel_100:
        LDI     R16, 2
        RCALL   ?Subroutine84
??CrossCallReturnLabel_133:
        RJMP    ??normal_6
??normal_7:
        RCALL   ?Subroutine47
//  243 }
??CrossCallReturnLabel_55:
        LDI     R16, 1
        RCALL   ??migINI
