###############################################################################
#
# IAR C/C++ Compiler V6.40.1.741 for Atmel AVR            20/Apr/2017  12:46:26
# Copyright 1996-2014 IAR Systems AB.
#
#    Source file  =  F:\Dulov\RemoteAMP\main.c
#    Command line =  
#        F:\Dulov\RemoteAMP\main.c --cpu=m8 -ms -o
#        F:\Dulov\RemoteAMP\Release\Obj\ -D NDEBUG -lC
#        F:\Dulov\RemoteAMP\Release\List\ -lA F:\Dulov\RemoteAMP\Release\List\
#        --initializers_in_flash --no_clustering -DENABLE_BIT_DEFINITIONS -e
#        --eeprom_size 512 --dlib --dlib_config "C:\Program Files\IAR
#        Systems\Embedded Workbench 6.5\avr\LIB\DLIB\dlAVR-1s-ec_mul-n.h"
#        --ec++ -Ohz --mfc F:\Dulov\RemoteAMP\SoftTimers.c
#        F:\Dulov\RemoteAMP\usart.c
#    List file    =  F:\Dulov\RemoteAMP\Release\List\main.lst
#    Object file  =  F:\Dulov\RemoteAMP\Release\Obj\main.r90
#
###############################################################################

F:\Dulov\RemoteAMP\main.c
      1          //***************************************************************************
      2          //  
      3          //  Author(s)...: dav COBRA 
      4          //  Target(s)...: ATMega8
      5          //  Compiler....: 6 40
      6          //  ТЕСТ1
      7          //  Description.: Система  управления  для  Усилителя  Мощности   V-ниже
      8          //  v1.1 - добавлена поддержка включения усилителя тыловых колонок вместо Source5
      9          //       - изменена установка auto off
     10          //  v1.2 - теперь во время мигания(только Source) светодиодов  команды пульта обрабатываются
     11          //       - новая команда пульта - возврат в предыдущий source
     12          //       - команды пульта можно продублировать на втором пульте, т.е. на каждую функцию 2 кнопки пульта
     13          //       - вместо импульсов громкости можно формировать постоянный сигнал
     14          //       - подправлены задержки
     15          //       - обновлен алгоритм кодирования
     16          // v1.22 - исправлена ошибка задержки вкл AC
     17          // v1.23 - исправлен при включении включается SOURCE1 
     18          // v1.24 - исправлен баг AUTOOFF на 30 минут 
     19          // v1.25 - исправлен баг AUTOOFF при выключениии питания 
     20          // v1.26 - выход на громкость пока держим кнопку
     21          //
     22          //  Data........: 04 2016
     23          //
     24          //   - ВЫКЛЮЧИТЬ ОПЦИЮ clustering of variables В optimization compilator !!!!
     25          //***************************************************************************
     26          #include <stdbool.h>//поддержка bool
     27          #include <iom8.h>//<ioavr.h>

   \                                 In  segment ABSOLUTE, at 0x28
   \   union <unnamed> volatile __io _A_ACSR
   \                     _A_ACSR:
   \   00000000                      DS8 1

   \                                 In  segment ABSOLUTE, at 0x29
   \   union <unnamed> volatile __io _A_UBRRL
   \                     _A_UBRRL:
   \   00000000                      DS8 1

   \                                 In  segment ABSOLUTE, at 0x2a
   \   union <unnamed> volatile __io _A_UCSRB
   \                     _A_UCSRB:
   \   00000000                      DS8 1

   \                                 In  segment ABSOLUTE, at 0x2b
   \   union <unnamed> volatile __io _A_UCSRA
   \                     _A_UCSRA:
   \   00000000                      DS8 1

   \                                 In  segment ABSOLUTE, at 0x2c
   \   union <unnamed> volatile __io _A_UDR
   \                     _A_UDR:
   \   00000000                      DS8 1

   \                                 In  segment ABSOLUTE, at 0x30
   \   union <unnamed> volatile __io _A_PIND
   \                     _A_PIND:
   \   00000000                      DS8 1

   \                                 In  segment ABSOLUTE, at 0x31
   \   union <unnamed> volatile __io _A_DDRD
   \                     _A_DDRD:
   \   00000000                      DS8 1

   \                                 In  segment ABSOLUTE, at 0x32
   \   union <unnamed> volatile __io _A_PORTD
   \                     _A_PORTD:
   \   00000000                      DS8 1

   \                                 In  segment ABSOLUTE, at 0x34
   \   union <unnamed> volatile __io _A_DDRC
   \                     _A_DDRC:
   \   00000000                      DS8 1

   \                                 In  segment ABSOLUTE, at 0x35
   \   union <unnamed> volatile __io _A_PORTC
   \                     _A_PORTC:
   \   00000000                      DS8 1

   \                                 In  segment ABSOLUTE, at 0x37
   \   union <unnamed> volatile __io _A_DDRB
   \                     _A_DDRB:
   \   00000000                      DS8 1

   \                                 In  segment ABSOLUTE, at 0x38
   \   union <unnamed> volatile __io _A_PORTB
   \                     _A_PORTB:
   \   00000000                      DS8 1

   \                                 In  segment ABSOLUTE, at 0x40
   \   union <unnamed> volatile __io _A_UBRRH
   \                     _A_UBRRH:
   \   00000000                      DS8 1

   \                                 In  segment ABSOLUTE, at 0x44
   \   union <unnamed> volatile __io _A_TCNT2
   \                     _A_TCNT2:
   \   00000000                      DS8 1

   \                                 In  segment ABSOLUTE, at 0x45
   \   union <unnamed> volatile __io _A_TCCR2
   \                     _A_TCCR2:
   \   00000000                      DS8 1

   \                                 In  segment ABSOLUTE, at 0x46
   \   union <unnamed> volatile __io _A_ICR1
   \                     _A_ICR1:
   \   00000000                      DS8 2

   \                                 In  segment ABSOLUTE, at 0x48
   \   union <unnamed> volatile __io _A_OCR1B
   \                     _A_OCR1B:
   \   00000000                      DS8 2

   \                                 In  segment ABSOLUTE, at 0x4a
   \   union <unnamed> volatile __io _A_OCR1A
   \                     _A_OCR1A:
   \   00000000                      DS8 2

   \                                 In  segment ABSOLUTE, at 0x4c
   \   union <unnamed> volatile __io _A_TCNT1
   \                     _A_TCNT1:
   \   00000000                      DS8 2

   \                                 In  segment ABSOLUTE, at 0x4e
   \   union <unnamed> volatile __io _A_TCCR1B
   \                     _A_TCCR1B:
   \   00000000                      DS8 1

   \                                 In  segment ABSOLUTE, at 0x4f
   \   union <unnamed> volatile __io _A_TCCR1A
   \                     _A_TCCR1A:
   \   00000000                      DS8 1

   \                                 In  segment ABSOLUTE, at 0x52
   \   union <unnamed> volatile __io _A_TCNT0
   \                     _A_TCNT0:
   \   00000000                      DS8 1

   \                                 In  segment ABSOLUTE, at 0x55
   \   union <unnamed> volatile __io _A_MCUCR
   \                     _A_MCUCR:
   \   00000000                      DS8 1

   \                                 In  segment ABSOLUTE, at 0x58
   \   union <unnamed> volatile __io _A_TIFR
   \                     _A_TIFR:
   \   00000000                      DS8 1

   \                                 In  segment ABSOLUTE, at 0x59
   \   union <unnamed> volatile __io _A_TIMSK
   \                     _A_TIMSK:
   \   00000000                      DS8 1

   \                                 In  segment ABSOLUTE, at 0x5b
   \   union <unnamed> volatile __io _A_GICR
   \                     _A_GICR:
   \   00000000                      DS8 1
     28          //#include <inavr.h>  
     29          #include <intrinsics.h>
     30          #include "init.h"
     31          #include "du.h"  

   \                                 In  segment NEAR_Z, align 1, keep-with-next
   \   00000000                      REQUIRE `?<Segment init: NEAR_Z>`
   \   unsigned char perepoln
   \                     perepoln:
   \   00000000                      DS8 1

   \                                 In  segment NEAR_Z, align 1, keep-with-next
   \   00000000                      REQUIRE `?<Segment init: NEAR_Z>`
   \   unsigned char t1
   \                     t1:
   \   00000000                      DS8 1

   \                                 In  segment NEAR_Z, align 1, keep-with-next
   \   00000000                      REQUIRE `?<Segment init: NEAR_Z>`
   \   unsigned char t2
   \                     t2:
   \   00000000                      DS8 1

   \                                 In  segment NEAR_Z, align 1, keep-with-next
   \   00000000                      REQUIRE `?<Segment init: NEAR_Z>`
   \   static bool ini
   \                     ??ini:
   \   00000000                      DS8 1

   \                                 In  segment NEAR_Z, align 1, keep-with-next
   \   00000000                      REQUIRE `?<Segment init: NEAR_Z>`
   \   unsigned int dim1[50]
   \                     dim1:
   \   00000000                      DS8 100

   \                                 In  segment NEAR_Z, align 1, keep-with-next
   \   00000000                      REQUIRE `?<Segment init: NEAR_Z>`
   \   unsigned int dim2[50]
   \                     dim2:
   \   00000000                      DS8 100

   \                                 In  segment NEAR_Z, align 1, keep-with-next
   \   00000000                      REQUIRE `?<Segment init: NEAR_Z>`
   \   char ct
   \                     ct:
   \   00000000                      DS8 1

   \                                 In  segment NEAR_Z, align 1, keep-with-next
   \   00000000                      REQUIRE `?<Segment init: NEAR_Z>`
   \   unsigned int minimallen
   \                     minimallen:
   \   00000000                      DS8 2

   \                                 In  segment NEAR_Z, align 1, keep-with-next
   \   00000000                      REQUIRE `?<Segment init: NEAR_Z>`
   \   float len[50]
   \                     len:
   \   00000000                      DS8 200

   \                                 In  segment NEAR_Z, align 1, keep-with-next
   \   00000000                      REQUIRE `?<Segment init: NEAR_Z>`
   \   static bool intok
   \                     ??intok:
   \   00000000                      DS8 1

   \                                 In  segment NEAR_Z, align 1, keep-with-next
   \   00000000                      REQUIRE `?<Segment init: NEAR_Z>`
   \   static bool big
   \                     ??big:
   \   00000000                      DS8 1

   \                                 In  segment NEAR_Z, align 1, keep-with-next
   \   00000000                      REQUIRE `?<Segment init: NEAR_Z>`
   \   char cod_ok
   \                     cod_ok:
   \   00000000                      DS8 1

   \                                 In  segment NEAR_Z, align 1, keep-with-next
   \   00000000                      REQUIRE `?<Segment init: NEAR_Z>`
   \   static float sst
   \                     ??sst:
   \   00000000                      DS8 4

   \                                 In  segment CODE, align 2, keep-with-next
   \   __version_3 void du_init()
   \                     ??du_init:
   \   00000000   E001               LDI     R16, 1
   \   00000002   9300....           STS     ??ini, R16
   \   00000006   E000               LDI     R16, 0
   \   00000008   9300....           STS     ??intok, R16
   \   0000000C   E001               LDI     R16, 1
   \   0000000E   BD0E               OUT     0x2E, R16
   \   00000010   E000               LDI     R16, 0
   \   00000012   9300....           STS     ct, R16
   \   00000016   9508               RET
   \   00000018                      REQUIRE _A_TCCR1B

   \                                 In  segment CODE, align 2, keep-with-next
   \   __version_3 __interrupt void funINT0_vect()
   \                     ??funINT0_vect:
   \   00000000   931A               ST      -Y, R17
   \   00000002   930A               ST      -Y, R16
   \   00000004   B71F               IN      R17, 0x3F
   \   00000006   E001               LDI     R16, 1
   \   00000008   9300....           STS     ??intok, R16
   \   0000000C   B50C               IN      R16, 0x2C
   \   0000000E   9300....           STS     t1, R16
   \   00000012   B50D               IN      R16, 0x2D
   \   00000014   9300....           STS     t2, R16
   \   00000018   9100....           LDS     R16, t1
   \   0000001C   2300               TST     R16
   \   0000001E   F019               BREQ    ??funINT0_vect_1
   \   00000020   E000               LDI     R16, 0
   \   00000022   BD0D               OUT     0x2D, R16
   \   00000024   BD0C               OUT     0x2C, R16
   \                     ??funINT0_vect_1:
   \   00000026   BF1F               OUT     0x3F, R17
   \   00000028   9109               LD      R16, Y+
   \   0000002A   9119               LD      R17, Y+
   \   0000002C   9518               RETI
   \   0000002E                      REQUIRE _A_TCNT1

   \                                 In  segment CODE, align 2, keep-with-next
   \   __version_3 char du_main(unsigned char)
   \                     ??du_main:
   \   00000000   ....               RCALL   ?PROLOGUE16_L09
   \   00000002                      REQUIRE ?Register_R4_is_cg_reg
   \   00000002                      REQUIRE ?Register_R5_is_cg_reg
   \   00000002                      REQUIRE ?Register_R6_is_cg_reg
   \   00000002                      REQUIRE ?Register_R7_is_cg_reg
   \   00000002                      REQUIRE ?Register_R8_is_cg_reg
   \   00000002                      REQUIRE ?Register_R9_is_cg_reg
   \   00000002                      REQUIRE ?Register_R10_is_cg_reg
   \   00000002                      REQUIRE ?Register_R11_is_cg_reg
   \   00000002                      REQUIRE ?Register_R12_is_cg_reg
   \   00000002                      REQUIRE ?Register_R13_is_cg_reg
   \   00000002                      REQUIRE ?Register_R14_is_cg_reg
   \   00000002                      REQUIRE ?Register_R15_is_cg_reg
   \   00000002   2EF0               MOV     R15, R16
   \   00000004   E000               LDI     R16, 0
   \   00000006   9300....           STS     cod_ok, R16
   \   0000000A   9100....           LDS     R16, ??ini
   \   0000000E   2300               TST     R16
   \   00000010   F409               BRNE    ??du_main_1
   \   00000012   ....               RCALL   ??du_init
   \                     ??du_main_1:
   \   00000014   9100....           LDS     R16, ??intok
   \   00000018   2300               TST     R16
   \   0000001A   F0A9               BREQ    ??du_main_2
   \   0000001C   ....               RCALL   ?Subroutine19
   \                     ??CrossCallReturnLabel_20:
   \   0000001E   E012               LDI     R17, 2
   \   00000020   9F01               MUL     R16, R17
   \   00000022   9100....           LDS     R16, t1
   \   00000026   E010               LDI     R17, 0
   \   00000028   ....               RCALL   ?Subroutine22
   \                     ??CrossCallReturnLabel_26:
   \   0000002A   ....               RCALL   ??Subroutine136_0
   \                     ??CrossCallReturnLabel_318:
   \   0000002C   9100....           LDS     R16, t2
   \   00000030   ....               RCALL   ?Subroutine23
   \                     ??CrossCallReturnLabel_29:
   \   00000032   ....               RCALL   ??Subroutine136_0
   \                     ??CrossCallReturnLabel_319:
   \   00000034   ....               LDI     R30, LOW(ct)
   \   00000036   ....               LDI     R31, (ct) >> 8
   \   00000038   ....               RCALL   ??Subroutine141_0
   \                     ??CrossCallReturnLabel_353:
   \   0000003A   3301               CPI     R16, 49
   \   0000003C   F010               BRCS    ??du_main_3
   \   0000003E   950A               DEC     R16
   \   00000040   8300               ST      Z, R16
   \                     ??du_main_3:
   \   00000042   9310....           STS     ??intok, R17
   \                     ??du_main_2:
   \   00000046   9100....           LDS     R16, perepoln
   \   0000004A   2300               TST     R16
   \   0000004C   F409               BRNE    $+2+2
   \   0000004E   C169               RJMP    ??CrossCallReturnLabel_15
   \   00000050   ....               RCALL   ?Subroutine12
   \                     ??CrossCallReturnLabel_10:
   \   00000052   24EE               CLR     R14
   \   00000054   94E3               INC     R14
   \   00000056   E0B0               LDI     R27, 0
   \   00000058   E0A0               LDI     R26, 0
   \   0000005A   E090               LDI     R25, 0
   \   0000005C   ....               LDI     R30, LOW(??sst)
   \   0000005E   ....               LDI     R31, (??sst) >> 8
   \   00000060   ....               RCALL   ?Subroutine24
   \                     ??CrossCallReturnLabel_32:
   \   00000062   EF0F               LDI     R16, 255
   \   00000064   ....               RCALL   ?Subroutine92
   \                     ??CrossCallReturnLabel_161:
   \   00000066   ....               RCALL   ?Subroutine91
   \                     ??CrossCallReturnLabel_152:
   \   00000068   ....               RCALL   ?Subroutine19
   \                     ??CrossCallReturnLabel_21:
   \   0000006A   3302               CPI     R16, 50
   \   0000006C   F028               BRCS    ??CrossCallReturnLabel_305
   \   0000006E   ....               LDI     R16, LOW(`?<Constant " error ct big =">`)
   \   00000070   ....               LDI     R17, (`?<Constant " error ct big =">`) >> 8
   \   00000072   ....               RCALL   ??rprintfStr
   \   00000074   ....               RCALL   ?Subroutine19
   \                     ??CrossCallReturnLabel_22:
   \   00000076   ....               RCALL   ?Subroutine18
   \                     ??CrossCallReturnLabel_305:
   \   00000078   ....               RCALL   ?Subroutine19
   \                     ??CrossCallReturnLabel_23:
   \   0000007A   3006               CPI     R16, 6
   \   0000007C   F020               BRCS    ??du_main_4
   \   0000007E   9100....           LDS     R16, ??big
   \   00000082   2300               TST     R16
   \   00000084   F029               BREQ    ??du_main_5
   \                     ??du_main_4:
   \   00000086   9100....           LDS     R16, ??big
   \   0000008A   2300               TST     R16
   \   0000008C   F409               BRNE    $+2+2
   \   0000008E   C119               RJMP    ??du_main_6
   \                     ??du_main_5:
   \   00000090   E081               LDI     R24, 1
   \   00000092   C01D               RJMP    ??du_main_7
   \                     ??du_main_8:
   \   00000094   ....               RCALL   ?Subroutine42
   \                     ??CrossCallReturnLabel_50:
   \   00000096   ....               RCALL   ?Subroutine22
   \                     ??CrossCallReturnLabel_27:
   \   00000098   ....               RCALL   ?Subroutine101
   \                     ??CrossCallReturnLabel_188:
   \   0000009A   ....               RCALL   ?Subroutine23
   \                     ??CrossCallReturnLabel_30:
   \   0000009C   ....               RCALL   ?Subroutine94
   \                     ??CrossCallReturnLabel_298:
   \   0000009E   ....               RCALL   ?Subroutine46
   \                     ??CrossCallReturnLabel_61:
   \   000000A0   E004               LDI     R16, 4
   \   000000A2   9F80               MUL     R24, R16
   \   000000A4   01F0               MOVW    R31:R30, R1:R0
   \   000000A6   ....               SUBI    R30, LOW((-(len) & 0xFFFF))
   \   000000A8   ....               SBCI    R31, (-(len) & 0xFFFF) >> 8
   \   000000AA   8240               ST      Z, R4
   \   000000AC   8311               STD     Z+1, R17
   \   000000AE   8322               STD     Z+2, R18
   \   000000B0   8333               STD     Z+3, R19
   \   000000B2   E041               LDI     R20, 1
   \   000000B4   E050               LDI     R21, 0
   \   000000B6   E661               LDI     R22, 97
   \   000000B8   E474               LDI     R23, 68
   \   000000BA   2D04               MOV     R16, R4
   \   000000BC   ....               RCALL   ?F_CMP_GE_L04
   \   000000BE   F430               BRCC    ??CrossCallReturnLabel_320
   \   000000C0   ....               RCALL   ?Subroutine27
   \                     ??CrossCallReturnLabel_199:
   \   000000C2   ....               RCALL   ?F_CMP_LT_L04
   \   000000C4   F418               BRCC    ??CrossCallReturnLabel_320
   \   000000C6   ....               RCALL   ?F2SL_L04
   \   000000C8   ....               RCALL   ?Subroutine92
   \                     ??CrossCallReturnLabel_162:
   \   000000CA   ....               RCALL   ??Subroutine136_0
   \                     ??CrossCallReturnLabel_320:
   \   000000CC   9583               INC     R24
   \                     ??du_main_7:
   \   000000CE   ....               RCALL   ?Subroutine19
   \                     ??CrossCallReturnLabel_24:
   \   000000D0   1780               CP      R24, R16
   \   000000D2   F300               BRCS    ??du_main_8
   \   000000D4   E081               LDI     R24, 1
   \   000000D6   C03C               RJMP    ??du_main_9
   \                     ??du_main_10:
   \   000000D8   ....               RCALL   ?Subroutine45
   \                     ??CrossCallReturnLabel_58:
   \   000000DA   F430               BRCC    ??du_main_11
   \   000000DC   ....               RCALL   ?Subroutine51
   \                     ??CrossCallReturnLabel_72:
   \   000000DE   F420               BRCC    ??du_main_11
   \   000000E0   95B3               INC     R27
   \   000000E2   31B0               CPI     R27, 16
   \   000000E4   F408               BRCC    ??du_main_11
   \   000000E6   95B3               INC     R27
   \                     ??du_main_11:
   \   000000E8   31B0               CPI     R27, 16
   \   000000EA   F010               BRCS    ??du_main_12
   \   000000EC   E002               LDI     R16, 2
   \                     ??du_main_13:
   \   000000EE   2EE0               MOV     R14, R16
   \                     ??du_main_12:
   \   000000F0   E001               LDI     R16, 1
   \   000000F2   9300....           STS     cod_ok, R16
   \   000000F6   20FF               TST     R15
   \   000000F8   F539               BRNE    ??CrossCallReturnLabel_13
   \   000000FA   ....               RCALL   ?Subroutine20
   \                     ??CrossCallReturnLabel_377:
   \   000000FC   E002               LDI     R16, 2
   \   000000FE   ....               RCALL   ??rprintfFloat
   \   00000100   ....               LDI     R16, LOW(`?<Constant "  / abslen= ">`)
   \   00000102   ....               LDI     R17, (`?<Constant "  / abslen= ">`) >> 8
   \   00000104   ....               RCALL   ??rprintfStr
   \   00000106   01F5               MOVW    R31:R30, R11:R10
   \   00000108   ....               RCALL   ?Subroutine28
   \                     ??CrossCallReturnLabel_299:
   \   0000010A   ....               RCALL   ??Subroutine145_0
   \                     ??CrossCallReturnLabel_372:
   \   0000010C   E009               LDI     R16, 9
   \   0000010E   ....               RCALL   ??rprintfFloat
   \   00000110   ....               LDI     R16, LOW(`?<Constant "  / len= ">`)
   \   00000112   ....               LDI     R17, (`?<Constant "  / len= ">`) >> 8
   \   00000114   ....               RCALL   ??rprintfStr
   \   00000116   01F4               MOVW    R31:R30, R9:R8
   \   00000118   ....               RCALL   ?Subroutine54
   \                     ??CrossCallReturnLabel_80:
   \   0000011A   E004               LDI     R16, 4
   \   0000011C   ....               RCALL   ??rprintfFloat
   \   0000011E   ....               LDI     R16, LOW(`?<Constant "  ">`)
   \   00000120   ....               LDI     R17, (`?<Constant "  ">`) >> 8
   \   00000122   ....               RCALL   ??rprintfStr
   \   00000124   ....               LDI     R16, LOW(`?<Constant "  / cod1= ">`)
   \   00000126   ....               LDI     R17, (`?<Constant "  / cod1= ">`) >> 8
   \   00000128   ....               RCALL   ?Subroutine26
   \                     ??CrossCallReturnLabel_310:
   \   0000012A   ....               LDI     R16, LOW(`?<Constant " / cod2= ">`)
   \   0000012C   ....               LDI     R17, (`?<Constant " / cod2= ">`) >> 8
   \   0000012E   ....               RCALL   ?Subroutine37
   \                     ??CrossCallReturnLabel_365:
   \   00000130   ....               RCALL   ??Subroutine133_0
   \                     ??CrossCallReturnLabel_308:
   \   00000132   ....               LDI     R16, LOW(`?<Constant " / cod3= ">`)
   \   00000134   ....               LDI     R17, (`?<Constant " / cod3= ">`) >> 8
   \   00000136   ....               RCALL   ??rprintfStr
   \   00000138   ....               RCALL   ?Subroutine95
   \                     ??CrossCallReturnLabel_165:
   \   0000013A   ....               RCALL   ??Subroutine133_0
   \                     ??CrossCallReturnLabel_307:
   \   0000013C   ....               LDI     R16, LOW(`?<Constant "/ minlen=">`)
   \   0000013E   ....               LDI     R17, (`?<Constant "/ minlen=">`) >> 8
   \   00000140   ....               RCALL   ??rprintfStr
   \   00000142   ....               RCALL   ?Subroutine92
   \                     ??CrossCallReturnLabel_163:
   \   00000144   ....               RCALL   ?Subroutine101
   \                     ??CrossCallReturnLabel_189:
   \   00000146   ....               RCALL   ??Subroutine17_0
   \                     ??CrossCallReturnLabel_13:
   \   00000148   E000               LDI     R16, 0
   \   0000014A   9300....           STS     perepoln, R16
   \                     ??du_main_14:
   \   0000014E   9583               INC     R24
   \                     ??du_main_9:
   \   00000150   ....               RCALL   ?Subroutine19
   \                     ??CrossCallReturnLabel_25:
   \   00000152   1780               CP      R24, R16
   \   00000154   F008               BRCS    $+2+2
   \   00000156   C0B5               RJMP    ??du_main_6
   \   00000158   ....               RCALL   ?Subroutine42
   \                     ??CrossCallReturnLabel_51:
   \   0000015A   ....               LDI     R16, LOW(dim2)
   \   0000015C   2EC0               MOV     R12, R16
   \   0000015E   ....               LDI     R16, (dim2) >> 8
   \   00000160   0CC0               ADD     R12, R0
   \   00000162   1D01               ADC     R16, R1
   \   00000164   2ED0               MOV     R13, R16
   \   00000166   ....               LDI     R16, LOW(dim1)
   \   00000168   2EA0               MOV     R10, R16
   \   0000016A   ....               LDI     R16, (dim1) >> 8
   \   0000016C   0CA0               ADD     R10, R0
   \   0000016E   1D01               ADC     R16, R1
   \   00000170   2EB0               MOV     R11, R16
   \   00000172   2DEA               MOV     R30, R10
   \   00000174   2FF0               MOV     R31, R16
   \   00000176   ....               RCALL   ?Subroutine28
   \                     ??CrossCallReturnLabel_300:
   \   00000178   ....               RCALL   ?Subroutine46
   \                     ??CrossCallReturnLabel_62:
   \   0000017A   ....               RCALL   ?Subroutine27
   \                     ??CrossCallReturnLabel_200:
   \   0000017C   ....               RCALL   ?F_DIV_L04
   \   0000017E   E044               LDI     R20, 4
   \   00000180   9F84               MUL     R24, R20
   \   00000182   ....               LDI     R20, LOW(len)
   \   00000184   2E84               MOV     R8, R20
   \   00000186   ....               LDI     R20, (len) >> 8
   \   00000188   0C80               ADD     R8, R0
   \   0000018A   1D41               ADC     R20, R1
   \   0000018C   2E94               MOV     R9, R20
   \   0000018E   2DE8               MOV     R30, R8
   \   00000190   2FF4               MOV     R31, R20
   \   00000192   ....               RCALL   ??Subroutine136_0
   \                     ??CrossCallReturnLabel_321:
   \   00000194   8322               STD     Z+2, R18
   \   00000196   8333               STD     Z+3, R19
   \   00000198   ....               RCALL   ?Subroutine43
   \                     ??CrossCallReturnLabel_385:
   \   0000019A   ....               RCALL   ?F_CMP_EQ_L04
   \   0000019C   F2C1               BREQ    ??du_main_14
   \   0000019E   ....               RCALL   ?Subroutine46
   \                     ??CrossCallReturnLabel_63:
   \   000001A0   3082               CPI     R24, 2
   \   000001A2   F290               BRCS    ??CrossCallReturnLabel_13
   \   000001A4   ....               RCALL   ?Subroutine42
   \                     ??CrossCallReturnLabel_52:
   \   000001A6   E003               LDI     R16, 3
   \   000001A8   16E0               CP      R14, R16
   \   000001AA   F5A1               BRNE    ??du_main_15
   \   000001AC   2F49               MOV     R20, R25
   \   000001AE   ....               RCALL   ?Subroutine3
   \                     ??CrossCallReturnLabel_2:
   \   000001B0   F498               BRCC    ??du_main_16
   \   000001B2   ....               RCALL   ?Subroutine38
   \                     ??CrossCallReturnLabel_40:
   \   000001B4   ....               RCALL   ?Subroutine59
   \                     ??CrossCallReturnLabel_235:
   \   000001B6   ....               RCALL   ?Subroutine49
   \                     ??CrossCallReturnLabel_69:
   \   000001B8   F410               BRCC    ??du_main_17
   \   000001BA   ....               RCALL   ?Subroutine61
   \                     ??CrossCallReturnLabel_91:
   \   000001BC   F048               BRCS    ??du_main_18
   \                     ??du_main_17:
   \   000001BE   ....               RCALL   ?Subroutine62
   \                     ??CrossCallReturnLabel_94:
   \   000001C0   F490               BRCC    ??du_main_19
   \   000001C2   ....               RCALL   ?Subroutine52
   \                     ??CrossCallReturnLabel_75:
   \   000001C4   F480               BRCC    ??du_main_19
   \   000001C6   ....               RCALL   ?Subroutine95
   \                     ??CrossCallReturnLabel_166:
   \   000001C8   ....               RCALL   ?Subroutine21
   \                     ??CrossCallReturnLabel_331:
   \   000001CA   5F9E               SUBI    R25, 254
   \   000001CC   309F               CPI     R25, 15
   \   000001CE   F498               BRCC    ??du_main_20
   \                     ??du_main_18:
   \   000001D0   ....               RCALL   ?Subroutine38
   \                     ??CrossCallReturnLabel_41:
   \   000001D2   2F49               MOV     R20, R25
   \   000001D4   ....               RCALL   ?Subroutine1
   \                     ??CrossCallReturnLabel_238:
   \   000001D6   C005               RJMP    ??CrossCallReturnLabel_322
   \                     ??du_main_16:
   \   000001D8   ....               RCALL   ?Subroutine58
   \                     ??CrossCallReturnLabel_86:
   \   000001DA   F768               BRCC    ??CrossCallReturnLabel_235
   \   000001DC   ....               RCALL   ?Subroutine95
   \                     ??CrossCallReturnLabel_167:
   \   000001DE   ....               RCALL   ?Subroutine100
   \                     ??CrossCallReturnLabel_184:
   \   000001E0   ....               RCALL   ??Subroutine136_0
   \                     ??CrossCallReturnLabel_322:
   \   000001E2   5F9E               SUBI    R25, 254
   \   000001E4   C008               RJMP    ??du_main_20
   \                     ??du_main_19:
   \   000001E6   ....               RCALL   ?Subroutine45
   \                     ??CrossCallReturnLabel_59:
   \   000001E8   F430               BRCC    ??du_main_20
   \   000001EA   ....               RCALL   ?Subroutine51
   \                     ??CrossCallReturnLabel_73:
   \   000001EC   F420               BRCC    ??du_main_20
   \   000001EE   9593               INC     R25
   \   000001F0   3190               CPI     R25, 16
   \   000001F2   F408               BRCC    ??du_main_20
   \   000001F4   9593               INC     R25
   \                     ??du_main_20:
   \   000001F6   3190               CPI     R25, 16
   \   000001F8   F408               BRCC    $+2+2
   \   000001FA   CF7A               RJMP    ??du_main_12
   \   000001FC   24EE               CLR     R14
   \   000001FE   94E3               INC     R14
   \   00000200   ....               RCALL   ?Subroutine99
   \                     ??CrossCallReturnLabel_176:
   \   00000202   ....               RCALL   ?Subroutine30
   \                     ??CrossCallReturnLabel_34:
   \   00000204   ....               RCALL   ??Subroutine136_0
   \                     ??CrossCallReturnLabel_323:
   \   00000206   ....               RCALL   ??Subroutine144_0
   \                     ??CrossCallReturnLabel_367:
   \   00000208   ....               RCALL   ?Subroutine30
   \                     ??CrossCallReturnLabel_35:
   \   0000020A   ....               RCALL   ??Subroutine136_0
   \                     ??CrossCallReturnLabel_324:
   \   0000020C   E0B0               LDI     R27, 0
   \   0000020E   E0A0               LDI     R26, 0
   \   00000210   E090               LDI     R25, 0
   \   00000212   C033               RJMP    ??du_main_21
   \                     ??du_main_15:
   \   00000214   E002               LDI     R16, 2
   \   00000216   16E0               CP      R14, R16
   \   00000218   F561               BRNE    ??du_main_22
   \   0000021A   2F4A               MOV     R20, R26
   \   0000021C   ....               RCALL   ?Subroutine3
   \                     ??CrossCallReturnLabel_3:
   \   0000021E   F4A0               BRCC    ??du_main_23
   \   00000220   ....               RCALL   ?Subroutine36
   \                     ??CrossCallReturnLabel_38:
   \   00000222   ....               RCALL   ?Subroutine59
   \                     ??CrossCallReturnLabel_236:
   \   00000224   ....               RCALL   ?Subroutine49
   \                     ??CrossCallReturnLabel_70:
   \   00000226   F410               BRCC    ??du_main_24
   \   00000228   ....               RCALL   ?Subroutine61
   \                     ??CrossCallReturnLabel_92:
   \   0000022A   F048               BRCS    ??du_main_25
   \                     ??du_main_24:
   \   0000022C   ....               RCALL   ?Subroutine62
   \                     ??CrossCallReturnLabel_95:
   \   0000022E   F4A0               BRCC    ??du_main_26
   \   00000230   ....               RCALL   ?Subroutine52
   \                     ??CrossCallReturnLabel_76:
   \   00000232   F490               BRCC    ??du_main_26
   \   00000234   ....               RCALL   ??Subroutine144_0
   \                     ??CrossCallReturnLabel_368:
   \   00000236   ....               RCALL   ?Subroutine21
   \                     ??CrossCallReturnLabel_332:
   \   00000238   5FAE               SUBI    R26, 254
   \   0000023A   30AF               CPI     R26, 15
   \   0000023C   F4A8               BRCC    ??du_main_27
   \                     ??du_main_25:
   \   0000023E   ....               RCALL   ?Subroutine36
   \                     ??CrossCallReturnLabel_39:
   \   00000240   2F4A               MOV     R20, R26
   \   00000242   ....               RCALL   ?Subroutine1
   \                     ??CrossCallReturnLabel_239:
   \   00000244   5FAE               SUBI    R26, 254
   \   00000246   C010               RJMP    ??du_main_27
   \                     ??du_main_23:
   \   00000248   ....               RCALL   ?Subroutine58
   \                     ??CrossCallReturnLabel_87:
   \   0000024A   F760               BRCC    ??CrossCallReturnLabel_236
   \   0000024C   ....               RCALL   ??Subroutine144_0
   \                     ??CrossCallReturnLabel_369:
   \   0000024E   ....               RCALL   ?Subroutine100
   \                     ??CrossCallReturnLabel_185:
   \   00000250   ....               RCALL   ??Subroutine136_0
   \                     ??CrossCallReturnLabel_325:
   \   00000252   5FAE               SUBI    R26, 254
   \   00000254   ....               RCALL   ?Subroutine60
   \                     ??CrossCallReturnLabel_89:
   \   00000256   C008               RJMP    ??du_main_27
   \                     ??du_main_26:
   \   00000258   ....               RCALL   ?Subroutine45
   \                     ??CrossCallReturnLabel_60:
   \   0000025A   F430               BRCC    ??du_main_27
   \   0000025C   ....               RCALL   ?Subroutine51
   \                     ??CrossCallReturnLabel_74:
   \   0000025E   F420               BRCC    ??du_main_27
   \   00000260   95A3               INC     R26
   \   00000262   31A0               CPI     R26, 16
   \   00000264   F408               BRCC    ??du_main_27
   \   00000266   95A3               INC     R26
   \                     ??du_main_27:
   \   00000268   31A0               CPI     R26, 16
   \   0000026A   F408               BRCC    $+2+2
   \   0000026C   CF41               RJMP    ??du_main_12
   \   0000026E   E003               LDI     R16, 3
   \   00000270   CF3E               RJMP    ??du_main_13
   \                     ??du_main_22:
   \   00000272   E001               LDI     R16, 1
   \   00000274   16E0               CP      R14, R16
   \   00000276   F009               BREQ    $+2+2
   \   00000278   CF3B               RJMP    ??du_main_12
   \                     ??du_main_21:
   \   0000027A   2F4B               MOV     R20, R27
   \   0000027C   ....               RCALL   ?Subroutine114
   \                     ??CrossCallReturnLabel_226:
   \   0000027E   ....               RCALL   ?Subroutine96
   \                     ??CrossCallReturnLabel_171:
   \   00000280   ....               RCALL   ?Subroutine47
   \                     ??CrossCallReturnLabel_65:
   \   00000282   F4B8               BRCC    ??du_main_28
   \   00000284   ....               RCALL   ?Subroutine34
   \                     ??CrossCallReturnLabel_174:
   \   00000286   ....               RCALL   ?Subroutine59
   \                     ??CrossCallReturnLabel_237:
   \   00000288   ....               RCALL   ?Subroutine49
   \                     ??CrossCallReturnLabel_71:
   \   0000028A   F410               BRCC    ??du_main_29
   \   0000028C   ....               RCALL   ?Subroutine61
   \                     ??CrossCallReturnLabel_93:
   \   0000028E   F060               BRCS    ??du_main_30
   \                     ??du_main_29:
   \   00000290   ....               RCALL   ?Subroutine62
   \                     ??CrossCallReturnLabel_96:
   \   00000292   F008               BRCS    $+2+2
   \   00000294   CF21               RJMP    ??du_main_10
   \   00000296   ....               RCALL   ?Subroutine52
   \                     ??CrossCallReturnLabel_77:
   \   00000298   F008               BRCS    $+2+2
   \   0000029A   CF1E               RJMP    ??du_main_10
   \   0000029C   ....               RCALL   ?Subroutine99
   \                     ??CrossCallReturnLabel_177:
   \   0000029E   ....               RCALL   ?Subroutine21
   \                     ??CrossCallReturnLabel_333:
   \   000002A0   5FBE               SUBI    R27, 254
   \   000002A2   30BF               CPI     R27, 15
   \   000002A4   F008               BRCS    $+2+2
   \   000002A6   CF20               RJMP    ??du_main_11
   \                     ??du_main_30:
   \   000002A8   ....               RCALL   ?Subroutine34
   \                     ??CrossCallReturnLabel_175:
   \   000002AA   2F4B               MOV     R20, R27
   \   000002AC   ....               RCALL   ?Subroutine1
   \                     ??CrossCallReturnLabel_240:
   \   000002AE   5FBE               SUBI    R27, 254
   \   000002B0   CF1B               RJMP    ??du_main_11
   \                     ??du_main_28:
   \   000002B2   ....               RCALL   ?Subroutine58
   \                     ??CrossCallReturnLabel_88:
   \   000002B4   F748               BRCC    ??CrossCallReturnLabel_237
   \   000002B6   ....               RCALL   ?Subroutine99
   \                     ??CrossCallReturnLabel_178:
   \   000002B8   ....               RCALL   ?Subroutine100
   \                     ??CrossCallReturnLabel_186:
   \   000002BA   ....               RCALL   ??Subroutine136_0
   \                     ??CrossCallReturnLabel_326:
   \   000002BC   5FBE               SUBI    R27, 254
   \   000002BE   ....               RCALL   ?Subroutine60
   \                     ??CrossCallReturnLabel_90:
   \   000002C0   CF13               RJMP    ??du_main_11
   \                     ??du_main_6:
   \   000002C2   E080               LDI     R24, 0
   \   000002C4   E044               LDI     R20, 4
   \                     ??du_main_31:
   \   000002C6   ....               RCALL   ?Subroutine42
   \                     ??CrossCallReturnLabel_53:
   \   000002C8   E000               LDI     R16, 0
   \   000002CA   ....               RCALL   ?Subroutine22
   \                     ??CrossCallReturnLabel_28:
   \   000002CC   ....               RCALL   ?Subroutine91
   \                     ??CrossCallReturnLabel_153:
   \   000002CE   ....               RCALL   ?Subroutine23
   \                     ??CrossCallReturnLabel_31:
   \   000002D0   ....               RCALL   ?Subroutine91
   \                     ??CrossCallReturnLabel_154:
   \   000002D2   9F84               MUL     R24, R20
   \   000002D4   01F0               MOVW    R31:R30, R1:R0
   \   000002D6   ....               SUBI    R30, LOW((-(len) & 0xFFFF))
   \   000002D8   ....               SBCI    R31, (-(len) & 0xFFFF) >> 8
   \   000002DA   ....               RCALL   ?Subroutine24
   \                     ??CrossCallReturnLabel_33:
   \   000002DC   9583               INC     R24
   \   000002DE   3382               CPI     R24, 50
   \   000002E0   F390               BRCS    ??du_main_31
   \   000002E2   9300....           STS     perepoln, R16
   \   000002E6   9300....           STS     t1, R16
   \   000002EA   9300....           STS     t2, R16
   \   000002EE   9300....           STS     ct, R16
   \   000002F2   9300....           STS     ??big, R16
   \   000002F6   E001               LDI     R16, 1
   \   000002F8   16F0               CP      R15, R16
   \   000002FA   F499               BRNE    ??CrossCallReturnLabel_15
   \   000002FC   9100....           LDS     R16, cod_ok
   \   00000300   2300               TST     R16
   \   00000302   F079               BREQ    ??CrossCallReturnLabel_15
   \   00000304   ....               LDI     R16, LOW(`?<Constant "  /   cod1= ">`)
   \   00000306   ....               LDI     R17, (`?<Constant "  /   cod1= ">`) >> 8
   \   00000308   ....               RCALL   ?Subroutine26
   \                     ??CrossCallReturnLabel_309:
   \   0000030A   ....               LDI     R16, LOW(`?<Constant "/   cod2= ">`)
   \   0000030C   ....               LDI     R17, (`?<Constant "/   cod2= ">`) >> 8
   \   0000030E   ....               RCALL   ?Subroutine37
   \                     ??CrossCallReturnLabel_366:
   \   00000310   ....               RCALL   ??Subroutine133_0
   \                     ??CrossCallReturnLabel_306:
   \   00000312   ....               LDI     R16, LOW(`?<Constant "/   cod3= ">`)
   \   00000314   ....               LDI     R17, (`?<Constant "/   cod3= ">`) >> 8
   \   00000316   ....               RCALL   ??rprintfStr
   \   00000318   ....               RCALL   ?Subroutine33
   \                     ??CrossCallReturnLabel_196:
   \   0000031A   ....               RCALL   ?Subroutine117
   \                     ??CrossCallReturnLabel_301:
   \   0000031C   ....               RCALL   ??Subroutine145_0
   \                     ??CrossCallReturnLabel_373:
   \   0000031E   E006               LDI     R16, 6
   \   00000320   ....               RCALL   ??Subroutine17_1
   \                     ??CrossCallReturnLabel_15:
   \   00000322   9100....           LDS     R16, cod_ok
   \   00000326   E1E0               LDI     R30, 16
   \   00000328   ....               RJMP    ?EPILOGUE_B16_L09

   \                                 In  segment CODE, align 2, keep-with-next
   \                     ?Subroutine62:
   \   00000000   E460               LDI     R22, 64
   \   00000002   ....               RJMP    ?F_CMP_GE_L04

   \                                 In  segment CODE, align 2, keep-with-next
   \                     ?Subroutine61:
   \   00000000   E460               LDI     R22, 64
   \   00000002   ....               RJMP    ?F_CMP_LT_L04

   \                                 In  segment CODE, align 2, keep-with-next
   \                     ?Subroutine60:
   \   00000000   0198               MOVW    R19:R18, R17:R16
   \   00000002   ....               RJMP    ?Subroutine97

   \                                 In  segment CODE, align 2, keep-with-next
   \                     ?Subroutine59:
   \   00000000   0F28               ADD     R18, R24
   \   00000002   1F34               ADC     R19, R20
   \   00000004                      REQUIRE ?Subroutine118
   \   00000004                      ;               // Fall through to label ?Subroutine118

   \                                 In  segment CODE, align 2, keep-with-next
   \                     ?Subroutine118:
   \   00000000   8320               ST      Z, R18
   \   00000002   8331               STD     Z+1, R19
   \   00000004   9508               RET

   \                                 In  segment CODE, align 2, keep-with-next
   \                     ?Subroutine58:
   \   00000000   E060               LDI     R22, 0
   \   00000002   E470               LDI     R23, 64
   \   00000004   ....               RJMP    ?F_CMP_LT_L04

   \                                 In  segment CODE, align 2, keep-with-next
   \                     ?Subroutine52:
   \   00000000   EA60               LDI     R22, 160
   \   00000002   ....               RJMP    ?F_CMP_LT_L04

   \                                 In  segment CODE, align 2, keep-with-next
   \                     ?Subroutine51:
   \   00000000   E040               LDI     R20, 0
   \   00000002   EE60               LDI     R22, 224
   \   00000004   ....               RJMP    ?F_CMP_LT_L04

   \                                 In  segment CODE, align 2, keep-with-next
   \                     ?Subroutine49:
   \   00000000   E060               LDI     R22, 0
   \   00000002   E470               LDI     R23, 64
   \   00000004   0193               MOVW    R19:R18, R7:R6
   \   00000006   ....               RJMP    ?F_CMP_GE_L04

   \                                 In  segment CODE, align 2, keep-with-next
   \                     ?Subroutine45:
   \   00000000   E041               LDI     R20, 1
   \   00000002   EA60               LDI     R22, 160
   \   00000004   ....               RJMP    ?F_CMP_GE_L04

   \                                 In  segment CODE, align 2, keep-with-next
   \                     ?Subroutine36:
   \   00000000   ....               LDI     R30, LOW(cod2)
   \   00000002   ....               LDI     R31, (cod2) >> 8
   \   00000004   ....               RJMP    ?Subroutine98

   \                                 In  segment CODE, align 2, keep-with-next
   \                     ?Subroutine34:
   \   00000000   ....               RCALL   ?Subroutine99
   \                     ??CrossCallReturnLabel_183:
   \   00000002                      REQUIRE ?Subroutine98
   \   00000002                      ;               // Fall through to label ?Subroutine98

   \                                 In  segment CODE, align 2, keep-with-next
   \                     ?Subroutine98:
   \   00000000   8120               LD      R18, Z
   \   00000002   8131               LDD     R19, Z+1
   \   00000004   9508               RET

   \                                 In  segment CODE, align 2, keep-with-next
   \                     ?Subroutine30:
   \   00000000   ....               RCALL   ?Subroutine101
   \                     ??CrossCallReturnLabel_194:
   \   00000002   0F00               LSL     R16
   \   00000004   1F11               ROL     R17
   \   00000006   0F00               LSL     R16
   \   00000008   1F11               ROL     R17
   \   0000000A   9508               RET

   \                                 In  segment CODE, align 2, keep-with-next
   \                     ?Subroutine100:
   \   00000000   8100               LD      R16, Z
   \   00000002   8111               LDD     R17, Z+1
   \   00000004   2902               OR      R16, R2
   \   00000006   2913               OR      R17, R3
   \   00000008   9508               RET

   \                                 In  segment CODE, align 2, keep-with-next
   \                     ?Subroutine28:
   \   00000000   ....               RCALL   ?Subroutine101
   \                     ??CrossCallReturnLabel_193:
   \   00000002   01F6               MOVW    R31:R30, R13:R12
   \   00000004                      REQUIRE ?Subroutine94
   \   00000004                      ;               // Fall through to label ?Subroutine94

   \                                 In  segment CODE, align 2, keep-with-next
   \                     ?Subroutine94:
   \   00000000   8130               LD      R19, Z
   \   00000002   E020               LDI     R18, 0
   \   00000004   0F13               ADD     R17, R19
   \   00000006                      REQUIRE ?Subroutine129
   \   00000006                      ;               // Fall through to label ?Subroutine129

   \                                 In  segment CODE, align 2, keep-with-next
   \                     ?Subroutine129:
   \   00000000   E030               LDI     R19, 0
   \   00000002   ....               RJMP    ?UL2F_L04

   \                                 In  segment CODE, align 2, keep-with-next
   \                     ?Subroutine27:
   \   00000000   ....               RCALL   ?Subroutine92
   \                     ??CrossCallReturnLabel_164:
   \   00000002   ....               RCALL   ?Subroutine93
   \                     ??CrossCallReturnLabel_296:
   \   00000004                      REQUIRE ?Subroutine103
   \   00000004                      ;               // Fall through to label ?Subroutine103

   \                                 In  segment CODE, align 2, keep-with-next
   \                     ?Subroutine103:
   \   00000000   0182               MOVW    R17:R16, R5:R4
   \   00000002   0193               MOVW    R19:R18, R7:R6
   \   00000004   9508               RET

   \                                 In  segment CODE, align 2, keep-with-next
   \                     ?Subroutine93:
   \   00000000   8100               LD      R16, Z
   \   00000002   8111               LDD     R17, Z+1
   \   00000004   ....               RJMP    ?Subroutine115

   \                                 In  segment CODE, align 2, keep-with-next
   \                     ?Subroutine92:
   \   00000000   ....               LDI     R30, LOW(minimallen)
   \   00000002   ....               LDI     R31, (minimallen) >> 8
   \   00000004   9508               RET

   \                                 In  segment CODE, align 2, keep-with-next
   \                     ?Subroutine26:
   \   00000000   ....               RCALL   ??rprintfStr
   \   00000002   ....               RCALL   ?Subroutine99
   \                     ??CrossCallReturnLabel_182:
   \   00000004                      REQUIRE ?Subroutine130
   \   00000004                      REQUIRE ??Subroutine133_0
   \   00000004                      ;               // Fall through to label ??Subroutine133_0

   \                                 In  segment CODE, align 2, keep-with-next
   \                     ??Subroutine133_0:
   \   00000000   ....               RCALL   ?Subroutine93
   \                     ??CrossCallReturnLabel_297:
   \   00000002                      REQUIRE ?Subroutine130
   \   00000002                      ;               // Fall through to label ?Subroutine130

   \                                 In  segment CODE, align 2, keep-with-next
   \                     ?Subroutine130:
   \   00000000   E006               LDI     R16, 6
   \   00000002   ....               RJMP    ??rprintfFloat

   \                                 In  segment CODE, align 2, keep-with-next
   \                     ?Subroutine24:
   \   00000000   ....               RCALL   ?Subroutine91
   \                     ??CrossCallReturnLabel_160:
   \   00000002   8302               STD     Z+2, R16
   \   00000004   8303               STD     Z+3, R16
   \   00000006   9508               RET

   \                                 In  segment CODE, align 2, keep-with-next
   \                     ?Subroutine23:
   \   00000000   01F0               MOVW    R31:R30, R1:R0
   \   00000002   ....               SUBI    R30, LOW((-(dim2) & 0xFFFF))
   \   00000004   ....               SBCI    R31, (-(dim2) & 0xFFFF) >> 8
   \   00000006   9508               RET

   \                                 In  segment CODE, align 2, keep-with-next
   \                     ?Subroutine22:
   \   00000000   01F0               MOVW    R31:R30, R1:R0
   \   00000002   ....               SUBI    R30, LOW((-(dim1) & 0xFFFF))
   \   00000004   ....               SBCI    R31, (-(dim1) & 0xFFFF) >> 8
   \   00000006   9508               RET

   \                                 In  segment CODE, align 2, keep-with-next
   \                     ?Subroutine19:
   \   00000000   9100....           LDS     R16, ct
   \   00000004   9508               RET

   \                                 In  segment CODE, align 2, keep-with-next
   \                     ?Subroutine17:
   \   00000000   ....               RCALL   ??rprintfStr
   \   00000002   9100....           LDS     R16, pultadr
   \   00000006   E010               LDI     R17, 0
   \                     ??Subroutine17_0:
   \   00000008   ....               RCALL   ?Subroutine115
   \                     ??CrossCallReturnLabel_375:
   \   0000000A   E009               LDI     R16, 9
   \                     ??Subroutine17_1:
   \   0000000C   ....               RCALL   ??rprintfFloat
   \                     ??Subroutine17_2:
   \   0000000E   ....               RCALL   ?Subroutine102
   \                     ??CrossCallReturnLabel_275:
   \   00000010   F009               BREQ    ??CrossCallReturnLabel_205
   \   00000012   ....               RCALL   ?Subroutine104
   \                     ??CrossCallReturnLabel_205:
   \   00000014   9508               RET

   \                                 In  segment CODE, align 2, keep-with-next
   \                     ?Subroutine3:
   \   00000000   ....               RCALL   ?Subroutine114
   \                     ??CrossCallReturnLabel_229:
   \   00000002   ....               RCALL   ?Subroutine96
   \                     ??CrossCallReturnLabel_172:
   \   00000004   0182               MOVW    R17:R16, R5:R4
   \   00000006   ....               RJMP    ?F_CMP_LT_L04

   \                                 In  segment CODE, align 2, keep-with-next
   \                     ?Subroutine96:
   \   00000000   0118               MOVW    R3:R2, R17:R16
   \   00000002   E040               LDI     R20, 0
   \   00000004   EC60               LDI     R22, 192
   \   00000006   E37F               LDI     R23, 63
   \   00000008   9508               RET

   \                                 In  segment CODE, align 2, keep-with-next
   \                     ?Subroutine1:
   \   00000000   ....               RCALL   ?Subroutine114
   \                     ??CrossCallReturnLabel_228:
   \   00000002   2B20               OR      R18, R16
   \   00000004   2B31               OR      R19, R17
   \   00000006                      REQUIRE ?Subroutine97
   \   00000006                      ;               // Fall through to label ?Subroutine97

   \                                 In  segment CODE, align 2, keep-with-next
   \                     ?Subroutine97:
   \   00000000   0F28               ADD     R18, R24
   \   00000002   1F35               ADC     R19, R21
   \   00000004   ....               RJMP    ?Subroutine118

   \                                 In  segment CODE, align 2, keep-with-next
   \                     ?Subroutine119:
   \   00000000   E060               LDI     R22, 0
   \   00000002   E070               LDI     R23, 0
   \   00000004   9508               RET

   \                                 In  segment CODE, align 2, keep-with-next
   \                     ?Subroutine12:
   \   00000000   E000               LDI     R16, 0
   \   00000002   ....               RCALL   ?Subroutine99
   \                     ??CrossCallReturnLabel_181:
   \   00000004   ....               RCALL   ?Subroutine91
   \                     ??CrossCallReturnLabel_158:
   \   00000006   ....               LDI     R30, LOW(cod2)
   \   00000008   ....               LDI     R31, (cod2) >> 8
   \   0000000A   ....               RCALL   ?Subroutine91
   \                     ??CrossCallReturnLabel_159:
   \   0000000C   ....               RCALL   ?Subroutine95
   \                     ??CrossCallReturnLabel_168:
   \   0000000E   ....               RJMP    ?Subroutine91

   \                                 In  segment CODE, align 2, keep-with-next
   \                     ?Subroutine21:
   \   00000000   ....               RCALL   ?Subroutine100
   \                     ??CrossCallReturnLabel_187:
   \   00000002   0D00               ADD     R16, R0
   \   00000004   1D11               ADC     R17, R1
   \   00000006                      REQUIRE ??Subroutine136_0
   \   00000006                      ;               // Fall through to label ??Subroutine136_0

   \                                 In  segment CODE, align 2, keep-with-next
   \                     ??Subroutine136_0:
   \   00000000   8300               ST      Z, R16
   \   00000002   8311               STD     Z+1, R17
   \   00000004   9508               RET

   \                                 In  segment CODE, align 2, keep-with-next
   \                     ?Subroutine33:
   \   00000000   ....               RCALL   ?Subroutine95
   \                     ??CrossCallReturnLabel_169:
   \   00000002                      REQUIRE ?Subroutine101
   \   00000002                      ;               // Fall through to label ?Subroutine101

   \                                 In  segment CODE, align 2, keep-with-next
   \                     ?Subroutine101:
   \   00000000   8100               LD      R16, Z
   \   00000002   8111               LDD     R17, Z+1
   \   00000004   9508               RET

   \                                 In  segment CODE, align 2, keep-with-next
   \                     ?Subroutine95:
   \   00000000   ....               LDI     R30, LOW(cod3)
   \   00000002   ....               LDI     R31, (cod3) >> 8
   \   00000004   9508               RET

   \                                 In  segment CODE, align 2, keep-with-next
   \                     ?Subroutine91:
   \   00000000   8300               ST      Z, R16
   \   00000002   8301               STD     Z+1, R16
   \   00000004   9508               RET

   \                                 In  segment CODE, align 2, keep-with-next
   \                     ?Subroutine104:
   \   00000000   E00D               LDI     R16, 13
   \   00000002   ....               RJMP    ??USART_SendChar

   \                                 In  segment CODE, align 2, keep-with-next
   \                     ?Subroutine18:
   \   00000000   ....               RCALL   ?Subroutine90
   \                     ??CrossCallReturnLabel_376:
   \   00000002   ....               RJMP    ?Subroutine130

   \                                 In  segment CODE, align 2, keep-with-next
   \                     ??Subroutine141_0:
   \   00000000   8100               LD      R16, Z
   \   00000002   9503               INC     R16
   \   00000004   8300               ST      Z, R16
   \   00000006   9508               RET

   \                                 In  segment CODE, align 2, keep-with-next
   \                     ?Subroutine42:
   \   00000000   E002               LDI     R16, 2
   \   00000002   9F80               MUL     R24, R16
   \   00000004   9508               RET

   \                                 In  segment CODE, align 2, keep-with-next
   \                     ?Subroutine37:
   \   00000000   ....               RCALL   ??rprintfStr
   \   00000002                      REQUIRE ??Subroutine144_0
   \   00000002                      ;               // Fall through to label ??Subroutine144_0

   \                                 In  segment CODE, align 2, keep-with-next
   \                     ??Subroutine144_0:
   \   00000000   ....               LDI     R30, LOW(cod2)
   \   00000002   ....               LDI     R31, (cod2) >> 8
   \   00000004   9508               RET

   \                                 In  segment CODE, align 2, keep-with-next
   \                     ?Subroutine99:
   \   00000000   ....               LDI     R30, LOW(cod1)
   \   00000002   ....               LDI     R31, (cod1) >> 8
   \   00000004   9508               RET

   \                                 In  segment CODE, align 2, keep-with-next
   \                     ?Subroutine38:
   \   00000000   ....               RCALL   ?Subroutine95
   \                     ??CrossCallReturnLabel_170:
   \   00000002   ....               RJMP    ?Subroutine98

   \                                 In  segment CODE, align 2, keep-with-next
   \                     ?Subroutine121:
   \   00000000   2300               TST     R16
   \   00000002   9508               RET

   \                                 In  segment CODE, align 2, keep-with-next
   \                     ?Subroutine20:
   \   00000000   2F08               MOV     R16, R24
   \   00000002                      REQUIRE ?Subroutine90
   \   00000002                      ;               // Fall through to label ?Subroutine90

   \                                 In  segment CODE, align 2, keep-with-next
   \                     ?Subroutine90:
   \   00000000   E010               LDI     R17, 0
   \   00000002                      REQUIRE ?Subroutine115
   \   00000002                      ;               // Fall through to label ?Subroutine115

   \                                 In  segment CODE, align 2, keep-with-next
   \                     ?Subroutine115:
   \   00000000   ....               RCALL   ?Subroutine117
   \                     ??CrossCallReturnLabel_303:
   \   00000002                      REQUIRE ??Subroutine145_0
   \   00000002                      ;               // Fall through to label ??Subroutine145_0

   \                                 In  segment CODE, align 2, keep-with-next
   \                     ??Subroutine145_0:
   \   00000000   01A8               MOVW    R21:R20, R17:R16
   \   00000002   01B9               MOVW    R23:R22, R19:R18
   \   00000004   9508               RET

   \                                 In  segment CODE, align 2, keep-with-next
   \                     ?Subroutine54:
   \   00000000   8140               LD      R20, Z
   \   00000002   8151               LDD     R21, Z+1
   \   00000004   8162               LDD     R22, Z+2
   \   00000006   8173               LDD     R23, Z+3
   \   00000008   9508               RET

   \                                 In  segment CODE, align 2, keep-with-next
   \                     ?Subroutine43:
   \   00000000   E040               LDI     R20, 0
   \   00000002                      REQUIRE ??Subroutine146_0
   \   00000002                      ;               // Fall through to label ??Subroutine146_0

   \                                 In  segment CODE, align 2, keep-with-next
   \                     ??Subroutine146_0:
   \   00000000   E050               LDI     R21, 0
   \   00000002   ....               RJMP    ?Subroutine119

   \                                 In  segment CODE, align 2, keep-with-next
   \                     ?Subroutine114:
   \   00000000   E001               LDI     R16, 1
   \   00000002   E010               LDI     R17, 0
   \   00000004   ....               RJMP    ?S_SHL_L02

   \                                 In  segment CODE, align 2, keep-with-next
   \                     ?Subroutine102:
   \   00000000   9100....           LDS     R16, u
   \   00000004   ....               RJMP    ?Subroutine121

   \                                 In  segment CODE, align 2, keep-with-next
   \                     ?Subroutine47:
   \   00000000   ....               RCALL   ?Subroutine103
   \                     ??CrossCallReturnLabel_201:
   \   00000002   ....               RJMP    ?F_CMP_LT_L04

   \                                 In  segment CODE, align 2, keep-with-next
   \                     ?Subroutine46:
   \   00000000   0128               MOVW    R5:R4, R17:R16
   \   00000002   0139               MOVW    R7:R6, R19:R18
   \   00000004   9508               RET

   \                                 In  segment CODE, align 2, keep-with-next
   \                     ?Subroutine117:
   \   00000000   E020               LDI     R18, 0
   \   00000002   ....               RJMP    ?Subroutine129

   \                                 In  segment CODE, align 2, keep-with-next
   \   __version_3 __interrupt void funTIMER1_OVF_vect()
   \                     ??funTIMER1_OVF_vect:
   \   00000000   930A               ST      -Y, R16
   \   00000002   E001               LDI     R16, 1
   \   00000004   9300....           STS     perepoln, R16
   \   00000008                      REQUIRE ?Subroutine128
   \   00000008                      ;               // Fall through to label ?Subroutine128

   \                                 In  segment CODE, align 2, keep-with-next
   \                     ?Subroutine128:
   \   00000000   9109               LD      R16, Y+
   \   00000002   9518               RETI
     32          #include "SoftTimers.h" 
     33          #include "keys.h"
     34          //#include <stdlib.h>
     35          //#include <math.h> 
     36          #include "usart.h"
     37          //#include <stdarg.h>
     38          //************************************************************************* 
     39          #define AC_ON    SET(PORTD,6)
     40          #define AC_OFF   RES(PORTD,6)
     41          void diag(void);
     42          void led_all(bool a);
     43          void resled(void);
     44          void source(void);
     45          void resOUT(void);  
     46          void gro(uchar a);
     47          void normal(uchar rez);
     48          void writeCOD(void);
     49          uchar analizCOD(void);
     50          void programming();
     51          uchar getadr(void);
     52          #define acon 20000;//время включения АС при подаче питания

   \                                 In  segment NEAR_I, align 1, keep-with-next
   \   00000000                      REQUIRE `?<Segment init: NEAR_I>`
     53          uint tON=acon; 
   \                     tON:
   \   00000000                      DS8 2
   \   00000002                      REQUIRE `?<Initializer for tON>`
     54          #define MAXFUNC 23  //последний(включительно)действующий indexFUNC(кол-во фукций)
     55          //uint kbuf[MAXEEP];

   \                                 In  segment NEAR_Z, align 1, keep-with-next
   \   00000000                      REQUIRE `?<Segment init: NEAR_Z>`
     56          uchar write;
   \                     `write`:
   \   00000000                      DS8 1

   \                                 In  segment NEAR_Z, align 1, keep-with-next
   \   00000000                      REQUIRE `?<Segment init: NEAR_Z>`
     57          uchar pr;
   \                     pr:
   \   00000000                      DS8 1

   \                                 In  segment NEAR_Z, align 1, keep-with-next
   \   00000000                      REQUIRE `?<Segment init: NEAR_Z>`
     58          bool onok;  
   \                     onok:
   \   00000000                      DS8 1

   \                                 In  segment NEAR_Z, align 1, keep-with-next
   \   00000000                      REQUIRE `?<Segment init: NEAR_Z>`
     59          bool rez;
   \                     rez:
   \   00000000                      DS8 1

   \                                 In  segment NEAR_Z, align 1, keep-with-next
   \   00000000                      REQUIRE `?<Segment init: NEAR_Z>`
     60          bool on,mute;
   \                     on:
   \   00000000                      DS8 1

   \                                 In  segment NEAR_Z, align 1, keep-with-next
   \   00000000                      REQUIRE `?<Segment init: NEAR_Z>`
   \                     mute:
   \   00000000                      DS8 1

   \                                 In  segment NEAR_Z, align 1, keep-with-next
   \   00000000                      REQUIRE `?<Segment init: NEAR_Z>`
     61          bool zader,aoff;
   \                     zader:
   \   00000000                      DS8 1

   \                                 In  segment NEAR_Z, align 1, keep-with-next
   \   00000000                      REQUIRE `?<Segment init: NEAR_Z>`
   \                     aoff:
   \   00000000                      DS8 1

   \                                 In  segment NEAR_Z, align 1, keep-with-next
   \   00000000                      REQUIRE `?<Segment init: NEAR_Z>`
     62          uint timerzad; 
   \                     timerzad:
   \   00000000                      DS8 2

   \                                 In  segment NEAR_Z, align 1, keep-with-next
   \   00000000                      REQUIRE `?<Segment init: NEAR_Z>`
     63          uchar pultadr;
   \                     pultadr:
   \   00000000                      DS8 1

   \                                 In  segment NEAR_Z, align 1, keep-with-next
   \   00000000                      REQUIRE `?<Segment init: NEAR_Z>`
     64          extern  uchar mode=0,indexFUNC=0; 
   \                     mode:
   \   00000000                      DS8 1

   \                                 In  segment NEAR_Z, align 1, keep-with-next
   \   00000000                      REQUIRE `?<Segment init: NEAR_Z>`
   \                     indexFUNC:
   \   00000000                      DS8 1

   \                                 In  segment NEAR_I, align 1, keep-with-next
   \   00000000                      REQUIRE `?<Segment init: NEAR_I>`
     65          static uchar lastsel=1,sel=1,regaoff=0;
   \                     ??lastsel:
   \   00000000                      DS8 1
   \   00000001                      REQUIRE `?<Initializer for lastsel>`

   \                                 In  segment NEAR_I, align 1, keep-with-next
   \   00000000                      REQUIRE `?<Segment init: NEAR_I>`
   \                     ??sel:
   \   00000000                      DS8 1
   \   00000001                      REQUIRE `?<Initializer for sel>`

   \                                 In  segment NEAR_Z, align 1, keep-with-next
   \   00000000                      REQUIRE `?<Segment init: NEAR_Z>`
   \                     ??regaoff:
   \   00000000                      DS8 1

   \                                 In  segment NEAR_Z, align 1, keep-with-next
   \   00000000                      REQUIRE `?<Segment init: NEAR_Z>`
     66          bool u=false,til=false;
   \                     u:
   \   00000000                      DS8 1

   \                                 In  segment NEAR_Z, align 1, keep-with-next
   \   00000000                      REQUIRE `?<Segment init: NEAR_Z>`
   \                     til:
   \   00000000                      DS8 1
     67          

   \                                 In  segment EEPROM_N, align 1, keep-with-next
     68          __no_init __eeprom uint k[MAXEEP];
   \                     k:
   \   00000000                      DS8 240

   \                                 In  segment EEPROM_N, align 1, keep-with-next
     69          __no_init __eeprom uchar fmode;//если ==1 то вместо source5 выход реле включения усилителя тыловых колонок
   \                     fmode:
   \   00000000                      DS8 1

   \                                 In  segment EEPROM_N, align 1, keep-with-next
     70          __no_init __eeprom uchar modegro;
   \                     modegro:
   \   00000000                      DS8 1

   \                                 In  segment NEAR_Z, align 1, keep-with-next
   \   00000000                      REQUIRE `?<Segment init: NEAR_Z>`
     71          uint cod1,cod2,cod3,cod4; 
   \                     cod1:
   \   00000000                      DS8 2

   \                                 In  segment NEAR_Z, align 1, keep-with-next
   \   00000000                      REQUIRE `?<Segment init: NEAR_Z>`
   \                     cod2:
   \   00000000                      DS8 2

   \                                 In  segment NEAR_Z, align 1, keep-with-next
   \   00000000                      REQUIRE `?<Segment init: NEAR_Z>`
   \                     cod3:
   \   00000000                      DS8 2

   \                                 In  segment NEAR_Z, align 1, keep-with-next
   \   00000000                      REQUIRE `?<Segment init: NEAR_Z>`
   \                     cod4:
   \   00000000                      DS8 2
     72          //***************************************************************************
     73          //                  M  A  I  N
     74          //***************************************************************************

   \                                 In  segment CODE, align 2, keep-with-next
     75          int main( void )
   \                     main:
     76          {//main
   \   00000000   938A               ST      -Y, R24
     77            
     78              TimerSet(&tm3,50);
   \   00000002   E342               LDI     R20, 50
   \   00000004   ....               RCALL   ??Subroutine146_0
   \                     ??CrossCallReturnLabel_381:
   \   00000006   ....               LDI     R16, LOW(tm3)
   \   00000008   ....               LDI     R17, (tm3) >> 8
   \   0000000A   ....               RCALL   ?Subroutine63
     79             
     80              TimerSet(&tm4,500);//громкость +
   \                     ??CrossCallReturnLabel_379:
   \   0000000C   ....               LDI     R16, LOW(tm4)
   \   0000000E   ....               LDI     R17, (tm4) >> 8
   \   00000010   ....               RCALL   ?Subroutine63
     81              TimerSet(&tm5,500);//громкость -
   \                     ??CrossCallReturnLabel_380:
   \   00000012   ....               LDI     R16, LOW(tm5)
   \   00000014   ....               LDI     R17, (tm5) >> 8
   \   00000016   ....               RCALL   ??TimerSet
     82              tm4.out=1;
   \   00000018   E001               LDI     R16, 1
   \   0000001A   9300....           STS     (tm4 + 8), R16
     83              tm5.out=1;
   \   0000001E   9300....           STS     (tm5 + 8), R16
     84              
     85              TimerSet(&tm6,50);//мигание питания
   \   00000022   E342               LDI     R20, 50
   \   00000024   ....               RCALL   ??Subroutine146_0
   \                     ??CrossCallReturnLabel_382:
   \   00000026   ....               LDI     R16, LOW(tm6)
   \   00000028   ....               LDI     R17, (tm6) >> 8
   \   0000002A   ....               RCALL   ??TimerSet
     86            
     87            
     88             aoff=0; onok=0; pr=0; on=0; mute=0; zader=0;  til=0;
   \   0000002C   ....               RCALL   ?Subroutine105
   \                     ??CrossCallReturnLabel_349:
   \   0000002E   9300....           STS     onok, R16
   \   00000032   9300....           STS     pr, R16
   \   00000036   ....               RCALL   ??Subroutine134_0
   \                     ??CrossCallReturnLabel_311:
   \   00000038   9300....           STS     mute, R16
   \   0000003C   9300....           STS     zader, R16
   \   00000040   9300....           STS     til, R16
     89            iniPORTS();    
   \   00000044   ....               RCALL   ??iniPORTS
     90           //----------------------------------
     91             if (keyONsm) u=true;//включаем UART
   \   00000046   B300               IN      R16, 0x10
     92             
     93             
     94            u=0; 
   \   00000048   E000               LDI     R16, 0
   \   0000004A   9300....           STS     u, R16
     95            
     96            
     97            
     98            if (u) USART_Init();
     99          //----------------------------------
    100            mode=fmode; //смена режима работы
   \   0000004E   ....               LDI     R20, LOW(fmode)
   \   00000050   ....               LDI     R21, (fmode) >> 8
   \   00000052   ....               RCALL   __eeget8_16
   \   00000054   9300....           STS     mode, R16
    101            if (mode!=1 && mode!=0) { fmode=0; mode=0;   }//ini
   \   00000058   3001               CPI     R16, 1
   \   0000005A   F029               BREQ    ??main_0
   \   0000005C   2300               TST     R16
   \   0000005E   F019               BREQ    ??main_0
   \   00000060   ....               RCALL   ?Subroutine13
   \                     ??CrossCallReturnLabel_207:
   \   00000062   9300....           STS     mode, R16
    102            if (modegro!=1 && modegro!=0) { modegro=0; p1;   }//ini
   \                     ??main_0:
   \   00000066   ....               RCALL   ?Subroutine69
   \                     ??CrossCallReturnLabel_276:
   \   00000068   F021               BREQ    ??CrossCallReturnLabel_99
   \   0000006A   ....               RCALL   ?Subroutine70
   \                     ??CrossCallReturnLabel_255:
   \   0000006C   F011               BREQ    ??CrossCallReturnLabel_99
   \   0000006E   ....               RCALL   ?Subroutine14
   \                     ??CrossCallReturnLabel_217:
   \   00000070   ....               RCALL   ?Subroutine66
    103            
    104            if (keyMUTE && !keyAOFFsm) {
   \                     ??CrossCallReturnLabel_99:
   \   00000072   9981               SBIC    0x10, 0x01
   \   00000074   C021               RJMP    ??main_1
   \   00000076   9985               SBIC    0x10, 0x05
   \   00000078   C01F               RJMP    ??main_1
   \   0000007A   9B80               SBIS    0x10, 0x00
   \   0000007C   C01D               RJMP    ??main_1
    105            if (mode==0 && modegro==0)   {  fmode=1; p5;   SET(PORTB,4);  while(1) {}   }
   \   0000007E   ....               RCALL   ?Subroutine71
   \                     ??CrossCallReturnLabel_258:
   \   00000080   F439               BRNE    ??main_2
   \   00000082   ....               RCALL   ?Subroutine70
   \                     ??CrossCallReturnLabel_256:
   \   00000084   F499               BRNE    ??main_3
   \   00000086   E001               LDI     R16, 1
   \   00000088   ....               RCALL   ?Subroutine106
   \                     ??CrossCallReturnLabel_206:
   \   0000008A   ....               RCALL   ?Subroutine107
   \                     ??CrossCallReturnLabel_209:
   \   0000008C   9AC4               SBI     0x18, 0x04
   \                     ??main_4:
   \   0000008E   CFFF               RJMP    ??main_4
    106            if (mode==1 && modegro==0)   {  modegro=1; p5; SET(PORTB,2);  SET(PORTB,3);  SET(PORTB,4);  while(1) {}  }
   \                     ??main_2:
   \   00000090   3001               CPI     R16, 1
   \   00000092   F491               BRNE    ??main_1
   \   00000094   ....               RCALL   ?Subroutine70
   \                     ??CrossCallReturnLabel_257:
   \   00000096   F429               BRNE    ??main_5
   \   00000098   E001               LDI     R16, 1
   \   0000009A   ....               RCALL   ?Subroutine109
   \                     ??CrossCallReturnLabel_216:
   \   0000009C   ....               RCALL   ?Subroutine67
   \                     ??CrossCallReturnLabel_283:
   \   0000009E   9AC4               SBI     0x18, 0x04
   \                     ??main_6:
   \   000000A0   CFFF               RJMP    ??main_6
   \                     ??main_5:
   \   000000A2   ....               RCALL   ?Subroutine69
   \                     ??CrossCallReturnLabel_277:
   \   000000A4   F449               BRNE    ??main_1
    107            if (mode==1 && modegro==1)   {  fmode=0; p5; SET(PORTB,2);  SET(PORTB,3);    while(1) {}  } 
   \   000000A6   ....               RCALL   ?Subroutine13
   \                     ??CrossCallReturnLabel_208:
   \   000000A8   ....               RCALL   ?Subroutine67
   \                     ??CrossCallReturnLabel_284:
   \   000000AA   CFFF               RJMP    ??CrossCallReturnLabel_284
   \                     ??main_3:
   \   000000AC   ....               RCALL   ?Subroutine69
   \                     ??CrossCallReturnLabel_278:
   \   000000AE   F421               BRNE    ??main_1
    108            if (mode==0 && modegro==1)   {  modegro=0; p5;  led_all(1);    while(1) {}   }
   \   000000B0   ....               RCALL   ?Subroutine14
   \                     ??CrossCallReturnLabel_218:
   \   000000B2   ....               RCALL   ?Subroutine107
   \                     ??CrossCallReturnLabel_210:
   \   000000B4   ....               RCALL   ??Subroutine142_0
   \                     ??CrossCallReturnLabel_359:
   \   000000B6   CFFF               RJMP    ??CrossCallReturnLabel_359
    109            
    110                                        }
    111            
    112           // modegro=1; mode=1;
    113          //-----------------------------------
    114            
    115             if (keySELsm) {write=1; }//включаем программирование пульта
   \                     ??main_1:
   \   000000B8   9981               SBIC    0x10, 0x01
   \   000000BA   C003               RJMP    ??main_7
   \   000000BC   E001               LDI     R16, 1
   \   000000BE   9300....           STS     `write`, R16
    116             if (keySELsm==1 && keyAOFFsm==1)//очистка
   \                     ??main_7:
   \   000000C2   9981               SBIC    0x10, 0x01
   \   000000C4   C00C               RJMP    ??main_8
   \   000000C6   9980               SBIC    0x10, 0x00
   \   000000C8   C00A               RJMP    ??main_8
    117                {
    118                  write=1; cod1=0;cod2=0;cod3=0;
   \   000000CA   E001               LDI     R16, 1
   \   000000CC   9300....           STS     `write`, R16
   \   000000D0   ....               RCALL   ?Subroutine12
    119                  for (uchar i=0; i<=MAXFUNC; i++) {writeCOD();indexFUNC++;}
   \                     ??CrossCallReturnLabel_9:
   \   000000D2   E188               LDI     R24, 24
   \                     ??main_9:
   \   000000D4   ....               RCALL   ?Subroutine31
   \                     ??CrossCallReturnLabel_351:
   \   000000D6   958A               DEC     R24
   \   000000D8   F7E9               BRNE    ??main_9
    120                  indexFUNC=0;
    121                  led_all(1); while(1) {} //зависаем
   \   000000DA   ....               RCALL   ??Subroutine142_0
   \                     ??CrossCallReturnLabel_358:
   \   000000DC   CFFF               RJMP    ??CrossCallReturnLabel_358
    122                }
    123              
    124             //---------------------------------------
    125           //   for (uchar i=0; i<MAXEEP-1; i++) kbuf[i]=k[i];//читаем ееprom
    126            //-----------------------------------------
    127            //---------------------------------- 
    128          
    129               __enable_interrupt(); 
   \                     ??main_8:
   \   000000DE   9478               SEI
    130            
    131            
    132            
    133             if (write==1) //мигание первого программируемого
   \   000000E0   9100....           LDS     R16, `write`
   \   000000E4   3001               CPI     R16, 1
   \   000000E6   F469               BRNE    ??main_10
    134             {
    135               for (uchar i=0; i<3; i++) {getadr(); p2;led_all(0); p2;}
   \   000000E8   E083               LDI     R24, 3
   \                     ??main_11:
   \   000000EA   ....               RCALL   ??getadr
   \   000000EC   ....               RCALL   ?Subroutine73
   \                     ??CrossCallReturnLabel_101:
   \   000000EE   ....               RCALL   ?Subroutine131
   \                     ??CrossCallReturnLabel_295:
   \   000000F0   ....               RCALL   ?Subroutine73
   \                     ??CrossCallReturnLabel_102:
   \   000000F2   958A               DEC     R24
   \   000000F4   F7D1               BRNE    ??main_11
    136              getadr(); 
   \   000000F6   ....               RCALL   ??getadr
   \   000000F8   C004               RJMP    ??main_10
    137             }
    138                 
    139            
    140            
    141            
    142            while(1){//-----------------------------------бесконечный цикл
    143          
    144               rez= du_main(pr);
    145               
    146             
    147             if (write==0)  {//------------------------------------- 
    148              
    149                pultadr=0;
    150                if ( rez ) {  pultadr=analizCOD(); } ;
    151                
    152                
    153               if ((keyON||pultadr==25 || pultadr==90) && on==1 && zader!=1) { rprintfStr("OFF>adr="); rprintfFloat(9, pultadr ); ent;
    154                              on=0;onok=0; p5; zader=0;  til=0;  pultadr=0;  }//OFF
    155               if ((keyON||pultadr==25 || pultadr==90) && on==0) {rprintfStr("ON>adr="); rprintfFloat(9, pultadr ); ent;
    156                              SET(PORTD,4); SET(PORTD,7);p5; on=1; mute=0; zader=1;timerzad=0;source();pultadr=0;  }//ON
    157               
    158              //выключение
    159              if (on==0 && onok==0) { on=0; aoff=0; p5; zader=0; regaoff=0; AC_OFF; delay_s(1); tON=acon; 
    160              						PORTB=0; RES(PORTD,7);RES(PORTD,4); resOUT(); RES(PORTC,5); RES(PORTC,0);RES(PORTD,3); onok=1;
    161                                    }
    162                                            
    163             
    164              if (on==1) normal( pultadr );
    165             
    166                            }//------------------------------------- 
    167             else 
    168             {
    169                programming();
   \                     ??main_12:
   \   000000FA   ....               RCALL   ??programming
    170             }
    171             if (u) diag();  
   \                     ??main_13:
   \   000000FC   ....               RCALL   ?Subroutine102
   \                     ??CrossCallReturnLabel_269:
   \   000000FE   F009               BREQ    ??main_10
   \   00000100   ....               RCALL   ??diag
   \                     ??main_10:
   \   00000102   9100....           LDS     R16, pr
   \   00000106   ....               RCALL   ??du_main
   \   00000108   2300               TST     R16
   \   0000010A   F011               BREQ    ??main_14
   \   0000010C   E001               LDI     R16, 1
   \   0000010E   C001               RJMP    ??main_15
   \                     ??main_14:
   \   00000110   E000               LDI     R16, 0
   \                     ??main_15:
   \   00000112   9300....           STS     rez, R16
   \   00000116   9100....           LDS     R16, `write`
   \   0000011A   2300               TST     R16
   \   0000011C   F771               BRNE    ??main_12
   \   0000011E   ....               RCALL   ??Subroutine137_0
   \                     ??CrossCallReturnLabel_338:
   \   00000120   9100....           LDS     R16, rez
   \   00000124   2300               TST     R16
   \   00000126   F011               BREQ    ??CrossCallReturnLabel_336
   \   00000128   ....               RCALL   ??analizCOD
   \   0000012A   ....               RCALL   ?Subroutine108
   \                     ??CrossCallReturnLabel_336:
   \   0000012C   9985               SBIC    0x10, 0x05
   \   0000012E   C004               RJMP    ??main_16
   \   00000130   9B80               SBIS    0x10, 0x00
   \   00000132   C002               RJMP    ??main_16
   \   00000134   9981               SBIC    0x10, 0x01
   \   00000136   C005               RJMP    ??main_17
   \                     ??main_16:
   \   00000138   ....               RCALL   ?Subroutine74
   \                     ??CrossCallReturnLabel_106:
   \   0000013A   3109               CPI     R16, 25
   \   0000013C   F011               BREQ    ??main_17
   \   0000013E   350A               CPI     R16, 90
   \   00000140   F481               BRNE    ??CrossCallReturnLabel_98
   \                     ??main_17:
   \   00000142   9110....           LDS     R17, on
   \   00000146   9120....           LDS     R18, zader
   \   0000014A   E001               LDI     R16, 1
   \   0000014C   2720               EOR     R18, R16
   \   0000014E   2312               AND     R17, R18
   \   00000150   F041               BREQ    ??CrossCallReturnLabel_98
   \   00000152   ....               LDI     R16, LOW(`?<Constant "OFF>adr=">`)
   \   00000154   ....               LDI     R17, (`?<Constant "OFF>adr=">`) >> 8
   \   00000156   ....               RCALL   ?Subroutine17
   \                     ??CrossCallReturnLabel_11:
   \   00000158   ....               RCALL   ?Subroutine64
   \                     ??CrossCallReturnLabel_313:
   \   0000015A   9300....           STS     onok, R16
   \   0000015E   ....               RCALL   ?Subroutine15
   \                     ??CrossCallReturnLabel_315:
   \   00000160   ....               RCALL   ?Subroutine65
   \                     ??CrossCallReturnLabel_98:
   \   00000162   9985               SBIC    0x10, 0x05
   \   00000164   C004               RJMP    ??main_18
   \   00000166   9B80               SBIS    0x10, 0x00
   \   00000168   C002               RJMP    ??main_18
   \   0000016A   9981               SBIC    0x10, 0x01
   \   0000016C   C005               RJMP    ??main_19
   \                     ??main_18:
   \   0000016E   ....               RCALL   ?Subroutine74
   \                     ??CrossCallReturnLabel_107:
   \   00000170   3109               CPI     R16, 25
   \   00000172   F011               BREQ    ??main_19
   \   00000174   350A               CPI     R16, 90
   \   00000176   F479               BRNE    ??CrossCallReturnLabel_339
   \                     ??main_19:
   \   00000178   ....               RCALL   ?Subroutine75
   \                     ??CrossCallReturnLabel_262:
   \   0000017A   F469               BRNE    ??CrossCallReturnLabel_339
   \   0000017C   ....               LDI     R16, LOW(`?<Constant "ON>adr=">`)
   \   0000017E   ....               LDI     R17, (`?<Constant "ON>adr=">`) >> 8
   \   00000180   ....               RCALL   ?Subroutine17
   \                     ??CrossCallReturnLabel_12:
   \   00000182   9A94               SBI     0x12, 0x04
   \   00000184   9A97               SBI     0x12, 0x07
   \   00000186   ....               RCALL   ?Subroutine107
   \                     ??CrossCallReturnLabel_211:
   \   00000188   E001               LDI     R16, 1
   \   0000018A   ....               RCALL   ??Subroutine134_0
   \                     ??CrossCallReturnLabel_312:
   \   0000018C   E000               LDI     R16, 0
   \   0000018E   9300....           STS     mute, R16
   \   00000192   ....               RCALL   ?Subroutine4
   \                     ??CrossCallReturnLabel_5:
   \   00000194   ....               RCALL   ??Subroutine137_0
   \                     ??CrossCallReturnLabel_339:
   \   00000196   9100....           LDS     R16, on
   \   0000019A   9110....           LDS     R17, onok
   \   0000019E   2B01               OR      R16, R17
   \   000001A0   F4B1               BRNE    ??main_20
   \   000001A2   ....               RCALL   ?Subroutine64
   \                     ??CrossCallReturnLabel_314:
   \   000001A4   ....               RCALL   ??Subroutine139_0
   \                     ??CrossCallReturnLabel_348:
   \   000001A6   ....               RCALL   ?Subroutine15
   \                     ??CrossCallReturnLabel_316:
   \   000001A8   ....               RCALL   ?Subroutine76
   \                     ??CrossCallReturnLabel_125:
   \   000001AA   9896               CBI     0x12, 0x06
   \   000001AC   ....               RCALL   ?Subroutine80
   \                     ??CrossCallReturnLabel_141:
   \   000001AE   E200               LDI     R16, 32
   \   000001B0   E41E               LDI     R17, 78
   \   000001B2   ....               LDI     R30, LOW(tON)
   \   000001B4   ....               LDI     R31, (tON) >> 8
   \   000001B6   ....               RCALL   ??Subroutine136_0
   \                     ??CrossCallReturnLabel_327:
   \   000001B8   E000               LDI     R16, 0
   \   000001BA   BB08               OUT     0x18, R16
   \   000001BC   9897               CBI     0x12, 0x07
   \   000001BE   9894               CBI     0x12, 0x04
   \   000001C0   ....               RCALL   ??resOUT
   \   000001C2   98AD               CBI     0x15, 0x05
   \   000001C4   98A8               CBI     0x15, 0x00
   \   000001C6   9893               CBI     0x12, 0x03
   \   000001C8   E001               LDI     R16, 1
   \   000001CA   9300....           STS     onok, R16
   \                     ??main_20:
   \   000001CE   ....               RCALL   ?Subroutine75
   \                     ??CrossCallReturnLabel_263:
   \   000001D0   F409               BRNE    $+2+2
   \   000001D2   CF94               RJMP    ??main_13
   \   000001D4   ....               RCALL   ?Subroutine74
    172               
    173              
    174             
    175            }//-------------------------------------------бесконечный цикл
   \                     ??CrossCallReturnLabel_108:
   \   000001D6   ....               RCALL   ??normal
   \   000001D8   CF91               RJMP    ??main_13
   \   000001DA                      REQUIRE _A_PIND
   \   000001DA                      REQUIRE _A_PORTB
   \   000001DA                      REQUIRE _A_PORTD
   \   000001DA                      REQUIRE _A_PORTC
    176            
    177          }//main

   \                                 In  segment CODE, align 2, keep-with-next
   \                     ?Subroutine70:
   \   00000000   ....               RCALL   ?Subroutine110
   \                     ??CrossCallReturnLabel_220:
   \   00000002   ....               RJMP    ?Subroutine121

   \                                 In  segment CODE, align 2, keep-with-next
   \                     ?Subroutine69:
   \   00000000   ....               RCALL   ?Subroutine110
   \                     ??CrossCallReturnLabel_219:
   \   00000002                      REQUIRE ?Subroutine122
   \   00000002                      ;               // Fall through to label ?Subroutine122

   \                                 In  segment CODE, align 2, keep-with-next
   \                     ?Subroutine122:
   \   00000000   3001               CPI     R16, 1
   \   00000002   9508               RET

   \                                 In  segment CODE, align 2, keep-with-next
   \                     ?Subroutine110:
   \   00000000   ....               LDI     R20, LOW(modegro)
   \   00000002   ....               LDI     R21, (modegro) >> 8
   \   00000004   ....               RJMP    __eeget8_16

   \                                 In  segment CODE, align 2, keep-with-next
   \                     ?Subroutine67:
   \   00000000   ....               RCALL   ?Subroutine107
   \                     ??CrossCallReturnLabel_215:
   \   00000002   9AC2               SBI     0x18, 0x02
   \   00000004                      REQUIRE ?Subroutine123
   \   00000004                      ;               // Fall through to label ?Subroutine123

   \                                 In  segment CODE, align 2, keep-with-next
   \                     ?Subroutine123:
   \   00000000   9AC3               SBI     0x18, 0x03
   \   00000002   9508               RET

   \                                 In  segment CODE, align 2, keep-with-next
   \                     ?Subroutine64:
   \   00000000   E000               LDI     R16, 0
   \   00000002                      REQUIRE ??Subroutine134_0
   \   00000002                      ;               // Fall through to label ??Subroutine134_0

   \                                 In  segment CODE, align 2, keep-with-next
   \                     ??Subroutine134_0:
   \   00000000   9300....           STS     on, R16
   \   00000004   9508               RET

   \                                 In  segment CODE, align 2, keep-with-next
   \                     ?Subroutine63:
   \   00000000   ....               RCALL   ??TimerSet
   \   00000002   EF44               LDI     R20, 244
   \   00000004   E051               LDI     R21, 1
   \   00000006                      REQUIRE ?Subroutine119
   \   00000006                      ;               // Fall through to label ?Subroutine119

   \                                 In  segment CODE, align 2, keep-with-next
   \                     ?Subroutine15:
   \   00000000   ....               RCALL   ?Subroutine107
   \                     ??CrossCallReturnLabel_214:
   \   00000002                      REQUIRE ??Subroutine135_0
   \   00000002                      ;               // Fall through to label ??Subroutine135_0

   \                                 In  segment CODE, align 2, keep-with-next
   \                     ??Subroutine135_0:
   \   00000000   E000               LDI     R16, 0
   \   00000002   9300....           STS     zader, R16
   \   00000006   9508               RET

   \                                 In  segment CODE, align 2, keep-with-next
   \                     ?Subroutine14:
   \   00000000   E000               LDI     R16, 0
   \   00000002                      REQUIRE ?Subroutine109
   \   00000002                      ;               // Fall through to label ?Subroutine109

   \                                 In  segment CODE, align 2, keep-with-next
   \                     ?Subroutine109:
   \   00000000   ....               LDI     R20, LOW(modegro)
   \   00000002   ....               LDI     R21, (modegro) >> 8
   \   00000004   ....               RJMP    __eeput8_16

   \                                 In  segment CODE, align 2, keep-with-next
   \                     ?Subroutine13:
   \   00000000   E000               LDI     R16, 0
   \   00000002                      REQUIRE ?Subroutine106
   \   00000002                      ;               // Fall through to label ?Subroutine106

   \                                 In  segment CODE, align 2, keep-with-next
   \                     ?Subroutine106:
   \   00000000   ....               LDI     R20, LOW(fmode)
   \   00000002   ....               LDI     R21, (fmode) >> 8
   \   00000004   ....               RJMP    __eeput8_16

   \                                 In  segment CODE, align 2, keep-with-next
   \                     ?Subroutine4:
   \   00000000   E001               LDI     R16, 1
   \   00000002   9300....           STS     zader, R16
   \   00000006   E000               LDI     R16, 0
   \   00000008   ....               LDI     R30, LOW(timerzad)
   \   0000000A   ....               LDI     R31, (timerzad) >> 8
   \   0000000C   ....               RCALL   ?Subroutine91
   \                     ??CrossCallReturnLabel_157:
   \   0000000E   ....               RJMP    ??source

   \                                 In  segment CODE, align 2, keep-with-next
   \                     ?Subroutine66:
   \   00000000   E70F               LDI     R16, 127
   \   00000002   E318               LDI     R17, 56
   \   00000004   E021               LDI     R18, 1
   \   00000006   5001               SUBI    R16, 1
   \   00000008   4010               SBCI    R17, 0
   \   0000000A   4020               SBCI    R18, 0
   \   0000000C   F7E1               BRNE    $-6
   \   0000000E   C000               RJMP    $+2
   \   00000010   0000               NOP
   \   00000012   9508               RET

   \                                 In  segment CODE, align 2, keep-with-next
   \                     ?Subroutine65:
   \   00000000   9300....           STS     til, R16
   \   00000004   ....               RJMP    ?Subroutine108

   \                                 In  segment CODE, align 2, keep-with-next
   \                     ?Subroutine74:
   \   00000000   9100....           LDS     R16, pultadr
   \   00000004   9508               RET

   \                                 In  segment CODE, align 2, keep-with-next
   \                     ??Subroutine137_0:
   \   00000000   E000               LDI     R16, 0
   \   00000002                      REQUIRE ?Subroutine108
   \   00000002                      ;               // Fall through to label ?Subroutine108

   \                                 In  segment CODE, align 2, keep-with-next
   \                     ?Subroutine108:
   \   00000000   9300....           STS     pultadr, R16
   \   00000004   9508               RET

   \                                 In  segment CODE, align 2, keep-with-next
   \                     ?Subroutine76:
   \   00000000   9300....           STS     ??regaoff, R16
   \   00000004   9508               RET

   \                                 In  segment CODE, align 2, keep-with-next
   \                     ?Subroutine107:
   \   00000000   E70F               LDI     R16, 127
   \   00000002   E11A               LDI     R17, 26
   \   00000004   E026               LDI     R18, 6
   \   00000006   5001               SUBI    R16, 1
   \   00000008   4010               SBCI    R17, 0
   \   0000000A   4020               SBCI    R18, 0
   \   0000000C   F7E1               BRNE    $-6
   \   0000000E   C000               RJMP    $+2
   \   00000010   0000               NOP
   \   00000012   9508               RET

   \                                 In  segment CODE, align 2, keep-with-next
   \                     ?Subroutine105:
   \   00000000   E000               LDI     R16, 0
   \   00000002                      REQUIRE ??Subroutine139_0
   \   00000002                      ;               // Fall through to label ??Subroutine139_0

   \                                 In  segment CODE, align 2, keep-with-next
   \                     ??Subroutine139_0:
   \   00000000   9300....           STS     aoff, R16
   \   00000004   9508               RET

   \                                 In  segment CODE, align 2, keep-with-next
   \                     ?Subroutine73:
   \   00000000   EF0F               LDI     R16, 255
   \   00000002   E710               LDI     R17, 112
   \   00000004   E022               LDI     R18, 2
   \   00000006   5001               SUBI    R16, 1
   \   00000008   4010               SBCI    R17, 0
   \   0000000A   4020               SBCI    R18, 0
   \   0000000C   F7E1               BRNE    $-6
   \   0000000E   C000               RJMP    $+2
   \   00000010   0000               NOP
   \   00000012   9508               RET

   \                                 In  segment CODE, align 2, keep-with-next
   \                     ?Subroutine80:
   \   00000000   EF0F               LDI     R16, 255
   \   00000002   E314               LDI     R17, 52
   \   00000004   E02C               LDI     R18, 12
   \   00000006   5001               SUBI    R16, 1
   \   00000008   4010               SBCI    R17, 0
   \   0000000A   4020               SBCI    R18, 0
   \   0000000C   F7E1               BRNE    $-6
   \   0000000E   C000               RJMP    $+2
   \   00000010   0000               NOP
   \   00000012   9508               RET

   \                                 In  segment CODE, align 2, keep-with-next
   \                     ?Subroutine31:
   \   00000000   ....               RCALL   ??writeCOD
   \   00000002                      REQUIRE ??Subroutine140_0
   \   00000002                      ;               // Fall through to label ??Subroutine140_0

   \                                 In  segment CODE, align 2, keep-with-next
   \                     ??Subroutine140_0:
   \   00000000   ....               LDI     R30, LOW(indexFUNC)
   \   00000002   ....               LDI     R31, (indexFUNC) >> 8
   \   00000004                      REQUIRE ??Subroutine141_0
   \   00000004                      ;               // Fall through to label ??Subroutine141_0

   \                                 In  segment CODE, align 2, keep-with-next
   \                     ?Subroutine131:
   \   00000000   E000               LDI     R16, 0
   \   00000002   ....               RJMP    ??led_all

   \                                 In  segment CODE, align 2, keep-with-next
   \                     ??Subroutine142_0:
   \   00000000   E001               LDI     R16, 1
   \   00000002   ....               RJMP    ??led_all

   \                                 In  segment CODE, align 2, keep-with-next
   \                     ?Subroutine71:
   \   00000000   9100....           LDS     R16, mode
   \   00000004                      REQUIRE ?Subroutine121
   \   00000004                      ;               // Fall through to label ?Subroutine121

   \                                 In  segment CODE, align 2, keep-with-next
   \                     ?Subroutine75:
   \   00000000   9100....           LDS     R16, on
   \   00000004   ....               RJMP    ?Subroutine121
    178          //***************************************************************************
    179          
    180          
    181          
    182          
    183          
    184          
    185          
    186          
    187          
    188          
    189          
    190           
    191          

   \                                 In  segment CODE, align 2, keep-with-next
    192          uchar getadr()//адреса  команд
   \                     ??getadr:
    193          {
    194            uchar adr=0;
   \   00000000   E000               LDI     R16, 0
    195            if (indexFUNC==0) {adr=1; SET(PORTB,0);}//s1
   \   00000002   9110....           LDS     R17, indexFUNC
   \   00000006   2311               TST     R17
   \   00000008   F411               BRNE    ??getadr_1
   \   0000000A   E001               LDI     R16, 1
   \   0000000C   C02F               RJMP    ??getadr_2
    196            if (indexFUNC==1) {adr=5; SET(PORTB,1);}
   \                     ??getadr_1:
   \   0000000E   3011               CPI     R17, 1
   \   00000010   F411               BRNE    ??getadr_3
   \   00000012   E005               LDI     R16, 5
   \   00000014   C030               RJMP    ??getadr_4
    197            if (indexFUNC==2) {adr=10;SET(PORTB,2);}
   \                     ??getadr_3:
   \   00000016   3012               CPI     R17, 2
   \   00000018   F411               BRNE    ??getadr_5
   \   0000001A   E00A               LDI     R16, 10
   \   0000001C   C031               RJMP    ??getadr_6
    198            if (indexFUNC==3) {adr=15;SET(PORTB,3);}
   \                     ??getadr_5:
   \   0000001E   3013               CPI     R17, 3
   \   00000020   F411               BRNE    ??getadr_7
   \   00000022   E00F               LDI     R16, 15
   \   00000024   C032               RJMP    ??getadr_8
    199            if (indexFUNC==4) {adr=20;SET(PORTB,4);}//s5 или ONтыл
   \                     ??getadr_7:
   \   00000026   3014               CPI     R17, 4
   \   00000028   F411               BRNE    ??getadr_9
   \   0000002A   E104               LDI     R16, 20
   \   0000002C   C038               RJMP    ??getadr_10
    200            if (indexFUNC==5) {adr=55;SET(PORTB,0);SET(PORTB,2);SET(PORTB,4);}//command return
   \                     ??getadr_9:
   \   0000002E   3015               CPI     R17, 5
   \   00000030   F411               BRNE    ??getadr_11
   \   00000032   E307               LDI     R16, 55
   \   00000034   C032               RJMP    ??getadr_12
    201            if (indexFUNC==6) {adr=25;SET(PORTD,7);}//on standby
   \                     ??getadr_11:
   \   00000036   3016               CPI     R17, 6
   \   00000038   F411               BRNE    ??getadr_13
   \   0000003A   E109               LDI     R16, 25
   \   0000003C   C035               RJMP    ??getadr_14
    202            if (indexFUNC==7) {adr=30;SET(PORTB,5);}//aoff
   \                     ??getadr_13:
   \   0000003E   3017               CPI     R17, 7
   \   00000040   F411               BRNE    ??getadr_15
   \   00000042   E10E               LDI     R16, 30
   \   00000044   C035               RJMP    ??getadr_16
    203            if (indexFUNC==8) {adr=35;AC_ON;}//mute
   \                     ??getadr_15:
   \   00000046   3018               CPI     R17, 8
   \   00000048   F411               BRNE    ??getadr_17
   \   0000004A   E203               LDI     R16, 35
   \   0000004C   C035               RJMP    ??getadr_18
    204            if (indexFUNC==9) {adr=40; }//select
   \                     ??getadr_17:
   \   0000004E   3019               CPI     R17, 9
   \   00000050   F411               BRNE    ??getadr_19
   \   00000052   E208               LDI     R16, 40
   \   00000054   9508               RET
    205            if (indexFUNC==10) {adr=45; }//громкость увеличить
   \                     ??getadr_19:
   \   00000056   301A               CPI     R17, 10
   \   00000058   F411               BRNE    ??getadr_20
   \   0000005A   E20D               LDI     R16, 45
   \   0000005C   9508               RET
    206            if (indexFUNC==11) {adr=50; }//громкость уменьшить
   \                     ??getadr_20:
   \   0000005E   301B               CPI     R17, 11
   \   00000060   F411               BRNE    ??getadr_21
   \   00000062   E302               LDI     R16, 50
   \   00000064   9508               RET
    207            
    208            //дублирование команд
    209             if (indexFUNC==12) {adr=60; SET(PORTB,0);}//s1
   \                     ??getadr_21:
   \   00000066   301C               CPI     R17, 12
   \   00000068   F419               BRNE    ??getadr_22
   \   0000006A   E30C               LDI     R16, 60
   \                     ??getadr_2:
   \   0000006C   9AC0               SBI     0x18, 0x00
   \   0000006E   9508               RET
    210            if (indexFUNC==13) {adr=65; SET(PORTB,1);}
   \                     ??getadr_22:
   \   00000070   301D               CPI     R17, 13
   \   00000072   F419               BRNE    ??getadr_23
   \   00000074   E401               LDI     R16, 65
   \                     ??getadr_4:
   \   00000076   9AC1               SBI     0x18, 0x01
   \   00000078   9508               RET
    211            if (indexFUNC==14) {adr=70;SET(PORTB,2);}
   \                     ??getadr_23:
   \   0000007A   301E               CPI     R17, 14
   \   0000007C   F419               BRNE    ??getadr_24
   \   0000007E   E406               LDI     R16, 70
   \                     ??getadr_6:
   \   00000080   9AC2               SBI     0x18, 0x02
   \   00000082   9508               RET
    212            if (indexFUNC==15) {adr=75;SET(PORTB,3);}
   \                     ??getadr_24:
   \   00000084   301F               CPI     R17, 15
   \   00000086   F411               BRNE    ??getadr_25
   \   00000088   E40B               LDI     R16, 75
   \                     ??getadr_8:
   \   0000008A   ....               RJMP    ?Subroutine123
    213            if (indexFUNC==16) {adr=80;SET(PORTB,4);}//s5 или ONтыл
   \                     ??getadr_25:
   \   0000008C   3110               CPI     R17, 16
   \   0000008E   F411               BRNE    ??getadr_26
   \   00000090   E500               LDI     R16, 80
   \   00000092   C005               RJMP    ??getadr_10
    214            if (indexFUNC==17) {adr=85;SET(PORTB,0);SET(PORTB,2);SET(PORTB,4);}//command return
   \                     ??getadr_26:
   \   00000094   3111               CPI     R17, 17
   \   00000096   F429               BRNE    ??getadr_27
   \   00000098   E505               LDI     R16, 85
   \                     ??getadr_12:
   \   0000009A   9AC0               SBI     0x18, 0x00
   \   0000009C   9AC2               SBI     0x18, 0x02
   \                     ??getadr_10:
   \   0000009E   9AC4               SBI     0x18, 0x04
   \   000000A0   9508               RET
    215            if (indexFUNC==18) {adr=90;SET(PORTD,7);}//on standby
   \                     ??getadr_27:
   \   000000A2   3112               CPI     R17, 18
   \   000000A4   F411               BRNE    ??getadr_28
   \   000000A6   E50A               LDI     R16, 90
   \                     ??getadr_14:
   \   000000A8   ....               RJMP    ?Subroutine125
    216            if (indexFUNC==19) {adr=95;SET(PORTB,5);}//aoff
   \                     ??getadr_28:
   \   000000AA   3113               CPI     R17, 19
   \   000000AC   F411               BRNE    ??getadr_29
   \   000000AE   E50F               LDI     R16, 95
   \                     ??getadr_16:
   \   000000B0   ....               RJMP    ?Subroutine124
    217            if (indexFUNC==20) {adr=100;AC_ON;}//mute
   \                     ??getadr_29:
   \   000000B2   3114               CPI     R17, 20
   \   000000B4   F419               BRNE    ??getadr_30
   \   000000B6   E604               LDI     R16, 100
   \                     ??getadr_18:
   \   000000B8   9A96               SBI     0x12, 0x06
   \   000000BA   9508               RET
    218            if (indexFUNC==21) {adr=105; }//select
   \                     ??getadr_30:
   \   000000BC   3115               CPI     R17, 21
   \   000000BE   F411               BRNE    ??getadr_31
   \   000000C0   E609               LDI     R16, 105
   \   000000C2   9508               RET
    219            if (indexFUNC==22) {adr=110; }//громкость увеличить
   \                     ??getadr_31:
   \   000000C4   3116               CPI     R17, 22
   \   000000C6   F411               BRNE    ??getadr_32
   \   000000C8   E60E               LDI     R16, 110
   \   000000CA   9508               RET
    220            if (indexFUNC==23) {adr=115; }//громкость уменьшить
   \                     ??getadr_32:
   \   000000CC   3117               CPI     R17, 23
   \   000000CE   F409               BRNE    ??getadr_33
   \   000000D0   E703               LDI     R16, 115
    221            return(adr);
   \                     ??getadr_33:
   \   000000D2   9508               RET
   \   000000D4                      REQUIRE _A_PORTB
   \   000000D4                      REQUIRE _A_PORTD
    222          }

   \                                 In  segment CODE, align 2, keep-with-next
   \                     ?Subroutine125:
   \   00000000   9A97               SBI     0x12, 0x07
   \   00000002   9508               RET

   \                                 In  segment CODE, align 2, keep-with-next
   \                     ?Subroutine124:
   \   00000000   9AC5               SBI     0x18, 0x05
   \   00000002   9508               RET
    223          

   \                                 In  segment CODE, align 2, keep-with-next
    224          void pult() 
   \                     ??pult:
    225          {
    226             tON=1500; zader=1;timerzad=0; source(); p2;   //время включения АС при переключениях
   \   00000000   ED0C               LDI     R16, 220
   \   00000002   E015               LDI     R17, 5
   \   00000004   ....               LDI     R30, LOW(tON)
   \   00000006   ....               LDI     R31, (tON) >> 8
   \   00000008   ....               RCALL   ??Subroutine136_0
   \                     ??CrossCallReturnLabel_328:
   \   0000000A   ....               RCALL   ?Subroutine4
   \                     ??CrossCallReturnLabel_4:
   \   0000000C   ....               RJMP    ?Subroutine73
    227          }
    228          
    229          

   \                                 In  segment CODE, align 2, keep-with-next
    230          void tilf()
   \                     ??tilf:
    231          {
    232          
    233                 
    234               if (pultadr==1 || pultadr==60) {if (sel!=1)  { AC_OFF; lastsel=sel; sel=1; pult(); } else   migINI(sel-1, 3 ,0); 
   \   00000000   ....               RCALL   ?Subroutine74
   \                     ??CrossCallReturnLabel_109:
   \   00000002   3001               CPI     R16, 1
   \   00000004   F011               BREQ    ??tilf_1
   \   00000006   330C               CPI     R16, 60
   \   00000008   F451               BRNE    ??tilf_2
   \                     ??tilf_1:
   \   0000000A   ....               RCALL   ?Subroutine120
   \                     ??CrossCallReturnLabel_243:
   \   0000000C   3001               CPI     R16, 1
   \   0000000E   F021               BREQ    ??tilf_3
   \   00000010   ....               RCALL   ?Subroutine77
   \                     ??CrossCallReturnLabel_130:
   \   00000012   E001               LDI     R16, 1
   \   00000014   ....               RCALL   ?Subroutine79
   \                     ??CrossCallReturnLabel_140:
   \   00000016   C003               RJMP    ??tilf_2
   \                     ??tilf_3:
   \   00000018   ....               RCALL   ?Subroutine40
    235           }
   \                     ??CrossCallReturnLabel_45:
   \   0000001A   E000               LDI     R16, 0
   \   0000001C   ....               RCALL   ??migINI
    236               if (pultadr==5 || pultadr==65) {if (sel!=2)  {AC_OFF; lastsel=sel;sel=2; pult(); }  else  migINI(sel-1, 3 ,0); 
   \                     ??tilf_2:
   \   0000001E   ....               RCALL   ?Subroutine74
   \                     ??CrossCallReturnLabel_110:
   \   00000020   3005               CPI     R16, 5
   \   00000022   F011               BREQ    ??tilf_4
   \   00000024   3401               CPI     R16, 65
   \   00000026   F451               BRNE    ??tilf_5
   \                     ??tilf_4:
   \   00000028   ....               RCALL   ?Subroutine120
   \                     ??CrossCallReturnLabel_244:
   \   0000002A   3002               CPI     R16, 2
   \   0000002C   F021               BREQ    ??tilf_6
   \   0000002E   ....               RCALL   ?Subroutine77
   \                     ??CrossCallReturnLabel_131:
   \   00000030   E002               LDI     R16, 2
   \   00000032   ....               RCALL   ?Subroutine79
   \                     ??CrossCallReturnLabel_139:
   \   00000034   C003               RJMP    ??tilf_5
   \                     ??tilf_6:
   \   00000036   ....               RCALL   ?Subroutine40
    237          }
   \                     ??CrossCallReturnLabel_46:
   \   00000038   E001               LDI     R16, 1
   \   0000003A   ....               RCALL   ??migINI
    238               if (pultadr==10 || pultadr==70) {if (sel!=3) {AC_OFF; lastsel=sel;sel=3; pult(); } else    migINI(sel-1, 3 ,0); 
   \                     ??tilf_5:
   \   0000003C   ....               RCALL   ?Subroutine74
   \                     ??CrossCallReturnLabel_111:
   \   0000003E   300A               CPI     R16, 10
   \   00000040   F011               BREQ    ??tilf_7
   \   00000042   3406               CPI     R16, 70
   \   00000044   F451               BRNE    ??tilf_8
   \                     ??tilf_7:
   \   00000046   ....               RCALL   ?Subroutine120
   \                     ??CrossCallReturnLabel_245:
   \   00000048   3003               CPI     R16, 3
   \   0000004A   F021               BREQ    ??tilf_9
   \   0000004C   ....               RCALL   ?Subroutine77
   \                     ??CrossCallReturnLabel_132:
   \   0000004E   E003               LDI     R16, 3
   \   00000050   ....               RCALL   ?Subroutine79
   \                     ??CrossCallReturnLabel_138:
   \   00000052   C003               RJMP    ??tilf_8
   \                     ??tilf_9:
   \   00000054   ....               RCALL   ?Subroutine40
    239          }
   \                     ??CrossCallReturnLabel_47:
   \   00000056   E002               LDI     R16, 2
   \   00000058   ....               RCALL   ??migINI
    240               if (pultadr==15 || pultadr==75) {if (sel!=4) {AC_OFF; lastsel=sel;sel=4; pult(); } else   migINI(sel-1, 3 ,0); 
   \                     ??tilf_8:
   \   0000005A   ....               RCALL   ?Subroutine74
   \                     ??CrossCallReturnLabel_112:
   \   0000005C   300F               CPI     R16, 15
   \   0000005E   F011               BREQ    ??tilf_10
   \   00000060   340B               CPI     R16, 75
   \   00000062   F451               BRNE    ??tilf_11
   \                     ??tilf_10:
   \   00000064   ....               RCALL   ?Subroutine120
   \                     ??CrossCallReturnLabel_246:
   \   00000066   3004               CPI     R16, 4
   \   00000068   F021               BREQ    ??tilf_12
   \   0000006A   ....               RCALL   ?Subroutine77
   \                     ??CrossCallReturnLabel_133:
   \   0000006C   E004               LDI     R16, 4
   \   0000006E   ....               RCALL   ?Subroutine79
   \                     ??CrossCallReturnLabel_137:
   \   00000070   C003               RJMP    ??tilf_11
   \                     ??tilf_12:
   \   00000072   ....               RCALL   ?Subroutine40
    241           }
   \                     ??CrossCallReturnLabel_48:
   \   00000074   E003               LDI     R16, 3
   \   00000076   ....               RCALL   ??migINI
    242               if ((pultadr==20  || pultadr==80) && mode!=1) { if (sel!=5) {AC_OFF; lastsel=sel;sel=5; pult();}  else  migINI(sel-1, 3 ,0); 
   \                     ??tilf_11:
   \   00000078   ....               RCALL   ?Subroutine74
   \                     ??CrossCallReturnLabel_113:
   \   0000007A   3104               CPI     R16, 20
   \   0000007C   F011               BREQ    ??tilf_13
   \   0000007E   3500               CPI     R16, 80
   \   00000080   F479               BRNE    ??tilf_14
   \                     ??tilf_13:
   \   00000082   ....               RCALL   ?Subroutine72
   \                     ??CrossCallReturnLabel_279:
   \   00000084   F051               BREQ    ??tilf_15
   \   00000086   ....               RCALL   ?Subroutine120
   \                     ??CrossCallReturnLabel_247:
   \   00000088   3005               CPI     R16, 5
   \   0000008A   F021               BREQ    ??tilf_16
   \   0000008C   ....               RCALL   ?Subroutine77
   \                     ??CrossCallReturnLabel_134:
   \   0000008E   E005               LDI     R16, 5
   \   00000090   ....               RCALL   ?Subroutine79
   \                     ??CrossCallReturnLabel_136:
   \   00000092   C003               RJMP    ??tilf_15
   \                     ??tilf_16:
   \   00000094   ....               RCALL   ?Subroutine40
    243          }
   \                     ??CrossCallReturnLabel_49:
   \   00000096   E004               LDI     R16, 4
   \   00000098   ....               RCALL   ??migINI
    244               
    245               
    246               //тыловые  ------------------------------------------------------
    247               if ((  pultadr==20  || pultadr==80) && mode==1) {  
   \                     ??tilf_15:
   \   0000009A   ....               RCALL   ?Subroutine74
   \                     ??CrossCallReturnLabel_114:
   \   0000009C   3104               CPI     R16, 20
   \   0000009E   F019               BREQ    ??tilf_17
   \                     ??tilf_14:
   \   000000A0   ....               RCALL   ?Subroutine74
   \                     ??CrossCallReturnLabel_115:
   \   000000A2   3500               CPI     R16, 80
   \   000000A4   F4C1               BRNE    ??CrossCallReturnLabel_100
   \                     ??tilf_17:
   \   000000A6   ....               RCALL   ?Subroutine72
   \                     ??CrossCallReturnLabel_280:
   \   000000A8   F4B1               BRNE    ??CrossCallReturnLabel_100
    248                   
    249                 if (til==0) { SET(PORTC,5);til=1;  
   \   000000AA   9100....           LDS     R16, til
   \   000000AE   2300               TST     R16
   \   000000B0   F469               BRNE    ??tilf_18
   \   000000B2   9AAD               SBI     0x15, 0x05
   \   000000B4   E001               LDI     R16, 1
   \   000000B6   9300....           STS     til, R16
    250                         for (uchar i=0; i<2; i++) {SET(PORTB,4);p2;RES(PORTB,4);p2;}  SET(PORTB,4);  pultadr=0;  p1;}
   \   000000BA   E002               LDI     R16, 2
   \                     ??tilf_19:
   \   000000BC   9AC4               SBI     0x18, 0x04
   \   000000BE   ....               RCALL   ?Subroutine111
   \                     ??CrossCallReturnLabel_221:
   \   000000C0   98C4               CBI     0x18, 0x04
   \   000000C2   ....               RCALL   ?Subroutine82
   \                     ??CrossCallReturnLabel_148:
   \   000000C4   F7D9               BRNE    ??tilf_19
   \   000000C6   9AC4               SBI     0x18, 0x04
   \   000000C8   ....               RCALL   ??Subroutine137_0
   \                     ??CrossCallReturnLabel_340:
   \   000000CA   ....               RJMP    ?Subroutine66
    251                 else 
    252                 if (til==1) {   RES(PORTC,5); RES(PORTB,4); til=0; pultadr=0; p1; }
   \                     ??tilf_18:
   \   000000CC   98AD               CBI     0x15, 0x05
   \   000000CE   98C4               CBI     0x18, 0x04
   \   000000D0   E000               LDI     R16, 0
   \   000000D2   ....               RCALL   ?Subroutine65
   \                     ??CrossCallReturnLabel_97:
   \   000000D4   ....               RCALL   ?Subroutine66
    253               
    254                                                               }
    255          
    256          }
   \                     ??CrossCallReturnLabel_100:
   \   000000D6   9508               RET
   \   000000D8                      REQUIRE _A_PORTD
   \   000000D8                      REQUIRE _A_PORTC
   \   000000D8                      REQUIRE _A_PORTB

   \                                 In  segment CODE, align 2, keep-with-next
   \                     ?Subroutine77:
   \   00000000   9896               CBI     0x12, 0x06
   \   00000002   9100....           LDS     R16, ??sel
   \   00000006   9300....           STS     ??lastsel, R16
   \   0000000A   9508               RET

   \                                 In  segment CODE, align 2, keep-with-next
   \                     ?Subroutine40:
   \   00000000   E020               LDI     R18, 0
   \   00000002   E013               LDI     R17, 3
   \   00000004   9508               RET

   \                                 In  segment CODE, align 2, keep-with-next
   \                     ?Subroutine79:
   \   00000000   9300....           STS     ??sel, R16
   \   00000004   ....               RJMP    ??pult

   \                                 In  segment CODE, align 2, keep-with-next
   \                     ?Subroutine120:
   \   00000000   9100....           LDS     R16, ??sel
   \   00000004   9508               RET

   \                                 In  segment CODE, align 2, keep-with-next
   \                     ?Subroutine72:
   \   00000000   9100....           LDS     R16, mode
   \   00000004   ....               RJMP    ?Subroutine122

   \                                 In  segment CODE, align 2, keep-with-next
   \                     ?Subroutine111:
   \   00000000   EF4F               LDI     R20, 255
   \   00000002   E750               LDI     R21, 112
   \   00000004   E062               LDI     R22, 2
   \   00000006   5041               SUBI    R20, 1
   \   00000008   4050               SBCI    R21, 0
   \   0000000A   4060               SBCI    R22, 0
   \   0000000C   F7E1               BRNE    $-6
   \   0000000E   C000               RJMP    $+2
   \   00000010   0000               NOP
   \   00000012   9508               RET

   \                                 In  segment CODE, align 2, keep-with-next
   \                     ?Subroutine82:
   \   00000000   ....               RCALL   ?Subroutine111
   \                     ??CrossCallReturnLabel_223:
   \   00000002   950A               DEC     R16
   \   00000004   9508               RET
    257          
    258          
    259          
    260          
    261          //*******************************************************************
    262          //                         MUTE
    263          //******************************************************************

   \                                 In  segment CODE, align 2, keep-with-next
    264          void mutef()
   \                     ??mutef:
    265          {
    266            //--------------- mute -------------------
    267            if (mute==1) AC_OFF; else { if (zader==0) AC_ON; }
   \   00000000   ....               RCALL   ?Subroutine84
   \                     ??CrossCallReturnLabel_265:
   \   00000002   F1A1               BREQ    ??mutef_1
   \   00000004   9896               CBI     0x12, 0x06
    268            if (zader==1) {timerzad++;  if (timerzad> tON)  {zader=0;timerzad=0; if (mute!=1)AC_ON;} }//задержка включения
   \                     ??mutef_2:
   \   00000006   9100....           LDS     R16, zader
   \   0000000A   2300               TST     R16
   \   0000000C   F091               BREQ    ??mutef_3
   \   0000000E   ....               LDI     R30, LOW(timerzad)
   \   00000010   ....               LDI     R31, (timerzad) >> 8
   \   00000012   ....               RCALL   ?Subroutine32
   \                     ??CrossCallReturnLabel_36:
   \   00000014   ....               RCALL   ??Subroutine136_0
   \                     ??CrossCallReturnLabel_329:
   \   00000016   ....               LDI     R30, LOW(tON)
   \   00000018   ....               LDI     R31, (tON) >> 8
   \   0000001A   ....               RCALL   ?Subroutine101
   \                     ??CrossCallReturnLabel_190:
   \   0000001C   ....               LDI     R30, LOW(timerzad)
   \   0000001E   ....               LDI     R31, (timerzad) >> 8
   \   00000020   ....               RCALL   ?Subroutine98
   \                     ??CrossCallReturnLabel_173:
   \   00000022   1702               CP      R16, R18
   \   00000024   0713               CPC     R17, R19
   \   00000026   F428               BRCC    ??mutef_3
   \   00000028   ....               RCALL   ??Subroutine135_0
   \                     ??CrossCallReturnLabel_317:
   \   0000002A   ....               RCALL   ?Subroutine91
   \                     ??CrossCallReturnLabel_155:
   \   0000002C   ....               RCALL   ?Subroutine84
   \                     ??CrossCallReturnLabel_266:
   \   0000002E   F409               BRNE    ??mutef_3
   \                     ??mutef_4:
   \   00000030   9A96               SBI     0x12, 0x06
    269            
    270             if ((keyMUTE ||pultadr==35 || pultadr==100) && mute==0) { AC_OFF; mute=1; p5; pultadr=0;}
   \                     ??mutef_3:
   \   00000032   9981               SBIC    0x10, 0x01
   \   00000034   C002               RJMP    ??mutef_5
   \   00000036   9B85               SBIS    0x10, 0x05
   \   00000038   C005               RJMP    ??mutef_6
   \                     ??mutef_5:
   \   0000003A   ....               RCALL   ?Subroutine74
   \                     ??CrossCallReturnLabel_116:
   \   0000003C   3203               CPI     R16, 35
   \   0000003E   F011               BREQ    ??mutef_6
   \   00000040   3604               CPI     R16, 100
   \   00000042   F429               BRNE    ??CrossCallReturnLabel_335
   \                     ??mutef_6:
   \   00000044   ....               RCALL   ?Subroutine84
   \                     ??CrossCallReturnLabel_267:
   \   00000046   F419               BRNE    ??CrossCallReturnLabel_335
   \   00000048   9896               CBI     0x12, 0x06
   \   0000004A   E001               LDI     R16, 1
   \   0000004C   ....               RCALL   ?Subroutine11
    271             if ((keyMUTE ||pultadr==35 || pultadr==100) && mute==1) { AC_ON; mute=0; p5; pultadr=0; }   
   \                     ??CrossCallReturnLabel_335:
   \   0000004E   9981               SBIC    0x10, 0x01
   \   00000050   C002               RJMP    ??mutef_7
   \   00000052   9B85               SBIS    0x10, 0x05
   \   00000054   C005               RJMP    ??mutef_8
   \                     ??mutef_7:
   \   00000056   ....               RCALL   ?Subroutine74
   \                     ??CrossCallReturnLabel_117:
   \   00000058   3203               CPI     R16, 35
   \   0000005A   F011               BREQ    ??mutef_8
   \   0000005C   3604               CPI     R16, 100
   \   0000005E   F429               BRNE    ??CrossCallReturnLabel_334
   \                     ??mutef_8:
   \   00000060   ....               RCALL   ?Subroutine84
   \                     ??CrossCallReturnLabel_268:
   \   00000062   F019               BREQ    ??CrossCallReturnLabel_334
   \   00000064   9A96               SBI     0x12, 0x06
   \   00000066   E000               LDI     R16, 0
   \   00000068   ....               RCALL   ?Subroutine11
    272             
    273          
    274          }
   \                     ??CrossCallReturnLabel_334:
   \   0000006A   9508               RET
   \                     ??mutef_1:
   \   0000006C   9100....           LDS     R16, zader
   \   00000070   2300               TST     R16
   \   00000072   F649               BRNE    ??mutef_2
   \   00000074   CFDD               RJMP    ??mutef_4
   \   00000076                      REQUIRE _A_PORTD
   \   00000076                      REQUIRE _A_PIND

   \                                 In  segment CODE, align 2, keep-with-next
   \                     ?Subroutine84:
   \   00000000   9100....           LDS     R16, mute
   \   00000004   ....               RJMP    ?Subroutine121

   \                                 In  segment CODE, align 2, keep-with-next
   \                     ?Subroutine11:
   \   00000000   9300....           STS     mute, R16
   \   00000004   ....               RCALL   ?Subroutine107
   \                     ??CrossCallReturnLabel_213:
   \   00000006                      REQUIRE ?Subroutine108
   \   00000006                      REQUIRE ??Subroutine137_0
   \   00000006                      ;               // Fall through to label ??Subroutine137_0

   \                                 In  segment CODE, align 2, keep-with-next
   \                     ?Subroutine32:
   \   00000000   ....               RCALL   ?Subroutine101
   \                     ??CrossCallReturnLabel_195:
   \   00000002   5F0F               SUBI    R16, 255
   \   00000004   4F1F               SBCI    R17, 255
   \   00000006   9508               RET
    275          
    276          
    277          
    278          //*******************************************************************
    279          //                         SELECT
    280          //******************************************************************

   \                                 In  segment CODE, align 2, keep-with-next
    281          void select()
   \                     ??select:
    282          {
    283           //--------------- select -------------------
    284                          if ( !u ) {//что бы во время работы UART не срабатывал
   \   00000000   ....               RCALL   ?Subroutine102
   \                     ??CrossCallReturnLabel_270:
   \   00000002   F5C1               BRNE    ??select_1
    285             static uchar kol;  
    286             if  (mode==1) kol=4; else kol=5;
   \   00000004   ....               RCALL   ?Subroutine72
   \                     ??CrossCallReturnLabel_281:
   \   00000006   F411               BRNE    ??select_2
   \   00000008   E004               LDI     R16, 4
   \   0000000A   C001               RJMP    ??select_3
   \                     ??select_2:
   \   0000000C   E005               LDI     R16, 5
   \                     ??select_3:
   \   0000000E   9300....           STS     ??kol, R16
    287             if (keySEL ||pultadr==40 || pultadr==105) 
   \   00000012   9981               SBIC    0x10, 0x01
   \   00000014   C002               RJMP    ??select_4
   \   00000016   9985               SBIC    0x10, 0x05
   \   00000018   C005               RJMP    ??select_5
   \                     ??select_4:
   \   0000001A   ....               RCALL   ?Subroutine74
   \                     ??CrossCallReturnLabel_118:
   \   0000001C   3208               CPI     R16, 40
   \   0000001E   F011               BREQ    ??select_5
   \   00000020   3609               CPI     R16, 105
   \   00000022   F4A1               BRNE    ??CrossCallReturnLabel_135
    288                          { 
    289                                  if (sel<=(kol-1)) { AC_OFF; p2; RES(PORTB,(sel-1));lastsel=sel; sel++; pult(); } 
   \                     ??select_5:
   \   00000024   9100....           LDS     R16, ??kol
   \   00000028   950A               DEC     R16
   \   0000002A   9110....           LDS     R17, ??sel
   \   0000002E   1701               CP      R16, R17
   \   00000030   9896               CBI     0x12, 0x06
   \   00000032   F030               BRCS    ??select_6
   \   00000034   ....               RCALL   ?Subroutine73
   \                     ??CrossCallReturnLabel_103:
   \   00000036   ....               RCALL   ?Subroutine5
   \                     ??CrossCallReturnLabel_241:
   \   00000038   9300....           STS     ??lastsel, R16
   \   0000003C   9503               INC     R16
   \   0000003E   C005               RJMP    ??select_7
    290                                 else { AC_OFF;  RES(PORTB,(sel-1)); sel=1; pult(); }
   \                     ??select_6:
   \   00000040   9140....           LDS     R20, ??sel
   \   00000044   954A               DEC     R20
   \   00000046   ....               RCALL   ?Subroutine88
   \                     ??CrossCallReturnLabel_287:
   \   00000048   E001               LDI     R16, 1
    291                        
    292                          }
   \                     ??select_7:
   \   0000004A   ....               RCALL   ?Subroutine79
    293                                   
    294            //--------------- return sel -------------------  возврат в предыдущий source                 
    295             if ( pultadr==55 || pultadr==85) 
   \                     ??CrossCallReturnLabel_135:
   \   0000004C   ....               RCALL   ?Subroutine74
   \                     ??CrossCallReturnLabel_119:
   \   0000004E   3307               CPI     R16, 55
   \   00000050   F011               BREQ    ??select_8
   \   00000052   3505               CPI     R16, 85
   \   00000054   F479               BRNE    ??select_1
    296             {
    297               
    298               if (sel!=lastsel) 
   \                     ??select_8:
   \   00000056   ....               RCALL   ?Subroutine120
   \                     ??CrossCallReturnLabel_248:
   \   00000058   9110....           LDS     R17, ??lastsel
   \   0000005C   1701               CP      R16, R17
   \   0000005E   F051               BREQ    ??select_1
    299               {
    300                 AC_OFF;  RES(PORTB,(sel-1)); uchar tmp1=sel; sel=lastsel;  lastsel=tmp1; pultadr=0;  pult();
   \   00000060   9896               CBI     0x12, 0x06
   \   00000062   ....               RCALL   ?Subroutine5
   \                     ??CrossCallReturnLabel_242:
   \   00000064   9110....           LDS     R17, ??lastsel
   \   00000068   9310....           STS     ??sel, R17
   \   0000006C   9300....           STS     ??lastsel, R16
   \   00000070   ....               RCALL   ??Subroutine137_0
   \                     ??CrossCallReturnLabel_341:
   \   00000072   ....               RCALL   ??pult
    301               }
    302                                              
    303             }
    304                        
    305                                    }//что бы во время работы UART не срабатывал
    306                                     
    307                                    
    308          }
   \                     ??select_1:
   \   00000074   9508               RET
   \   00000076                      REQUIRE _A_PIND
   \   00000076                      REQUIRE _A_PORTD
   \   00000076                      REQUIRE _A_PORTB

   \                                 In  segment CODE, align 2, keep-with-next
   \                     ?Subroutine5:
   \   00000000   9140....           LDS     R20, ??sel
   \   00000004   954A               DEC     R20
   \   00000006   ....               RCALL   ?Subroutine88
   \                     ??CrossCallReturnLabel_289:
   \   00000008   ....               RJMP    ?Subroutine120

   \                                 In  segment CODE, align 2, keep-with-next
   \                     ?Subroutine127:
   \   00000000   BB18               OUT     0x18, R17
   \   00000002   9508               RET

   \                                 In  segment CODE, align 2, keep-with-next
   \                     ?Subroutine88:
   \   00000000   ....               RCALL   ?Subroutine114
   \                     ??CrossCallReturnLabel_231:
   \   00000002   9500               COM     R16
   \   00000004   B318               IN      R17, 0x18
   \   00000006   2310               AND     R17, R16
   \   00000008   ....               RJMP    ?Subroutine127

   \                                 In  segment NEAR_Z, align 1, keep-with-next
   \   00000000                      REQUIRE `?<Segment init: NEAR_Z>`
   \                     ??kol:
   \   00000000                      DS8 1
    309          
    310          
    311          //*******************************************************************
    312          //                         AUTO OFF
    313          //******************************************************************

   \                                 In  segment CODE, align 2, keep-with-next
    314          void autoOFF()
   \                     ??autoOFF:
    315          {
    316            //--------------- aoff --------------------
    317           
    318             
    319            // if ((keyAOFF || pultadr==30 || pultadr==95) && aoff==1 && regaoff>=3)  {  RES(PORTB,5);  p5; aoff=0; regaoff=0; pultadr=0;}//отмена aoff 
    320             
    321           // if ((keyAOFF || pultadr==30 || pultadr==95) && regaoff==0) { aoff=1; regaoff++; iniT1(60*60*2)/*2 часа*/; pultadr=0;  for (uchar i=0; i<3; i++)  {SET(PORTB,5);p2;RES(PORTB,5);p2;}  SET(PORTB,5); }
    322           // if ((keyAOFF || pultadr==30 || pultadr==95) && regaoff==1) { aoff=1; regaoff++; iniT1(60*60*1)/*1 час*/; pultadr=0; for (uchar i=0; i<2; i++)  {SET(PORTB,5);p2;RES(PORTB,5);p2;}  SET(PORTB,5); }
    323            //if ((keyAOFF || pultadr==30 || pultadr==95) && regaoff==2) { aoff=1; regaoff++; iniT1(60*60*0.5)/*0.5 часа*/; pultadr=0; for (uchar i=0; i<1; i++)  {SET(PORTB,5);p2;RES(PORTB,5);p2;}  SET(PORTB,5); }
    324            
    325             
    326           //  if ((keyAOFF || pultadr==30 || pultadr==95) && aoff==0) 
    327           //     {   aoff=1;  iniT1(60*60*2)/*2 часа*/; pultadr=0;
    328           //         for (uchar i=0; i<2; i++)  {SET(PORTB,5);p2;RES(PORTB,5);p2;}  SET(PORTB,5);
    329            //   
    330            //        
    331           //         for (uint i=0; i<1000; i++)
    332           //         {   char rez=du_main(0);  if (rez==1) { pultadr=analizCOD();break; }}
    333           //         
    334            //    //если user продолжает удерживать
    335            //    if ((keyAOFF || pultadr==30 || pultadr==95) ) { iniT1(60*30);/*30 мин*/
    336           //      for (uchar i=0; i<4; i++)  {SET(PORTB,5);p2;p2;p2;p2;p2;RES(PORTB,5);p2;}  SET(PORTB,5);
    337            //                                    }
    338            //    
    339             //   }
    340                                                                  
    341              if (keyAOFF || pultadr==30 || pultadr==95) 
   \   00000000   9980               SBIC    0x10, 0x00
   \   00000002   C002               RJMP    ??autoOFF_1
   \   00000004   9B85               SBIS    0x10, 0x05
   \   00000006   C005               RJMP    ??autoOFF_2
   \                     ??autoOFF_1:
   \   00000008   ....               RCALL   ?Subroutine74
   \                     ??CrossCallReturnLabel_120:
   \   0000000A   310E               CPI     R16, 30
   \   0000000C   F011               BREQ    ??autoOFF_2
   \   0000000E   350F               CPI     R16, 95
   \   00000010   F5C1               BRNE    ??autoOFF_3
    342             {
    343          
    344               
    345            if ( aoff==1 && regaoff>=3)  {  RES(PORTB,5);  p5; aoff=0; regaoff=0; pultadr=0;   }//отмена aoff 
   \                     ??autoOFF_2:
   \   00000012   9100....           LDS     R16, aoff
   \   00000016   2300               TST     R16
   \   00000018   F049               BREQ    ??autoOFF_4
   \   0000001A   9100....           LDS     R16, ??regaoff
   \   0000001E   3003               CPI     R16, 3
   \   00000020   F028               BRCS    ??autoOFF_4
   \   00000022   98C5               CBI     0x18, 0x05
   \   00000024   ....               RCALL   ?Subroutine107
   \                     ??CrossCallReturnLabel_212:
   \   00000026   ....               RCALL   ?Subroutine105
   \                     ??CrossCallReturnLabel_350:
   \   00000028   ....               RCALL   ?Subroutine76
   \                     ??CrossCallReturnLabel_126:
   \   0000002A   ....               RJMP    ?Subroutine108
    346            else
    347            if ( regaoff==0) 
   \                     ??autoOFF_4:
   \   0000002C   9100....           LDS     R16, ??regaoff
   \   00000030   2300               TST     R16
   \   00000032   F449               BRNE    ??autoOFF_5
    348              { 
    349                aoff=1; regaoff++; 
   \   00000034   ....               RCALL   ?Subroutine9
   \                     ??CrossCallReturnLabel_6:
   \   00000036   ....               RCALL   ?Subroutine76
    350                TimerSet(&tm1, 120000)/*2 часа*/; 
   \                     ??CrossCallReturnLabel_127:
   \   00000038   EC40               LDI     R20, 192
   \   0000003A   ED54               LDI     R21, 212
   \   0000003C   E061               LDI     R22, 1
   \   0000003E   ....               RCALL   ??Subroutine138_0
    351                pultadr=0; 
   \                     ??CrossCallReturnLabel_345:
   \   00000040   ....               RCALL   ??Subroutine137_0
    352                for (uchar i=0; i<3; i++)  {SET(PORTB,5);p2;RES(PORTB,5);p2;}  
   \                     ??CrossCallReturnLabel_342:
   \   00000042   E003               LDI     R16, 3
   \   00000044   C00A               RJMP    ??autoOFF_6
    353                SET(PORTB,5);             
    354              }
    355            else
    356            if (regaoff==1) 
   \                     ??autoOFF_5:
   \   00000046   3001               CPI     R16, 1
   \   00000048   F471               BRNE    ??autoOFF_7
    357              { 
    358                aoff=1; regaoff++; 
   \   0000004A   ....               RCALL   ?Subroutine9
   \                     ??CrossCallReturnLabel_7:
   \   0000004C   E002               LDI     R16, 2
   \   0000004E   ....               RCALL   ?Subroutine76
    359                TimerSet(&tm1, 60000)/*1 часа*/; 
   \                     ??CrossCallReturnLabel_128:
   \   00000050   E640               LDI     R20, 96
   \   00000052   EE5A               LDI     R21, 234
   \   00000054   ....               RCALL   ?Subroutine56
    360                pultadr=0; 
   \                     ??CrossCallReturnLabel_347:
   \   00000056   ....               RCALL   ??Subroutine137_0
    361                for (uchar i=0; i<2; i++)  {SET(PORTB,5);p2;RES(PORTB,5);p2;}  
   \                     ??CrossCallReturnLabel_343:
   \   00000058   E002               LDI     R16, 2
   \                     ??autoOFF_6:
   \   0000005A   9AC5               SBI     0x18, 0x05
   \   0000005C   ....               RCALL   ?Subroutine111
   \                     ??CrossCallReturnLabel_222:
   \   0000005E   98C5               CBI     0x18, 0x05
   \   00000060   ....               RCALL   ?Subroutine82
   \                     ??CrossCallReturnLabel_149:
   \   00000062   F7D9               BRNE    ??autoOFF_6
    362                SET(PORTB,5); 
   \   00000064   ....               RJMP    ?Subroutine124
    363              }
    364            else
    365            if (regaoff==2) 
   \                     ??autoOFF_7:
   \   00000066   3002               CPI     R16, 2
   \   00000068   F461               BRNE    ??autoOFF_3
    366              { 
    367                aoff=1; regaoff++;
   \   0000006A   ....               RCALL   ?Subroutine9
   \                     ??CrossCallReturnLabel_8:
   \   0000006C   E003               LDI     R16, 3
   \   0000006E   ....               RCALL   ?Subroutine76
    368                TimerSet(&tm1, 30000)/*0.5 часа*/; 
   \                     ??CrossCallReturnLabel_129:
   \   00000070   E340               LDI     R20, 48
   \   00000072   E755               LDI     R21, 117
   \   00000074   ....               RCALL   ?Subroutine56
    369                pultadr=0; for (uchar i=0; i<1; i++)  {SET(PORTB,5);p2;RES(PORTB,5);p2;}  
   \                     ??CrossCallReturnLabel_346:
   \   00000076   ....               RCALL   ??Subroutine137_0
   \                     ??CrossCallReturnLabel_344:
   \   00000078   9AC5               SBI     0x18, 0x05
   \   0000007A   ....               RCALL   ?Subroutine73
   \                     ??CrossCallReturnLabel_104:
   \   0000007C   98C5               CBI     0x18, 0x05
   \   0000007E   ....               RCALL   ?Subroutine73
    370                SET(PORTB,5); 
   \                     ??CrossCallReturnLabel_105:
   \   00000080   9AC5               SBI     0x18, 0x05
    371              }
    372            
    373            }
    374          }
   \                     ??autoOFF_3:
   \   00000082   9508               RET
   \   00000084                      REQUIRE _A_PIND
   \   00000084                      REQUIRE _A_PORTB

   \                                 In  segment CODE, align 2, keep-with-next
   \                     ?Subroutine56:
   \   00000000   E060               LDI     R22, 0
   \   00000002                      REQUIRE ??Subroutine138_0
   \   00000002                      ;               // Fall through to label ??Subroutine138_0

   \                                 In  segment CODE, align 2, keep-with-next
   \                     ??Subroutine138_0:
   \   00000000   E070               LDI     R23, 0
   \   00000002   ....               LDI     R16, LOW(tm1)
   \   00000004   ....               LDI     R17, (tm1) >> 8
   \   00000006   ....               RJMP    ??TimerSet

   \                                 In  segment CODE, align 2, keep-with-next
   \                     ?Subroutine9:
   \   00000000   E001               LDI     R16, 1
   \   00000002   ....               RJMP    ??Subroutine139_0
    375          
    376          
    377          //*******************************************************************
    378          //                         VOLUME
    379          //******************************************************************

   \                                 In  segment NEAR_Z, align 1, keep-with-next
   \   00000000                      REQUIRE `?<Segment init: NEAR_Z>`
    380          static bool vol;
   \                     ??vol:
   \   00000000                      DS8 1

   \                                 In  segment NEAR_Z, align 1, keep-with-next
   \   00000000                      REQUIRE `?<Segment init: NEAR_Z>`
    381          static uint ctvol=0;
   \                     ??ctvol:
   \   00000000                      DS8 2

   \                                 In  segment CODE, align 2, keep-with-next
    382          void volume()
   \                     ??volume:
    383          {
    384                                 
    385                                 if (pultadr==45 || pultadr==110) {SET(PORTB,2); vol=true; ctvol=0;}
   \   00000000   ....               RCALL   ?Subroutine74
   \                     ??CrossCallReturnLabel_121:
   \   00000002   320D               CPI     R16, 45
   \   00000004   F011               BREQ    ??volume_1
   \   00000006   360E               CPI     R16, 110
   \   00000008   F411               BRNE    ??volume_2
   \                     ??volume_1:
   \   0000000A   9AC2               SBI     0x18, 0x02
   \   0000000C   C005               RJMP    ??volume_3
    386                                 else // { gro(1); p5;  pultadr=0; }
    387                                 {
    388                                   if (pultadr==50 || pultadr==115) {SET(PORTB,3);vol=true;ctvol=0;}//{ gro(2); p5;  pultadr=0; }  
   \                     ??volume_2:
   \   0000000E   3302               CPI     R16, 50
   \   00000010   F011               BREQ    ??volume_4
   \   00000012   3703               CPI     R16, 115
   \   00000014   F441               BRNE    ??CrossCallReturnLabel_156
   \                     ??volume_4:
   \   00000016   9AC3               SBI     0x18, 0x03
   \                     ??volume_3:
   \   00000018   E001               LDI     R16, 1
   \   0000001A   9300....           STS     ??vol, R16
   \   0000001E   E000               LDI     R16, 0
   \   00000020   ....               LDI     R30, LOW(??ctvol)
   \   00000022   ....               LDI     R31, (??ctvol) >> 8
   \   00000024   ....               RCALL   ?Subroutine91
    389                               
    390                                  
    391                                 }
    392                                  p2; 
   \                     ??CrossCallReturnLabel_156:
   \   00000026                      REQUIRE ?Subroutine73
   \   00000026                      REQUIRE _A_PORTB
   \   00000026                      ;               // Fall through to label ?Subroutine73
    393          }
    394          
    395          
    396          
    397          
    398          
    399          
    400          
    401          
    402          
    403          
    404          //*******************************************************************
    405          //                         main LOGIC
    406          //******************************************************************

   \                                 In  segment CODE, align 2, keep-with-next
    407          void normal(uchar adr)//-----------------------главная логика --------------------
   \                     ??normal:
    408          {   
    409             pultadr=adr;
   \   00000000   ....               RCALL   ?Subroutine108
    410            
    411             static bool inv;
    412             migWORK();
   \                     ??CrossCallReturnLabel_337:
   \   00000002   ....               RCALL   ??migWORK
    413             
    414           
    415               //
    416               if (pultadr==0)
   \   00000004   ....               RCALL   ?Subroutine74
   \                     ??CrossCallReturnLabel_122:
   \   00000006   2300               TST     R16
   \   00000008   F429               BRNE    ??normal_1
    417               {  
    418                //RES(PORTD,7); delay_ms(100); SET(PORTD,7);
    419                rprintfStr("normal>no find command ");  ent;
   \   0000000A   ....               LDI     R16, LOW(`?<Constant "normal>no find command ">`)
   \   0000000C   ....               LDI     R17, (`?<Constant "normal>no find command ">`) >> 8
   \   0000000E   ....               RCALL   ?Subroutine39
    420               }
   \                     ??CrossCallReturnLabel_44:
   \   00000010   F499               BRNE    ??normal_2
   \   00000012   C013               RJMP    ??CrossCallReturnLabel_204
    421               else 
    422               { 
    423                 if (inv){SET(PORTD,7); inv=false;}
   \                     ??normal_1:
   \   00000014   9100....           LDS     R16, ??inv
   \   00000018   2300               TST     R16
   \   0000001A   F019               BREQ    ??normal_3
   \   0000001C   9A97               SBI     0x12, 0x07
   \   0000001E   E000               LDI     R16, 0
   \   00000020   C002               RJMP    ??normal_4
    424                 else {RES(PORTD,7); inv=true;}
   \                     ??normal_3:
   \   00000022   9897               CBI     0x12, 0x07
   \   00000024   E001               LDI     R16, 1
   \                     ??normal_4:
   \   00000026   9300....           STS     ??inv, R16
    425                 
    426                rprintfStr("normal>command find  adr= ");
   \   0000002A   ....               LDI     R16, LOW(`?<Constant "normal>command find  ...">`)
   \   0000002C   ....               LDI     R17, (`?<Constant "normal>command find  ...">`) >> 8
   \   0000002E   ....               RCALL   ??rprintfStr
    427                rprintfFloat(6, pultadr ); ent;
   \   00000030   ....               RCALL   ?Subroutine74
   \                     ??CrossCallReturnLabel_123:
   \   00000032   ....               RCALL   ?Subroutine18
   \                     ??CrossCallReturnLabel_304:
   \   00000034   ....               RCALL   ?Subroutine102
   \                     ??CrossCallReturnLabel_271:
   \   00000036   F009               BREQ    ??CrossCallReturnLabel_204
   \                     ??normal_2:
   \   00000038   ....               RCALL   ?Subroutine104
    428               }
    429               //
    430               
    431               
    432               
    433             tilf();   
   \                     ??CrossCallReturnLabel_204:
   \   0000003A   ....               RCALL   ??tilf
    434             mutef();   
   \   0000003C   ....               RCALL   ??mutef
    435             autoOFF();
   \   0000003E   ....               RCALL   ??autoOFF
    436             select();
   \   00000040   ....               RCALL   ??select
    437             if (pultadr!=0) volume(); 
   \   00000042   ....               RCALL   ?Subroutine74
   \                     ??CrossCallReturnLabel_124:
   \   00000044   2300               TST     R16
   \   00000046   F009               BREQ    ??normal_5
   \   00000048   ....               RCALL   ??volume
    438             
    439          
    440           //tasks
    441           // if (aoff==1)  {    WorkT1(); if (T1end) { on=0; onok=0;  aoff=0; p5; zader=0; regaoff=0;}
    442           //               } 
    443                          
    444           if (vol)
   \                     ??normal_5:
   \   0000004A   9100....           LDS     R16, ??vol
   \   0000004E   2300               TST     R16
   \   00000050   F061               BREQ    ??normal_6
    445                                   {
    446                                    ctvol++;
   \   00000052   ....               LDI     R30, LOW(??ctvol)
   \   00000054   ....               LDI     R31, (??ctvol) >> 8
   \   00000056   ....               RCALL   ?Subroutine32
   \                     ??CrossCallReturnLabel_37:
   \   00000058   ....               RCALL   ??Subroutine136_0
    447                                    if (ctvol>10000){ vol=false; RES(PORTB,2); RES(PORTB,3); }
   \                     ??CrossCallReturnLabel_330:
   \   0000005A   3101               CPI     R16, 17
   \   0000005C   4217               SBCI    R17, 39
   \   0000005E   F028               BRCS    ??normal_6
   \   00000060   E000               LDI     R16, 0
   \   00000062   9300....           STS     ??vol, R16
   \   00000066   98C2               CBI     0x18, 0x02
   \   00000068   98C3               CBI     0x18, 0x03
    448                                   }
    449             
    450            
    451             
    452             
    453          }
   \                     ??normal_6:
   \   0000006A   9508               RET
   \   0000006C                      REQUIRE _A_PORTD
   \   0000006C                      REQUIRE _A_PORTB

   \                                 In  segment CODE, align 2, keep-with-next
   \                     ?Subroutine39:
   \   00000000   ....               RCALL   ??rprintfStr
   \   00000002   ....               RJMP    ?Subroutine102

   \                                 In  segment NEAR_Z, align 1, keep-with-next
   \   00000000                      REQUIRE `?<Segment init: NEAR_Z>`
   \                     ??inv:
   \   00000000                      DS8 1
    454           //------------------------------------------

   \                                 In  segment CODE, align 2, keep-with-next
    455          void source()
   \                     ??source:
    456          {  
    457           
    458            
    459             
    460            if (sel==1){ resOUT(); resled(); SET(PORTC,1);}
   \   00000000   ....               RCALL   ?Subroutine120
   \                     ??CrossCallReturnLabel_249:
   \   00000002   3001               CPI     R16, 1
   \   00000004   F411               BRNE    ??source_1
   \   00000006   ....               RCALL   ?Subroutine81
   \                     ??CrossCallReturnLabel_147:
   \   00000008   9AA9               SBI     0x15, 0x01
    461            if (sel==2){ resOUT(); resled(); SET(PORTC,2);}
   \                     ??source_1:
   \   0000000A   ....               RCALL   ?Subroutine120
   \                     ??CrossCallReturnLabel_250:
   \   0000000C   3002               CPI     R16, 2
   \   0000000E   F411               BRNE    ??source_2
   \   00000010   ....               RCALL   ?Subroutine81
   \                     ??CrossCallReturnLabel_146:
   \   00000012   9AAA               SBI     0x15, 0x02
    462            if (sel==3){ resOUT(); resled(); SET(PORTC,3);}
   \                     ??source_2:
   \   00000014   ....               RCALL   ?Subroutine120
   \                     ??CrossCallReturnLabel_251:
   \   00000016   3003               CPI     R16, 3
   \   00000018   F411               BRNE    ??source_3
   \   0000001A   ....               RCALL   ?Subroutine81
   \                     ??CrossCallReturnLabel_145:
   \   0000001C   9AAB               SBI     0x15, 0x03
    463            if (sel==4){ resOUT(); resled();SET(PORTC,4);}
   \                     ??source_3:
   \   0000001E   ....               RCALL   ?Subroutine120
   \                     ??CrossCallReturnLabel_252:
   \   00000020   3004               CPI     R16, 4
   \   00000022   F411               BRNE    ??source_4
   \   00000024   ....               RCALL   ?Subroutine81
   \                     ??CrossCallReturnLabel_144:
   \   00000026   9AAC               SBI     0x15, 0x04
    464            if (sel==5 && mode==0 ){  resOUT(); resled();SET(PORTC,5);}
   \                     ??source_4:
   \   00000028   ....               RCALL   ?Subroutine120
   \                     ??CrossCallReturnLabel_253:
   \   0000002A   3005               CPI     R16, 5
   \   0000002C   F421               BRNE    ??source_5
   \   0000002E   ....               RCALL   ?Subroutine71
   \                     ??CrossCallReturnLabel_259:
   \   00000030   F411               BRNE    ??source_5
   \   00000032   ....               RCALL   ?Subroutine81
   \                     ??CrossCallReturnLabel_143:
   \   00000034   9AAD               SBI     0x15, 0x05
    465            
    466            if (mute!=1 ) if (zader==0) AC_ON;//вкл АС
   \                     ??source_5:
   \   00000036   9100....           LDS     R16, mute
   \   0000003A   9110....           LDS     R17, zader
   \   0000003E   2B01               OR      R16, R17
   \   00000040   F409               BRNE    ??source_6
   \   00000042   9A96               SBI     0x12, 0x06
    467           
    468             migINI(sel-1, 5 ,0); 
   \                     ??source_6:
   \   00000044   E020               LDI     R18, 0
   \   00000046   E015               LDI     R17, 5
   \   00000048   ....               RCALL   ?Subroutine120
   \                     ??CrossCallReturnLabel_254:
   \   0000004A   950A               DEC     R16
   \   0000004C   ....               RJMP    ??migINI
   \   0000004E                      REQUIRE _A_PORTC
   \   0000004E                      REQUIRE _A_PORTD
    469           
    470          }

   \                                 In  segment CODE, align 2, keep-with-next
   \                     ?Subroutine81:
   \   00000000   ....               RCALL   ??resOUT
   \   00000002   ....               RJMP    ??resled
    471          
    472          
    473          
    474          
    475          
    476          
    477          
    478          
    479          
    480          
    481          
    482          
    483          
    484          
    485          
    486          
    487          //*******************************************************************
    488          //                         PROGRAMMING
    489          //******************************************************************

   \                                 In  segment CODE, align 2, keep-with-next
    490          void programming ()
   \                     ??programming:
    491          {  
   \   00000000   938A               ST      -Y, R24
    492             if (indexFUNC==255) return;
   \   00000002   9100....           LDS     R16, indexFUNC
   \   00000006   3F0F               CPI     R16, 255
   \   00000008   F119               BREQ    ??CrossCallReturnLabel_360
    493            
    494             if (rez==1)
   \   0000000A   9100....           LDS     R16, rez
   \   0000000E   2300               TST     R16
   \   00000010   F079               BREQ    ??CrossCallReturnLabel_361
    495             {
    496               led_all(1); p4;led_all(0); p4;led_all(1); p4;led_all(0); 
   \   00000012   ....               RCALL   ?Subroutine87
   \                     ??CrossCallReturnLabel_291:
   \   00000014   ....               RCALL   ?Subroutine116
   \                     ??CrossCallReturnLabel_232:
   \   00000016   ....               RCALL   ?Subroutine87
    497               getadr(); //получаем адрес и зажигаем программируемую функцию       
   \                     ??CrossCallReturnLabel_292:
   \   00000018   ....               RCALL   ??getadr
    498               writeCOD();
   \   0000001A   ....               RCALL   ?Subroutine31
    499               indexFUNC++;  
    500             
    501               if (indexFUNC==12) {  for (uchar i=0; i<10;i++) 
   \                     ??CrossCallReturnLabel_352:
   \   0000001C   300C               CPI     R16, 12
   \   0000001E   F419               BRNE    ??programming_1
   \   00000020   E08A               LDI     R24, 10
    502                                     {led_all(1); p4; led_all(0);p4; }
   \                     ??programming_2:
   \   00000022   ....               RCALL   ?Subroutine0
   \                     ??CrossCallReturnLabel_0:
   \   00000024   F7F1               BRNE    ??programming_2
    503                                }
    504               if (indexFUNC>MAXFUNC) {indexFUNC=255;led_all(1);}
   \                     ??programming_1:
   \   00000026   9100....           LDS     R16, indexFUNC
   \   0000002A   3108               CPI     R16, 24
   \   0000002C   F008               BRCS    ??CrossCallReturnLabel_361
   \   0000002E   ....               RCALL   ?Subroutine7
    505          
    506             }
    507             
    508             
    509             //пропуск
    510             if (keyONsm) { 
   \                     ??CrossCallReturnLabel_361:
   \   00000030   9985               SBIC    0x10, 0x05
   \   00000032   C00E               RJMP    ??CrossCallReturnLabel_360
    511                          led_all(1); delay_s(1); 
   \   00000034   ....               RCALL   ??Subroutine142_0
   \                     ??CrossCallReturnLabel_357:
   \   00000036   ....               RCALL   ?Subroutine80
    512                          led_all(0); 
   \                     ??CrossCallReturnLabel_142:
   \   00000038   ....               RCALL   ?Subroutine131
    513                          indexFUNC++;  
   \                     ??CrossCallReturnLabel_294:
   \   0000003A   ....               RCALL   ??Subroutine140_0
    514                             if (indexFUNC==12) {  for (uchar i=0; i<10;i++) 
   \                     ??CrossCallReturnLabel_355:
   \   0000003C   300C               CPI     R16, 12
   \   0000003E   F419               BRNE    ??programming_3
   \   00000040   E08A               LDI     R24, 10
    515                                     {led_all(1); p4; led_all(0);p4; }
   \                     ??programming_4:
   \   00000042   ....               RCALL   ?Subroutine0
   \                     ??CrossCallReturnLabel_1:
   \   00000044   F7F1               BRNE    ??programming_4
    516                                }
    517                          if (indexFUNC>MAXFUNC) {indexFUNC=255;led_all(1);}
   \                     ??programming_3:
   \   00000046   9100....           LDS     R16, indexFUNC
   \   0000004A   3108               CPI     R16, 24
   \   0000004C   F008               BRCS    ??CrossCallReturnLabel_360
   \   0000004E   ....               RCALL   ?Subroutine7
    518                         
    519                           }
    520               
    521          }
   \                     ??CrossCallReturnLabel_360:
   \   00000050                      REQUIRE ?Subroutine126
   \   00000050                      REQUIRE _A_PIND
   \   00000050                      ;               // Fall through to label ?Subroutine126

   \                                 In  segment CODE, align 2, keep-with-next
   \                     ?Subroutine126:
   \   00000000   9189               LD      R24, Y+
   \   00000002   9508               RET

   \                                 In  segment CODE, align 2, keep-with-next
   \                     ?Subroutine7:
   \   00000000   EF0F               LDI     R16, 255
   \   00000002   9300....           STS     indexFUNC, R16
   \   00000006                      REQUIRE ??Subroutine142_0
   \   00000006                      ;               // Fall through to label ??Subroutine142_0

   \                                 In  segment CODE, align 2, keep-with-next
   \                     ?Subroutine87:
   \   00000000   E001               LDI     R16, 1
   \   00000002   ....               RCALL   ??led_all
   \   00000004   ....               RCALL   ?Subroutine116
   \                     ??CrossCallReturnLabel_234:
   \   00000006   ....               RJMP    ?Subroutine131

   \                                 In  segment CODE, align 2, keep-with-next
   \                     ?Subroutine0:
   \   00000000   ....               RCALL   ?Subroutine87
   \                     ??CrossCallReturnLabel_290:
   \   00000002   ....               RCALL   ?Subroutine116
   \                     ??CrossCallReturnLabel_233:
   \   00000004   958A               DEC     R24
   \   00000006   9508               RET

   \                                 In  segment CODE, align 2, keep-with-next
   \                     ?Subroutine116:
   \   00000000   EF0F               LDI     R16, 255
   \   00000002   EE11               LDI     R17, 225
   \   00000004   E024               LDI     R18, 4
   \   00000006   5001               SUBI    R16, 1
   \   00000008   4010               SBCI    R17, 0
   \   0000000A   4020               SBCI    R18, 0
   \   0000000C   F7E1               BRNE    $-6
   \   0000000E   C000               RJMP    $+2
   \   00000010   0000               NOP
   \   00000012   9508               RET
    522          //--------------------------------------------------------------------
    523          

   \                                 In  segment CODE, align 2, keep-with-next
    524          void writeCOD()
   \                     ??writeCOD:
    525          {
   \   00000000   938A               ST      -Y, R24
    526            rprintfStr("write ..");
   \   00000002   ....               LDI     R16, LOW(`?<Constant "write ..">`)
   \   00000004   ....               LDI     R17, (`?<Constant "write ..">`) >> 8
   \   00000006   ....               RCALL   ??rprintfStr
    527            led_all(1);delay_s(3);
   \   00000008   ....               RCALL   ??Subroutine142_0
   \                     ??CrossCallReturnLabel_356:
   \   0000000A   EF0F               LDI     R16, 255
   \   0000000C   E91E               LDI     R17, 158
   \   0000000E   E224               LDI     R18, 36
   \   00000010   5001               SUBI    R16, 1
   \   00000012   4010               SBCI    R17, 0
   \   00000014   4020               SBCI    R18, 0
   \   00000016   F7E1               BRNE    $-6
   \   00000018   C000               RJMP    $+2
   \   0000001A   0000               NOP
    528            uchar adr=getadr();
   \   0000001C   ....               RCALL   ??getadr
   \   0000001E   2F80               MOV     R24, R16
    529            led_all(0);
   \   00000020   ....               RCALL   ?Subroutine131
    530            
    531                 
    532                 k[adr]=cod1; delay_ms(30);
   \                     ??CrossCallReturnLabel_293:
   \   00000022   ....               RCALL   ?Subroutine42
   \                     ??CrossCallReturnLabel_54:
   \   00000024   ....               LDI     R18, LOW(k)
   \   00000026   ....               LDI     R19, (k) >> 8
   \   00000028   0D20               ADD     R18, R0
   \   0000002A   1D31               ADC     R19, R1
   \   0000002C   ....               RCALL   ?Subroutine99
   \                     ??CrossCallReturnLabel_179:
   \   0000002E   ....               RCALL   ?Subroutine101
   \                     ??CrossCallReturnLabel_191:
   \   00000030   ....               RCALL   ?Subroutine85
    533                 k[adr+1]=cod2; delay_ms(30);
   \                     ??CrossCallReturnLabel_362:
   \   00000032   ....               RCALL   ??Subroutine144_0
   \                     ??CrossCallReturnLabel_370:
   \   00000034   ....               RCALL   ?Subroutine101
   \                     ??CrossCallReturnLabel_192:
   \   00000036   01A9               MOVW    R21:R20, R19:R18
   \   00000038   5F4E               SUBI    R20, 254
   \   0000003A   4F5F               SBCI    R21, 255
   \   0000003C   ....               RCALL   ??Subroutine143_0
    534                 k[adr+2]=cod3; delay_ms(30);
   \                     ??CrossCallReturnLabel_364:
   \   0000003E   ....               RCALL   ?Subroutine33
   \                     ??CrossCallReturnLabel_197:
   \   00000040   5F2C               SUBI    R18, 252
   \   00000042   4F3F               SBCI    R19, 255
   \   00000044   ....               RCALL   ?Subroutine85
    535                 
    536                 rprintfStr("OK !   "); ent;
   \                     ??CrossCallReturnLabel_363:
   \   00000046   ....               LDI     R16, LOW(`?<Constant "OK !   ">`)
   \   00000048   ....               LDI     R17, (`?<Constant "OK !   ">`) >> 8
   \   0000004A   ....               RCALL   ??rprintfStr
   \   0000004C   ....               RCALL   ??Subroutine17_2
    537             
    538          }
   \                     ??CrossCallReturnLabel_16:
   \   0000004E   ....               RJMP    ?Subroutine126

   \                                 In  segment CODE, align 2, keep-with-next
   \                     ?Subroutine85:
   \   00000000   01A9               MOVW    R21:R20, R19:R18
   \   00000002                      REQUIRE ??Subroutine143_0
   \   00000002                      ;               // Fall through to label ??Subroutine143_0

   \                                 In  segment CODE, align 2, keep-with-next
   \                     ??Subroutine143_0:
   \   00000000   ....               RCALL   __eeput16_16
   \   00000002   E20F               LDI     R16, 47
   \   00000004   E715               LDI     R17, 117
   \   00000006   5001               SUBI    R16, 1
   \   00000008   4010               SBCI    R17, 0
   \   0000000A   F7E9               BRNE    $-4
   \   0000000C   C000               RJMP    $+2
   \   0000000E   0000               NOP
   \   00000010   9508               RET
    539          
    540          
    541          
    542           

   \                                 In  segment CODE, align 2, keep-with-next
    543          uchar analizCOD ()
   \                     ??analizCOD:
    544          {
   \   00000000   ....               RCALL   ?PROLOGUE2_L09
    545           uint i;
    546            for (i=0; i<MAXEEP-4; i++) 
   \   00000002   E080               LDI     R24, 0
   \   00000004   E090               LDI     R25, 0
    547            {
    548             // if ((kbuf[i])==cod1)  if ((kbuf[i+1])==cod2) if ((kbuf[i+2])==cod3) return(i);
    549              if ((k[i])==cod1)  if ((k[i+1])==cod2) if ((k[i+2])==cod3) return(i);   
   \                     ??analizCOD_1:
   \   00000006   018C               MOVW    R17:R16, R25:R24
   \   00000008   0F00               LSL     R16
   \   0000000A   1F11               ROL     R17
   \   0000000C   ....               LDI     R18, LOW(k)
   \   0000000E   ....               LDI     R19, (k) >> 8
   \   00000010   0F20               ADD     R18, R16
   \   00000012   1F31               ADC     R19, R17
   \   00000014   01A9               MOVW    R21:R20, R19:R18
   \   00000016   ....               RCALL   __eeget16_16
   \   00000018   ....               RCALL   ?Subroutine99
   \                     ??CrossCallReturnLabel_180:
   \   0000001A   ....               RCALL   ?Subroutine55
   \                     ??CrossCallReturnLabel_82:
   \   0000001C   F489               BRNE    ??analizCOD_2
   \   0000001E   01A9               MOVW    R21:R20, R19:R18
   \   00000020   5F4E               SUBI    R20, 254
   \   00000022   4F5F               SBCI    R21, 255
   \   00000024   ....               RCALL   __eeget16_16
   \   00000026   ....               RCALL   ??Subroutine144_0
   \                     ??CrossCallReturnLabel_371:
   \   00000028   ....               RCALL   ?Subroutine55
   \                     ??CrossCallReturnLabel_83:
   \   0000002A   F451               BRNE    ??analizCOD_2
   \   0000002C   5F2C               SUBI    R18, 252
   \   0000002E   4F3F               SBCI    R19, 255
   \   00000030   01A9               MOVW    R21:R20, R19:R18
   \   00000032   ....               RCALL   __eeget16_16
   \   00000034   ....               RCALL   ?Subroutine38
   \                     ??CrossCallReturnLabel_42:
   \   00000036   1702               CP      R16, R18
   \   00000038   0713               CPC     R17, R19
   \   0000003A   F411               BRNE    ??analizCOD_2
   \   0000003C   2F08               MOV     R16, R24
   \   0000003E   C005               RJMP    ??analizCOD_3
    550            }
   \                     ??analizCOD_2:
   \   00000040   9601               ADIW    R25:R24, 1
   \   00000042   3784               CPI     R24, 116
   \   00000044   E000               LDI     R16, 0
   \   00000046   0790               CPC     R25, R16
   \   00000048   F2F0               BRCS    ??analizCOD_1
    551          
    552          return(0);
   \                     ??analizCOD_3:
   \   0000004A                      REQUIRE ?Subroutine132
   \   0000004A                      ;               // Fall through to label ?Subroutine132
    553          }

   \                                 In  segment CODE, align 2, keep-with-next
   \                     ?Subroutine132:
   \   00000000   E0E2               LDI     R30, 2
   \   00000002   ....               RJMP    ?EPILOGUE_B2_L09

   \                                 In  segment CODE, align 2, keep-with-next
   \                     ?Subroutine55:
   \   00000000   8140               LD      R20, Z
   \   00000002   8151               LDD     R21, Z+1
   \   00000004   1704               CP      R16, R20
   \   00000006   0715               CPC     R17, R21
   \   00000008   9508               RET
    554          
    555          
    556          

   \                                 In  segment CODE, align 2, keep-with-next
    557          void resled(void)
   \                     ??resled:
    558          {
    559            RES(PORTB,0);RES(PORTB,1);RES(PORTB,2);RES(PORTB,3); if (mode==0)RES(PORTB,4);
   \   00000000   ....               RCALL   ?Subroutine86
   \                     ??CrossCallReturnLabel_150:
   \   00000002   ....               RCALL   ?Subroutine71
   \                     ??CrossCallReturnLabel_260:
   \   00000004   F409               BRNE    ??resled_1
   \   00000006   98C4               CBI     0x18, 0x04
    560          }
   \                     ??resled_1:
   \   00000008   9508               RET
   \   0000000A                      REQUIRE _A_PORTB

   \                                 In  segment CODE, align 2, keep-with-next
   \                     ?Subroutine86:
   \   00000000   98C0               CBI     0x18, 0x00
   \   00000002   98C1               CBI     0x18, 0x01
   \   00000004   98C2               CBI     0x18, 0x02
   \   00000006   98C3               CBI     0x18, 0x03
   \   00000008   9508               RET
    561          
    562          

   \                                 In  segment CODE, align 2, keep-with-next
    563          void resOUT(void)
   \                     ??resOUT:
    564          {
    565            RES(PORTC,1);RES(PORTC,2);RES(PORTC,3);RES(PORTC,4); if (mode==0)RES(PORTC,5);
   \   00000000   98A9               CBI     0x15, 0x01
   \   00000002   98AA               CBI     0x15, 0x02
   \   00000004   98AB               CBI     0x15, 0x03
   \   00000006   98AC               CBI     0x15, 0x04
   \   00000008   ....               RCALL   ?Subroutine71
   \                     ??CrossCallReturnLabel_261:
   \   0000000A   F409               BRNE    ??resOUT_1
   \   0000000C   98AD               CBI     0x15, 0x05
    566            p2;//что бы не было перекрытия источников
   \                     ??resOUT_1:
   \   0000000E   ....               RJMP    ?Subroutine73
   \   00000010                      REQUIRE _A_PORTC
    567          }
    568          
    569          
    570           

   \                                 In  segment CODE, align 2, keep-with-next
    571          void led_all(bool a)
   \                     ??led_all:
    572          {
    573           if (a)
   \   00000000   2300               TST     R16
   \   00000002   F039               BREQ    ??led_all_1
    574           {
    575             SET(PORTB,0);SET(PORTB,1);SET(PORTB,2);SET(PORTB,3);SET(PORTB,4);SET(PORTB,5);
   \   00000004   9AC0               SBI     0x18, 0x00
   \   00000006   9AC1               SBI     0x18, 0x01
   \   00000008   9AC2               SBI     0x18, 0x02
   \   0000000A   9AC3               SBI     0x18, 0x03
   \   0000000C   9AC4               SBI     0x18, 0x04
   \   0000000E   9AC5               SBI     0x18, 0x05
    576             /*AC_ON; */SET(PORTD,7);
   \   00000010   ....               RJMP    ?Subroutine125
    577           }
    578           else
    579            {
    580             RES(PORTB,0);RES(PORTB,1);RES(PORTB,2);RES(PORTB,3);RES(PORTB,4);RES(PORTB,5);
   \                     ??led_all_1:
   \   00000012   ....               RCALL   ?Subroutine86
   \                     ??CrossCallReturnLabel_151:
   \   00000014   98C4               CBI     0x18, 0x04
   \   00000016   98C5               CBI     0x18, 0x05
    581             AC_OFF; RES(PORTD,7);
   \   00000018   9896               CBI     0x12, 0x06
   \   0000001A   9897               CBI     0x12, 0x07
    582           } 
    583          }
   \   0000001C   9508               RET
   \   0000001E                      REQUIRE _A_PORTB
   \   0000001E                      REQUIRE _A_PORTD
    584          
    585          /*
    586          void gro(uchar a)
    587          {
    588            if (modegro!=1) {
    589            if (a==1) {SET(PORTC,0); delay_us(100);RES(PORTC,0);}
    590            if (a==2) {SET(PORTD,3); delay_us(100);RES(PORTD,3);}  
    591                            }
    592            else  { 
    593              if (a==1) { if (gro1)  { gro1=0; RES(PORTC,0);  } else { gro1=1; SET(PORTC,0);  } }
    594              if (a==2) { if (gro2)  { gro2=0; RES(PORTD,3);  } else { gro2=1; SET(PORTD,3);  } }
    595                  }
    596          }
    597          */
    598          
    599          
    600          
    601          
    602          
    603          //инициализация портов

   \                                 In  segment CODE, align 2, keep-with-next
    604          void iniPORTS()
   \                     ??iniPORTS:
    605          {
    606            
    607           
    608            //DDRx=0 - ВХОДЫ   PORTx = 0xFF; //подключаем нагрузочные резисторы
    609           //---------------------------------------------------------------
    610           //DDRx=0xFF - ВЫХОДЫ    PORTx = 0; //устанавливаем 0 на выходе
    611           
    612            
    613           DDRD = b(11011000);// 0xD8;  //PD3 4 6 7 ВЫХОДЫ  b11011000
   \   00000000   ED08               LDI     R16, 216
   \   00000002   BB01               OUT     0x11, R16
    614           PORTD = (uchar)~(b(11011000)); 
   \   00000004   E207               LDI     R16, 39
   \   00000006   BB02               OUT     0x12, R16
    615          
    616           
    617           DDRB = 0x3F; //порт B - выход    6,7-кварц
   \   00000008   E30F               LDI     R16, 63
   \   0000000A   BB07               OUT     0x17, R16
    618           PORTB = 0x00; 
   \   0000000C   E000               LDI     R16, 0
   \   0000000E   BB08               OUT     0x18, R16
    619            
    620            
    621            DDRC =0xFF; 
   \   00000010   EF0F               LDI     R16, 255
   \   00000012   BB04               OUT     0x14, R16
    622            PORTC = 0x00; //устанавливаем 0 на выходе
   \   00000014   E000               LDI     R16, 0
   \   00000016   BB05               OUT     0x15, R16
    623            
    624           
    625          // Timer(s)/Counter(s) Interrupt(s) initialization
    626          TIMSK=0x00;  
   \   00000018   BF09               OUT     0x39, R16
    627          TCNT0=0x00;
   \   0000001A   BF02               OUT     0x32, R16
    628          OCR1A=0x00;
   \   0000001C   E010               LDI     R17, 0
   \   0000001E   BD0B               OUT     0x2B, R16
   \   00000020   BD0A               OUT     0x2A, R16
    629          OCR1B=0x00;
   \   00000022   BD09               OUT     0x29, R16
   \   00000024   BD08               OUT     0x28, R16
    630          TCCR1A=0x00;
   \   00000026   BD0F               OUT     0x2F, R16
    631            SET(TIMSK,TOIE1);//разреш прерывание при переполнении
   \   00000028   B709               IN      R16, 0x39
   \   0000002A   6004               ORI     R16, 0x04
   \   0000002C   BF09               OUT     0x39, R16
    632             TCCR1B=0; TIFR = 0xFF;  
   \   0000002E   BD1E               OUT     0x2E, R17
   \   00000030   EF0F               LDI     R16, 255
   \   00000032   BF08               OUT     0x38, R16
    633          TCNT1H=0x00;
   \   00000034   BD1D               OUT     0x2D, R17
    634          TCNT1L=0x00;
   \   00000036   BD1C               OUT     0x2C, R17
    635          ICR1H=0x00;
   \   00000038   BD17               OUT     0x27, R17
    636          ICR1L=0x00;
   \   0000003A   BD16               OUT     0x26, R17
    637          OCR1AH=0;
   \   0000003C   BD1B               OUT     0x2B, R17
    638          OCR1AL=0x00;
   \   0000003E   BD1A               OUT     0x2A, R17
    639          OCR1BH=0x00;
   \   00000040   BD19               OUT     0x29, R17
    640          OCR1BL=0x00;
   \   00000042   BD18               OUT     0x28, R17
    641          
    642          
    643          
    644          // External Interrupt(s) initialization
    645          // INT0: Off
    646          // INT1: Off
    647          // Interrupt on any change on pins PCINT0-7: Off
    648          //GIMSK=0x00;
    649          //MCUCR=0x00;
    650          
    651          SET(MCUCR,0); RES(MCUCR,1);//ПРЕРЫВАНИЕ ПО ИЗМЕНЕНИЮ УРОВНЯ INT0
   \   00000044   B705               IN      R16, 0x35
   \   00000046   6001               ORI     R16, 0x01
   \   00000048   BF05               OUT     0x35, R16
   \   0000004A   B705               IN      R16, 0x35
   \   0000004C   7F0D               ANDI    R16, 0xFD
   \   0000004E   BF05               OUT     0x35, R16
    652          SET(GICR,6);//РАЗРЕШАЕМ ПРЕРЫВАНИЕ INT0
   \   00000050   B70B               IN      R16, 0x3B
   \   00000052   6400               ORI     R16, 0x40
   \   00000054   BF0B               OUT     0x3B, R16
    653          
    654          
    655          //timer2
    656          SET(TCCR2, CS20 );
   \   00000056   B505               IN      R16, 0x25
   \   00000058   6001               ORI     R16, 0x01
   \   0000005A   BD05               OUT     0x25, R16
    657          RES(TCCR2, CS21 );
   \   0000005C   B505               IN      R16, 0x25
   \   0000005E   7F0D               ANDI    R16, 0xFD
   \   00000060   BD05               OUT     0x25, R16
    658          RES(TCCR2, CS22 );//делитель 1/1
   \   00000062   B505               IN      R16, 0x25
   \   00000064   7F0B               ANDI    R16, 0xFB
   \   00000066   BD05               OUT     0x25, R16
    659          // initialize counter
    660              TCNT2 = 0;
   \   00000068   BD14               OUT     0x24, R17
    661              // enable overflow interrupt
    662              TIMSK |= (1 << TOIE2);
   \   0000006A   B709               IN      R16, 0x39
   \   0000006C   6400               ORI     R16, 0x40
   \   0000006E   BF09               OUT     0x39, R16
    663          
    664              
    665          // Analog Comparator initialization
    666          // Analog Comparator: Off
    667          // Analog Comparator Input Capture by Timer/Counter 1: Off
    668          ACSR=0x80;
   \   00000070   E800               LDI     R16, 128
   \   00000072   B908               OUT     0x08, R16
    669          //DIDR=0x00;
    670          
    671          } 
   \   00000074   9508               RET
   \   00000076                      REQUIRE _A_DDRD
   \   00000076                      REQUIRE _A_PORTD
   \   00000076                      REQUIRE _A_DDRB
   \   00000076                      REQUIRE _A_PORTB
   \   00000076                      REQUIRE _A_DDRC
   \   00000076                      REQUIRE _A_PORTC
   \   00000076                      REQUIRE _A_TIMSK
   \   00000076                      REQUIRE _A_TCNT0
   \   00000076                      REQUIRE _A_OCR1A
   \   00000076                      REQUIRE _A_OCR1B
   \   00000076                      REQUIRE _A_TCCR1A
   \   00000076                      REQUIRE _A_TCCR1B
   \   00000076                      REQUIRE _A_TIFR
   \   00000076                      REQUIRE _A_TCNT1
   \   00000076                      REQUIRE _A_ICR1
   \   00000076                      REQUIRE _A_MCUCR
   \   00000076                      REQUIRE _A_GICR
   \   00000076                      REQUIRE _A_TCCR2
   \   00000076                      REQUIRE _A_TCNT2
   \   00000076                      REQUIRE _A_ACSR
    672          //************************************************************************
    673           
    674          

   \                                 In  segment CODE, align 2, keep-with-next
    675          void diag()
   \                     ??diag:
    676          {
   \   00000000   ....               RCALL   ?PROLOGUE2_L09
    677           
    678            uchar sym = USART_GetChar(); //читаем буфер
   \   00000002   ....               RCALL   ??USART_GetChar
   \   00000004   2F90               MOV     R25, R16
    679            if (sym=='0') { pr=1;  rprintfStr("-------------- vkluchen kratkiy viviod -------------");  ent;   }
   \   00000006   3300               CPI     R16, 48
   \   00000008   F449               BRNE    ??diag_1
   \   0000000A   E001               LDI     R16, 1
   \   0000000C   9300....           STS     pr, R16
   \   00000010   ....               LDI     R16, LOW(`?<Constant "-------------- vkluch...">`)
   \   00000012   ....               LDI     R17, (`?<Constant "-------------- vkluch...">`) >> 8
   \   00000014   ....               RCALL   ?Subroutine39
   \                     ??CrossCallReturnLabel_43:
   \   00000016   F0E9               BREQ    ??diag_2
   \   00000018   ....               RCALL   ?Subroutine104
   \                     ??CrossCallReturnLabel_203:
   \   0000001A   C01B               RJMP    ??diag_2
    680          
    681            if (sym=='e') {
   \                     ??diag_1:
   \   0000001C   3605               CPI     R16, 101
   \   0000001E   F4B9               BRNE    ??diag_3
    682              ent;rprintfStr(" ==  EEPROM read == ");ent;
   \   00000020   ....               RCALL   ??Subroutine17_2
   \                     ??CrossCallReturnLabel_17:
   \   00000022   ....               LDI     R16, LOW(`?<Constant " ==  EEPROM read == ">`)
   \   00000024   ....               LDI     R17, (`?<Constant " ==  EEPROM read == ">`) >> 8
   \   00000026   ....               RCALL   ??rprintfStr
   \   00000028   ....               RCALL   ??Subroutine17_2
    683              for (uchar i=0; i<MAXEEP-1; i++) { 
   \                     ??CrossCallReturnLabel_18:
   \   0000002A   E080               LDI     R24, 0
    684                rprintfFloat(4, i );   rprintfStr(" > ");
   \                     ??diag_4:
   \   0000002C   ....               RCALL   ?Subroutine20
   \                     ??CrossCallReturnLabel_378:
   \   0000002E   E004               LDI     R16, 4
   \   00000030   ....               RCALL   ??rprintfFloat
   \   00000032   ....               LDI     R16, LOW(`?<Constant " > ">`)
   \   00000034   ....               LDI     R17, (`?<Constant " > ">`) >> 8
   \   00000036   ....               RCALL   ??rprintfStr
    685                 rprintfFloat(9, k[i] ); ent;
   \   00000038   ....               RCALL   ?Subroutine42
    686                                                }
   \                     ??CrossCallReturnLabel_55:
   \   0000003A   ....               LDI     R20, LOW(k)
   \   0000003C   ....               LDI     R21, (k) >> 8
   \   0000003E   0D40               ADD     R20, R0
   \   00000040   1D51               ADC     R21, R1
   \   00000042   ....               RCALL   __eeget16_16
   \   00000044   ....               RCALL   ??Subroutine17_0
   \                     ??CrossCallReturnLabel_14:
   \   00000046   9583               INC     R24
   \   00000048   3787               CPI     R24, 119
   \   0000004A   F418               BRCC    ??diag_2
   \   0000004C   CFEF               RJMP    ??diag_4
    687                          }
    688            
    689            if (sym) {             //если что-то приняли, то 
   \                     ??diag_3:
   \   0000004E   2300               TST     R16
   \   00000050   F0A9               BREQ    ??CrossCallReturnLabel_19
    690                rprintfStr(" get: ");
   \                     ??diag_2:
   \   00000052   ....               LDI     R16, LOW(`?<Constant " get: ">`)
   \   00000054   ....               LDI     R17, (`?<Constant " get: ">`) >> 8
   \   00000056   ....               RCALL   ??rprintfStr
    691                USART_SendChar(sym); 
   \   00000058   2F09               MOV     R16, R25
   \   0000005A   ....               RCALL   ??USART_SendChar
    692          
    693                if (mode==1) rprintfStr("  regim  no source5 >");  
   \   0000005C   ....               RCALL   ?Subroutine72
   \                     ??CrossCallReturnLabel_282:
   \   0000005E   F419               BRNE    ??diag_5
   \   00000060   ....               LDI     R16, LOW(`?<Constant "  regim  no source5 >">`)
   \   00000062   ....               LDI     R17, (`?<Constant "  regim  no source5 >">`) >> 8
   \   00000064   ....               RCALL   ??rprintfStr
    694          if (write==1) rprintfStr("  regim  PROGRAMMING !!  READY >");  
   \                     ??diag_5:
   \   00000066   9100....           LDS     R16, `write`
   \   0000006A   3001               CPI     R16, 1
   \   0000006C   F419               BRNE    ??diag_6
   \   0000006E   ....               LDI     R16, LOW(`?<Constant "  regim  PROGRAMMING ...">`)
   \   00000070   ....               LDI     R17, (`?<Constant "  regim  PROGRAMMING ...">`) >> 8
   \   00000072   C002               RJMP    ??diag_7
    695          else rprintfStr("  regim  normal  READY >");  
   \                     ??diag_6:
   \   00000074   ....               LDI     R16, LOW(`?<Constant "  regim  normal  READY >">`)
   \   00000076   ....               LDI     R17, (`?<Constant "  regim  normal  READY >">`) >> 8
   \                     ??diag_7:
   \   00000078   ....               RCALL   ??rprintfStr
    696          
    697          
    698             
    699          
    700                 ent;
   \   0000007A   ....               RCALL   ??Subroutine17_2
    701               
    702             
    703                     }
    704          }
   \                     ??CrossCallReturnLabel_19:
   \   0000007C   ....               RJMP    ?Subroutine132
    705          
F:\Dulov\RemoteAMP\SoftTimers.c
      1          
      2          #include <stdbool.h>//поддержка bool
      3          #include "iom8.h"//<ioavr.h>
      4          #include <inavr.h>
      5          #include <intrinsics.h>
      6          #include "init.h"
      7          #include "SoftTimers.h"

   \                                 In  segment NEAR_Z, align 1, keep-with-next
   \   00000000                      REQUIRE `?<Segment init: NEAR_Z>`
   \   static unsigned char raz
   \                     ??raz:
   \   00000000                      DS8 1

   \                                 In  segment NEAR_Z, align 1, keep-with-next
   \   00000000                      REQUIRE `?<Segment init: NEAR_Z>`
   \   static unsigned char port
   \                     ??port:
   \   00000000                      DS8 1

   \                                 In  segment NEAR_Z, align 1, keep-with-next
   \   00000000                      REQUIRE `?<Segment init: NEAR_Z>`
   \   static unsigned char razct
   \                     ??razct:
   \   00000000                      DS8 1
      8          #include "main.h"
      9          //***************************************************************************
     10          //  soft timers
     11          //***************************************************************************

   \                                 In  segment NEAR_Z, align 1, keep-with-next
   \   00000000                      REQUIRE `?<Segment init: NEAR_Z>`
     12          timers tm1,tm2,tm3, tm4,tm5,tm6;
   \                     tm1:
   \   00000000                      DS8 9

   \                                 In  segment NEAR_Z, align 1, keep-with-next
   \   00000000                      REQUIRE `?<Segment init: NEAR_Z>`
   \                     tm2:
   \   00000000                      DS8 9

   \                                 In  segment NEAR_Z, align 1, keep-with-next
   \   00000000                      REQUIRE `?<Segment init: NEAR_Z>`
   \                     tm3:
   \   00000000                      DS8 9

   \                                 In  segment NEAR_Z, align 1, keep-with-next
   \   00000000                      REQUIRE `?<Segment init: NEAR_Z>`
   \                     tm4:
   \   00000000                      DS8 9

   \                                 In  segment NEAR_Z, align 1, keep-with-next
   \   00000000                      REQUIRE `?<Segment init: NEAR_Z>`
   \                     tm5:
   \   00000000                      DS8 9

   \                                 In  segment NEAR_Z, align 1, keep-with-next
   \   00000000                      REQUIRE `?<Segment init: NEAR_Z>`
   \                     tm6:
   \   00000000                      DS8 9
     13          
     14          
     15          
     16          #pragma vector = TIMER2_OVF_vect

   \                                 In  segment CODE, align 2, keep-with-next
     17          __interrupt void TIMER2ovf(void)
   \                     ??TIMER2ovf:
     18          {
   \   00000000   938A               ST      -Y, R24
   \   00000002   93FA               ST      -Y, R31
   \   00000004   93EA               ST      -Y, R30
   \   00000006   923A               ST      -Y, R3
   \   00000008   922A               ST      -Y, R2
   \   0000000A   921A               ST      -Y, R1
   \   0000000C   920A               ST      -Y, R0
   \   0000000E   937A               ST      -Y, R23
   \   00000010   936A               ST      -Y, R22
   \   00000012   935A               ST      -Y, R21
   \   00000014   934A               ST      -Y, R20
   \   00000016   933A               ST      -Y, R19
   \   00000018   932A               ST      -Y, R18
   \   0000001A   931A               ST      -Y, R17
   \   0000001C   930A               ST      -Y, R16
   \   0000001E   B78F               IN      R24, 0x3F
     19            
     20             TCNT2 = 0;
   \   00000020   E000               LDI     R16, 0
   \   00000022   BD04               OUT     0x24, R16
     21             
     22            TimerTick(&tm3); // Work
   \   00000024   ....               LDI     R16, LOW(tm3)
   \   00000026   ....               LDI     R17, (tm3) >> 8
   \   00000028   ....               RCALL   ??TimerTick
     23            TimerTick(&tm2); //мигание
   \   0000002A   ....               LDI     R16, LOW(tm2)
   \   0000002C   ....               LDI     R17, (tm2) >> 8
   \   0000002E   ....               RCALL   ??TimerTick
     24           
     25           
     26              TimerTick(&tm4);
   \   00000030   ....               LDI     R16, LOW(tm4)
   \   00000032   ....               LDI     R17, (tm4) >> 8
   \   00000034   ....               RCALL   ??TimerTick
     27              TimerTick(&tm5);
   \   00000036   ....               LDI     R16, LOW(tm5)
   \   00000038   ....               LDI     R17, (tm5) >> 8
   \   0000003A   ....               RCALL   ??TimerTick
     28              
     29              TimerTick(&tm6);//мигание питания при неразпознанном коде
   \   0000003C   ....               LDI     R16, LOW(tm6)
   \   0000003E   ....               LDI     R17, (tm6) >> 8
   \   00000040   ....               RCALL   ??TimerTick
     30               if (tm6.out) 
   \   00000042   9100....           LDS     R16, (tm6 + 8)
   \   00000046   2300               TST     R16
   \   00000048   F031               BREQ    ??TIMER2ovf_1
     31                       { 
     32                          if (on==1)  SET(PORTD,7);
   \   0000004A   ....               RCALL   ?Subroutine75
   \                     ??CrossCallReturnLabel_264:
   \   0000004C   F009               BREQ    ??TIMER2ovf_2
   \   0000004E   9A97               SBI     0x12, 0x07
     33                          TimerReset(&tm6);
   \                     ??TIMER2ovf_2:
   \   00000050   ....               LDI     R16, LOW(tm6)
   \   00000052   ....               LDI     R17, (tm6) >> 8
   \   00000054   ....               RCALL   ??TimerReset
     34                       }
     35              
     36          // if (tm3.out ) { 
     37           //if (!state) {RES(PORTB,5); state=1; }   else {SET(PORTB,5); state=0;}
     38           //       TimerSet(&tm3,3000);       
     39           //             }
     40          }
   \                     ??TIMER2ovf_1:
   \   00000056   BF8F               OUT     0x3F, R24
   \   00000058   9109               LD      R16, Y+
   \   0000005A   9119               LD      R17, Y+
   \   0000005C   9129               LD      R18, Y+
   \   0000005E   9139               LD      R19, Y+
   \   00000060   9149               LD      R20, Y+
   \   00000062   9159               LD      R21, Y+
   \   00000064   9169               LD      R22, Y+
   \   00000066   9179               LD      R23, Y+
   \   00000068   9009               LD      R0, Y+
   \   0000006A   9019               LD      R1, Y+
   \   0000006C   9029               LD      R2, Y+
   \   0000006E   9039               LD      R3, Y+
   \   00000070   91E9               LD      R30, Y+
   \   00000072   91F9               LD      R31, Y+
   \   00000074   9189               LD      R24, Y+
   \   00000076   9518               RETI
   \   00000078                      REQUIRE _A_TCNT2
   \   00000078                      REQUIRE _A_PORTD
     41          
     42          
     43          

   \                                 In  segment CODE, align 2, keep-with-next
     44          void TimerReset(timers *t)
   \                     ??TimerReset:
     45          {
     46            t->out=0;
   \   00000000   E020               LDI     R18, 0
   \   00000002   01F8               MOVW    R31:R30, R17:R16
   \   00000004   8720               STD     Z+8, R18
     47            t->ct=0;
   \   00000006   8320               ST      Z, R18
   \   00000008   8321               STD     Z+1, R18
   \   0000000A   8322               STD     Z+2, R18
   \   0000000C   8323               STD     Z+3, R18
     48          }
   \   0000000E   9508               RET
     49          

   \                                 In  segment CODE, align 2, keep-with-next
     50          void TimerSet(timers *t, long tm)
   \                     ??TimerSet:
     51          {
   \   00000000   01F8               MOVW    R31:R30, R17:R16
   \   00000002   018A               MOVW    R17:R16, R21:R20
   \   00000004   019B               MOVW    R19:R18, R23:R22
     52            t->out=0;
   \   00000006   E040               LDI     R20, 0
   \   00000008   8740               STD     Z+8, R20
     53            t->ct=0;
   \   0000000A   ....               RCALL   ??Subroutine146_0
   \                     ??CrossCallReturnLabel_383:
   \   0000000C   8350               ST      Z, R21
   \   0000000E   8351               STD     Z+1, R21
   \   00000010   8352               STD     Z+2, R21
   \   00000012   8353               STD     Z+3, R21
     54            //F_CPU/4/100; 1-сек
     55            t->time=F_CPU/4/100000   *tm;
   \   00000014   E04A               LDI     R20, 10
   \   00000016   ....               RCALL   ?L_EC_MUL_L03
   \   00000018   8304               STD     Z+4, R16
   \   0000001A   8315               STD     Z+5, R17
   \   0000001C   8326               STD     Z+6, R18
   \   0000001E   8337               STD     Z+7, R19
     56            //t->x=0;
     57          }
   \   00000020   9508               RET
     58          

   \                                 In  segment CODE, align 2, keep-with-next
     59          void TimerTick( timers *t)
   \                     ??TimerTick:
     60          {
     61            if (t->out) return;
   \   00000000   01F8               MOVW    R31:R30, R17:R16
   \   00000002   8520               LDD     R18, Z+8
   \   00000004   2322               TST     R18
   \   00000006   F4C1               BRNE    ??TimerTick_1
     62           // t->x++;
     63            //if (t->x>=CALIBR) { t->x=0; t->ct++;}
     64            t->ct++;
   \   00000008   ....               RCALL   ?Subroutine54
   \                     ??CrossCallReturnLabel_81:
   \   0000000A   5F4F               SUBI    R20, 255
   \   0000000C   4F5F               SBCI    R21, 255
   \   0000000E   4F6F               SBCI    R22, 255
   \   00000010   4F7F               SBCI    R23, 255
   \   00000012   8340               ST      Z, R20
   \   00000014   8351               STD     Z+1, R21
   \   00000016   8362               STD     Z+2, R22
   \   00000018   8373               STD     Z+3, R23
     65            if (t->ct  >  t->time ) t->out=1;
   \   0000001A   8144               LDD     R20, Z+4
   \   0000001C   8155               LDD     R21, Z+5
   \   0000001E   8166               LDD     R22, Z+6
   \   00000020   8177               LDD     R23, Z+7
   \   00000022   8000               LD      R0, Z
   \   00000024   8011               LDD     R1, Z+1
   \   00000026   8022               LDD     R2, Z+2
   \   00000028   8033               LDD     R3, Z+3
   \   0000002A   1540               CP      R20, R0
   \   0000002C   0551               CPC     R21, R1
   \   0000002E   0562               CPC     R22, R2
   \   00000030   0573               CPC     R23, R3
   \   00000032   F414               BRGE    ??TimerTick_1
   \   00000034   E021               LDI     R18, 1
   \   00000036   8720               STD     Z+8, R18
     66          }
   \                     ??TimerTick_1:
   \   00000038   9508               RET
     67          //**************************************************************
     68          //**************************************************************
     69          
     70          

   \                                 In  segment CODE, align 2, keep-with-next
     71          void migINI(uchar sel,  uchar razp, bool prton)//мигание sel - кол-во раз
   \                     ??migINI:
     72          {
   \   00000000   2F30               MOV     R19, R16
   \   00000002   01A8               MOVW    R21:R20, R17:R16
     73            SET(PORTB,sel);//вкл-ем для ускорения индикации
   \   00000004   ....               RCALL   ?Subroutine8
     74            
     75            
     76            if (port!=255) {  //если все еще мигает
   \                     ??CrossCallReturnLabel_285:
   \   00000006   9100....           LDS     R16, ??port
   \   0000000A   3F0F               CPI     R16, 255
   \   0000000C   F061               BREQ    ??migINI_1
     77               
     78              if (prton)SET(PORTB,port); //фиксируем чтобы горел
   \   0000000E   9140....           LDS     R20, ??port
   \   00000012   ....               RCALL   ?Subroutine114
   \                     ??CrossCallReturnLabel_227:
   \   00000014   2322               TST     R18
   \   00000016   F019               BREQ    ??migINI_2
   \   00000018   B318               IN      R17, 0x18
   \   0000001A   2B10               OR      R17, R16
   \   0000001C   C003               RJMP    ??migINI_3
     79              else RES(PORTB,port);
   \                     ??migINI_2:
   \   0000001E   9500               COM     R16
   \   00000020   B318               IN      R17, 0x18
   \   00000022   2310               AND     R17, R16
   \                     ??migINI_3:
   \   00000024   BB18               OUT     0x18, R17
     80                          }
     81            
     82            
     83            raz=razp;  port=sel; razct=0;
   \                     ??migINI_1:
   \   00000026   9350....           STS     ??raz, R21
   \   0000002A   9330....           STS     ??port, R19
   \   0000002E   E000               LDI     R16, 0
   \   00000030   9300....           STS     ??razct, R16
     84            
     85            
     86            TimerSet(&tm2,5);
   \   00000034   E045               LDI     R20, 5
   \   00000036   ....               RCALL   ??Subroutine146_0
   \                     ??CrossCallReturnLabel_384:
   \   00000038   ....               RCALL   ?Subroutine113
     87            tm2.out=1;
   \                     ??CrossCallReturnLabel_225:
   \   0000003A   E001               LDI     R16, 1
   \   0000003C   9300....           STS     (tm2 + 8), R16
     88            //iniT2(5);
     89            //T2out=1;
     90            
     91          }
   \   00000040   9508               RET
   \   00000042                      REQUIRE _A_PORTB

   \                                 In  segment CODE, align 2, keep-with-next
   \                     ?Subroutine113:
   \   00000000   ....               LDI     R16, LOW(tm2)
   \   00000002   ....               LDI     R17, (tm2) >> 8
   \   00000004   ....               RJMP    ??TimerSet

   \                                 In  segment CODE, align 2, keep-with-next
   \                     ?Subroutine8:
   \   00000000   ....               RCALL   ?Subroutine114
   \                     ??CrossCallReturnLabel_230:
   \   00000002   B318               IN      R17, 0x18
   \   00000004   2B10               OR      R17, R16
   \   00000006                      REQUIRE ?Subroutine127
   \   00000006                      ;               // Fall through to label ?Subroutine127
     92          

   \                                 In  segment CODE, align 2, keep-with-next
     93          void migWORK(void)//мигание 
   \                     ??migWORK:
     94          {
     95            static bool sost=0;
     96           // TimerTick(&tm2); // WorkT2();
     97            if (tm2.out==1 && port!=255)  {
   \   00000000   9100....           LDS     R16, (tm2 + 8)
   \   00000004   2300               TST     R16
   \   00000006   F091               BREQ    ??CrossCallReturnLabel_288
   \   00000008   9100....           LDS     R16, ??port
   \   0000000C   3F0F               CPI     R16, 255
   \   0000000E   F071               BREQ    ??CrossCallReturnLabel_288
     98                 if (sost!=1)  {sost=1; TimerSet(&tm2,400); SET(PORTB,port); razct++;}
   \   00000010   9100....           LDS     R16, ??sost
   \   00000014   2300               TST     R16
   \   00000016   F439               BRNE    ??migWORK_1
   \   00000018   E001               LDI     R16, 1
   \   0000001A   ....               RCALL   ?Subroutine57
   \                     ??CrossCallReturnLabel_84:
   \   0000001C   ....               RCALL   ?Subroutine8
   \                     ??CrossCallReturnLabel_286:
   \   0000001E   ....               LDI     R30, LOW(??razct)
   \   00000020   ....               LDI     R31, (??razct) >> 8
   \   00000022   ....               RCALL   ??Subroutine141_0
   \                     ??CrossCallReturnLabel_354:
   \   00000024   C003               RJMP    ??CrossCallReturnLabel_288
     99            else if (sost!=0)  {sost=0; TimerSet(&tm2,400); RES(PORTB,port);}
   \                     ??migWORK_1:
   \   00000026   E000               LDI     R16, 0
   \   00000028   ....               RCALL   ?Subroutine57
    100                                        }
   \                     ??CrossCallReturnLabel_85:
   \   0000002A   ....               RCALL   ?Subroutine88
    101            if (razct>=raz) {  tm2.out=1; port=255;}
   \                     ??CrossCallReturnLabel_288:
   \   0000002C   9100....           LDS     R16, ??razct
   \   00000030   9110....           LDS     R17, ??raz
   \   00000034   1701               CP      R16, R17
   \   00000036   F030               BRCS    ??migWORK_2
   \   00000038   E001               LDI     R16, 1
   \   0000003A   9300....           STS     (tm2 + 8), R16
   \   0000003E   EF0F               LDI     R16, 255
   \   00000040   9300....           STS     ??port, R16
    102          }
   \                     ??migWORK_2:
   \   00000044   9508               RET
   \   00000046                      REQUIRE _A_PORTB

   \                                 In  segment CODE, align 2, keep-with-next
   \                     ?Subroutine57:
   \   00000000   9300....           STS     ??sost, R16
   \   00000004   E940               LDI     R20, 144
   \   00000006   E051               LDI     R21, 1
   \   00000008   E060               LDI     R22, 0
   \   0000000A   E070               LDI     R23, 0
   \   0000000C   ....               RCALL   ?Subroutine113
   \                     ??CrossCallReturnLabel_224:
   \   0000000E   9140....           LDS     R20, ??port
   \   00000012   9508               RET

   \                                 In  segment NEAR_Z, align 1, keep-with-next
   \   00000000                      REQUIRE `?<Segment init: NEAR_Z>`
   \                     ??sost:
   \   00000000                      DS8 1
    103          //uchar migSEL(void){ return(port);} //возвращает текущий мигающий порт
    104          //**************************************************************
    105          //**************************************************************
F:\Dulov\RemoteAMP\usart.c
      1          #include "main.h"
      2          
      3          //однобайтный буфер

   \                                 In  segment NEAR_Z, align 1, keep-with-next
   \   00000000                      REQUIRE `?<Segment init: NEAR_Z>`
      4          volatile unsigned char usartRxBuf = 0;
   \                     usartRxBuf:
   \   00000000                      DS8 1
      5          
      6          
      7          //инициализация usart`a

   \                                 In  segment CODE, align 2, keep-with-next
      8          void USART_Init()
   \                     ??USART_Init:
      9          {
     10            UBRRH = 0;
   \   00000000   E000               LDI     R16, 0
   \   00000002   BD00               OUT     0x20, R16
     11            UBRRL = ((F_CPU/9600UL)-1)/16;//    26;//78; //скорость обмена 9600 бод
   \   00000004   E109               LDI     R16, 25
   \   00000006   B909               OUT     0x09, R16
     12            UCSRB = (1<<RXCIE)|(1<<RXEN)|(1<<TXEN); //разр. прерыв при приеме, разр приема, разр передачи.
   \   00000008   E908               LDI     R16, 152
   \   0000000A   B90A               OUT     0x0A, R16
     13            UCSRC = (1<<URSEL)|(1<<UCSZ1)|(1<<UCSZ0); //размер слова 8 разрядов
   \   0000000C   E806               LDI     R16, 134
   \   0000000E   BD00               OUT     0x20, R16
     14          }
   \   00000010   9508               RET
   \   00000012                      REQUIRE _A_UBRRH
   \   00000012                      REQUIRE _A_UBRRL
   \   00000012                      REQUIRE _A_UCSRB
     15          
     16          //отправка символа по usart`у

   \                                 In  segment CODE, align 2, keep-with-next
     17          void USART_SendChar(unsigned char sym)
   \                     ??USART_SendChar:
     18          {
     19            if (!u) return;
   \   00000000   9110....           LDS     R17, u
   \   00000004   2311               TST     R17
   \   00000006   F019               BREQ    ??USART_SendChar_1
     20            while(!(UCSRA & (1<<UDRE)));
   \                     ??USART_SendChar_2:
   \   00000008   9B5D               SBIS    0x0B, 0x05
   \   0000000A   CFFE               RJMP    ??USART_SendChar_2
     21            UDR = sym;
   \   0000000C   B90C               OUT     0x0C, R16
     22          }
   \                     ??USART_SendChar_1:
   \   0000000E   9508               RET
   \   00000010                      REQUIRE _A_UCSRA
   \   00000010                      REQUIRE _A_UDR
     23          
     24          //чтение буфера

   \                                 In  segment CODE, align 2, keep-with-next
     25          __monitor unsigned char USART_GetChar(void)
   \                     ??USART_GetChar:
     26          {
   \   00000000   B72F               IN      R18, 0x3F
   \   00000002   94F8               CLI
     27            if (!u) return 0;
   \   00000004   ....               RCALL   ?Subroutine102
   \                     ??CrossCallReturnLabel_272:
   \   00000006   F411               BRNE    ??USART_GetChar_1
   \   00000008   E000               LDI     R16, 0
   \   0000000A   C005               RJMP    ??USART_GetChar_2
     28            unsigned char tmp = usartRxBuf;
   \                     ??USART_GetChar_1:
   \   0000000C   9100....           LDS     R16, usartRxBuf
     29            usartRxBuf = 0;
   \   00000010   E010               LDI     R17, 0
   \   00000012   9310....           STS     usartRxBuf, R17
     30            return tmp;  
   \                     ??USART_GetChar_2:
   \   00000016   BF2F               OUT     0x3F, R18
   \   00000018   9508               RET
     31          }
     32          
     33          //прием символа по usart`у в буфер
     34          #pragma vector=USART_RXC_vect

   \                                 In  segment CODE, align 2, keep-with-next
     35          __interrupt void usart_rxc_my(void) 
   \                     ??usart_rxc_my:
     36          {
   \   00000000   930A               ST      -Y, R16
     37            usartRxBuf = UDR; 
   \   00000002   B10C               IN      R16, 0x0C
   \   00000004   9300....           STS     usartRxBuf, R16
     38          } 
   \   00000008   ....               RJMP    ?Subroutine128
   \   0000000A                      REQUIRE _A_UDR
     39          
     40          // *** rprintfStr ***
     41          // prints a null-terminated string stored in RAM

   \                                 In  segment CODE, align 2, keep-with-next
     42          void rprintfStr(char str[])
   \                     ??rprintfStr:
     43          {        
   \   00000000   ....               RCALL   ?PROLOGUE4_L09
   \   00000002   01D8               MOVW    R27:R26, R17:R16
     44              if (!u) return;
   \   00000004   ....               RCALL   ?Subroutine102
   \                     ??CrossCallReturnLabel_273:
   \   00000006   F041               BREQ    ??rprintfStr_1
     45          	// send a string stored in RAM
     46          	// check to make sure we have a good pointer
     47          	if (!str) return;
   \   00000008   2F0A               MOV     R16, R26
   \   0000000A   2B01               OR      R16, R17
   \   0000000C   F411               BRNE    ??rprintfStr_2
   \   0000000E   C004               RJMP    ??rprintfStr_1
     48          
     49          	// print the string until a null-terminator
     50          	while (*str)
     51          		USART_SendChar(*str++);
   \                     ??rprintfStr_3:
   \   00000010   ....               RCALL   ??USART_SendChar
   \                     ??rprintfStr_2:
   \   00000012   910D               LD      R16, X+
   \   00000014   2300               TST     R16
   \   00000016   F7E1               BRNE    ??rprintfStr_3
     52          }
   \                     ??rprintfStr_1:
   \   00000018   E0E4               LDI     R30, 4
   \   0000001A   ....               RJMP    ?EPILOGUE_B4_L09
     53          
     54          // *** rprintfFloat ***Pascal Stang - Copyright (C) 2000-2002
     55          // floating-point print

   \                                 In  segment CODE, align 2, keep-with-next
     56          void rprintfFloat(char numDigits, double x)
   \                     ??rprintfFloat:
     57          {
   \   00000000   ....               RCALL   ?PROLOGUE12_L09
   \   00000002                      REQUIRE ?Register_R4_is_cg_reg
   \   00000002                      REQUIRE ?Register_R5_is_cg_reg
   \   00000002                      REQUIRE ?Register_R6_is_cg_reg
   \   00000002                      REQUIRE ?Register_R7_is_cg_reg
   \   00000002                      REQUIRE ?Register_R8_is_cg_reg
   \   00000002                      REQUIRE ?Register_R9_is_cg_reg
   \   00000002                      REQUIRE ?Register_R10_is_cg_reg
   \   00000002                      REQUIRE ?Register_R11_is_cg_reg
   \   00000002   2EB0               MOV     R11, R16
   \   00000004   012A               MOVW    R5:R4, R21:R20
   \   00000006   013B               MOVW    R7:R6, R23:R22
     58              if (!u) return;
   \   00000008   ....               RCALL   ?Subroutine102
   \                     ??CrossCallReturnLabel_274:
   \   0000000A   F409               BRNE    $+2+2
   \   0000000C   C04D               RJMP    ??rprintfFloat_1
     59          	unsigned char firstplace = 0;
   \   0000000E   24AA               CLR     R10
     60          	unsigned char negative;
     61          	unsigned char i, digit;
     62          	double place = 1.0;
   \   00000010   E080               LDI     R24, 0
   \   00000012   E090               LDI     R25, 0
   \   00000014   E8A0               LDI     R26, 128
   \   00000016   E3BF               LDI     R27, 63
     63          	
     64          	// save sign
     65          	negative = (x<0);
   \   00000018   ....               RCALL   ?Subroutine43
   \                     ??CrossCallReturnLabel_386:
   \   0000001A   ....               RCALL   ?Subroutine47
   \                     ??CrossCallReturnLabel_66:
   \   0000001C   2488               CLR     R8
   \   0000001E   F408               BRCC    ??rprintfFloat_2
   \   00000020   9483               INC     R8
     66          	// convert to absolute value
     67          	x = (x>0)?(x):(-x);
   \                     ??rprintfFloat_2:
   \   00000022   E041               LDI     R20, 1
   \   00000024   ....               RCALL   ?F_CMP_GE_L04
   \   00000026   F008               BRCS    ??rprintfFloat_3
   \   00000028   267A               EOR     R7, R26
     68          	
     69          	// find starting digit place
     70          	for(i=0; i<15; i++)
   \                     ??rprintfFloat_3:
   \   0000002A   E00F               LDI     R16, 15
   \   0000002C   2E90               MOV     R9, R16
     71          	{
     72          		if((x/place) < 10.0)
   \                     ??rprintfFloat_4:
   \   0000002E   ....               RCALL   ?Subroutine48
   \                     ??CrossCallReturnLabel_67:
   \   00000030   ....               RCALL   ?Subroutine53
   \                     ??CrossCallReturnLabel_78:
   \   00000032   ....               RCALL   ?F_CMP_LT_L04
   \   00000034   F038               BRCS    ??rprintfFloat_5
     73          			break;
     74          		else
     75          			place *= 10.0;
   \   00000036   018C               MOVW    R17:R16, R25:R24
   \   00000038   019D               MOVW    R19:R18, R27:R26
   \   0000003A   ....               RCALL   ?F_MUL_L04
   \   0000003C   01C8               MOVW    R25:R24, R17:R16
   \   0000003E   01D9               MOVW    R27:R26, R19:R18
     76          	}
   \   00000040   949A               DEC     R9
   \   00000042   F7A9               BRNE    ??rprintfFloat_4
     77          	// print polarity character
     78          	if(negative)
   \                     ??rprintfFloat_5:
   \   00000044   FA80               BST     R8, 0
   \   00000046   F416               BRTC    ??rprintfFloat_6
     79          		USART_SendChar('-');
   \   00000048   E20D               LDI     R16, 45
   \   0000004A   C001               RJMP    ??rprintfFloat_7
     80          	else
     81          		USART_SendChar('+');
   \                     ??rprintfFloat_6:
   \   0000004C   E20B               LDI     R16, 43
   \                     ??rprintfFloat_7:
   \   0000004E   ....               RCALL   ??USART_SendChar
     82          
     83          	// print digits
     84          	for(i=0; i<numDigits; i++)
   \   00000050   2499               CLR     R9
   \   00000052   C017               RJMP    ??rprintfFloat_8
     85          	{
     86          		digit = (unsigned char)(x/place);
     87          
     88          		if(digit | firstplace | (place == 1.0))
     89          		{
     90          			firstplace = 1;
     91          			USART_SendChar(digit+0x30);
     92          		}
     93          		else
     94          			USART_SendChar(' ');
   \                     ??rprintfFloat_9:
   \   00000054   E200               LDI     R16, 32
   \                     ??rprintfFloat_10:
   \   00000056   ....               RCALL   ??USART_SendChar
     95          		
     96          		if(place == 1.0)
   \   00000058   ....               RCALL   ?Subroutine44
   \                     ??CrossCallReturnLabel_56:
   \   0000005A   F411               BRNE    ??rprintfFloat_11
     97          		{
     98          			USART_SendChar('.');
   \   0000005C   E20E               LDI     R16, 46
   \   0000005E   ....               RCALL   ??USART_SendChar
     99          		}
    100          		
    101          		x -= (digit*place);
   \                     ??rprintfFloat_11:
   \   00000060   2D08               MOV     R16, R8
   \   00000062   E010               LDI     R17, 0
   \   00000064   ....               RCALL   ?Subroutine117
   \                     ??CrossCallReturnLabel_302:
   \   00000066   01AC               MOVW    R21:R20, R25:R24
   \   00000068   01BD               MOVW    R23:R22, R27:R26
   \   0000006A   ....               RCALL   ?F_MUL_L04
   \   0000006C   ....               RCALL   ??Subroutine145_0
   \                     ??CrossCallReturnLabel_374:
   \   0000006E   ....               RCALL   ?Subroutine103
   \                     ??CrossCallReturnLabel_198:
   \   00000070   ....               RCALL   ?F_SUB_L04
   \   00000072   ....               RCALL   ?Subroutine46
    102          		place /= 10.0;
   \                     ??CrossCallReturnLabel_64:
   \   00000074   ....               RCALL   ?Subroutine53
   \                     ??CrossCallReturnLabel_79:
   \   00000076   018C               MOVW    R17:R16, R25:R24
   \   00000078   019D               MOVW    R19:R18, R27:R26
   \   0000007A   ....               RCALL   ?F_DIV_L04
   \   0000007C   01C8               MOVW    R25:R24, R17:R16
   \   0000007E   01D9               MOVW    R27:R26, R19:R18
   \   00000080   9493               INC     R9
   \                     ??rprintfFloat_8:
   \   00000082   149B               CP      R9, R11
   \   00000084   F488               BRCC    ??rprintfFloat_1
   \   00000086   ....               RCALL   ?Subroutine48
   \                     ??CrossCallReturnLabel_68:
   \   00000088   ....               RCALL   ?F2SL_L04
   \   0000008A   2E80               MOV     R8, R16
   \   0000008C   ....               RCALL   ?Subroutine44
   \                     ??CrossCallReturnLabel_57:
   \   0000008E   F411               BRNE    ??rprintfFloat_12
   \   00000090   E001               LDI     R16, 1
   \   00000092   C001               RJMP    ??rprintfFloat_13
   \                     ??rprintfFloat_12:
   \   00000094   E000               LDI     R16, 0
   \                     ??rprintfFloat_13:
   \   00000096   2D18               MOV     R17, R8
   \   00000098   291A               OR      R17, R10
   \   0000009A   2B10               OR      R17, R16
   \   0000009C   F2D9               BREQ    ??rprintfFloat_9
   \   0000009E   24AA               CLR     R10
   \   000000A0   94A3               INC     R10
   \   000000A2   2D08               MOV     R16, R8
   \   000000A4   5D00               SUBI    R16, 208
   \   000000A6   CFD7               RJMP    ??rprintfFloat_10
    103          	}
    104          }
   \                     ??rprintfFloat_1:
   \   000000A8   E0EC               LDI     R30, 12
   \   000000AA   ....               RJMP    ?EPILOGUE_B12_L09

   \                                 In  segment CODE, align 2, keep-with-next
   \                     ?Subroutine53:
   \   00000000   E040               LDI     R20, 0
   \   00000002   E050               LDI     R21, 0
   \   00000004   E260               LDI     R22, 32
   \   00000006   E471               LDI     R23, 65
   \   00000008   9508               RET

   \                                 In  segment CODE, align 2, keep-with-next
   \                     ?Subroutine48:
   \   00000000   01AC               MOVW    R21:R20, R25:R24
   \   00000002   01BD               MOVW    R23:R22, R27:R26
   \   00000004   ....               RCALL   ?Subroutine103
   \                     ??CrossCallReturnLabel_202:
   \   00000006   ....               RJMP    ?F_DIV_L04

   \                                 In  segment CODE, align 2, keep-with-next
   \                     ?Subroutine44:
   \   00000000   E040               LDI     R20, 0
   \   00000002   E050               LDI     R21, 0
   \   00000004   E860               LDI     R22, 128
   \   00000006   E37F               LDI     R23, 63
   \   00000008   018C               MOVW    R17:R16, R25:R24
   \   0000000A   019D               MOVW    R19:R18, R27:R26
   \   0000000C   ....               RJMP    ?F_CMP_EQ_L04

   \                                 In  segment INTVEC, offset 0x2, root
   \                     `??funINT0_vect??INTVEC 2`:
   \   00000002   ....               RJMP    ??funINT0_vect

   \                                 In  segment INTVEC, offset 0x8, root
   \                     `??TIMER2ovf??INTVEC 8`:
   \   00000008   ....               RJMP    ??TIMER2ovf

   \                                 In  segment INTVEC, offset 0x10, root
   \                     `??funTIMER1_OVF_vect??INTVEC 16`:
   \   00000010   ....               RJMP    ??funTIMER1_OVF_vect

   \                                 In  segment INTVEC, offset 0x16, root
   \                     `??usart_rxc_my??INTVEC 22`:
   \   00000016   ....               RJMP    ??usart_rxc_my

   \                                 In  segment NEAR_ID, align 1, keep-with-next
   \                     `?<Initializer for <Constant " error ct big =">`:
   \   00000000   65207272726F       DC8 " error ct big ="
   \              632020746962
   \              2067003D    

   \                                 In  segment NEAR_ID, align 1, keep-with-next
   \                     `?<Initializer for <Constant "  / abslen= ">>`:
   \   00000000   2020202F6261       DC8 "  / abslen= "
   \              6C736E65203D
   \              00          

   \                                 In  segment NEAR_ID, align 1, keep-with-next
   \                     `?<Initializer for <Constant "  / len= ">>`:
   \   00000000   2020202F656C       DC8 "  / len= "
   \              3D6E0020    

   \                                 In  segment NEAR_ID, align 1, keep-with-next
   \                     `?<Initializer for <Constant "  ">>`:
   \   00000000   202000             DC8 "  "

   \                                 In  segment NEAR_ID, align 1, keep-with-next
   \                     `?<Initializer for <Constant "  / cod1= ">>`:
   \   00000000   2020202F6F63       DC8 "  / cod1= "
   \              3164203D00  

   \                                 In  segment NEAR_ID, align 1, keep-with-next
   \                     `?<Initializer for <Constant " / cod2= ">>`:
   \   00000000   2F206320646F       DC8 " / cod2= "
   \              3D320020    

   \                                 In  segment NEAR_ID, align 1, keep-with-next
   \                     `?<Initializer for <Constant " / cod3= ">>`:
   \   00000000   2F206320646F       DC8 " / cod3= "
   \              3D330020    

   \                                 In  segment NEAR_ID, align 1, keep-with-next
   \                     `?<Initializer for <Constant "/ minlen=">>`:
   \   00000000   202F696D6C6E       DC8 "/ minlen="
   \              6E65003D    

   \                                 In  segment NEAR_ID, align 1, keep-with-next
   \                     `?<Initializer for <Constant "  /   cod1= ">>`:
   \   00000000   2020202F2020       DC8 "  /   cod1= "
   \              6F633164203D
   \              00          

   \                                 In  segment NEAR_ID, align 1, keep-with-next
   \                     `?<Initializer for <Constant "/   cod2= ">>`:
   \   00000000   202F20206F63       DC8 "/   cod2= "
   \              3264203D00  

   \                                 In  segment NEAR_ID, align 1, keep-with-next
   \                     `?<Initializer for <Constant "/   cod3= ">>`:
   \   00000000   202F20206F63       DC8 "/   cod3= "
   \              3364203D00  

   \                                 In  segment NEAR_ID, align 1, keep-with-next
   \                     `?<Initializer for <Constant "OFF>adr=">>`:
   \   00000000   464F3E466461       DC8 "OFF>adr="
   \              3D7200      

   \                                 In  segment NEAR_ID, align 1, keep-with-next
   \                     `?<Initializer for <Constant "ON>adr=">>`:
   \   00000000   4E4F613E7264       DC8 "ON>adr="
   \              003D        

   \                                 In  segment NEAR_ID, align 1, keep-with-next
   \                     `?<Initializer for <Constant "normal>no find co`:
   \   00000000   6F6E6D726C61       DC8 "normal>no find command "
   \              6E3E206F6966
   \              646E63206D6F
   \              616D646E0020

   \                                 In  segment NEAR_ID, align 1, keep-with-next
   \                     `?<Initializer for <Constant "normal>command fi`:
   \   00000000   6F6E6D726C61       DC8 "normal>command find  adr= "
   \              633E6D6F616D
   \              646E66206E69
   \              206461207264
   \              203D00      

   \                                 In  segment NEAR_ID, align 1, keep-with-next
   \                     `?<Initializer for <Constant "write ..">>`:
   \   00000000   727774692065       DC8 "write .."
   \              2E2E00      

   \                                 In  segment NEAR_ID, align 1, keep-with-next
   \                     `?<Initializer for <Constant "OK !   ">>`:
   \   00000000   4B4F21202020       DC8 "OK !   "
   \              0020        

   \                                 In  segment NEAR_ID, align 1, keep-with-next
   \                     `?<Initializer for <Constant "-------------- vk`:
   \   00000000   2D2D2D2D2D2D       DC8 2DH, 2DH, 2DH, 2DH, 2DH, 2DH, 2DH, 2DH
   \              2D2D        
   \   00000008   2D2D2D2D2D2D       DC8 2DH, 2DH, 2DH, 2DH, 2DH, 2DH, 20H, 76H
   \              7620        
   \   00000010   6C6B63756568       DC8 6BH, 6CH, 75H, 63H, 68H, 65H, 6EH, 20H
   \              206E        
   \   00000018   726B7461696B       DC8 6BH, 72H, 61H, 74H, 6BH, 69H, 79H, 20H
   \              2079        
   \   00000020   69766976646F       DC8 76H, 69H, 76H, 69H, 6FH, 64H, 20H, 2DH
   \              2D20        
   \   00000028   2D2D2D2D2D2D       DC8 2DH, 2DH, 2DH, 2DH, 2DH, 2DH, 2DH, 2DH
   \              2D2D        
   \   00000030   2D2D2D2D00         DC8 2DH, 2DH, 2DH, 2DH, 0

   \                                 In  segment NEAR_ID, align 1, keep-with-next
   \                     `?<Initializer for <Constant " ==  EEPROM read `:
   \   00000000   3D20203D4520       DC8 " ==  EEPROM read == "
   \              50454F52204D
   \              657264613D20
   \              203D00      

   \                                 In  segment NEAR_ID, align 1, keep-with-next
   \                     `?<Initializer for <Constant " > ">>`:
   \   00000000   3E200020           DC8 " > "

   \                                 In  segment NEAR_ID, align 1, keep-with-next
   \                     `?<Initializer for <Constant " get: ">>`:
   \   00000000   67207465203A       DC8 " get: "
   \              00          

   \                                 In  segment NEAR_ID, align 1, keep-with-next
   \                     `?<Initializer for <Constant "  regim  no sourc`:
   \   00000000   202065726967       DC8 "  regim  no source5 >"
   \              206D6E20206F
   \              6F7372756563
   \              2035003E    

   \                                 In  segment NEAR_ID, align 1, keep-with-next
   \                     `?<Initializer for <Constant "  regim  PROGRAMM`:
   \   00000000   202065726967       DC8 "  regim  PROGRAMMING !!  READY >"
   \              206D50204F52
   \              52474D41494D
   \              474E21202021
   \              522041455944
   \              3E2000      

   \                                 In  segment NEAR_ID, align 1, keep-with-next
   \                     `?<Initializer for <Constant "  regim  normal  `:
   \   00000000   202065726967       DC8 "  regim  normal  READY >"
   \              206D6E20726F
   \              616D206C5220
   \              414559443E20
   \              00          

   \                                 In  segment NEAR_ID, align 1, keep-with-next
   \                     `?<Initializer for tON>`:
   \   00000000   4E20               DC16 20000

   \                                 In  segment NEAR_ID, align 1, keep-with-next
   \                     `?<Initializer for lastsel>`:
   \   00000000   01                 DC8 1

   \                                 In  segment NEAR_ID, align 1, keep-with-next
   \                     `?<Initializer for sel>`:
   \   00000000   01                 DC8 1

   \                                 In  segment NEAR_I, align 1, keep-with-next
   \   00000000                      REQUIRE `?<Segment init: NEAR_I>`
   \                     `?<Constant " error ct big =">`:
   \   00000000                      DS8 16
   \   00000010                      REQUIRE `?<Initializer for <Constant " error ct big =">`

   \                                 In  segment NEAR_I, align 1, keep-with-next
   \   00000000                      REQUIRE `?<Segment init: NEAR_I>`
   \                     `?<Constant "  / abslen= ">`:
   \   00000000                      DS8 13
   \   0000000D                      REQUIRE `?<Initializer for <Constant "  / abslen= ">>`

   \                                 In  segment NEAR_I, align 1, keep-with-next
   \   00000000                      REQUIRE `?<Segment init: NEAR_I>`
   \                     `?<Constant "  / len= ">`:
   \   00000000                      DS8 10
   \   0000000A                      REQUIRE `?<Initializer for <Constant "  / len= ">>`

   \                                 In  segment NEAR_I, align 1, keep-with-next
   \   00000000                      REQUIRE `?<Segment init: NEAR_I>`
   \                     `?<Constant "  ">`:
   \   00000000                      DS8 3
   \   00000003                      REQUIRE `?<Initializer for <Constant "  ">>`

   \                                 In  segment NEAR_I, align 1, keep-with-next
   \   00000000                      REQUIRE `?<Segment init: NEAR_I>`
   \                     `?<Constant "  / cod1= ">`:
   \   00000000                      DS8 11
   \   0000000B                      REQUIRE `?<Initializer for <Constant "  / cod1= ">>`

   \                                 In  segment NEAR_I, align 1, keep-with-next
   \   00000000                      REQUIRE `?<Segment init: NEAR_I>`
   \                     `?<Constant " / cod2= ">`:
   \   00000000                      DS8 10
   \   0000000A                      REQUIRE `?<Initializer for <Constant " / cod2= ">>`

   \                                 In  segment NEAR_I, align 1, keep-with-next
   \   00000000                      REQUIRE `?<Segment init: NEAR_I>`
   \                     `?<Constant " / cod3= ">`:
   \   00000000                      DS8 10
   \   0000000A                      REQUIRE `?<Initializer for <Constant " / cod3= ">>`

   \                                 In  segment NEAR_I, align 1, keep-with-next
   \   00000000                      REQUIRE `?<Segment init: NEAR_I>`
   \                     `?<Constant "/ minlen=">`:
   \   00000000                      DS8 10
   \   0000000A                      REQUIRE `?<Initializer for <Constant "/ minlen=">>`

   \                                 In  segment NEAR_I, align 1, keep-with-next
   \   00000000                      REQUIRE `?<Segment init: NEAR_I>`
   \                     `?<Constant "  /   cod1= ">`:
   \   00000000                      DS8 13
   \   0000000D                      REQUIRE `?<Initializer for <Constant "  /   cod1= ">>`

   \                                 In  segment NEAR_I, align 1, keep-with-next
   \   00000000                      REQUIRE `?<Segment init: NEAR_I>`
   \                     `?<Constant "/   cod2= ">`:
   \   00000000                      DS8 11
   \   0000000B                      REQUIRE `?<Initializer for <Constant "/   cod2= ">>`

   \                                 In  segment NEAR_I, align 1, keep-with-next
   \   00000000                      REQUIRE `?<Segment init: NEAR_I>`
   \                     `?<Constant "/   cod3= ">`:
   \   00000000                      DS8 11
   \   0000000B                      REQUIRE `?<Initializer for <Constant "/   cod3= ">>`

   \                                 In  segment NEAR_I, align 1, keep-with-next
   \   00000000                      REQUIRE `?<Segment init: NEAR_I>`
   \                     `?<Constant "OFF>adr=">`:
   \   00000000                      DS8 9
   \   00000009                      REQUIRE `?<Initializer for <Constant "OFF>adr=">>`

   \                                 In  segment NEAR_I, align 1, keep-with-next
   \   00000000                      REQUIRE `?<Segment init: NEAR_I>`
   \                     `?<Constant "ON>adr=">`:
   \   00000000                      DS8 8
   \   00000008                      REQUIRE `?<Initializer for <Constant "ON>adr=">>`

   \                                 In  segment NEAR_I, align 1, keep-with-next
   \   00000000                      REQUIRE `?<Segment init: NEAR_I>`
   \                     `?<Constant "normal>no find command ">`:
   \   00000000                      DS8 24
   \   00000018                      REQUIRE `?<Initializer for <Constant "normal>no find co`

   \                                 In  segment NEAR_I, align 1, keep-with-next
   \   00000000                      REQUIRE `?<Segment init: NEAR_I>`
   \                     `?<Constant "normal>command find  ...">`:
   \   00000000                      DS8 27
   \   0000001B                      REQUIRE `?<Initializer for <Constant "normal>command fi`

   \                                 In  segment NEAR_I, align 1, keep-with-next
   \   00000000                      REQUIRE `?<Segment init: NEAR_I>`
   \                     `?<Constant "write ..">`:
   \   00000000                      DS8 9
   \   00000009                      REQUIRE `?<Initializer for <Constant "write ..">>`

   \                                 In  segment NEAR_I, align 1, keep-with-next
   \   00000000                      REQUIRE `?<Segment init: NEAR_I>`
   \                     `?<Constant "OK !   ">`:
   \   00000000                      DS8 8
   \   00000008                      REQUIRE `?<Initializer for <Constant "OK !   ">>`

   \                                 In  segment NEAR_I, align 1, keep-with-next
   \   00000000                      REQUIRE `?<Segment init: NEAR_I>`
   \                     `?<Constant "-------------- vkluch...">`:
   \   00000000                      DS8 53
   \   00000035                      REQUIRE `?<Initializer for <Constant "-------------- vk`

   \                                 In  segment NEAR_I, align 1, keep-with-next
   \   00000000                      REQUIRE `?<Segment init: NEAR_I>`
   \                     `?<Constant " ==  EEPROM read == ">`:
   \   00000000                      DS8 21
   \   00000015                      REQUIRE `?<Initializer for <Constant " ==  EEPROM read `

   \                                 In  segment NEAR_I, align 1, keep-with-next
   \   00000000                      REQUIRE `?<Segment init: NEAR_I>`
   \                     `?<Constant " > ">`:
   \   00000000                      DS8 4
   \   00000004                      REQUIRE `?<Initializer for <Constant " > ">>`

   \                                 In  segment NEAR_I, align 1, keep-with-next
   \   00000000                      REQUIRE `?<Segment init: NEAR_I>`
   \                     `?<Constant " get: ">`:
   \   00000000                      DS8 7
   \   00000007                      REQUIRE `?<Initializer for <Constant " get: ">>`

   \                                 In  segment NEAR_I, align 1, keep-with-next
   \   00000000                      REQUIRE `?<Segment init: NEAR_I>`
   \                     `?<Constant "  regim  no source5 >">`:
   \   00000000                      DS8 22
   \   00000016                      REQUIRE `?<Initializer for <Constant "  regim  no sourc`

   \                                 In  segment NEAR_I, align 1, keep-with-next
   \   00000000                      REQUIRE `?<Segment init: NEAR_I>`
   \                     `?<Constant "  regim  PROGRAMMING ...">`:
   \   00000000                      DS8 33
   \   00000021                      REQUIRE `?<Initializer for <Constant "  regim  PROGRAMM`

   \                                 In  segment NEAR_I, align 1, keep-with-next
   \   00000000                      REQUIRE `?<Segment init: NEAR_I>`
   \                     `?<Constant "  regim  normal  READY >">`:
   \   00000000                      DS8 25
   \   00000019                      REQUIRE `?<Initializer for <Constant "  regim  normal  `

   Maximum stack usage in bytes:

   CSTACK RSTACK Function
   ------ ------ --------
     15      2   TIMER2ovf()
       15      2   -> TimerReset(timers *)
       15      2   -> TimerTick(timers *)
      0      2   TimerReset(timers *)
      0      4   TimerSet(timers *, long)
      0      2   TimerTick(timers *)
      0      2   USART_GetChar()
      0      2   USART_Init()
      0      2   USART_SendChar(unsigned char)
      2      4   analizCOD()
      0      2   autoOFF()
        0      2   -> TimerSet(timers *, long)
      2      4   diag()
        2      2   -> USART_GetChar()
        2      2   -> USART_SendChar(unsigned char)
        2      2   -> rprintfFloat(char, double)
        2      2   -> rprintfStr(char *)
      0      2   du_init()
     16      4   du_main(unsigned char)
       16      2   -> USART_SendChar(unsigned char)
       16      2   -> du_init()
       16      2   -> rprintfFloat(char, double)
       16      2   -> rprintfStr(char *)
      2      2   funINT0_vect()
      2      2   funTIMER1_OVF_vect()
      0      2   getadr()
      0      2   iniPORTS()
      0      2   led_all(bool)
      1      4   main()
        1      2   -> TimerSet(timers *, long)
        1      2   -> USART_SendChar(unsigned char)
        1      2   -> analizCOD()
        1      2   -> diag()
        1      2   -> du_main(unsigned char)
        1      2   -> getadr()
        1      2   -> iniPORTS()
        1      2   -> led_all(bool)
        1      2   -> normal(unsigned char)
        1      2   -> programming()
        1      2   -> resOUT()
        1      2   -> rprintfFloat(char, double)
        1      2   -> rprintfStr(char *)
        1      2   -> source()
        1      2   -> writeCOD()
      0      4   migINI(unsigned char, unsigned char, bool)
        0      2   -> TimerSet(timers *, long)
      0      4   migWORK()
        0      2   -> TimerSet(timers *, long)
      0      2   mutef()
      0      4   normal(unsigned char)
        0      2   -> USART_SendChar(unsigned char)
        0      2   -> autoOFF()
        0      2   -> migWORK()
        0      2   -> mutef()
        0      2   -> rprintfFloat(char, double)
        0      2   -> rprintfStr(char *)
        0      2   -> select()
        0      2   -> tilf()
        0      2   -> volume()
      1      2   programming()
        1      2   -> getadr()
        1      2   -> led_all(bool)
        1      2   -> writeCOD()
      0      2   pult()
        0      2   -> source()
      0      2   resOUT()
      0      2   resled()
     12      4   rprintfFloat(char, double)
       12      2   -> USART_SendChar(unsigned char)
      4      2   rprintfStr(char *)
        4      2   -> USART_SendChar(unsigned char)
      0      4   select()
        0      2   -> pult()
      0      2   source()
        0      2   -> migINI(unsigned char, unsigned char, bool)
        0      2   -> resOUT()
        0      2   -> resled()
      0      2   tilf()
        0      2   -> migINI(unsigned char, unsigned char, bool)
        0      2   -> pult()
      2      2   usart_rxc_my()
      0      2   volume()
      1      4   writeCOD()
        1      2   -> USART_SendChar(unsigned char)
        1      2   -> getadr()
        1      2   -> led_all(bool)
        1      2   -> rprintfStr(char *)


   Segment part sizes:

   Bytes  Function/Label
   -----  --------------
       3  ?<Constant "  ">
      13  ?<Constant "  /   cod1= ">
      13  ?<Constant "  / abslen= ">
      11  ?<Constant "  / cod1= ">
      10  ?<Constant "  / len= ">
      33  ?<Constant "  regim  PROGRAMMING ...">
      22  ?<Constant "  regim  no source5 >">
      25  ?<Constant "  regim  normal  READY >">
      10  ?<Constant " / cod2= ">
      10  ?<Constant " / cod3= ">
      21  ?<Constant " ==  EEPROM read == ">
       4  ?<Constant " > ">
      16  ?<Constant " error ct big =">
       7  ?<Constant " get: ">
      53  ?<Constant "-------------- vkluch...">
      11  ?<Constant "/   cod2= ">
      11  ?<Constant "/   cod3= ">
      10  ?<Constant "/ minlen=">
       9  ?<Constant "OFF>adr=">
       8  ?<Constant "OK !   ">
       8  ?<Constant "ON>adr=">
      27  ?<Constant "normal>command find  ...">
      24  ?<Constant "normal>no find command ">
       9  ?<Constant "write ..">
       3  ?<Initializer for <Constant "  ">>
      13  ?<Initializer for <Constant "  /   cod1= ">>
      13  ?<Initializer for <Constant "  / abslen= ">>
      11  ?<Initializer for <Constant "  / cod1= ">>
      10  ?<Initializer for <Constant "  / len= ">>
      33  ?<Initializer for <Constant "  regim  PROGRAMM
      22  ?<Initializer for <Constant "  regim  no sourc
      25  ?<Initializer for <Constant "  regim  normal
      10  ?<Initializer for <Constant " / cod2= ">>
      10  ?<Initializer for <Constant " / cod3= ">>
      21  ?<Initializer for <Constant " ==  EEPROM read
       4  ?<Initializer for <Constant " > ">>
      16  ?<Initializer for <Constant " error ct big =">
       7  ?<Initializer for <Constant " get: ">>
      53  ?<Initializer for <Constant "-------------- vk
      11  ?<Initializer for <Constant "/   cod2= ">>
      11  ?<Initializer for <Constant "/   cod3= ">>
      10  ?<Initializer for <Constant "/ minlen=">>
       9  ?<Initializer for <Constant "OFF>adr=">>
       8  ?<Initializer for <Constant "OK !   ">>
       8  ?<Initializer for <Constant "ON>adr=">>
      27  ?<Initializer for <Constant "normal>command fi
      24  ?<Initializer for <Constant "normal>no find co
       9  ?<Initializer for <Constant "write ..">>
       1  ?<Initializer for lastsel>
       1  ?<Initializer for sel>
       2  ?<Initializer for tON>
       2  ??Subroutine133_0
       6  ??Subroutine134_0
       8  ??Subroutine135_0
       6  ??Subroutine136_0
       2  ??Subroutine137_0
       8  ??Subroutine138_0
       6  ??Subroutine139_0
       4  ??Subroutine140_0
       8  ??Subroutine141_0
       4  ??Subroutine142_0
      18  ??Subroutine143_0
       6  ??Subroutine144_0
       6  ??Subroutine145_0
       4  ??Subroutine146_0
       2  ??TIMER2ovf??INTVEC 8
       2  ??funINT0_vect??INTVEC 2
       2  ??funTIMER1_OVF_vect??INTVEC 16
       2  ??usart_rxc_my??INTVEC 22
       8  ?Subroutine0
       6  ?Subroutine1
      10  ?Subroutine100
       6  ?Subroutine101
       6  ?Subroutine102
       6  ?Subroutine103
       4  ?Subroutine104
       2  ?Subroutine105
       6  ?Subroutine106
      20  ?Subroutine107
       6  ?Subroutine108
       6  ?Subroutine109
       6  ?Subroutine11
       6  ?Subroutine110
      20  ?Subroutine111
       6  ?Subroutine113
       6  ?Subroutine114
       2  ?Subroutine115
      20  ?Subroutine116
       4  ?Subroutine117
       6  ?Subroutine118
       6  ?Subroutine119
      16  ?Subroutine12
       6  ?Subroutine120
       4  ?Subroutine121
       4  ?Subroutine122
       4  ?Subroutine123
       4  ?Subroutine124
       4  ?Subroutine125
       4  ?Subroutine126
       4  ?Subroutine127
       4  ?Subroutine128
       4  ?Subroutine129
       2  ?Subroutine13
       4  ?Subroutine130
       4  ?Subroutine131
       4  ?Subroutine132
       2  ?Subroutine14
       2  ?Subroutine15
      22  ?Subroutine17
       4  ?Subroutine18
       6  ?Subroutine19
       2  ?Subroutine20
       6  ?Subroutine21
       8  ?Subroutine22
       8  ?Subroutine23
       8  ?Subroutine24
       4  ?Subroutine26
       4  ?Subroutine27
       4  ?Subroutine28
       8  ?Subroutine3
      12  ?Subroutine30
       2  ?Subroutine31
       8  ?Subroutine32
       2  ?Subroutine33
       2  ?Subroutine34
       6  ?Subroutine36
       2  ?Subroutine37
       4  ?Subroutine38
       4  ?Subroutine39
      16  ?Subroutine4
       6  ?Subroutine40
       6  ?Subroutine42
       2  ?Subroutine43
      14  ?Subroutine44
       6  ?Subroutine45
       6  ?Subroutine46
       4  ?Subroutine47
       8  ?Subroutine48
       8  ?Subroutine49
      10  ?Subroutine5
       6  ?Subroutine51
       4  ?Subroutine52
      10  ?Subroutine53
      10  ?Subroutine54
      10  ?Subroutine55
       2  ?Subroutine56
      20  ?Subroutine57
       6  ?Subroutine58
       4  ?Subroutine59
       4  ?Subroutine60
       4  ?Subroutine61
       4  ?Subroutine62
       6  ?Subroutine63
       2  ?Subroutine64
       6  ?Subroutine65
      20  ?Subroutine66
       4  ?Subroutine67
       2  ?Subroutine69
       6  ?Subroutine7
       4  ?Subroutine70
       4  ?Subroutine71
       6  ?Subroutine72
      20  ?Subroutine73
       6  ?Subroutine74
       6  ?Subroutine75
       6  ?Subroutine76
      12  ?Subroutine77
       6  ?Subroutine79
       6  ?Subroutine8
      20  ?Subroutine80
       4  ?Subroutine81
       6  ?Subroutine82
       6  ?Subroutine84
       2  ?Subroutine85
      10  ?Subroutine86
       8  ?Subroutine87
      10  ?Subroutine88
       4  ?Subroutine9
       2  ?Subroutine90
       6  ?Subroutine91
       6  ?Subroutine92
       6  ?Subroutine93
       6  ?Subroutine94
       6  ?Subroutine95
      10  ?Subroutine96
       6  ?Subroutine97
       6  ?Subroutine98
       6  ?Subroutine99
     120  TIMER2ovf()
      16  TimerReset(timers *)
      34  TimerSet(timers *, long)
      58  TimerTick(timers *)
      26  USART_GetChar()
      18  USART_Init()
      16  USART_SendChar(unsigned char)
       1  _A_ACSR
       1  _A_DDRB
       1  _A_DDRC
       1  _A_DDRD
       1  _A_GICR
       2  _A_ICR1
       1  _A_MCUCR
       2  _A_OCR1A
       2  _A_OCR1B
       1  _A_PIND
       1  _A_PORTB
       1  _A_PORTC
       1  _A_PORTD
       1  _A_TCCR1A
       1  _A_TCCR1B
       1  _A_TCCR2
       1  _A_TCNT0
       2  _A_TCNT1
       1  _A_TCNT2
       1  _A_TIFR
       1  _A_TIMSK
       1  _A_UBRRH
       1  _A_UBRRL
       1  _A_UCSRA
       1  _A_UCSRB
       1  _A_UDR
      74  analizCOD()
       1  aoff
     132  autoOFF()
       1  big
       2  cod1
       2  cod2
       2  cod3
       2  cod4
       1  cod_ok
       1  ct
       2  ctvol
     126  diag()
     100  dim1
     100  dim2
      24  du_init()
     810  du_main(unsigned char)
       1  fmode
      46  funINT0_vect()
       8  funTIMER1_OVF_vect()
     212  getadr()
       1  indexFUNC
       1  ini
     118  iniPORTS()
       1  intok
       1  inv
     240  k
       1  kol
       1  lastsel
      30  led_all(bool)
     200  len
     474  main()
      66  migINI(unsigned char, unsigned char, bool)
      70  migWORK()
       2  minimallen
       1  mode
       1  modegro
       1  mute
     118  mutef()
     108  normal(unsigned char)
       1  on
       1  onok
       1  perepoln
       1  port
       1  pr
      80  programming()
      14  pult()
       1  pultadr
       1  raz
       1  razct
       1  regaoff
      16  resOUT()
      10  resled()
       1  rez
     172  rprintfFloat(char, double)
      28  rprintfStr(char *)
       1  sel
     118  select()
       1  sost
      78  source()
       4  sst
       1  t1
       1  t2
       2  tON
       1  til
     216  tilf()
       2  timerzad
       9  tm1
       9  tm2
       9  tm3
       9  tm4
       9  tm5
       9  tm6
       1  u
       1  usartRxBuf
      10  usart_rxc_my()
       1  vol
      38  volume()
       1  write
      80  writeCOD()
       1  zader
      12  -- Other

 
    30 bytes in segment ABSOLUTE
 4 444 bytes in segment CODE
   242 bytes in segment EEPROM_N
    12 bytes in segment INITTAB
     8 bytes in segment INTVEC
   372 bytes in segment NEAR_I
   372 bytes in segment NEAR_ID
   502 bytes in segment NEAR_Z
 
 4 816 bytes of CODE  memory (+ 20 bytes shared)
   874 bytes of DATA  memory (+ 30 bytes shared)
   242 bytes of XDATA memory

Errors: none
Warnings: none
