###############################################################################
#
# IAR C/C++ Compiler V6.40.1.741 for Atmel AVR            03/Feb/2017  11:00:01
# Copyright 1996-2014 IAR Systems AB.
#
#    Source file  =  F:\Dulov\RemoteAMP\main.cpp
#    Command line =  
#        F:\Dulov\RemoteAMP\main.cpp --cpu=m8 -ms -o
#        F:\Dulov\RemoteAMP\Release\Obj\ -D NDEBUG -lC
#        F:\Dulov\RemoteAMP\Release\List\ -lA F:\Dulov\RemoteAMP\Release\List\
#        --initializers_in_flash --no_clustering -DENABLE_BIT_DEFINITIONS -e
#        --eeprom_size 512 --dlib --dlib_config "C:\Program Files\IAR
#        Systems\Embedded Workbench 6.5\avr\LIB\DLIB\dlAVR-1s-ec_mul-n.h"
#        --ec++ -Ohz --mfc F:\Dulov\RemoteAMP\usart.c
#    List file    =  F:\Dulov\RemoteAMP\Release\List\main.lst
#    Object file  =  F:\Dulov\RemoteAMP\Release\Obj\main.r90
#
###############################################################################

F:\Dulov\RemoteAMP\main.cpp
      1          //***************************************************************************
      2          //  
      3          //  Author(s)...: dav COBRA 
      4          //  Target(s)...: ATMega8
      5          //  Compiler....: 6 40
      6          //  ТЕСТ1
      7          //  Description.: Система  управления  для  Усилителя  Мощности   V-ниже
      8          //  v1.1 - добавлена поддержка включения усилителя тыловых колонок вместо Source5
      9          //       - изменена установка auto off
     10          //  v1.2 - теперь во время мигания(только Source) светодиодов  команды пульта обрабатываются
     11          //       - новая команда пульта - возврат в предыдущий source
     12          //       - команды пульта можно продублировать на втором пульте, т.е. на каждую функцию 2 кнопки пульта
     13          //       - вместо импульсов громкости можно формировать постоянный сигнал
     14          //       - подправлены задержки
     15          //       - обновлен алгоритм кодирования
     16          // v1.22 - исправлена ошибка задержки вкл AC
     17          // v1.23 - исправлен при включении включается SOURCE1 
     18          // v1.24 - исправлен баг AUTOOFF на 30 минут 
     19          // v1.25 - исправлен баг AUTOOFF при выключениии питания 
     20          //
     21          //  Data........: 04 2016
     22          //
     23          //   - ВЫКЛЮЧИТЬ ОПЦИЮ clustering of variables В optimization compilator !!!!
     24          //***************************************************************************
     25          #include <stdbool.h>//поддержка bool
     26          #include <iom8.h>//<ioavr.h>

   \                                 In  segment ABSOLUTE, at 0x28
   \   union <unnamed> volatile __io _A_ACSR
   \                     _A_ACSR:
   \   00000000                      DS8 1

   \                                 In  segment ABSOLUTE, at 0x29
   \   union <unnamed> volatile __io _A_UBRRL
   \                     _A_UBRRL:
   \   00000000                      DS8 1

   \                                 In  segment ABSOLUTE, at 0x2a
   \   union <unnamed> volatile __io _A_UCSRB
   \                     _A_UCSRB:
   \   00000000                      DS8 1

   \                                 In  segment ABSOLUTE, at 0x2b
   \   union <unnamed> volatile __io _A_UCSRA
   \                     _A_UCSRA:
   \   00000000                      DS8 1

   \                                 In  segment ABSOLUTE, at 0x2c
   \   union <unnamed> volatile __io _A_UDR
   \                     _A_UDR:
   \   00000000                      DS8 1

   \                                 In  segment ABSOLUTE, at 0x30
   \   union <unnamed> volatile __io _A_PIND
   \                     _A_PIND:
   \   00000000                      DS8 1

   \                                 In  segment ABSOLUTE, at 0x31
   \   union <unnamed> volatile __io _A_DDRD
   \                     _A_DDRD:
   \   00000000                      DS8 1

   \                                 In  segment ABSOLUTE, at 0x32
   \   union <unnamed> volatile __io _A_PORTD
   \                     _A_PORTD:
   \   00000000                      DS8 1

   \                                 In  segment ABSOLUTE, at 0x34
   \   union <unnamed> volatile __io _A_DDRC
   \                     _A_DDRC:
   \   00000000                      DS8 1

   \                                 In  segment ABSOLUTE, at 0x35
   \   union <unnamed> volatile __io _A_PORTC
   \                     _A_PORTC:
   \   00000000                      DS8 1

   \                                 In  segment ABSOLUTE, at 0x37
   \   union <unnamed> volatile __io _A_DDRB
   \                     _A_DDRB:
   \   00000000                      DS8 1

   \                                 In  segment ABSOLUTE, at 0x38
   \   union <unnamed> volatile __io _A_PORTB
   \                     _A_PORTB:
   \   00000000                      DS8 1

   \                                 In  segment ABSOLUTE, at 0x40
   \   union <unnamed> volatile __io _A_UBRRH
   \                     _A_UBRRH:
   \   00000000                      DS8 1

   \                                 In  segment ABSOLUTE, at 0x46
   \   union <unnamed> volatile __io _A_ICR1
   \                     _A_ICR1:
   \   00000000                      DS8 2

   \                                 In  segment ABSOLUTE, at 0x48
   \   union <unnamed> volatile __io _A_OCR1B
   \                     _A_OCR1B:
   \   00000000                      DS8 2

   \                                 In  segment ABSOLUTE, at 0x4a
   \   union <unnamed> volatile __io _A_OCR1A
   \                     _A_OCR1A:
   \   00000000                      DS8 2

   \                                 In  segment ABSOLUTE, at 0x4c
   \   union <unnamed> volatile __io _A_TCNT1
   \                     _A_TCNT1:
   \   00000000                      DS8 2

   \                                 In  segment ABSOLUTE, at 0x4e
   \   union <unnamed> volatile __io _A_TCCR1B
   \                     _A_TCCR1B:
   \   00000000                      DS8 1

   \                                 In  segment ABSOLUTE, at 0x4f
   \   union <unnamed> volatile __io _A_TCCR1A
   \                     _A_TCCR1A:
   \   00000000                      DS8 1

   \                                 In  segment ABSOLUTE, at 0x52
   \   union <unnamed> volatile __io _A_TCNT0
   \                     _A_TCNT0:
   \   00000000                      DS8 1

   \                                 In  segment ABSOLUTE, at 0x55
   \   union <unnamed> volatile __io _A_MCUCR
   \                     _A_MCUCR:
   \   00000000                      DS8 1

   \                                 In  segment ABSOLUTE, at 0x58
   \   union <unnamed> volatile __io _A_TIFR
   \                     _A_TIFR:
   \   00000000                      DS8 1

   \                                 In  segment ABSOLUTE, at 0x59
   \   union <unnamed> volatile __io _A_TIMSK
   \                     _A_TIMSK:
   \   00000000                      DS8 1

   \                                 In  segment ABSOLUTE, at 0x5b
   \   union <unnamed> volatile __io _A_GICR
   \                     _A_GICR:
   \   00000000                      DS8 1
     27          //#include <inavr.h>  
     28          #include <intrinsics.h>
     29          #include "init.h"
     30          #include "du.h"  

   \                                 In  segment EEPROM_N, align 1, keep-with-next
   \   unsigned int __eeprom k[120]
   \                     k:
   \   00000000                      DS8 240

   \                                 In  segment EEPROM_N, align 1, keep-with-next
   \   unsigned char __eeprom fmode
   \                     fmode:
   \   00000000                      DS8 1

   \                                 In  segment EEPROM_N, align 1, keep-with-next
   \   unsigned char __eeprom modegro
   \                     modegro:
   \   00000000                      DS8 1

   \                                 In  segment NEAR_Z, align 1, keep-with-next
   \   00000000                      REQUIRE `?<Segment init: NEAR_Z>`
   \   unsigned int cod1
   \                     cod1:
   \   00000000                      DS8 2

   \                                 In  segment NEAR_Z, align 1, keep-with-next
   \   00000000                      REQUIRE `?<Segment init: NEAR_Z>`
   \   unsigned int cod2
   \                     cod2:
   \   00000000                      DS8 2

   \                                 In  segment NEAR_Z, align 1, keep-with-next
   \   00000000                      REQUIRE `?<Segment init: NEAR_Z>`
   \   unsigned int cod3
   \                     cod3:
   \   00000000                      DS8 2

   \                                 In  segment NEAR_Z, align 1, keep-with-next
   \   00000000                      REQUIRE `?<Segment init: NEAR_Z>`
   \   unsigned int cod4
   \                     cod4:
   \   00000000                      DS8 2

   \                                 In  segment NEAR_Z, align 1, keep-with-next
   \   00000000                      REQUIRE `?<Segment init: NEAR_Z>`
   \   unsigned char perepoln
   \                     perepoln:
   \   00000000                      DS8 1

   \                                 In  segment NEAR_Z, align 1, keep-with-next
   \   00000000                      REQUIRE `?<Segment init: NEAR_Z>`
   \   unsigned char t1
   \                     t1:
   \   00000000                      DS8 1

   \                                 In  segment NEAR_Z, align 1, keep-with-next
   \   00000000                      REQUIRE `?<Segment init: NEAR_Z>`
   \   unsigned char t2
   \                     t2:
   \   00000000                      DS8 1

   \                                 In  segment NEAR_Z, align 1, keep-with-next
   \   00000000                      REQUIRE `?<Segment init: NEAR_Z>`
   \   static bool ini
   \                     ??ini:
   \   00000000                      DS8 1

   \                                 In  segment NEAR_Z, align 1, keep-with-next
   \   00000000                      REQUIRE `?<Segment init: NEAR_Z>`
   \   unsigned int dim1[50]
   \                     dim1:
   \   00000000                      DS8 100

   \                                 In  segment NEAR_Z, align 1, keep-with-next
   \   00000000                      REQUIRE `?<Segment init: NEAR_Z>`
   \   unsigned int dim2[50]
   \                     dim2:
   \   00000000                      DS8 100

   \                                 In  segment NEAR_Z, align 1, keep-with-next
   \   00000000                      REQUIRE `?<Segment init: NEAR_Z>`
   \   char ct
   \                     ct:
   \   00000000                      DS8 1

   \                                 In  segment NEAR_Z, align 1, keep-with-next
   \   00000000                      REQUIRE `?<Segment init: NEAR_Z>`
   \   unsigned int minimallen
   \                     minimallen:
   \   00000000                      DS8 2

   \                                 In  segment NEAR_Z, align 1, keep-with-next
   \   00000000                      REQUIRE `?<Segment init: NEAR_Z>`
   \   float len[50]
   \                     len:
   \   00000000                      DS8 200

   \                                 In  segment NEAR_Z, align 1, keep-with-next
   \   00000000                      REQUIRE `?<Segment init: NEAR_Z>`
   \   static bool intok
   \                     ??intok:
   \   00000000                      DS8 1

   \                                 In  segment NEAR_Z, align 1, keep-with-next
   \   00000000                      REQUIRE `?<Segment init: NEAR_Z>`
   \   static bool big
   \                     ??big:
   \   00000000                      DS8 1

   \                                 In  segment NEAR_Z, align 1, keep-with-next
   \   00000000                      REQUIRE `?<Segment init: NEAR_Z>`
   \   char cod_ok
   \                     cod_ok:
   \   00000000                      DS8 1

   \                                 In  segment NEAR_Z, align 1, keep-with-next
   \   00000000                      REQUIRE `?<Segment init: NEAR_Z>`
   \   unsigned char c1
   \                     c1:
   \   00000000                      DS8 1

   \                                 In  segment NEAR_Z, align 1, keep-with-next
   \   00000000                      REQUIRE `?<Segment init: NEAR_Z>`
   \   unsigned char c2
   \                     c2:
   \   00000000                      DS8 1

   \                                 In  segment NEAR_Z, align 1, keep-with-next
   \   00000000                      REQUIRE `?<Segment init: NEAR_Z>`
   \   unsigned char c3
   \                     c3:
   \   00000000                      DS8 1

   \                                 In  segment NEAR_I, align 1, keep-with-next
   \   00000000                      REQUIRE `?<Segment init: NEAR_I>`
   \   char ind
   \                     ind:
   \   00000000                      DS8 1
   \   00000001                      REQUIRE `?<Initializer for ind>`

   \                                 In  segment CODE, align 2, keep-with-next
   \   __version_3 void du_init()
   \                     ??du_init:
   \   00000000   E001               LDI     R16, 1
   \   00000002   9300....           STS     ??ini, R16
   \   00000006   E000               LDI     R16, 0
   \   00000008   9300....           STS     ??intok, R16
   \   0000000C   E001               LDI     R16, 1
   \   0000000E   BD0E               OUT     0x2E, R16
   \   00000010   E000               LDI     R16, 0
   \   00000012   9300....           STS     ct, R16
   \   00000016   9508               RET
   \   00000018                      REQUIRE _A_TCCR1B

   \                                 In  segment CODE, align 2, keep-with-next
   \   __version_3 __interrupt void funINT0_vect()
   \                     ??funINT0_vect:
   \   00000000   931A               ST      -Y, R17
   \   00000002   930A               ST      -Y, R16
   \   00000004   B71F               IN      R17, 0x3F
   \   00000006   E001               LDI     R16, 1
   \   00000008   9300....           STS     ??intok, R16
   \   0000000C   B50C               IN      R16, 0x2C
   \   0000000E   9300....           STS     t1, R16
   \   00000012   B50D               IN      R16, 0x2D
   \   00000014   9300....           STS     t2, R16
   \   00000018   9100....           LDS     R16, t1
   \   0000001C   2300               TST     R16
   \   0000001E   F019               BREQ    ??funINT0_vect_1
   \   00000020   E000               LDI     R16, 0
   \   00000022   BD0D               OUT     0x2D, R16
   \   00000024   BD0C               OUT     0x2C, R16
   \                     ??funINT0_vect_1:
   \   00000026   BF1F               OUT     0x3F, R17
   \   00000028   9109               LD      R16, Y+
   \   0000002A   9119               LD      R17, Y+
   \   0000002C   9518               RETI
   \   0000002E                      REQUIRE _A_TCNT1

   \                                 In  segment CODE, align 2, keep-with-next
   \   __version_3 char du_main(unsigned char)
   \                     ??du_main:
   \   00000000   ....               RCALL   ?PROLOGUE8_L09
   \   00000002                      REQUIRE ?Register_R4_is_cg_reg
   \   00000002                      REQUIRE ?Register_R5_is_cg_reg
   \   00000002                      REQUIRE ?Register_R6_is_cg_reg
   \   00000002                      REQUIRE ?Register_R7_is_cg_reg
   \   00000002   2F90               MOV     R25, R16
   \   00000004   E000               LDI     R16, 0
   \   00000006   9300....           STS     cod_ok, R16
   \   0000000A   9100....           LDS     R16, ??ini
   \   0000000E   2300               TST     R16
   \   00000010   F409               BRNE    ??du_main_1
   \   00000012   ....               RCALL   ??du_init
   \                     ??du_main_1:
   \   00000014   9100....           LDS     R16, ??intok
   \   00000018   2300               TST     R16
   \   0000001A   F101               BREQ    ??du_main_2
   \   0000001C   9100....           LDS     R16, ??state
   \   00000020   2300               TST     R16
   \   00000022   F019               BREQ    ??du_main_3
   \   00000024   98C5               CBI     0x18, 0x05
   \   00000026   E000               LDI     R16, 0
   \   00000028   C002               RJMP    ??du_main_4
   \                     ??du_main_3:
   \   0000002A   9AC5               SBI     0x18, 0x05
   \   0000002C   E001               LDI     R16, 1
   \                     ??du_main_4:
   \   0000002E   9300....           STS     ??state, R16
   \   00000032   ....               RCALL   ?Subroutine21
   \                     ??CrossCallReturnLabel_23:
   \   00000034   E012               LDI     R17, 2
   \   00000036   9F01               MUL     R16, R17
   \   00000038   9100....           LDS     R16, t1
   \   0000003C   E010               LDI     R17, 0
   \   0000003E   ....               RCALL   ?Subroutine95
   \                     ??CrossCallReturnLabel_155:
   \   00000040   ....               RCALL   ?Subroutine98
   \                     ??CrossCallReturnLabel_350:
   \   00000042   9100....           LDS     R16, t2
   \   00000046   ....               RCALL   ?Subroutine96
   \                     ??CrossCallReturnLabel_158:
   \   00000048   ....               RCALL   ?Subroutine98
   \                     ??CrossCallReturnLabel_351:
   \   0000004A   ....               LDI     R30, LOW(ct)
   \   0000004C   ....               LDI     R31, (ct) >> 8
   \   0000004E   ....               RCALL   ?Subroutine101
   \                     ??CrossCallReturnLabel_340:
   \   00000050   3301               CPI     R16, 49
   \   00000052   F010               BRCS    ??du_main_5
   \   00000054   950A               DEC     R16
   \   00000056   8300               ST      Z, R16
   \                     ??du_main_5:
   \   00000058   9310....           STS     ??intok, R17
   \                     ??du_main_2:
   \   0000005C   9100....           LDS     R16, perepoln
   \   00000060   2300               TST     R16
   \   00000062   F409               BRNE    $+2+2
   \   00000064   C07F               RJMP    ??CrossCallReturnLabel_249
   \   00000066   9100....           LDS     R16, ??state2
   \   0000006A   2300               TST     R16
   \   0000006C   F019               BREQ    ??du_main_6
   \   0000006E   98C2               CBI     0x18, 0x02
   \   00000070   E000               LDI     R16, 0
   \   00000072   C002               RJMP    ??du_main_7
   \                     ??du_main_6:
   \   00000074   9AC2               SBI     0x18, 0x02
   \   00000076   E001               LDI     R16, 1
   \                     ??du_main_7:
   \   00000078   9300....           STS     ??state2, R16
   \   0000007C   ....               RCALL   ?Subroutine10
   \                     ??CrossCallReturnLabel_11:
   \   0000007E   9300....           STS     c1, R16
   \   00000082   9300....           STS     c2, R16
   \   00000086   9300....           STS     c3, R16
   \   0000008A   EF0F               LDI     R16, 255
   \   0000008C   ....               RCALL   ?Subroutine99
   \                     ??CrossCallReturnLabel_171:
   \   0000008E   ....               RCALL   ?Subroutine97
   \                     ??CrossCallReturnLabel_161:
   \   00000090   ....               RCALL   ?Subroutine21
   \                     ??CrossCallReturnLabel_24:
   \   00000092   3302               CPI     R16, 50
   \   00000094   F028               BRCS    ??CrossCallReturnLabel_329
   \   00000096   ....               LDI     R16, LOW(`?<Constant " error ct big =">`)
   \   00000098   ....               LDI     R17, (`?<Constant " error ct big =">`) >> 8
   \   0000009A   ....               RCALL   ??rprintfStr
   \   0000009C   ....               RCALL   ?Subroutine21
   \                     ??CrossCallReturnLabel_25:
   \   0000009E   ....               RCALL   ?Subroutine19
   \                     ??CrossCallReturnLabel_329:
   \   000000A0   ....               RCALL   ?Subroutine21
   \                     ??CrossCallReturnLabel_26:
   \   000000A2   3006               CPI     R16, 6
   \   000000A4   F020               BRCS    ??du_main_8
   \   000000A6   9100....           LDS     R16, ??big
   \   000000AA   2300               TST     R16
   \   000000AC   F021               BREQ    ??du_main_9
   \                     ??du_main_8:
   \   000000AE   9100....           LDS     R16, ??big
   \   000000B2   2300               TST     R16
   \   000000B4   F171               BREQ    ??du_main_10
   \                     ??du_main_9:
   \   000000B6   E081               LDI     R24, 1
   \   000000B8   C016               RJMP    ??du_main_11
   \                     ??du_main_12:
   \   000000BA   ....               RCALL   ?Subroutine23
   \                     ??CrossCallReturnLabel_29:
   \   000000BC   E004               LDI     R16, 4
   \   000000BE   9F80               MUL     R24, R16
   \   000000C0   ....               RCALL   ??Subroutine143_0
   \                     ??CrossCallReturnLabel_301:
   \   000000C2   8240               ST      Z, R4
   \   000000C4   8311               STD     Z+1, R17
   \   000000C6   8322               STD     Z+2, R18
   \   000000C8   8333               STD     Z+3, R19
   \   000000CA   E041               LDI     R20, 1
   \   000000CC   E050               LDI     R21, 0
   \   000000CE   E661               LDI     R22, 97
   \   000000D0   E474               LDI     R23, 68
   \   000000D2   2D04               MOV     R16, R4
   \   000000D4   ....               RCALL   ?F_CMP_GE_L04
   \   000000D6   F430               BRCC    ??CrossCallReturnLabel_352
   \   000000D8   ....               RCALL   ?Subroutine33
   \                     ??CrossCallReturnLabel_193:
   \   000000DA   ....               RCALL   ?F_CMP_LT_L04
   \   000000DC   F418               BRCC    ??CrossCallReturnLabel_352
   \   000000DE   ....               RCALL   ?F2SL_L04
   \   000000E0   ....               RCALL   ?Subroutine99
   \                     ??CrossCallReturnLabel_172:
   \   000000E2   ....               RCALL   ?Subroutine98
   \                     ??CrossCallReturnLabel_352:
   \   000000E4   9583               INC     R24
   \                     ??du_main_11:
   \   000000E6   ....               RCALL   ?Subroutine21
   \                     ??CrossCallReturnLabel_27:
   \   000000E8   1780               CP      R24, R16
   \   000000EA   F338               BRCS    ??du_main_12
   \   000000EC   E081               LDI     R24, 1
   \   000000EE   C00E               RJMP    ??du_main_13
   \                     ??du_main_14:
   \   000000F0   ....               RCALL   ?Subroutine23
   \                     ??CrossCallReturnLabel_30:
   \   000000F2   ....               RCALL   ?Subroutine33
   \                     ??CrossCallReturnLabel_194:
   \   000000F4   ....               RCALL   ?F_DIV_L04
   \   000000F6   E044               LDI     R20, 4
   \   000000F8   ....               RCALL   ?Subroutine30
   \                     ??CrossCallReturnLabel_302:
   \   000000FA   ....               RCALL   ??Subroutine147_0
   \                     ??CrossCallReturnLabel_345:
   \   000000FC   ....               RCALL   ?Subroutine55
   \                     ??CrossCallReturnLabel_71:
   \   000000FE   ....               RCALL   ?F_CMP_EQ_L04
   \   00000100   F021               BREQ    ??du_main_15
   \   00000102   2F29               MOV     R18, R25
   \   00000104   2F08               MOV     R16, R24
   \   00000106   E010               LDI     R17, 0
   \   00000108   ....               RCALL   ??coding
   \                     ??du_main_15:
   \   0000010A   9583               INC     R24
   \                     ??du_main_13:
   \   0000010C   ....               RCALL   ?Subroutine21
   \                     ??CrossCallReturnLabel_28:
   \   0000010E   1780               CP      R24, R16
   \   00000110   F378               BRCS    ??du_main_14
   \                     ??du_main_10:
   \   00000112   E080               LDI     R24, 0
   \   00000114   E044               LDI     R20, 4
   \                     ??du_main_16:
   \   00000116   ....               RCALL   ?Subroutine102
   \                     ??CrossCallReturnLabel_175:
   \   00000118   E000               LDI     R16, 0
   \   0000011A   ....               RCALL   ?Subroutine95
   \                     ??CrossCallReturnLabel_156:
   \   0000011C   ....               RCALL   ?Subroutine97
   \                     ??CrossCallReturnLabel_162:
   \   0000011E   ....               RCALL   ?Subroutine96
   \                     ??CrossCallReturnLabel_159:
   \   00000120   ....               RCALL   ?Subroutine97
   \                     ??CrossCallReturnLabel_163:
   \   00000122   ....               RCALL   ?Subroutine30
   \                     ??CrossCallReturnLabel_303:
   \   00000124   ....               RCALL   ?Subroutine28
   \                     ??CrossCallReturnLabel_31:
   \   00000126   9583               INC     R24
   \   00000128   3382               CPI     R24, 50
   \   0000012A   F3A8               BRCS    ??du_main_16
   \   0000012C   9300....           STS     perepoln, R16
   \   00000130   9300....           STS     t1, R16
   \   00000134   9300....           STS     t2, R16
   \   00000138   9300....           STS     ct, R16
   \   0000013C   9300....           STS     ??big, R16
   \   00000140   3091               CPI     R25, 1
   \   00000142   F481               BRNE    ??CrossCallReturnLabel_249
   \   00000144   9100....           LDS     R16, cod_ok
   \   00000148   2300               TST     R16
   \   0000014A   F061               BREQ    ??CrossCallReturnLabel_249
   \   0000014C   ....               LDI     R16, LOW(`?<Constant "  /   cod1= ">`)
   \   0000014E   ....               LDI     R17, (`?<Constant "  /   cod1= ">`) >> 8
   \   00000150   ....               RCALL   ?Subroutine31
   \                     ??CrossCallReturnLabel_335:
   \   00000152   ....               LDI     R16, LOW(`?<Constant "/   cod2= ">`)
   \   00000154   ....               LDI     R17, (`?<Constant "/   cod2= ">`) >> 8
   \   00000156   ....               RCALL   ?Subroutine42
   \                     ??CrossCallReturnLabel_414:
   \   00000158   ....               RCALL   ??Subroutine145_0
   \                     ??CrossCallReturnLabel_333:
   \   0000015A   ....               LDI     R16, LOW(`?<Constant "/   cod3= ">`)
   \   0000015C   ....               LDI     R17, (`?<Constant "/   cod3= ">`) >> 8
   \   0000015E   ....               RCALL   ?Subroutine49
   \                     ??CrossCallReturnLabel_408:
   \   00000160   ....               RCALL   ??Subroutine145_0
   \                     ??CrossCallReturnLabel_332:
   \   00000162   ....               RCALL   ?Subroutine128
   \                     ??CrossCallReturnLabel_249:
   \   00000164   9100....           LDS     R16, cod_ok
   \   00000168   E0E8               LDI     R30, 8
   \   0000016A   ....               RJMP    ?EPILOGUE_B8_L09
   \   0000016C                      REQUIRE _A_PORTB

   \                                 In  segment CODE, align 2, keep-with-next
   \                     ?Subroutine33:
   \   00000000   ....               RCALL   ?Subroutine99
   \                     ??CrossCallReturnLabel_174:
   \   00000002   ....               RCALL   ?Subroutine100
   \                     ??CrossCallReturnLabel_308:
   \   00000004                      REQUIRE ?Subroutine107
   \   00000004                      ;               // Fall through to label ?Subroutine107

   \                                 In  segment CODE, align 2, keep-with-next
   \                     ?Subroutine107:
   \   00000000   0182               MOVW    R17:R16, R5:R4
   \   00000002   0193               MOVW    R19:R18, R7:R6
   \   00000004   9508               RET

   \                                 In  segment CODE, align 2, keep-with-next
   \                     ?Subroutine100:
   \   00000000   ....               RCALL   ?Subroutine125
   \                     ??CrossCallReturnLabel_322:
   \   00000002   ....               RJMP    ?Subroutine126

   \                                 In  segment CODE, align 2, keep-with-next
   \                     ?Subroutine99:
   \   00000000   ....               LDI     R30, LOW(minimallen)
   \   00000002   ....               LDI     R31, (minimallen) >> 8
   \   00000004   9508               RET

   \                                 In  segment CODE, align 2, keep-with-next
   \                     ?Subroutine30:
   \   00000000   9F84               MUL     R24, R20
   \   00000002                      REQUIRE ??Subroutine143_0
   \   00000002                      ;               // Fall through to label ??Subroutine143_0

   \                                 In  segment CODE, align 2, keep-with-next
   \                     ??Subroutine143_0:
   \   00000000   01F0               MOVW    R31:R30, R1:R0
   \   00000002   ....               SUBI    R30, LOW((-(len) & 0xFFFF))
   \   00000004   ....               SBCI    R31, (-(len) & 0xFFFF) >> 8
   \   00000006   9508               RET

   \                                 In  segment CODE, align 2, keep-with-next
   \                     ?Subroutine23:
   \   00000000   ....               RCALL   ?Subroutine102
   \                     ??CrossCallReturnLabel_178:
   \   00000002   ....               RCALL   ?Subroutine95
   \                     ??CrossCallReturnLabel_157:
   \   00000004   ....               RCALL   ?Subroutine125
   \                     ??CrossCallReturnLabel_316:
   \   00000006   ....               RCALL   ?Subroutine96
   \                     ??CrossCallReturnLabel_160:
   \   00000008   8130               LD      R19, Z
   \   0000000A   E020               LDI     R18, 0
   \   0000000C   0F13               ADD     R17, R19
   \   0000000E   ....               RCALL   ?Subroutine106
   \                     ??CrossCallReturnLabel_189:
   \   00000010   0128               MOVW    R5:R4, R17:R16
   \   00000012   0139               MOVW    R7:R6, R19:R18
   \   00000014   9508               RET

   \                                 In  segment CODE, align 2, keep-with-next
   \                     ?Subroutine96:
   \   00000000   01F0               MOVW    R31:R30, R1:R0
   \   00000002   ....               SUBI    R30, LOW((-(dim2) & 0xFFFF))
   \   00000004   ....               SBCI    R31, (-(dim2) & 0xFFFF) >> 8
   \   00000006   9508               RET

   \                                 In  segment CODE, align 2, keep-with-next
   \                     ?Subroutine95:
   \   00000000   01F0               MOVW    R31:R30, R1:R0
   \   00000002   ....               SUBI    R30, LOW((-(dim1) & 0xFFFF))
   \   00000004   ....               SBCI    R31, (-(dim1) & 0xFFFF) >> 8
   \   00000006   9508               RET

   \                                 In  segment CODE, align 2, keep-with-next
   \                     ?Subroutine21:
   \   00000000   9100....           LDS     R16, ct
   \   00000004   9508               RET

   \                                 In  segment CODE, align 2, keep-with-next
   \                     ?Subroutine31:
   \   00000000   ....               RCALL   ??rprintfStr
   \   00000002   ....               LDI     R30, LOW(cod1)
   \   00000004   ....               LDI     R31, (cod1) >> 8
   \   00000006                      REQUIRE ?Subroutine141
   \   00000006                      REQUIRE ??Subroutine145_0
   \   00000006                      ;               // Fall through to label ??Subroutine145_0

   \                                 In  segment CODE, align 2, keep-with-next
   \                     ??Subroutine145_0:
   \   00000000   ....               RCALL   ?Subroutine100
   \                     ??CrossCallReturnLabel_309:
   \   00000002                      REQUIRE ?Subroutine141
   \   00000002                      ;               // Fall through to label ?Subroutine141

   \                                 In  segment CODE, align 2, keep-with-next
   \                     ?Subroutine141:
   \   00000000   E006               LDI     R16, 6
   \   00000002   ....               RJMP    ??rprintfFloat

   \                                 In  segment CODE, align 2, keep-with-next
   \                     ??Subroutine146_0:
   \   00000000   8300               ST      Z, R16
   \   00000002   9508               RET

   \                                 In  segment CODE, align 2, keep-with-next
   \                     ?Subroutine28:
   \   00000000   ....               RCALL   ?Subroutine97
   \                     ??CrossCallReturnLabel_170:
   \   00000002   8302               STD     Z+2, R16
   \   00000004   8303               STD     Z+3, R16
   \   00000006   9508               RET

   \                                 In  segment CODE, align 2, keep-with-next
   \                     ??Subroutine147_0:
   \   00000000   ....               RCALL   ?Subroutine98
   \                     ??CrossCallReturnLabel_364:
   \   00000002   8322               STD     Z+2, R18
   \   00000004   8333               STD     Z+3, R19
   \   00000006   9508               RET

   \                                 In  segment CODE, align 2, keep-with-next
   \                     ?Subroutine98:
   \   00000000   8300               ST      Z, R16
   \   00000002   8311               STD     Z+1, R17
   \   00000004   9508               RET

   \                                 In  segment CODE, align 2, keep-with-next
   \                     ?Subroutine101:
   \   00000000   8100               LD      R16, Z
   \   00000002   9503               INC     R16
   \   00000004   ....               RJMP    ??Subroutine146_0

   \                                 In  segment CODE, align 2, keep-with-next
   \                     ?Subroutine10:
   \   00000000   E000               LDI     R16, 0
   \   00000002   ....               LDI     R30, LOW(cod1)
   \   00000004   ....               LDI     R31, (cod1) >> 8
   \   00000006   ....               RCALL   ?Subroutine97
   \                     ??CrossCallReturnLabel_168:
   \   00000008   ....               LDI     R30, LOW(cod2)
   \   0000000A   ....               LDI     R31, (cod2) >> 8
   \   0000000C   ....               RCALL   ?Subroutine97
   \                     ??CrossCallReturnLabel_169:
   \   0000000E   ....               LDI     R30, LOW(cod3)
   \   00000010   ....               LDI     R31, (cod3) >> 8
   \   00000012                      REQUIRE ?Subroutine97
   \   00000012                      ;               // Fall through to label ?Subroutine97

   \                                 In  segment CODE, align 2, keep-with-next
   \                     ?Subroutine97:
   \   00000000   8300               ST      Z, R16
   \   00000002   8301               STD     Z+1, R16
   \   00000004   9508               RET

   \                                 In  segment CODE, align 2, keep-with-next
   \                     ?Subroutine125:
   \   00000000   8100               LD      R16, Z
   \   00000002   8111               LDD     R17, Z+1
   \   00000004   9508               RET

   \                                 In  segment CODE, align 2, keep-with-next
   \                     ?Subroutine19:
   \   00000000   ....               RCALL   ?Subroutine94
   \                     ??CrossCallReturnLabel_327:
   \   00000002   ....               RJMP    ?Subroutine141

   \                                 In  segment CODE, align 2, keep-with-next
   \                     ?Subroutine94:
   \   00000000   E010               LDI     R17, 0
   \   00000002                      REQUIRE ?Subroutine126
   \   00000002                      ;               // Fall through to label ?Subroutine126

   \                                 In  segment CODE, align 2, keep-with-next
   \                     ?Subroutine126:
   \   00000000   E020               LDI     R18, 0
   \   00000002   E030               LDI     R19, 0
   \   00000004   ....               RCALL   ?UL2F_L04
   \   00000006                      REQUIRE ?Subroutine129
   \   00000006                      ;               // Fall through to label ?Subroutine129

   \                                 In  segment CODE, align 2, keep-with-next
   \                     ?Subroutine129:
   \   00000000   01A8               MOVW    R21:R20, R17:R16
   \   00000002   01B9               MOVW    R23:R22, R19:R18
   \   00000004   9508               RET

   \                                 In  segment CODE, align 2, keep-with-next
   \                     ?Subroutine102:
   \   00000000   E002               LDI     R16, 2
   \   00000002   9F80               MUL     R24, R16
   \   00000004   9508               RET

   \                                 In  segment CODE, align 2, keep-with-next
   \                     ?Subroutine49:
   \   00000000   ....               RCALL   ??rprintfStr
   \   00000002                      REQUIRE ??Subroutine155_0
   \   00000002                      ;               // Fall through to label ??Subroutine155_0

   \                                 In  segment CODE, align 2, keep-with-next
   \                     ??Subroutine155_0:
   \   00000000   ....               LDI     R30, LOW(cod3)
   \   00000002   ....               LDI     R31, (cod3) >> 8
   \   00000004   9508               RET

   \                                 In  segment CODE, align 2, keep-with-next
   \                     ?Subroutine42:
   \   00000000   ....               RCALL   ??rprintfStr
   \   00000002                      REQUIRE ??Subroutine156_0
   \   00000002                      ;               // Fall through to label ??Subroutine156_0

   \                                 In  segment CODE, align 2, keep-with-next
   \                     ??Subroutine156_0:
   \   00000000   ....               LDI     R30, LOW(cod2)
   \   00000002   ....               LDI     R31, (cod2) >> 8
   \   00000004   9508               RET

   \                                 In  segment CODE, align 2, keep-with-next
   \                     ?Subroutine128:
   \   00000000   E00D               LDI     R16, 13
   \   00000002   ....               RJMP    ??USART_SendChar

   \                                 In  segment CODE, align 2, keep-with-next
   \                     ?Subroutine55:
   \   00000000   ....               RCALL   ?Subroutine111
   \                     ??CrossCallReturnLabel_208:
   \   00000002   E060               LDI     R22, 0
   \   00000004   E070               LDI     R23, 0
   \   00000006   9508               RET

   \                                 In  segment CODE, align 2, keep-with-next
   \                     ?Subroutine111:
   \   00000000   E040               LDI     R20, 0
   \   00000002   E050               LDI     R21, 0
   \   00000004   9508               RET

   \                                 In  segment CODE, align 2, keep-with-next
   \                     ?Subroutine106:
   \   00000000   E030               LDI     R19, 0
   \   00000002   ....               RJMP    ?UL2F_L04

   \                                 In  segment NEAR_Z, align 1, keep-with-next
   \   00000000                      REQUIRE `?<Segment init: NEAR_Z>`
   \   bool du_main(unsigned char)::state
   \                     ??state:
   \   00000000                      DS8 1

   \                                 In  segment NEAR_Z, align 1, keep-with-next
   \   00000000                      REQUIRE `?<Segment init: NEAR_Z>`
   \   bool du_main(unsigned char)::state2
   \                     ??state2:
   \   00000000                      DS8 1

   \                                 In  segment CODE, align 2, keep-with-next
   \   __version_3 void coding(unsigned int, unsigned char)
   \                     ??coding:
   \   00000000   ....               RCALL   ?PROLOGUE10_L09
   \   00000002                      REQUIRE ?Register_R4_is_cg_reg
   \   00000002                      REQUIRE ?Register_R5_is_cg_reg
   \   00000002                      REQUIRE ?Register_R6_is_cg_reg
   \   00000002                      REQUIRE ?Register_R8_is_cg_reg
   \   00000002                      REQUIRE ?Register_R9_is_cg_reg
   \   00000002   01C8               MOVW    R25:R24, R17:R16
   \   00000004   2E62               MOV     R6, R18
   \   00000006   ....               RCALL   ?Subroutine108
   \                     ??CrossCallReturnLabel_196:
   \   00000008   ....               LDI     R26, LOW(len)
   \   0000000A   ....               LDI     R27, (len) >> 8
   \   0000000C   0FA0               ADD     R26, R16
   \   0000000E   1FB1               ADC     R27, R17
   \   00000010   900D               LD      R0, X+
   \   00000012   901D               LD      R1, X+
   \   00000014   902D               LD      R2, X+
   \   00000016   903C               LD      R3, X
   \   00000018   9713               SBIW    R27:R26, 3
   \   0000001A   3082               CPI     R24, 2
   \   0000001C   E000               LDI     R16, 0
   \   0000001E   0790               CPC     R25, R16
   \   00000020   F408               BRCC    $+2+2
   \   00000022   C0F0               RJMP    ??CrossCallReturnLabel_200
   \   00000024   012C               MOVW    R5:R4, R25:R24
   \   00000026   0C44               LSL     R4
   \   00000028   1C55               ROL     R5
   \   0000002A   9100....           LDS     R16, ind
   \   0000002E   3003               CPI     R16, 3
   \   00000030   F009               BREQ    $+2+2
   \   00000032   C040               RJMP    ??coding_1
   \   00000034   9140....           LDS     R20, c3
   \   00000038   ....               RCALL   ?Subroutine1
   \                     ??CrossCallReturnLabel_2:
   \   0000003A   F4B0               BRCC    ??coding_2
   \   0000003C   ....               RCALL   ??Subroutine155_0
   \                     ??CrossCallReturnLabel_410:
   \   0000003E   ....               RCALL   ?Subroutine27
   \                     ??CrossCallReturnLabel_367:
   \   00000040   ....               RCALL   ?Subroutine57
   \                     ??CrossCallReturnLabel_75:
   \   00000042   F410               BRCC    ??coding_3
   \   00000044   ....               RCALL   ?Subroutine60
   \                     ??CrossCallReturnLabel_81:
   \   00000046   F058               BRCS    ??coding_4
   \                     ??coding_3:
   \   00000048   ....               RCALL   ?Subroutine61
   \                     ??CrossCallReturnLabel_84:
   \   0000004A   F4A8               BRCC    ??coding_5
   \   0000004C   ....               RCALL   ?Subroutine62
   \                     ??CrossCallReturnLabel_87:
   \   0000004E   F498               BRCC    ??coding_5
   \   00000050   ....               RCALL   ??Subroutine155_0
   \                     ??CrossCallReturnLabel_411:
   \   00000052   ....               RCALL   ?Subroutine32
   \                     ??CrossCallReturnLabel_34:
   \   00000054   ....               RCALL   ?Subroutine98
   \                     ??CrossCallReturnLabel_353:
   \   00000056   ....               RCALL   ?Subroutine41
   \                     ??CrossCallReturnLabel_306:
   \   00000058   8300               ST      Z, R16
   \   0000005A   300F               CPI     R16, 15
   \   0000005C   F4B0               BRCC    ??coding_6
   \                     ??coding_4:
   \   0000005E   ....               RCALL   ?Subroutine48
   \                     ??CrossCallReturnLabel_204:
   \   00000060   9140....           LDS     R20, c3
   \   00000064   ....               RCALL   ?Subroutine2
   \                     ??CrossCallReturnLabel_5:
   \   00000066   C005               RJMP    ??CrossCallReturnLabel_354
   \                     ??coding_2:
   \   00000068   ....               RCALL   ?Subroutine58
   \                     ??CrossCallReturnLabel_78:
   \   0000006A   F750               BRCC    ??CrossCallReturnLabel_367
   \   0000006C   ....               RCALL   ??Subroutine155_0
   \                     ??CrossCallReturnLabel_412:
   \   0000006E   ....               RCALL   ?Subroutine103
   \                     ??CrossCallReturnLabel_179:
   \   00000070   ....               RCALL   ?Subroutine98
   \                     ??CrossCallReturnLabel_354:
   \   00000072   ....               RCALL   ?Subroutine41
   \                     ??CrossCallReturnLabel_307:
   \   00000074   C009               RJMP    ??coding_7
   \                     ??coding_5:
   \   00000076   ....               RCALL   ?Subroutine52
   \                     ??CrossCallReturnLabel_63:
   \   00000078   F440               BRCC    ??coding_6
   \   0000007A   ....               RCALL   ?Subroutine53
   \                     ??CrossCallReturnLabel_66:
   \   0000007C   F430               BRCC    ??coding_6
   \   0000007E   ....               LDI     R30, LOW(c3)
   \   00000080   ....               LDI     R31, (c3) >> 8
   \   00000082   ....               RCALL   ?Subroutine34
   \                     ??CrossCallReturnLabel_37:
   \   00000084   F410               BRCC    ??coding_6
   \   00000086   9503               INC     R16
   \                     ??coding_7:
   \   00000088   8300               ST      Z, R16
   \                     ??coding_6:
   \   0000008A   9100....           LDS     R16, c3
   \   0000008E   3100               CPI     R16, 16
   \   00000090   F408               BRCC    $+2+2
   \   00000092   C07F               RJMP    ??coding_8
   \   00000094   E001               LDI     R16, 1
   \   00000096   9300....           STS     ind, R16
   \   0000009A   ....               RCALL   ?Subroutine43
   \                     ??CrossCallReturnLabel_43:
   \   0000009C   ....               RCALL   ?Subroutine38
   \                     ??CrossCallReturnLabel_197:
   \   0000009E   ....               RCALL   ?Subroutine98
   \                     ??CrossCallReturnLabel_355:
   \   000000A0   ....               RCALL   ??Subroutine156_0
   \                     ??CrossCallReturnLabel_416:
   \   000000A2   ....               RCALL   ?Subroutine38
   \                     ??CrossCallReturnLabel_198:
   \   000000A4   ....               RCALL   ?Subroutine98
   \                     ??CrossCallReturnLabel_356:
   \   000000A6   9350....           STS     c1, R21
   \   000000AA   9350....           STS     c2, R21
   \   000000AE   9350....           STS     c3, R21
   \   000000B2   C039               RJMP    ??coding_9
   \                     ??coding_1:
   \   000000B4   3002               CPI     R16, 2
   \   000000B6   F5A9               BRNE    ??coding_10
   \   000000B8   9140....           LDS     R20, c2
   \   000000BC   ....               RCALL   ?Subroutine1
   \                     ??CrossCallReturnLabel_3:
   \   000000BE   F4C0               BRCC    ??coding_11
   \   000000C0   ....               RCALL   ??Subroutine156_0
   \                     ??CrossCallReturnLabel_417:
   \   000000C2   ....               RCALL   ?Subroutine27
   \                     ??CrossCallReturnLabel_368:
   \   000000C4   ....               RCALL   ?Subroutine57
   \                     ??CrossCallReturnLabel_76:
   \   000000C6   F410               BRCC    ??coding_12
   \   000000C8   ....               RCALL   ?Subroutine60
   \                     ??CrossCallReturnLabel_82:
   \   000000CA   F048               BRCS    ??coding_13
   \                     ??coding_12:
   \   000000CC   ....               RCALL   ?Subroutine61
   \                     ??CrossCallReturnLabel_85:
   \   000000CE   F4C8               BRCC    ??coding_14
   \   000000D0   ....               RCALL   ?Subroutine62
   \                     ??CrossCallReturnLabel_88:
   \   000000D2   F4B8               BRCC    ??coding_14
   \   000000D4   ....               RCALL   ??Subroutine156_0
   \                     ??CrossCallReturnLabel_418:
   \   000000D6   ....               RCALL   ?Subroutine32
   \                     ??CrossCallReturnLabel_35:
   \   000000D8   ....               RCALL   ?Subroutine25
   \                     ??CrossCallReturnLabel_336:
   \   000000DA   300F               CPI     R16, 15
   \   000000DC   F4E0               BRCC    ??coding_15
   \                     ??coding_13:
   \   000000DE   ....               RCALL   ??Subroutine156_0
   \                     ??CrossCallReturnLabel_419:
   \   000000E0   ....               RCALL   ?Subroutine110
   \                     ??CrossCallReturnLabel_201:
   \   000000E2   9140....           LDS     R20, c2
   \   000000E6   ....               RCALL   ?Subroutine2
   \                     ??CrossCallReturnLabel_6:
   \   000000E8   ....               LDI     R30, LOW(c2)
   \   000000EA   ....               LDI     R31, (c2) >> 8
   \   000000EC   ....               RCALL   ??Subroutine144_0
   \                     ??CrossCallReturnLabel_304:
   \   000000EE   C012               RJMP    ??coding_16
   \                     ??coding_11:
   \   000000F0   ....               RCALL   ?Subroutine58
   \                     ??CrossCallReturnLabel_79:
   \   000000F2   F740               BRCC    ??CrossCallReturnLabel_368
   \   000000F4   ....               RCALL   ??Subroutine156_0
   \                     ??CrossCallReturnLabel_420:
   \   000000F6   ....               RCALL   ?Subroutine103
   \                     ??CrossCallReturnLabel_180:
   \   000000F8   ....               RCALL   ?Subroutine25
   \                     ??CrossCallReturnLabel_337:
   \   000000FA   ....               RCALL   ??Subroutine156_0
   \                     ??CrossCallReturnLabel_421:
   \   000000FC   8100               LD      R16, Z
   \   000000FE   ....               RCALL   ??Subroutine148_0
   \                     ??CrossCallReturnLabel_365:
   \   00000100   C00A               RJMP    ??coding_15
   \                     ??coding_14:
   \   00000102   ....               RCALL   ?Subroutine52
   \                     ??CrossCallReturnLabel_64:
   \   00000104   F440               BRCC    ??coding_15
   \   00000106   ....               RCALL   ?Subroutine53
   \                     ??CrossCallReturnLabel_67:
   \   00000108   F430               BRCC    ??coding_15
   \   0000010A   ....               LDI     R30, LOW(c2)
   \   0000010C   ....               LDI     R31, (c2) >> 8
   \   0000010E   ....               RCALL   ?Subroutine34
   \                     ??CrossCallReturnLabel_38:
   \   00000110   F410               BRCC    ??coding_15
   \   00000112   9503               INC     R16
   \                     ??coding_16:
   \   00000114   8300               ST      Z, R16
   \                     ??coding_15:
   \   00000116   9100....           LDS     R16, c2
   \   0000011A   3100               CPI     R16, 16
   \   0000011C   F1D0               BRCS    ??coding_8
   \   0000011E   E003               LDI     R16, 3
   \   00000120   C036               RJMP    ??coding_17
   \                     ??coding_10:
   \   00000122   3001               CPI     R16, 1
   \   00000124   F5B1               BRNE    ??coding_8
   \                     ??coding_9:
   \   00000126   9140....           LDS     R20, c1
   \   0000012A   ....               RCALL   ?Subroutine1
   \                     ??CrossCallReturnLabel_4:
   \   0000012C   F4C0               BRCC    ??coding_18
   \   0000012E   ....               RCALL   ?Subroutine43
   \                     ??CrossCallReturnLabel_44:
   \   00000130   ....               RCALL   ?Subroutine27
   \                     ??CrossCallReturnLabel_369:
   \   00000132   ....               RCALL   ?Subroutine57
   \                     ??CrossCallReturnLabel_77:
   \   00000134   F410               BRCC    ??coding_19
   \   00000136   ....               RCALL   ?Subroutine60
   \                     ??CrossCallReturnLabel_83:
   \   00000138   F048               BRCS    ??coding_20
   \                     ??coding_19:
   \   0000013A   ....               RCALL   ?Subroutine61
   \                     ??CrossCallReturnLabel_86:
   \   0000013C   F4C8               BRCC    ??coding_21
   \   0000013E   ....               RCALL   ?Subroutine62
   \                     ??CrossCallReturnLabel_89:
   \   00000140   F4B8               BRCC    ??coding_21
   \   00000142   ....               RCALL   ?Subroutine43
   \                     ??CrossCallReturnLabel_45:
   \   00000144   ....               RCALL   ?Subroutine32
   \                     ??CrossCallReturnLabel_36:
   \   00000146   ....               RCALL   ?Subroutine26
   \                     ??CrossCallReturnLabel_338:
   \   00000148   300F               CPI     R16, 15
   \   0000014A   F4E0               BRCC    ??coding_22
   \                     ??coding_20:
   \   0000014C   ....               RCALL   ?Subroutine43
   \                     ??CrossCallReturnLabel_46:
   \   0000014E   ....               RCALL   ?Subroutine110
   \                     ??CrossCallReturnLabel_202:
   \   00000150   9140....           LDS     R20, c1
   \   00000154   ....               RCALL   ?Subroutine2
   \                     ??CrossCallReturnLabel_7:
   \   00000156   ....               LDI     R30, LOW(c1)
   \   00000158   ....               LDI     R31, (c1) >> 8
   \   0000015A   ....               RCALL   ??Subroutine144_0
   \                     ??CrossCallReturnLabel_305:
   \   0000015C   C012               RJMP    ??coding_23
   \                     ??coding_18:
   \   0000015E   ....               RCALL   ?Subroutine58
   \                     ??CrossCallReturnLabel_80:
   \   00000160   F740               BRCC    ??CrossCallReturnLabel_369
   \   00000162   ....               RCALL   ?Subroutine43
   \                     ??CrossCallReturnLabel_47:
   \   00000164   ....               RCALL   ?Subroutine103
   \                     ??CrossCallReturnLabel_181:
   \   00000166   ....               RCALL   ?Subroutine26
   \                     ??CrossCallReturnLabel_339:
   \   00000168   ....               RCALL   ?Subroutine43
   \                     ??CrossCallReturnLabel_48:
   \   0000016A   8100               LD      R16, Z
   \   0000016C   ....               RCALL   ??Subroutine148_0
   \                     ??CrossCallReturnLabel_366:
   \   0000016E   C00A               RJMP    ??coding_22
   \                     ??coding_21:
   \   00000170   ....               RCALL   ?Subroutine52
   \                     ??CrossCallReturnLabel_65:
   \   00000172   F440               BRCC    ??coding_22
   \   00000174   ....               RCALL   ?Subroutine53
   \                     ??CrossCallReturnLabel_68:
   \   00000176   F430               BRCC    ??coding_22
   \   00000178   ....               LDI     R30, LOW(c1)
   \   0000017A   ....               LDI     R31, (c1) >> 8
   \   0000017C   ....               RCALL   ?Subroutine34
   \                     ??CrossCallReturnLabel_39:
   \   0000017E   F410               BRCC    ??coding_22
   \   00000180   9503               INC     R16
   \                     ??coding_23:
   \   00000182   8300               ST      Z, R16
   \                     ??coding_22:
   \   00000184   9100....           LDS     R16, c1
   \   00000188   3100               CPI     R16, 16
   \   0000018A   F018               BRCS    ??coding_8
   \   0000018C   E002               LDI     R16, 2
   \                     ??coding_17:
   \   0000018E   9300....           STS     ind, R16
   \                     ??coding_8:
   \   00000192   E001               LDI     R16, 1
   \   00000194   9300....           STS     cod_ok, R16
   \   00000198   2066               TST     R6
   \   0000019A   F5A1               BRNE    ??CrossCallReturnLabel_200
   \   0000019C   018C               MOVW    R17:R16, R25:R24
   \   0000019E   E020               LDI     R18, 0
   \   000001A0   ....               RCALL   ?Subroutine50
   \                     ??CrossCallReturnLabel_59:
   \   000001A2   E002               LDI     R16, 2
   \   000001A4   ....               RCALL   ??rprintfFloat
   \   000001A6   ....               LDI     R16, LOW(`?<Constant "  / abslen= ">`)
   \   000001A8   ....               LDI     R17, (`?<Constant "  / abslen= ">`) >> 8
   \   000001AA   ....               RCALL   ??rprintfStr
   \   000001AC   0F88               LSL     R24
   \   000001AE   1F99               ROL     R25
   \   000001B0   01FC               MOVW    R31:R30, R25:R24
   \   000001B2   ....               SUBI    R30, LOW((-(dim1) & 0xFFFF))
   \   000001B4   ....               SBCI    R31, (-(dim1) & 0xFFFF) >> 8
   \   000001B6   ....               RCALL   ?Subroutine125
   \                     ??CrossCallReturnLabel_310:
   \   000001B8   01FC               MOVW    R31:R30, R25:R24
   \   000001BA   ....               SUBI    R30, LOW((-(dim2) & 0xFFFF))
   \   000001BC   ....               SBCI    R31, (-(dim2) & 0xFFFF) >> 8
   \   000001BE   8130               LD      R19, Z
   \   000001C0   E020               LDI     R18, 0
   \   000001C2   0F13               ADD     R17, R19
   \   000001C4   ....               RCALL   ?Subroutine50
   \                     ??CrossCallReturnLabel_60:
   \   000001C6   E009               LDI     R16, 9
   \   000001C8   ....               RCALL   ??rprintfFloat
   \   000001CA   ....               LDI     R16, LOW(`?<Constant "  / len= ">`)
   \   000001CC   ....               LDI     R17, (`?<Constant "  / len= ">`) >> 8
   \   000001CE   ....               RCALL   ??rprintfStr
   \   000001D0   914D               LD      R20, X+
   \   000001D2   915D               LD      R21, X+
   \   000001D4   916D               LD      R22, X+
   \   000001D6   917C               LD      R23, X
   \   000001D8   E004               LDI     R16, 4
   \   000001DA   ....               RCALL   ??rprintfFloat
   \   000001DC   ....               LDI     R16, LOW(`?<Constant "  ">`)
   \   000001DE   ....               LDI     R17, (`?<Constant "  ">`) >> 8
   \   000001E0   ....               RCALL   ??rprintfStr
   \   000001E2   ....               LDI     R16, LOW(`?<Constant "  / cod1= ">`)
   \   000001E4   ....               LDI     R17, (`?<Constant "  / cod1= ">`) >> 8
   \   000001E6   ....               RCALL   ?Subroutine31
   \                     ??CrossCallReturnLabel_334:
   \   000001E8   ....               LDI     R16, LOW(`?<Constant " / cod2= ">`)
   \   000001EA   ....               LDI     R17, (`?<Constant " / cod2= ">`) >> 8
   \   000001EC   ....               RCALL   ?Subroutine42
   \                     ??CrossCallReturnLabel_415:
   \   000001EE   ....               RCALL   ??Subroutine145_0
   \                     ??CrossCallReturnLabel_331:
   \   000001F0   ....               LDI     R16, LOW(`?<Constant " / cod3= ">`)
   \   000001F2   ....               LDI     R17, (`?<Constant " / cod3= ">`) >> 8
   \   000001F4   ....               RCALL   ?Subroutine49
   \                     ??CrossCallReturnLabel_409:
   \   000001F6   ....               RCALL   ??Subroutine145_0
   \                     ??CrossCallReturnLabel_330:
   \   000001F8   ....               LDI     R16, LOW(`?<Constant "/ minlen=">`)
   \   000001FA   ....               LDI     R17, (`?<Constant "/ minlen=">`) >> 8
   \   000001FC   ....               RCALL   ??rprintfStr
   \   000001FE   ....               RCALL   ?Subroutine99
   \                     ??CrossCallReturnLabel_173:
   \   00000200   ....               RCALL   ?Subroutine125
   \                     ??CrossCallReturnLabel_311:
   \   00000202   ....               RCALL   ?Subroutine44
   \                     ??CrossCallReturnLabel_200:
   \   00000204   E0EA               LDI     R30, 10
   \   00000206   ....               RJMP    ?EPILOGUE_B10_L09

   \                                 In  segment CODE, align 2, keep-with-next
   \                     ?Subroutine62:
   \   00000000   EA60               LDI     R22, 160
   \   00000002   ....               RJMP    ?F_CMP_LT_L04

   \                                 In  segment CODE, align 2, keep-with-next
   \                     ?Subroutine61:
   \   00000000   E460               LDI     R22, 64
   \   00000002   ....               RJMP    ?F_CMP_GE_L04

   \                                 In  segment CODE, align 2, keep-with-next
   \                     ?Subroutine60:
   \   00000000   E460               LDI     R22, 64
   \   00000002   ....               RJMP    ?F_CMP_LT_L04

   \                                 In  segment CODE, align 2, keep-with-next
   \                     ?Subroutine58:
   \   00000000   E060               LDI     R22, 0
   \   00000002   E470               LDI     R23, 64
   \   00000004   ....               RJMP    ?F_CMP_LT_L04

   \                                 In  segment CODE, align 2, keep-with-next
   \                     ?Subroutine57:
   \   00000000   E060               LDI     R22, 0
   \   00000002   E470               LDI     R23, 64
   \   00000004   0180               MOVW    R17:R16, R1:R0
   \   00000006   ....               RJMP    ?F_CMP_GE_L04

   \                                 In  segment CODE, align 2, keep-with-next
   \                     ?Subroutine53:
   \   00000000   E040               LDI     R20, 0
   \   00000002   EE60               LDI     R22, 224
   \   00000004   ....               RJMP    ?F_CMP_LT_L04

   \                                 In  segment CODE, align 2, keep-with-next
   \                     ?Subroutine52:
   \   00000000   E041               LDI     R20, 1
   \   00000002   EA60               LDI     R22, 160
   \   00000004   ....               RJMP    ?F_CMP_GE_L04

   \                                 In  segment CODE, align 2, keep-with-next
   \                     ?Subroutine50:
   \   00000000   ....               RCALL   ?Subroutine106
   \                     ??CrossCallReturnLabel_190:
   \   00000002   ....               RJMP    ?Subroutine129

   \                                 In  segment CODE, align 2, keep-with-next
   \                     ?Subroutine41:
   \   00000000   ....               LDI     R30, LOW(c3)
   \   00000002   ....               LDI     R31, (c3) >> 8
   \   00000004                      REQUIRE ??Subroutine144_0
   \   00000004                      ;               // Fall through to label ??Subroutine144_0

   \                                 In  segment CODE, align 2, keep-with-next
   \                     ??Subroutine144_0:
   \   00000000   8100               LD      R16, Z
   \   00000002   5F0E               SUBI    R16, 254
   \   00000004   9508               RET

   \                                 In  segment CODE, align 2, keep-with-next
   \                     ?Subroutine38:
   \   00000000   ....               RCALL   ?Subroutine125
   \                     ??CrossCallReturnLabel_319:
   \   00000002                      REQUIRE ?Subroutine108
   \   00000002                      ;               // Fall through to label ?Subroutine108

   \                                 In  segment CODE, align 2, keep-with-next
   \                     ?Subroutine108:
   \   00000000   0F00               LSL     R16
   \   00000002   1F11               ROL     R17
   \   00000004   0F00               LSL     R16
   \   00000006   1F11               ROL     R17
   \   00000008   9508               RET

   \                                 In  segment CODE, align 2, keep-with-next
   \                     ?Subroutine103:
   \   00000000   ....               RCALL   ?Subroutine125
   \                     ??CrossCallReturnLabel_320:
   \   00000002   2908               OR      R16, R8
   \   00000004   2919               OR      R17, R9
   \   00000006   9508               RET

   \                                 In  segment CODE, align 2, keep-with-next
   \                     ?Subroutine34:
   \   00000000   ....               RCALL   ?Subroutine101
   \                     ??CrossCallReturnLabel_344:
   \   00000002   3100               CPI     R16, 16
   \   00000004   9508               RET

   \                                 In  segment CODE, align 2, keep-with-next
   \                     ?Subroutine32:
   \   00000000   ....               RCALL   ?Subroutine103
   \                     ??CrossCallReturnLabel_182:
   \   00000002   0D04               ADD     R16, R4
   \   00000004   1D15               ADC     R17, R5
   \   00000006   9508               RET

   \                                 In  segment CODE, align 2, keep-with-next
   \                     ?Subroutine26:
   \   00000000   ....               RCALL   ?Subroutine98
   \                     ??CrossCallReturnLabel_363:
   \   00000002   ....               LDI     R30, LOW(c1)
   \   00000004   ....               LDI     R31, (c1) >> 8
   \   00000006                      REQUIRE ?Subroutine130
   \   00000006                      ;               // Fall through to label ?Subroutine130

   \                                 In  segment CODE, align 2, keep-with-next
   \                     ?Subroutine130:
   \   00000000   8100               LD      R16, Z
   \   00000002   5F0E               SUBI    R16, 254
   \   00000004                      REQUIRE ??Subroutine146_0
   \   00000004                      ;               // Fall through to label ??Subroutine146_0

   \                                 In  segment CODE, align 2, keep-with-next
   \                     ?Subroutine25:
   \   00000000   ....               RCALL   ?Subroutine98
   \                     ??CrossCallReturnLabel_362:
   \   00000002   ....               LDI     R30, LOW(c2)
   \   00000004   ....               LDI     R31, (c2) >> 8
   \   00000006   ....               RJMP    ?Subroutine130

   \                                 In  segment CODE, align 2, keep-with-next
   \                     ?Subroutine2:
   \   00000000   ....               RCALL   ?Subroutine93
   \                     ??CrossCallReturnLabel_151:
   \   00000002   2B20               OR      R18, R16
   \   00000004   2B31               OR      R19, R17
   \   00000006   0F28               ADD     R18, R24
   \   00000008   1F39               ADC     R19, R25
   \   0000000A   8320               ST      Z, R18
   \   0000000C   8331               STD     Z+1, R19
   \   0000000E   9508               RET

   \                                 In  segment CODE, align 2, keep-with-next
   \                     ?Subroutine1:
   \   00000000   ....               RCALL   ?Subroutine93
   \                     ??CrossCallReturnLabel_150:
   \   00000002   0148               MOVW    R9:R8, R17:R16
   \   00000004   ....               RCALL   ?Subroutine111
   \                     ??CrossCallReturnLabel_206:
   \   00000006   EC60               LDI     R22, 192
   \   00000008   E37F               LDI     R23, 63
   \   0000000A   0180               MOVW    R17:R16, R1:R0
   \   0000000C   0191               MOVW    R19:R18, R3:R2
   \   0000000E   ....               RJMP    ?F_CMP_LT_L04

   \                                 In  segment CODE, align 2, keep-with-next
   \                     ?Subroutine27:
   \   00000000   ....               RCALL   ?Subroutine125
   \                     ??CrossCallReturnLabel_317:
   \   00000002                      REQUIRE ?Subroutine98
   \   00000002                      REQUIRE ??Subroutine148_0
   \   00000002                      ;               // Fall through to label ??Subroutine148_0

   \                                 In  segment CODE, align 2, keep-with-next
   \                     ??Subroutine148_0:
   \   00000000   0F08               ADD     R16, R24
   \   00000002   1F19               ADC     R17, R25
   \   00000004                      REQUIRE ?Subroutine98
   \   00000004                      ;               // Fall through to label ?Subroutine98

   \                                 In  segment CODE, align 2, keep-with-next
   \                     ?Subroutine93:
   \   00000000   E001               LDI     R16, 1
   \   00000002   E010               LDI     R17, 0
   \   00000004   ....               RJMP    ?S_SHL_L02

   \                                 In  segment CODE, align 2, keep-with-next
   \                     ?Subroutine43:
   \   00000000   ....               LDI     R30, LOW(cod1)
   \   00000002   ....               LDI     R31, (cod1) >> 8
   \   00000004   9508               RET

   \                                 In  segment CODE, align 2, keep-with-next
   \                     ?Subroutine48:
   \   00000000   ....               LDI     R30, LOW(cod3)
   \   00000002   ....               LDI     R31, (cod3) >> 8
   \   00000004                      REQUIRE ?Subroutine110
   \   00000004                      ;               // Fall through to label ?Subroutine110

   \                                 In  segment CODE, align 2, keep-with-next
   \                     ?Subroutine110:
   \   00000000   8120               LD      R18, Z
   \   00000002   8131               LDD     R19, Z+1
   \   00000004   9508               RET

   \                                 In  segment CODE, align 2, keep-with-next
   \                     ?Subroutine44:
   \   00000000   ....               RCALL   ?Subroutine126
   \                     ??CrossCallReturnLabel_325:
   \   00000002                      REQUIRE ?Subroutine109
   \   00000002                      ;               // Fall through to label ?Subroutine109

   \                                 In  segment CODE, align 2, keep-with-next
   \                     ?Subroutine109:
   \   00000000   E009               LDI     R16, 9
   \   00000002   ....               RCALL   ??rprintfFloat
   \   00000004   ....               RJMP    ?Subroutine128

   \                                 In  segment CODE, align 2, keep-with-next
   \   __version_3 __interrupt void funTIMER1_OVF_vect()
   \                     ??funTIMER1_OVF_vect:
   \   00000000   930A               ST      -Y, R16
   \   00000002   E001               LDI     R16, 1
   \   00000004   9300....           STS     perepoln, R16
   \   00000008                      REQUIRE ?Subroutine140
   \   00000008                      ;               // Fall through to label ?Subroutine140

   \                                 In  segment CODE, align 2, keep-with-next
   \                     ?Subroutine140:
   \   00000000   9109               LD      R16, Y+
   \   00000002   9518               RETI
     31          #include "SoftTimers.h" 

   \                                 In  segment NEAR_Z, align 1, keep-with-next
   \   00000000                      REQUIRE `?<Segment init: NEAR_Z>`
   \   unsigned long T1
   \                     T1:
   \   00000000                      DS8 4

   \                                 In  segment NEAR_Z, align 1, keep-with-next
   \   00000000                      REQUIRE `?<Segment init: NEAR_Z>`
   \   unsigned long T2
   \                     T2:
   \   00000000                      DS8 4

   \                                 In  segment NEAR_Z, align 1, keep-with-next
   \   00000000                      REQUIRE `?<Segment init: NEAR_Z>`
   \   unsigned long T3
   \                     T3:
   \   00000000                      DS8 4

   \                                 In  segment NEAR_Z, align 1, keep-with-next
   \   00000000                      REQUIRE `?<Segment init: NEAR_Z>`
   \   bool T1out
   \                     T1out:
   \   00000000                      DS8 1

   \                                 In  segment NEAR_Z, align 1, keep-with-next
   \   00000000                      REQUIRE `?<Segment init: NEAR_Z>`
   \   bool T2out
   \                     T2out:
   \   00000000                      DS8 1

   \                                 In  segment NEAR_Z, align 1, keep-with-next
   \   00000000                      REQUIRE `?<Segment init: NEAR_Z>`
   \   bool T3out
   \                     T3out:
   \   00000000                      DS8 1

   \                                 In  segment NEAR_Z, align 1, keep-with-next
   \   00000000                      REQUIRE `?<Segment init: NEAR_Z>`
   \   unsigned long T1max
   \                     T1max:
   \   00000000                      DS8 4

   \                                 In  segment NEAR_Z, align 1, keep-with-next
   \   00000000                      REQUIRE `?<Segment init: NEAR_Z>`
   \   unsigned long T2max
   \                     T2max:
   \   00000000                      DS8 4

   \                                 In  segment NEAR_Z, align 1, keep-with-next
   \   00000000                      REQUIRE `?<Segment init: NEAR_Z>`
   \   unsigned long T3max
   \                     T3max:
   \   00000000                      DS8 4

   \                                 In  segment NEAR_Z, align 1, keep-with-next
   \   00000000                      REQUIRE `?<Segment init: NEAR_Z>`
   \   unsigned int T1x
   \                     T1x:
   \   00000000                      DS8 2

   \                                 In  segment NEAR_Z, align 1, keep-with-next
   \   00000000                      REQUIRE `?<Segment init: NEAR_Z>`
   \   unsigned int T2x
   \                     T2x:
   \   00000000                      DS8 2

   \                                 In  segment NEAR_Z, align 1, keep-with-next
   \   00000000                      REQUIRE `?<Segment init: NEAR_Z>`
   \   unsigned int T3x
   \                     T3x:
   \   00000000                      DS8 2

   \                                 In  segment NEAR_I, align 1, keep-with-next
   \   00000000                      REQUIRE `?<Segment init: NEAR_I>`
   \   unsigned long Calibr
   \                     Calibr:
   \   00000000                      DS8 4
   \   00000004                      REQUIRE `?<Initializer for Calibr>`

   \                                 In  segment NEAR_Z, align 1, keep-with-next
   \   00000000                      REQUIRE `?<Segment init: NEAR_Z>`
   \   static unsigned char raz
   \                     ??raz:
   \   00000000                      DS8 1

   \                                 In  segment NEAR_I, align 1, keep-with-next
   \   00000000                      REQUIRE `?<Segment init: NEAR_I>`
   \   static unsigned char port
   \                     ??port:
   \   00000000                      DS8 1
   \   00000001                      REQUIRE `?<Initializer for port>`

   \                                 In  segment NEAR_Z, align 1, keep-with-next
   \   00000000                      REQUIRE `?<Segment init: NEAR_Z>`
   \   static unsigned char razct
   \                     ??razct:
   \   00000000                      DS8 1

   \                                 In  segment CODE, align 2, keep-with-next
   \   __version_3 void ResetT1()
   \                     ??ResetT1:
   \   00000000   E000               LDI     R16, 0
   \   00000002   ....               LDI     R30, LOW(T1)
   \   00000004   ....               LDI     R31, (T1) >> 8
   \   00000006   ....               RCALL   ?Subroutine28
   \                     ??CrossCallReturnLabel_32:
   \   00000008   ....               LDI     R30, LOW(T1x)
   \   0000000A   ....               LDI     R31, (T1x) >> 8
   \   0000000C   ....               RCALL   ?Subroutine97
   \                     ??CrossCallReturnLabel_164:
   \   0000000E   9300....           STS     T1out, R16
   \   00000012   9508               RET

   \                                 In  segment CODE, align 2, keep-with-next
   \   __version_3 void iniT1(unsigned long)
   \                     ??iniT1:
   \   00000000   ....               LDI     R30, LOW(T1max)
   \   00000002   ....               LDI     R31, (T1max) >> 8
   \   00000004   ....               RCALL   ??Subroutine147_0
   \                     ??CrossCallReturnLabel_346:
   \   00000006   ....               RJMP    ??ResetT1

   \                                 In  segment CODE, align 2, keep-with-next
   \   __version_3 void WorkT1()
   \                     ??WorkT1:
   \   00000000   9100....           LDS     R16, T1out
   \   00000004   2300               TST     R16
   \   00000006   F4D9               BRNE    ??WorkT1_1
   \   00000008   ....               LDI     R30, LOW(T1x)
   \   0000000A   ....               LDI     R31, (T1x) >> 8
   \   0000000C   ....               RCALL   ?Subroutine36
   \                     ??CrossCallReturnLabel_40:
   \   0000000E   ....               RCALL   ?Subroutine98
   \                     ??CrossCallReturnLabel_357:
   \   00000010   E020               LDI     R18, 0
   \   00000012   ....               LDI     R30, LOW(Calibr)
   \   00000014   ....               LDI     R31, (Calibr) >> 8
   \   00000016   ....               RCALL   ?Subroutine112
   \                     ??CrossCallReturnLabel_210:
   \   00000018   0727               CPC     R18, R23
   \   0000001A   F038               BRCS    ??CrossCallReturnLabel_348
   \   0000001C   ....               LDI     R30, LOW(T1x)
   \   0000001E   ....               LDI     R31, (T1x) >> 8
   \   00000020   8320               ST      Z, R18
   \   00000022   8321               STD     Z+1, R18
   \   00000024   ....               LDI     R30, LOW(T1)
   \   00000026   ....               LDI     R31, (T1) >> 8
   \   00000028   ....               RCALL   ?Subroutine24
   \                     ??CrossCallReturnLabel_348:
   \   0000002A   ....               LDI     R30, LOW(T1)
   \   0000002C   ....               LDI     R31, (T1) >> 8
   \   0000002E   ....               RCALL   ?Subroutine104
   \                     ??CrossCallReturnLabel_183:
   \   00000030   ....               LDI     R30, LOW(T1max)
   \   00000032   ....               LDI     R31, (T1max) >> 8
   \   00000034   ....               RCALL   ?Subroutine63
   \                     ??CrossCallReturnLabel_90:
   \   00000036   F018               BRCS    ??WorkT1_1
   \   00000038   E001               LDI     R16, 1
   \   0000003A   9300....           STS     T1out, R16
   \                     ??WorkT1_1:
   \   0000003E   9508               RET

   \                                 In  segment CODE, align 2, keep-with-next
   \                     ?Subroutine24:
   \   00000000   ....               RCALL   ?Subroutine104
   \                     ??CrossCallReturnLabel_186:
   \   00000002   5F0F               SUBI    R16, 255
   \   00000004   4F1F               SBCI    R17, 255
   \   00000006   4F2F               SBCI    R18, 255
   \   00000008   4F3F               SBCI    R19, 255
   \   0000000A                      REQUIRE ??Subroutine147_0
   \   0000000A                      ;               // Fall through to label ??Subroutine147_0

   \                                 In  segment CODE, align 2, keep-with-next
   \                     ?Subroutine63:
   \   00000000   ....               RCALL   ?Subroutine112
   \                     ??CrossCallReturnLabel_211:
   \   00000002   0737               CPC     R19, R23
   \   00000004   9508               RET

   \                                 In  segment CODE, align 2, keep-with-next
   \                     ?Subroutine112:
   \   00000000   8140               LD      R20, Z
   \   00000002   8151               LDD     R21, Z+1
   \   00000004   8162               LDD     R22, Z+2
   \   00000006   8173               LDD     R23, Z+3
   \   00000008   1704               CP      R16, R20
   \   0000000A   0715               CPC     R17, R21
   \   0000000C   0726               CPC     R18, R22
   \   0000000E   9508               RET

   \                                 In  segment CODE, align 2, keep-with-next
   \                     ?Subroutine104:
   \   00000000   ....               RCALL   ?Subroutine125
   \                     ??CrossCallReturnLabel_321:
   \   00000002   8122               LDD     R18, Z+2
   \   00000004   8133               LDD     R19, Z+3
   \   00000006   9508               RET

   \                                 In  segment CODE, align 2, keep-with-next
   \                     ?Subroutine36:
   \   00000000   ....               RCALL   ?Subroutine125
   \                     ??CrossCallReturnLabel_318:
   \   00000002   5F0F               SUBI    R16, 255
   \   00000004   4F1F               SBCI    R17, 255
   \   00000006   9508               RET

   \                                 In  segment CODE, align 2, keep-with-next
   \   __version_3 void ResetT2()
   \                     ??ResetT2:
   \   00000000   E000               LDI     R16, 0
   \   00000002   ....               LDI     R30, LOW(T2)
   \   00000004   ....               LDI     R31, (T2) >> 8
   \   00000006   ....               RCALL   ?Subroutine28
   \                     ??CrossCallReturnLabel_33:
   \   00000008   ....               LDI     R30, LOW(T2x)
   \   0000000A   ....               LDI     R31, (T2x) >> 8
   \   0000000C   ....               RCALL   ?Subroutine97
   \                     ??CrossCallReturnLabel_165:
   \   0000000E                      REQUIRE ?Subroutine131
   \   0000000E                      ;               // Fall through to label ?Subroutine131

   \                                 In  segment CODE, align 2, keep-with-next
   \                     ?Subroutine131:
   \   00000000   9300....           STS     T2out, R16
   \   00000004   9508               RET

   \                                 In  segment CODE, align 2, keep-with-next
   \   __version_3 void iniT2(unsigned long)
   \                     ??iniT2:
   \   00000000   ....               LDI     R30, LOW(T2max)
   \   00000002   ....               LDI     R31, (T2max) >> 8
   \   00000004   ....               RCALL   ??Subroutine147_0
   \                     ??CrossCallReturnLabel_347:
   \   00000006   ....               RJMP    ??ResetT2

   \                                 In  segment CODE, align 2, keep-with-next
   \   __version_3 void WorkT2()
   \                     ??WorkT2:
   \   00000000   ....               RCALL   ?PROLOGUE3_L09
   \   00000002   9100....           LDS     R16, T2out
   \   00000006   2300               TST     R16
   \   00000008   F511               BRNE    ??CrossCallReturnLabel_252
   \   0000000A   ....               LDI     R30, LOW(T2x)
   \   0000000C   ....               LDI     R31, (T2x) >> 8
   \   0000000E   ....               RCALL   ?Subroutine36
   \                     ??CrossCallReturnLabel_41:
   \   00000010   ....               RCALL   ?Subroutine98
   \                     ??CrossCallReturnLabel_358:
   \   00000012   01C8               MOVW    R25:R24, R17:R16
   \   00000014   E0A0               LDI     R26, 0
   \   00000016   EE48               LDI     R20, 232
   \   00000018   E053               LDI     R21, 3
   \   0000001A   E060               LDI     R22, 0
   \   0000001C   E070               LDI     R23, 0
   \   0000001E   ....               LDI     R30, LOW(Calibr)
   \   00000020   ....               LDI     R31, (Calibr) >> 8
   \   00000022   ....               RCALL   ?Subroutine104
   \                     ??CrossCallReturnLabel_184:
   \   00000024   ....               RCALL   ?UL_DIVMOD_L03
   \   00000026   1780               CP      R24, R16
   \   00000028   0791               CPC     R25, R17
   \   0000002A   07A2               CPC     R26, R18
   \   0000002C   07A3               CPC     R26, R19
   \   0000002E   F038               BRCS    ??CrossCallReturnLabel_349
   \   00000030   ....               LDI     R30, LOW(T2x)
   \   00000032   ....               LDI     R31, (T2x) >> 8
   \   00000034   83A0               ST      Z, R26
   \   00000036   83A1               STD     Z+1, R26
   \   00000038   ....               LDI     R30, LOW(T2)
   \   0000003A   ....               LDI     R31, (T2) >> 8
   \   0000003C   ....               RCALL   ?Subroutine24
   \                     ??CrossCallReturnLabel_349:
   \   0000003E   ....               LDI     R30, LOW(T2)
   \   00000040   ....               LDI     R31, (T2) >> 8
   \   00000042   ....               RCALL   ?Subroutine104
   \                     ??CrossCallReturnLabel_185:
   \   00000044   ....               LDI     R30, LOW(T2max)
   \   00000046   ....               LDI     R31, (T2max) >> 8
   \   00000048   ....               RCALL   ?Subroutine63
   \                     ??CrossCallReturnLabel_91:
   \   0000004A   F008               BRCS    ??CrossCallReturnLabel_252
   \   0000004C   ....               RCALL   ?Subroutine7
   \                     ??CrossCallReturnLabel_252:
   \   0000004E   E0E3               LDI     R30, 3
   \   00000050   ....               RJMP    ?EPILOGUE_B3_L09

   \                                 In  segment CODE, align 2, keep-with-next
   \                     ?Subroutine7:
   \   00000000   E001               LDI     R16, 1
   \   00000002   ....               RJMP    ?Subroutine131

   \                                 In  segment CODE, align 2, keep-with-next
   \   __version_3 void migINI(unsigned char, unsigned char, bool)
   \                     ??migINI:
   \   00000000   2F30               MOV     R19, R16
   \   00000002   01A8               MOVW    R21:R20, R17:R16
   \   00000004   ....               RCALL   ?Subroutine93
   \                     ??CrossCallReturnLabel_148:
   \   00000006   B318               IN      R17, 0x18
   \   00000008   2B10               OR      R17, R16
   \   0000000A   BB18               OUT     0x18, R17
   \   0000000C   9100....           LDS     R16, ??port
   \   00000010   3F0F               CPI     R16, 255
   \   00000012   F051               BREQ    ??migINI_1
   \   00000014   ....               RCALL   ?Subroutine5
   \                     ??CrossCallReturnLabel_153:
   \   00000016   2322               TST     R18
   \   00000018   F019               BREQ    ??migINI_2
   \   0000001A   B318               IN      R17, 0x18
   \   0000001C   2B10               OR      R17, R16
   \   0000001E   C003               RJMP    ??migINI_3
   \                     ??migINI_2:
   \   00000020   9500               COM     R16
   \   00000022   B318               IN      R17, 0x18
   \   00000024   2310               AND     R17, R16
   \                     ??migINI_3:
   \   00000026   BB18               OUT     0x18, R17
   \                     ??migINI_1:
   \   00000028   9350....           STS     ??raz, R21
   \   0000002C   9330....           STS     ??port, R19
   \   00000030   E000               LDI     R16, 0
   \   00000032   9300....           STS     ??razct, R16
   \   00000036   E005               LDI     R16, 5
   \   00000038   ....               RCALL   ??Subroutine149_0
   \                     ??CrossCallReturnLabel_370:
   \   0000003A                      REQUIRE ?Subroutine7
   \   0000003A                      REQUIRE _A_PORTB
   \   0000003A                      ;               // Fall through to label ?Subroutine7

   \                                 In  segment CODE, align 2, keep-with-next
   \                     ??Subroutine149_0:
   \   00000000   E010               LDI     R17, 0
   \   00000002   E020               LDI     R18, 0
   \   00000004   E030               LDI     R19, 0
   \   00000006   ....               RJMP    ??iniT2

   \                                 In  segment CODE, align 2, keep-with-next
   \                     ?Subroutine5:
   \   00000000   9140....           LDS     R20, ??port
   \   00000004                      REQUIRE ?Subroutine93
   \   00000004                      ;               // Fall through to label ?Subroutine93

   \                                 In  segment CODE, align 2, keep-with-next
   \   __version_3 void migWORK()
   \                     ??migWORK:
   \   00000000   938A               ST      -Y, R24
   \   00000002   ....               RCALL   ??WorkT2
   \   00000004   9100....           LDS     R16, T2out
   \   00000008   2300               TST     R16
   \   0000000A   F0C9               BREQ    ??migWORK_1
   \   0000000C   9100....           LDS     R16, ??port
   \   00000010   3F0F               CPI     R16, 255
   \   00000012   F0A9               BREQ    ??migWORK_1
   \   00000014   ....               RCALL   ?Subroutine5
   \                     ??CrossCallReturnLabel_154:
   \   00000016   2F80               MOV     R24, R16
   \   00000018   9100....           LDS     R16, ??sost
   \   0000001C   2300               TST     R16
   \   0000001E   F449               BRNE    ??migWORK_2
   \   00000020   E001               LDI     R16, 1
   \   00000022   ....               RCALL   ?Subroutine20
   \                     ??CrossCallReturnLabel_372:
   \   00000024   B308               IN      R16, 0x18
   \   00000026   2B08               OR      R16, R24
   \   00000028   BB08               OUT     0x18, R16
   \   0000002A   ....               LDI     R30, LOW(??razct)
   \   0000002C   ....               LDI     R31, (??razct) >> 8
   \   0000002E   ....               RCALL   ?Subroutine101
   \                     ??CrossCallReturnLabel_341:
   \   00000030   C006               RJMP    ??migWORK_1
   \                     ??migWORK_2:
   \   00000032   E000               LDI     R16, 0
   \   00000034   ....               RCALL   ?Subroutine20
   \                     ??CrossCallReturnLabel_371:
   \   00000036   9580               COM     R24
   \   00000038   B308               IN      R16, 0x18
   \   0000003A   2308               AND     R16, R24
   \   0000003C   BB08               OUT     0x18, R16
   \                     ??migWORK_1:
   \   0000003E   9100....           LDS     R16, ??razct
   \   00000042   9110....           LDS     R17, ??raz
   \   00000046   1701               CP      R16, R17
   \   00000048   F020               BRCS    ??migWORK_3
   \   0000004A   ....               RCALL   ?Subroutine7
   \                     ??CrossCallReturnLabel_253:
   \   0000004C   EF0F               LDI     R16, 255
   \   0000004E   9300....           STS     ??port, R16
   \                     ??migWORK_3:
   \   00000052   ....               RJMP    ?Subroutine135
   \   00000054                      REQUIRE _A_PORTB

   \                                 In  segment CODE, align 2, keep-with-next
   \                     ?Subroutine20:
   \   00000000   9300....           STS     ??sost, R16
   \   00000004   EC08               LDI     R16, 200
   \   00000006                      REQUIRE ??Subroutine149_0
   \   00000006                      ;               // Fall through to label ??Subroutine149_0

   \                                 In  segment CODE, align 2, keep-with-next
   \                     ?Subroutine135:
   \   00000000   9189               LD      R24, Y+
   \   00000002   9508               RET

   \                                 In  segment NEAR_Z, align 1, keep-with-next
   \   00000000                      REQUIRE `?<Segment init: NEAR_Z>`
   \   bool migWORK()::sost
   \                     ??sost:
   \   00000000                      DS8 1
     32          #include "keys.h"
     33          //#include <stdlib.h>
     34          //#include <math.h> 
     35          #include "usart.h"
     36          //#include <stdarg.h>
     37          //************************************************************************* 
     38          #define AC_ON    SET(PORTD,6)
     39          #define AC_OFF   RES(PORTD,6)
     40          void diag(void);
     41          void led_all(bool a);
     42          void resled(void);
     43          void source(void);
     44          void resOUT(void);  
     45          void gro(uchar a);
     46          void normal(uchar rez);
     47          void writeCOD(void);
     48          uchar analizCOD(void);
     49          void programming(uchar rez);
     50          uchar getadr(void);
     51          #define acon 20000;//время включения АС при подаче питания

   \                                 In  segment NEAR_I, align 1, keep-with-next
   \   00000000                      REQUIRE `?<Segment init: NEAR_I>`
     52          uint tON=acon; 
   \                     tON:
   \   00000000                      DS8 2
   \   00000002                      REQUIRE `?<Initializer for tON>`
     53          #define MAXFUNC 23  //последний(включительно)действующий tekfunc(кол-во фукций)
     54          //uint kbuf[MAXEEP];

   \                                 In  segment NEAR_Z, align 1, keep-with-next
   \   00000000                      REQUIRE `?<Segment init: NEAR_Z>`
     55          uchar write;
   \                     `write`:
   \   00000000                      DS8 1

   \                                 In  segment NEAR_Z, align 1, keep-with-next
   \   00000000                      REQUIRE `?<Segment init: NEAR_Z>`
     56          uchar pr;
   \                     pr:
   \   00000000                      DS8 1

   \                                 In  segment NEAR_Z, align 1, keep-with-next
   \   00000000                      REQUIRE `?<Segment init: NEAR_Z>`
     57          static bool get=0;
   \                     ??get:
   \   00000000                      DS8 1

   \                                 In  segment NEAR_Z, align 1, keep-with-next
   \   00000000                      REQUIRE `?<Segment init: NEAR_Z>`
     58          bool onok;  
   \                     onok:
   \   00000000                      DS8 1

   \                                 In  segment NEAR_Z, align 1, keep-with-next
   \   00000000                      REQUIRE `?<Segment init: NEAR_Z>`
     59          bool on,mute;
   \                     on:
   \   00000000                      DS8 1

   \                                 In  segment NEAR_Z, align 1, keep-with-next
   \   00000000                      REQUIRE `?<Segment init: NEAR_Z>`
   \                     mute:
   \   00000000                      DS8 1

   \                                 In  segment NEAR_Z, align 1, keep-with-next
   \   00000000                      REQUIRE `?<Segment init: NEAR_Z>`
     60          bool zader,aoff;
   \                     zader:
   \   00000000                      DS8 1

   \                                 In  segment NEAR_Z, align 1, keep-with-next
   \   00000000                      REQUIRE `?<Segment init: NEAR_Z>`
   \                     aoff:
   \   00000000                      DS8 1

   \                                 In  segment NEAR_Z, align 1, keep-with-next
   \   00000000                      REQUIRE `?<Segment init: NEAR_Z>`
     61          uint timerzad; 
   \                     timerzad:
   \   00000000                      DS8 2

   \                                 In  segment NEAR_Z, align 1, keep-with-next
   \   00000000                      REQUIRE `?<Segment init: NEAR_Z>`
     62          uchar pultadr; uchar rez;
   \                     pultadr:
   \   00000000                      DS8 1

   \                                 In  segment NEAR_Z, align 1, keep-with-next
   \   00000000                      REQUIRE `?<Segment init: NEAR_Z>`
   \                     rez:
   \   00000000                      DS8 1

   \                                 In  segment NEAR_Z, align 1, keep-with-next
   \   00000000                      REQUIRE `?<Segment init: NEAR_Z>`
     63          extern   bool u=0,til=0; 
   \                     u:
   \   00000000                      DS8 1

   \                                 In  segment NEAR_Z, align 1, keep-with-next
   \   00000000                      REQUIRE `?<Segment init: NEAR_Z>`
   \                     til:
   \   00000000                      DS8 1

   \                                 In  segment NEAR_Z, align 1, keep-with-next
   \   00000000                      REQUIRE `?<Segment init: NEAR_Z>`
     64          extern  uchar mode=0,tekfunc=0; 
   \                     mode:
   \   00000000                      DS8 1

   \                                 In  segment NEAR_Z, align 1, keep-with-next
   \   00000000                      REQUIRE `?<Segment init: NEAR_Z>`
   \                     tekfunc:
   \   00000000                      DS8 1

   \                                 In  segment NEAR_I, align 1, keep-with-next
   \   00000000                      REQUIRE `?<Segment init: NEAR_I>`
     65          static uchar lastsel=1,sel=1,gro1=0,gro2=0,regaoff=0;
   \                     ??lastsel:
   \   00000000                      DS8 1
   \   00000001                      REQUIRE `?<Initializer for lastsel>`

   \                                 In  segment NEAR_I, align 1, keep-with-next
   \   00000000                      REQUIRE `?<Segment init: NEAR_I>`
   \                     ??sel:
   \   00000000                      DS8 1
   \   00000001                      REQUIRE `?<Initializer for sel>`

   \                                 In  segment NEAR_Z, align 1, keep-with-next
   \   00000000                      REQUIRE `?<Segment init: NEAR_Z>`
   \                     ??gro1:
   \   00000000                      DS8 1

   \                                 In  segment NEAR_Z, align 1, keep-with-next
   \   00000000                      REQUIRE `?<Segment init: NEAR_Z>`
   \                     ??gro2:
   \   00000000                      DS8 1

   \                                 In  segment NEAR_Z, align 1, keep-with-next
   \   00000000                      REQUIRE `?<Segment init: NEAR_Z>`
   \                     ??regaoff:
   \   00000000                      DS8 1
     66          //***************************************************************************
     67          //                  M  A  I  N
     68          //***************************************************************************

   \                                 In  segment CODE, align 2, keep-with-next
     69          int main( void )
   \                     main:
     70          {//main
   \   00000000   938A               ST      -Y, R24
     71            
     72             aoff=0; onok=0; pr=0; on=0; mute=0; zader=0;  til=0;
   \   00000002   E000               LDI     R16, 0
   \   00000004   ....               RCALL   ?Subroutine114
   \                     ??CrossCallReturnLabel_214:
   \   00000006   9300....           STS     onok, R16
   \   0000000A   9300....           STS     pr, R16
   \   0000000E   ....               RCALL   ??Subroutine150_0
   \                     ??CrossCallReturnLabel_373:
   \   00000010   9300....           STS     mute, R16
   \   00000014   ....               RCALL   ?Subroutine65
     73            iniPORTS();    
   \                     ??CrossCallReturnLabel_94:
   \   00000016   ....               RCALL   ??iniPORTS
     74           //----------------------------------
     75             if (keyONsm) u=1;//включаем UART
   \   00000018   9985               SBIC    0x10, 0x05
   \   0000001A   C003               RJMP    ??main_0
   \   0000001C   E001               LDI     R16, 1
   \   0000001E   9300....           STS     u, R16
     76           // u=1; 
     77            USART_Init(u);
   \                     ??main_0:
   \   00000022   9100....           LDS     R16, u
   \   00000026   ....               RCALL   ??USART_Init
     78          //----------------------------------
     79            mode=fmode; //смена режима работы
   \   00000028   ....               LDI     R20, LOW(fmode)
   \   0000002A   ....               LDI     R21, (fmode) >> 8
   \   0000002C   ....               RCALL   __eeget8_16
   \   0000002E   9300....           STS     mode, R16
     80            if (mode!=1 && mode!=0) { fmode=0; mode=0;   }//ini
   \   00000032   3001               CPI     R16, 1
   \   00000034   F029               BREQ    ??main_1
   \   00000036   2300               TST     R16
   \   00000038   F019               BREQ    ??main_1
   \   0000003A   ....               RCALL   ?Subroutine12
   \                     ??CrossCallReturnLabel_221:
   \   0000003C   9300....           STS     mode, R16
     81            if (modegro!=1 && modegro!=0) { modegro=0; p1;   }//ini
   \                     ??main_1:
   \   00000040   ....               RCALL   ?Subroutine66
   \                     ??CrossCallReturnLabel_290:
   \   00000042   F021               BREQ    ??CrossCallReturnLabel_96
   \   00000044   ....               RCALL   ?Subroutine71
   \                     ??CrossCallReturnLabel_274:
   \   00000046   F011               BREQ    ??CrossCallReturnLabel_96
   \   00000048   ....               RCALL   ?Subroutine13
   \                     ??CrossCallReturnLabel_224:
   \   0000004A   ....               RCALL   ?Subroutine67
     82            
     83            if (keyMUTE && !keyAOFFsm) {
   \                     ??CrossCallReturnLabel_96:
   \   0000004C   9981               SBIC    0x10, 0x01
   \   0000004E   C021               RJMP    ??main_2
   \   00000050   9985               SBIC    0x10, 0x05
   \   00000052   C01F               RJMP    ??main_2
   \   00000054   9B80               SBIS    0x10, 0x00
   \   00000056   C01D               RJMP    ??main_2
     84            if (mode==0 && modegro==0)   {  fmode=1; p5;   SET(PORTB,4);  while(1) {}   }
   \   00000058   ....               RCALL   ?Subroutine72
   \                     ??CrossCallReturnLabel_277:
   \   0000005A   F439               BRNE    ??main_3
   \   0000005C   ....               RCALL   ?Subroutine71
   \                     ??CrossCallReturnLabel_275:
   \   0000005E   F499               BRNE    ??main_4
   \   00000060   E001               LDI     R16, 1
   \   00000062   ....               RCALL   ?Subroutine116
   \                     ??CrossCallReturnLabel_220:
   \   00000064   ....               RCALL   ?Subroutine127
   \                     ??CrossCallReturnLabel_377:
   \   00000066   9AC4               SBI     0x18, 0x04
   \                     ??main_5:
   \   00000068   CFFF               RJMP    ??main_5
     85            if (mode==1 && modegro==0)   {  modegro=1; p5; SET(PORTB,2);  SET(PORTB,3);  SET(PORTB,4);  while(1) {}  }
   \                     ??main_3:
   \   0000006A   3001               CPI     R16, 1
   \   0000006C   F491               BRNE    ??main_2
   \   0000006E   ....               RCALL   ?Subroutine71
   \                     ??CrossCallReturnLabel_276:
   \   00000070   F429               BRNE    ??main_6
   \   00000072   E001               LDI     R16, 1
   \   00000074   ....               RCALL   ?Subroutine117
   \                     ??CrossCallReturnLabel_223:
   \   00000076   ....               RCALL   ?Subroutine68
   \                     ??CrossCallReturnLabel_288:
   \   00000078   9AC4               SBI     0x18, 0x04
   \                     ??main_7:
   \   0000007A   CFFF               RJMP    ??main_7
   \                     ??main_6:
   \   0000007C   ....               RCALL   ?Subroutine66
   \                     ??CrossCallReturnLabel_291:
   \   0000007E   F449               BRNE    ??main_2
     86            if (mode==1 && modegro==1)   {  fmode=0; p5; SET(PORTB,2);  SET(PORTB,3);    while(1) {}  } 
   \   00000080   ....               RCALL   ?Subroutine12
   \                     ??CrossCallReturnLabel_222:
   \   00000082   ....               RCALL   ?Subroutine68
   \                     ??CrossCallReturnLabel_289:
   \   00000084   CFFF               RJMP    ??CrossCallReturnLabel_289
   \                     ??main_4:
   \   00000086   ....               RCALL   ?Subroutine66
   \                     ??CrossCallReturnLabel_292:
   \   00000088   F421               BRNE    ??main_2
     87            if (mode==0 && modegro==1)   {  modegro=0; p5;  led_all(1);    while(1) {}   }
   \   0000008A   ....               RCALL   ?Subroutine13
   \                     ??CrossCallReturnLabel_225:
   \   0000008C   ....               RCALL   ?Subroutine127
   \                     ??CrossCallReturnLabel_378:
   \   0000008E   ....               RCALL   ??Subroutine153_0
   \                     ??CrossCallReturnLabel_402:
   \   00000090   CFFF               RJMP    ??CrossCallReturnLabel_402
     88            
     89                                        }
     90            
     91           // modegro=1; mode=1;
     92          //-----------------------------------
     93            
     94             if (keySELsm) {write=1; }//включаем программирование пульта
   \                     ??main_2:
   \   00000092   9981               SBIC    0x10, 0x01
   \   00000094   C003               RJMP    ??main_8
   \   00000096   E001               LDI     R16, 1
   \   00000098   9300....           STS     `write`, R16
     95             if (keySELsm==1 && keyAOFFsm==1)//очистка
   \                     ??main_8:
   \   0000009C   9981               SBIC    0x10, 0x01
   \   0000009E   C00F               RJMP    ??main_9
   \   000000A0   9980               SBIC    0x10, 0x00
   \   000000A2   C00D               RJMP    ??main_9
     96                {
     97                  write=1; cod1=0;cod2=0;cod3=0;
   \   000000A4   E001               LDI     R16, 1
   \   000000A6   9300....           STS     `write`, R16
   \   000000AA   ....               RCALL   ?Subroutine10
     98                  for (uchar i=0; i<=MAXFUNC; i++) {writeCOD();tekfunc++;}
   \                     ??CrossCallReturnLabel_10:
   \   000000AC   E188               LDI     R24, 24
   \                     ??main_10:
   \   000000AE   ....               RCALL   ??writeCOD
   \   000000B0   ....               LDI     R30, LOW(tekfunc)
   \   000000B2   ....               LDI     R31, (tekfunc) >> 8
   \   000000B4   ....               RCALL   ?Subroutine101
   \                     ??CrossCallReturnLabel_342:
   \   000000B6   958A               DEC     R24
   \   000000B8   F7D1               BRNE    ??main_10
     99                  tekfunc=0;
    100                  led_all(1); while(1) {} //зависаем
   \   000000BA   ....               RCALL   ??Subroutine153_0
   \                     ??CrossCallReturnLabel_401:
   \   000000BC   CFFF               RJMP    ??CrossCallReturnLabel_401
    101                }
    102          
    103             if (write==1) //мигание первого программируемого
   \                     ??main_9:
   \   000000BE   ....               RCALL   ?Subroutine79
   \                     ??CrossCallReturnLabel_298:
   \   000000C0   F441               BRNE    ??main_11
    104             {
    105               for (uchar i=0; i<3; i++) {getadr(); p3;led_all(0); p3;}
   \   000000C2   E083               LDI     R24, 3
   \                     ??main_12:
   \   000000C4   ....               RCALL   ??getadr
   \   000000C6   ....               RCALL   ?Subroutine75
   \                     ??CrossCallReturnLabel_104:
   \   000000C8   ....               RCALL   ?Subroutine16
   \                     ??CrossCallReturnLabel_18:
   \   000000CA   ....               RCALL   ?Subroutine75
   \                     ??CrossCallReturnLabel_105:
   \   000000CC   958A               DEC     R24
   \   000000CE   F7D1               BRNE    ??main_12
    106              
    107               getadr();
   \   000000D0   ....               RCALL   ??getadr
    108             }
    109                     
    110             //---------------------------------------
    111           //   for (uchar i=0; i<MAXEEP-1; i++) kbuf[i]=k[i];//читаем ееprom
    112            //-----------------------------------------
    113            //---------------------------------- 
    114          
    115               __enable_interrupt(); 
   \                     ??main_11:
   \   000000D2   9478               SEI
    116            
    117            
    118            
    119             
    120            
    121            
    122            
    123            
    124            
    125            
    126            
    127            
    128            
    129            
    130            
    131            
    132            
    133            
    134            
    135            
    136            
    137            while(1){//-----------------------------------бесконечный цикл
    138          
    139             rez=du_main(pr);//вызов обработчика пульта
   \                     ??main_13:
   \   000000D4   9100....           LDS     R16, pr
   \   000000D8   ....               RCALL   ??du_main
   \   000000DA   9300....           STS     rez, R16
    140             
    141             if (write==0)  {//------------------------------------- 
   \   000000DE   9100....           LDS     R16, `write`
   \   000000E2   2300               TST     R16
   \   000000E4   F009               BREQ    $+2+2
   \   000000E6   C062               RJMP    ??main_14
    142              
    143               pultadr=0; 
   \   000000E8   ....               RCALL   ??Subroutine152_0
    144               if (rez) pultadr=analizCOD();  
   \                     ??CrossCallReturnLabel_391:
   \   000000EA   9100....           LDS     R16, rez
   \   000000EE   2300               TST     R16
   \   000000F0   F009               BREQ    ??CrossCallReturnLabel_386
   \   000000F2   ....               RCALL   ?Subroutine80
    145               
    146               if ((keyON||pultadr==25 || pultadr==90) && on==1 && zader!=1) { rprintfStr("OFF>adr="); rprintfFloat(9, pultadr ); ent;
   \                     ??CrossCallReturnLabel_386:
   \   000000F4   9985               SBIC    0x10, 0x05
   \   000000F6   C004               RJMP    ??main_15
   \   000000F8   9B80               SBIS    0x10, 0x00
   \   000000FA   C002               RJMP    ??main_15
   \   000000FC   9981               SBIC    0x10, 0x01
   \   000000FE   C005               RJMP    ??main_16
   \                     ??main_15:
   \   00000100   ....               RCALL   ?Subroutine78
   \                     ??CrossCallReturnLabel_112:
   \   00000102   3109               CPI     R16, 25
   \   00000104   F011               BREQ    ??main_16
   \   00000106   350A               CPI     R16, 90
   \   00000108   F499               BRNE    ??CrossCallReturnLabel_388
   \                     ??main_16:
   \   0000010A   9110....           LDS     R17, on
   \   0000010E   9120....           LDS     R18, zader
   \   00000112   E001               LDI     R16, 1
   \   00000114   2720               EOR     R18, R16
   \   00000116   2312               AND     R17, R18
   \   00000118   F059               BREQ    ??CrossCallReturnLabel_388
   \   0000011A   ....               LDI     R16, LOW(`?<Constant "OFF>adr=">`)
   \   0000011C   ....               LDI     R17, (`?<Constant "OFF>adr=">`) >> 8
   \   0000011E   ....               RCALL   ?Subroutine18
    147                              on=0;onok=0; p5; zader=0;  til=0; gro1=0; gro2=0; pultadr=0;  }//OFF
   \                     ??CrossCallReturnLabel_21:
   \   00000120   ....               RCALL   ?Subroutine14
   \                     ??CrossCallReturnLabel_14:
   \   00000122   ....               RCALL   ?Subroutine119
   \                     ??CrossCallReturnLabel_228:
   \   00000124   ....               RCALL   ?Subroutine65
   \                     ??CrossCallReturnLabel_95:
   \   00000126   9300....           STS     ??gro1, R16
   \   0000012A   9300....           STS     ??gro2, R16
   \   0000012E   ....               RCALL   ?Subroutine133
    148               if ((keyON||pultadr==25 || pultadr==90) && on==0) {rprintfStr("ON>adr="); rprintfFloat(9, pultadr ); ent;
   \                     ??CrossCallReturnLabel_388:
   \   00000130   9985               SBIC    0x10, 0x05
   \   00000132   C004               RJMP    ??main_17
   \   00000134   9B80               SBIS    0x10, 0x00
   \   00000136   C002               RJMP    ??main_17
   \   00000138   9981               SBIC    0x10, 0x01
   \   0000013A   C005               RJMP    ??main_18
   \                     ??main_17:
   \   0000013C   ....               RCALL   ?Subroutine78
   \                     ??CrossCallReturnLabel_113:
   \   0000013E   3109               CPI     R16, 25
   \   00000140   F011               BREQ    ??main_18
   \   00000142   350A               CPI     R16, 90
   \   00000144   F489               BRNE    ??CrossCallReturnLabel_392
   \                     ??main_18:
   \   00000146   9100....           LDS     R16, on
   \   0000014A   2300               TST     R16
   \   0000014C   F469               BRNE    ??CrossCallReturnLabel_392
   \   0000014E   ....               LDI     R16, LOW(`?<Constant "ON>adr=">`)
   \   00000150   ....               LDI     R17, (`?<Constant "ON>adr=">`) >> 8
   \   00000152   ....               RCALL   ?Subroutine18
    149                              SET(PORTD,4); SET(PORTD,7);p5; on=1; mute=0; zader=1;timerzad=0;source();pultadr=0;  }//ON
   \                     ??CrossCallReturnLabel_22:
   \   00000154   9A94               SBI     0x12, 0x04
   \   00000156   9A97               SBI     0x12, 0x07
   \   00000158   ....               RCALL   ?Subroutine127
   \                     ??CrossCallReturnLabel_379:
   \   0000015A   E001               LDI     R16, 1
   \   0000015C   ....               RCALL   ??Subroutine150_0
   \                     ??CrossCallReturnLabel_374:
   \   0000015E   E000               LDI     R16, 0
   \   00000160   9300....           STS     mute, R16
   \   00000164   ....               RCALL   ?Subroutine3
   \                     ??CrossCallReturnLabel_9:
   \   00000166   ....               RCALL   ??Subroutine152_0
    150               
    151              //выключение
    152              if (on==0 && onok==0) { on=0; aoff=0; p5; zader=0; regaoff=0; AC_OFF; delay_s(1); tON=acon; 
   \                     ??CrossCallReturnLabel_392:
   \   00000168   9100....           LDS     R16, on
   \   0000016C   9110....           LDS     R17, onok
   \   00000170   2B01               OR      R16, R17
   \   00000172   F4A1               BRNE    ??main_19
   \   00000174   ....               RCALL   ?Subroutine115
   \                     ??CrossCallReturnLabel_375:
   \   00000176   ....               RCALL   ?Subroutine15
   \                     ??CrossCallReturnLabel_254:
   \   00000178   9896               CBI     0x12, 0x06
   \   0000017A   ....               RCALL   ?Subroutine76
   \                     ??CrossCallReturnLabel_106:
   \   0000017C   E200               LDI     R16, 32
   \   0000017E   E41E               LDI     R17, 78
   \   00000180   ....               LDI     R30, LOW(tON)
   \   00000182   ....               LDI     R31, (tON) >> 8
   \   00000184   ....               RCALL   ?Subroutine98
    153              						PORTB=0; RES(PORTD,7);RES(PORTD,4); resOUT(); RES(PORTC,5); RES(PORTC,0);RES(PORTD,3); onok=1;
   \                     ??CrossCallReturnLabel_359:
   \   00000186   E000               LDI     R16, 0
   \   00000188   BB08               OUT     0x18, R16
   \   0000018A   9897               CBI     0x12, 0x07
   \   0000018C   9894               CBI     0x12, 0x04
   \   0000018E   ....               RCALL   ??resOUT
   \   00000190   98AD               CBI     0x15, 0x05
   \   00000192   98A8               CBI     0x15, 0x00
   \   00000194   9893               CBI     0x12, 0x03
   \   00000196   E001               LDI     R16, 1
   \   00000198   9300....           STS     onok, R16
    154                                    }
    155                                            
    156            
    157              pultadr=0;  if (on==1) normal(rez);
   \                     ??main_19:
   \   0000019C   ....               RCALL   ??Subroutine152_0
   \                     ??CrossCallReturnLabel_393:
   \   0000019E   9100....           LDS     R16, on
   \   000001A2   2300               TST     R16
   \   000001A4   F019               BREQ    ??main_14
   \   000001A6   9100....           LDS     R16, rez
   \   000001AA   ....               RCALL   ??normal
    158             
    159                            }//------------------------------------- 
    160            
    161             if (write==1) programming(rez);
   \                     ??main_14:
   \   000001AC   ....               RCALL   ?Subroutine79
   \                     ??CrossCallReturnLabel_299:
   \   000001AE   F419               BRNE    ??main_20
   \   000001B0   9100....           LDS     R16, rez
   \   000001B4   ....               RCALL   ??programming
    162             
    163             diag();  
   \                     ??main_20:
   \   000001B6   ....               RCALL   ??diag
   \   000001B8   CF8D               RJMP    ??main_13
   \   000001BA                      REQUIRE _A_PIND
   \   000001BA                      REQUIRE _A_PORTB
   \   000001BA                      REQUIRE _A_PORTD
   \   000001BA                      REQUIRE _A_PORTC
    164               
    165              
    166             
    167            }//-------------------------------------------бесконечный цикл
    168            
    169          }//main

   \                                 In  segment CODE, align 2, keep-with-next
   \                     ?Subroutine75:
   \   00000000   E70F               LDI     R16, 127
   \   00000002   EA19               LDI     R17, 169
   \   00000004   E023               LDI     R18, 3
   \   00000006   5001               SUBI    R16, 1
   \   00000008   4010               SBCI    R17, 0
   \   0000000A   4020               SBCI    R18, 0
   \   0000000C   F7E1               BRNE    $-6
   \   0000000E   C000               RJMP    $+2
   \   00000010   0000               NOP
   \   00000012   9508               RET

   \                                 In  segment CODE, align 2, keep-with-next
   \                     ?Subroutine71:
   \   00000000   ....               RCALL   ?Subroutine118
   \                     ??CrossCallReturnLabel_227:
   \   00000002   ....               RJMP    ?Subroutine136

   \                                 In  segment CODE, align 2, keep-with-next
   \                     ?Subroutine127:
   \   00000000   E70F               LDI     R16, 127
   \   00000002   E11A               LDI     R17, 26
   \   00000004   E026               LDI     R18, 6
   \   00000006   5001               SUBI    R16, 1
   \   00000008   4010               SBCI    R17, 0
   \   0000000A   4020               SBCI    R18, 0
   \   0000000C   F7E1               BRNE    $-6
   \   0000000E   C000               RJMP    $+2
   \   00000010   0000               NOP
   \   00000012   9508               RET

   \                                 In  segment CODE, align 2, keep-with-next
   \                     ?Subroutine68:
   \   00000000   ....               RCALL   ?Subroutine127
   \                     ??CrossCallReturnLabel_380:
   \   00000002   9AC2               SBI     0x18, 0x02
   \   00000004                      REQUIRE ?Subroutine137
   \   00000004                      ;               // Fall through to label ?Subroutine137

   \                                 In  segment CODE, align 2, keep-with-next
   \                     ?Subroutine137:
   \   00000000   9AC3               SBI     0x18, 0x03
   \   00000002   9508               RET

   \                                 In  segment CODE, align 2, keep-with-next
   \                     ?Subroutine65:
   \   00000000   ....               RCALL   ?Subroutine121
   \                     ??CrossCallReturnLabel_234:
   \   00000002   9300....           STS     til, R16
   \   00000006   9508               RET

   \                                 In  segment CODE, align 2, keep-with-next
   \                     ?Subroutine18:
   \   00000000   ....               RCALL   ??rprintfStr
   \   00000002   9100....           LDS     R16, pultadr
   \   00000006   ....               RCALL   ?Subroutine94
   \                     ??CrossCallReturnLabel_326:
   \   00000008   ....               RJMP    ?Subroutine109

   \                                 In  segment CODE, align 2, keep-with-next
   \                     ?Subroutine13:
   \   00000000   E000               LDI     R16, 0
   \   00000002                      REQUIRE ?Subroutine117
   \   00000002                      ;               // Fall through to label ?Subroutine117

   \                                 In  segment CODE, align 2, keep-with-next
   \                     ?Subroutine117:
   \   00000000   ....               LDI     R20, LOW(modegro)
   \   00000002   ....               LDI     R21, (modegro) >> 8
   \   00000004   ....               RJMP    __eeput8_16

   \                                 In  segment CODE, align 2, keep-with-next
   \                     ?Subroutine12:
   \   00000000   E000               LDI     R16, 0
   \   00000002                      REQUIRE ?Subroutine116
   \   00000002                      ;               // Fall through to label ?Subroutine116

   \                                 In  segment CODE, align 2, keep-with-next
   \                     ?Subroutine116:
   \   00000000   ....               LDI     R20, LOW(fmode)
   \   00000002   ....               LDI     R21, (fmode) >> 8
   \   00000004   ....               RJMP    __eeput8_16

   \                                 In  segment CODE, align 2, keep-with-next
   \                     ?Subroutine3:
   \   00000000   E001               LDI     R16, 1
   \   00000002   ....               RCALL   ?Subroutine121
   \                     ??CrossCallReturnLabel_232:
   \   00000004   E000               LDI     R16, 0
   \   00000006   ....               LDI     R30, LOW(timerzad)
   \   00000008   ....               LDI     R31, (timerzad) >> 8
   \   0000000A   ....               RCALL   ?Subroutine97
   \                     ??CrossCallReturnLabel_167:
   \   0000000C   ....               RJMP    ??source

   \                                 In  segment CODE, align 2, keep-with-next
   \                     ?Subroutine121:
   \   00000000   9300....           STS     zader, R16
   \   00000004   9508               RET

   \                                 In  segment CODE, align 2, keep-with-next
   \                     ?Subroutine132:
   \   00000000   9300....           STS     ??regaoff, R16
   \   00000004   9508               RET

   \                                 In  segment CODE, align 2, keep-with-next
   \                     ?Subroutine80:
   \   00000000   ....               RCALL   ??analizCOD
   \   00000002                      REQUIRE ?Subroutine133
   \   00000002                      ;               // Fall through to label ?Subroutine133

   \                                 In  segment CODE, align 2, keep-with-next
   \                     ?Subroutine133:
   \   00000000   9300....           STS     pultadr, R16
   \   00000004   9508               RET

   \                                 In  segment CODE, align 2, keep-with-next
   \                     ?Subroutine78:
   \   00000000   9100....           LDS     R16, pultadr
   \   00000004   9508               RET

   \                                 In  segment CODE, align 2, keep-with-next
   \                     ?Subroutine119:
   \   00000000   ....               RCALL   ?Subroutine127
   \                     ??CrossCallReturnLabel_381:
   \   00000002   E000               LDI     R16, 0
   \   00000004   9508               RET

   \                                 In  segment CODE, align 2, keep-with-next
   \                     ?Subroutine67:
   \   00000000   E70F               LDI     R16, 127
   \   00000002   E318               LDI     R17, 56
   \   00000004   E021               LDI     R18, 1
   \   00000006   5001               SUBI    R16, 1
   \   00000008   4010               SBCI    R17, 0
   \   0000000A   4020               SBCI    R18, 0
   \   0000000C   F7E1               BRNE    $-6
   \   0000000E   C000               RJMP    $+2
   \   00000010   0000               NOP
   \   00000012   9508               RET

   \                                 In  segment CODE, align 2, keep-with-next
   \                     ?Subroutine15:
   \   00000000   ....               RCALL   ?Subroutine114
   \                     ??CrossCallReturnLabel_219:
   \   00000002   ....               RCALL   ?Subroutine119
   \                     ??CrossCallReturnLabel_230:
   \   00000004   ....               RCALL   ?Subroutine121
   \                     ??CrossCallReturnLabel_233:
   \   00000006   ....               RJMP    ?Subroutine132

   \                                 In  segment CODE, align 2, keep-with-next
   \                     ?Subroutine14:
   \   00000000   ....               RCALL   ?Subroutine115
   \                     ??CrossCallReturnLabel_376:
   \   00000002   9300....           STS     onok, R16
   \   00000006   9508               RET

   \                                 In  segment CODE, align 2, keep-with-next
   \                     ?Subroutine115:
   \   00000000   E000               LDI     R16, 0
   \   00000002                      REQUIRE ??Subroutine150_0
   \   00000002                      ;               // Fall through to label ??Subroutine150_0

   \                                 In  segment CODE, align 2, keep-with-next
   \                     ??Subroutine150_0:
   \   00000000   9300....           STS     on, R16
   \   00000004   9508               RET

   \                                 In  segment CODE, align 2, keep-with-next
   \                     ??Subroutine152_0:
   \   00000000   E000               LDI     R16, 0
   \   00000002   ....               RJMP    ?Subroutine133

   \                                 In  segment CODE, align 2, keep-with-next
   \                     ?Subroutine114:
   \   00000000   9300....           STS     aoff, R16
   \   00000004   9508               RET

   \                                 In  segment CODE, align 2, keep-with-next
   \                     ?Subroutine76:
   \   00000000   EF0F               LDI     R16, 255
   \   00000002   E314               LDI     R17, 52
   \   00000004   E02C               LDI     R18, 12
   \   00000006   5001               SUBI    R16, 1
   \   00000008   4010               SBCI    R17, 0
   \   0000000A   4020               SBCI    R18, 0
   \   0000000C   F7E1               BRNE    $-6
   \   0000000E   C000               RJMP    $+2
   \   00000010   0000               NOP
   \   00000012   9508               RET

   \                                 In  segment CODE, align 2, keep-with-next
   \                     ?Subroutine16:
   \   00000000   E000               LDI     R16, 0
   \   00000002   ....               RJMP    ??led_all

   \                                 In  segment CODE, align 2, keep-with-next
   \                     ??Subroutine153_0:
   \   00000000   E001               LDI     R16, 1
   \   00000002   ....               RJMP    ??led_all

   \                                 In  segment CODE, align 2, keep-with-next
   \                     ?Subroutine72:
   \   00000000   9100....           LDS     R16, mode
   \   00000004                      REQUIRE ?Subroutine136
   \   00000004                      ;               // Fall through to label ?Subroutine136

   \                                 In  segment CODE, align 2, keep-with-next
   \                     ?Subroutine136:
   \   00000000   2300               TST     R16
   \   00000002   9508               RET

   \                                 In  segment CODE, align 2, keep-with-next
   \                     ?Subroutine66:
   \   00000000   ....               RCALL   ?Subroutine118
   \                     ??CrossCallReturnLabel_226:
   \   00000002                      REQUIRE ?Subroutine139
   \   00000002                      ;               // Fall through to label ?Subroutine139

   \                                 In  segment CODE, align 2, keep-with-next
   \                     ?Subroutine139:
   \   00000000   3001               CPI     R16, 1
   \   00000002   9508               RET

   \                                 In  segment CODE, align 2, keep-with-next
   \                     ?Subroutine118:
   \   00000000   ....               LDI     R20, LOW(modegro)
   \   00000002   ....               LDI     R21, (modegro) >> 8
   \   00000004   ....               RJMP    __eeget8_16

   \                                 In  segment CODE, align 2, keep-with-next
   \                     ?Subroutine79:
   \   00000000   9100....           LDS     R16, `write`
   \   00000004   ....               RJMP    ?Subroutine139
    170          //***************************************************************************
    171          
    172          
    173          
    174          
    175          
    176          
    177          
    178          
    179          
    180          
    181          
    182           
    183          

   \                                 In  segment CODE, align 2, keep-with-next
    184          uchar getadr()//адреса  команд
   \                     ??getadr:
    185          {
    186            uchar adr=0;
   \   00000000   E000               LDI     R16, 0
    187            if (tekfunc==0) {adr=1; SET(PORTB,0);}//s1
   \   00000002   9110....           LDS     R17, tekfunc
   \   00000006   2311               TST     R17
   \   00000008   F411               BRNE    ??getadr_1
   \   0000000A   E001               LDI     R16, 1
   \   0000000C   C02F               RJMP    ??getadr_2
    188            if (tekfunc==1) {adr=5; SET(PORTB,1);}
   \                     ??getadr_1:
   \   0000000E   3011               CPI     R17, 1
   \   00000010   F411               BRNE    ??getadr_3
   \   00000012   E005               LDI     R16, 5
   \   00000014   C030               RJMP    ??getadr_4
    189            if (tekfunc==2) {adr=10;SET(PORTB,2);}
   \                     ??getadr_3:
   \   00000016   3012               CPI     R17, 2
   \   00000018   F411               BRNE    ??getadr_5
   \   0000001A   E00A               LDI     R16, 10
   \   0000001C   C031               RJMP    ??getadr_6
    190            if (tekfunc==3) {adr=15;SET(PORTB,3);}
   \                     ??getadr_5:
   \   0000001E   3013               CPI     R17, 3
   \   00000020   F411               BRNE    ??getadr_7
   \   00000022   E00F               LDI     R16, 15
   \   00000024   C032               RJMP    ??getadr_8
    191            if (tekfunc==4) {adr=20;SET(PORTB,4);}//s5 или ONтыл
   \                     ??getadr_7:
   \   00000026   3014               CPI     R17, 4
   \   00000028   F411               BRNE    ??getadr_9
   \   0000002A   E104               LDI     R16, 20
   \   0000002C   C038               RJMP    ??getadr_10
    192            if (tekfunc==5) {adr=55;SET(PORTB,0);SET(PORTB,2);SET(PORTB,4);}//command return
   \                     ??getadr_9:
   \   0000002E   3015               CPI     R17, 5
   \   00000030   F411               BRNE    ??getadr_11
   \   00000032   E307               LDI     R16, 55
   \   00000034   C032               RJMP    ??getadr_12
    193            if (tekfunc==6) {adr=25;SET(PORTD,7);}//on standby
   \                     ??getadr_11:
   \   00000036   3016               CPI     R17, 6
   \   00000038   F411               BRNE    ??getadr_13
   \   0000003A   E109               LDI     R16, 25
   \   0000003C   C035               RJMP    ??getadr_14
    194            if (tekfunc==7) {adr=30;SET(PORTB,5);}//aoff
   \                     ??getadr_13:
   \   0000003E   3017               CPI     R17, 7
   \   00000040   F411               BRNE    ??getadr_15
   \   00000042   E10E               LDI     R16, 30
   \   00000044   C035               RJMP    ??getadr_16
    195            if (tekfunc==8) {adr=35;AC_ON;}//mute
   \                     ??getadr_15:
   \   00000046   3018               CPI     R17, 8
   \   00000048   F411               BRNE    ??getadr_17
   \   0000004A   E203               LDI     R16, 35
   \   0000004C   C036               RJMP    ??getadr_18
    196            if (tekfunc==9) {adr=40; }//select
   \                     ??getadr_17:
   \   0000004E   3019               CPI     R17, 9
   \   00000050   F411               BRNE    ??getadr_19
   \   00000052   E208               LDI     R16, 40
   \   00000054   9508               RET
    197            if (tekfunc==10) {adr=45; }//громкость увеличить
   \                     ??getadr_19:
   \   00000056   301A               CPI     R17, 10
   \   00000058   F411               BRNE    ??getadr_20
   \   0000005A   E20D               LDI     R16, 45
   \   0000005C   9508               RET
    198            if (tekfunc==11) {adr=50; }//громкость уменьшить
   \                     ??getadr_20:
   \   0000005E   301B               CPI     R17, 11
   \   00000060   F411               BRNE    ??getadr_21
   \   00000062   E302               LDI     R16, 50
   \   00000064   9508               RET
    199            
    200            //дублирование команд
    201             if (tekfunc==12) {adr=60; SET(PORTB,0);}//s1
   \                     ??getadr_21:
   \   00000066   301C               CPI     R17, 12
   \   00000068   F419               BRNE    ??getadr_22
   \   0000006A   E30C               LDI     R16, 60
   \                     ??getadr_2:
   \   0000006C   9AC0               SBI     0x18, 0x00
   \   0000006E   9508               RET
    202            if (tekfunc==13) {adr=65; SET(PORTB,1);}
   \                     ??getadr_22:
   \   00000070   301D               CPI     R17, 13
   \   00000072   F419               BRNE    ??getadr_23
   \   00000074   E401               LDI     R16, 65
   \                     ??getadr_4:
   \   00000076   9AC1               SBI     0x18, 0x01
   \   00000078   9508               RET
    203            if (tekfunc==14) {adr=70;SET(PORTB,2);}
   \                     ??getadr_23:
   \   0000007A   301E               CPI     R17, 14
   \   0000007C   F419               BRNE    ??getadr_24
   \   0000007E   E406               LDI     R16, 70
   \                     ??getadr_6:
   \   00000080   9AC2               SBI     0x18, 0x02
   \   00000082   9508               RET
    204            if (tekfunc==15) {adr=75;SET(PORTB,3);}
   \                     ??getadr_24:
   \   00000084   301F               CPI     R17, 15
   \   00000086   F411               BRNE    ??getadr_25
   \   00000088   E40B               LDI     R16, 75
   \                     ??getadr_8:
   \   0000008A   ....               RJMP    ?Subroutine137
    205            if (tekfunc==16) {adr=80;SET(PORTB,4);}//s5 или ONтыл
   \                     ??getadr_25:
   \   0000008C   3110               CPI     R17, 16
   \   0000008E   F411               BRNE    ??getadr_26
   \   00000090   E500               LDI     R16, 80
   \   00000092   C005               RJMP    ??getadr_10
    206            if (tekfunc==17) {adr=85;SET(PORTB,0);SET(PORTB,2);SET(PORTB,4);}//command return
   \                     ??getadr_26:
   \   00000094   3111               CPI     R17, 17
   \   00000096   F429               BRNE    ??getadr_27
   \   00000098   E505               LDI     R16, 85
   \                     ??getadr_12:
   \   0000009A   9AC0               SBI     0x18, 0x00
   \   0000009C   9AC2               SBI     0x18, 0x02
   \                     ??getadr_10:
   \   0000009E   9AC4               SBI     0x18, 0x04
   \   000000A0   9508               RET
    207            if (tekfunc==18) {adr=90;SET(PORTD,7);}//on standby
   \                     ??getadr_27:
   \   000000A2   3112               CPI     R17, 18
   \   000000A4   F411               BRNE    ??getadr_28
   \   000000A6   E50A               LDI     R16, 90
   \                     ??getadr_14:
   \   000000A8   ....               RJMP    ?Subroutine138
    208            if (tekfunc==19) {adr=95;SET(PORTB,5);}//aoff
   \                     ??getadr_28:
   \   000000AA   3113               CPI     R17, 19
   \   000000AC   F419               BRNE    ??getadr_29
   \   000000AE   E50F               LDI     R16, 95
   \                     ??getadr_16:
   \   000000B0   9AC5               SBI     0x18, 0x05
   \   000000B2   9508               RET
    209            if (tekfunc==20) {adr=100;AC_ON;}//mute
   \                     ??getadr_29:
   \   000000B4   3114               CPI     R17, 20
   \   000000B6   F419               BRNE    ??getadr_30
   \   000000B8   E604               LDI     R16, 100
   \                     ??getadr_18:
   \   000000BA   9A96               SBI     0x12, 0x06
   \   000000BC   9508               RET
    210            if (tekfunc==21) {adr=105; }//select
   \                     ??getadr_30:
   \   000000BE   3115               CPI     R17, 21
   \   000000C0   F411               BRNE    ??getadr_31
   \   000000C2   E609               LDI     R16, 105
   \   000000C4   9508               RET
    211            if (tekfunc==22) {adr=110; }//громкость увеличить
   \                     ??getadr_31:
   \   000000C6   3116               CPI     R17, 22
   \   000000C8   F411               BRNE    ??getadr_32
   \   000000CA   E60E               LDI     R16, 110
   \   000000CC   9508               RET
    212            if (tekfunc==23) {adr=115; }//громкость уменьшить
   \                     ??getadr_32:
   \   000000CE   3117               CPI     R17, 23
   \   000000D0   F409               BRNE    ??getadr_33
   \   000000D2   E703               LDI     R16, 115
    213            return(adr);
   \                     ??getadr_33:
   \   000000D4   9508               RET
   \   000000D6                      REQUIRE _A_PORTB
   \   000000D6                      REQUIRE _A_PORTD
    214          }

   \                                 In  segment CODE, align 2, keep-with-next
   \                     ?Subroutine138:
   \   00000000   9A97               SBI     0x12, 0x07
   \   00000002   9508               RET

   \                                 In  segment CODE, align 2, keep-with-next
    215          void pult() 
   \                     ??pult:
    216          {
    217             tON=1500; zader=1;timerzad=0; source(); p2;   //время включения АС при переключениях
   \   00000000   ED0C               LDI     R16, 220
   \   00000002   E015               LDI     R17, 5
   \   00000004   ....               LDI     R30, LOW(tON)
   \   00000006   ....               LDI     R31, (tON) >> 8
   \   00000008   ....               RCALL   ?Subroutine98
   \                     ??CrossCallReturnLabel_360:
   \   0000000A   ....               RCALL   ?Subroutine3
   \                     ??CrossCallReturnLabel_8:
   \   0000000C   ....               RJMP    ?Subroutine82
    218          }

   \                                 In  segment CODE, align 2, keep-with-next
   \                     ?Subroutine82:
   \   00000000   EF0F               LDI     R16, 255
   \   00000002   E710               LDI     R17, 112
   \   00000004   E022               LDI     R18, 2
   \   00000006   5001               SUBI    R16, 1
   \   00000008   4010               SBCI    R17, 0
   \   0000000A   4020               SBCI    R18, 0
   \   0000000C   F7E1               BRNE    $-6
   \   0000000E   C000               RJMP    $+2
   \   00000010   0000               NOP
   \   00000012   9508               RET
    219          
    220          
    221          
    222          

   \                                 In  segment CODE, align 2, keep-with-next
    223          void normal(uchar rez)//-----------------------главная логика --------------------
   \                     ??normal:
    224          {   
   \   00000000   938A               ST      -Y, R24
   \   00000002   2F80               MOV     R24, R16
    225             pultadr=0; 
   \   00000004   ....               RCALL   ??Subroutine152_0
    226            
    227             migWORK();
   \                     ??CrossCallReturnLabel_394:
   \   00000006   ....               RCALL   ??migWORK
    228             
    229            
    230             if (rez)
   \   00000008   2388               TST     R24
   \   0000000A   F409               BRNE    $+2+2
   \   0000000C   C07E               RJMP    ??CrossCallReturnLabel_98
    231             {//если есть команда с пульта
    232               
    233               pultadr=analizCOD();
   \   0000000E   ....               RCALL   ?Subroutine80
    234               
    235               if (pultadr==0){  RES(PORTD,7); delay_ms(100); SET(PORTD,7);
   \                     ??CrossCallReturnLabel_387:
   \   00000010   2300               TST     R16
   \   00000012   F439               BRNE    ??normal_1
   \   00000014   9897               CBI     0x12, 0x07
   \   00000016   ....               RCALL   ?Subroutine67
   \                     ??CrossCallReturnLabel_97:
   \   00000018   9A97               SBI     0x12, 0x07
    236                rprintfStr("normal>no find command ");  ent;}
   \   0000001A   ....               LDI     R16, LOW(`?<Constant "normal>no find command ">`)
   \   0000001C   ....               LDI     R17, (`?<Constant "normal>no find command ">`) >> 8
   \   0000001E   ....               RCALL   ??rprintfStr
   \   00000020   C005               RJMP    ??CrossCallReturnLabel_328
    237               else { rprintfStr("normal>command find  adr= ");
   \                     ??normal_1:
   \   00000022   ....               LDI     R16, LOW(`?<Constant "normal>command find  ...">`)
   \   00000024   ....               LDI     R17, (`?<Constant "normal>command find  ...">`) >> 8
   \   00000026   ....               RCALL   ??rprintfStr
    238                rprintfFloat(6, pultadr ); ent;}
   \   00000028   ....               RCALL   ?Subroutine78
   \                     ??CrossCallReturnLabel_114:
   \   0000002A   ....               RCALL   ?Subroutine19
   \                     ??CrossCallReturnLabel_328:
   \   0000002C   ....               RCALL   ?Subroutine128
    239               
    240               if (pultadr==1 || pultadr==60) {if (sel!=1)  { AC_OFF; lastsel=sel; sel=1; pult(); } else   migINI(sel-1, 3 ,0); 
   \                     ??CrossCallReturnLabel_250:
   \   0000002E   ....               RCALL   ?Subroutine78
   \                     ??CrossCallReturnLabel_115:
   \   00000030   3001               CPI     R16, 1
   \   00000032   F011               BREQ    ??normal_2
   \   00000034   330C               CPI     R16, 60
   \   00000036   F451               BRNE    ??normal_3
   \                     ??normal_2:
   \   00000038   ....               RCALL   ?Subroutine134
   \                     ??CrossCallReturnLabel_262:
   \   0000003A   3001               CPI     R16, 1
   \   0000003C   F021               BREQ    ??normal_4
   \   0000003E   ....               RCALL   ?Subroutine74
   \                     ??CrossCallReturnLabel_99:
   \   00000040   E001               LDI     R16, 1
   \   00000042   ....               RCALL   ?Subroutine84
   \                     ??CrossCallReturnLabel_134:
   \   00000044   C003               RJMP    ??normal_3
   \                     ??normal_4:
   \   00000046   ....               RCALL   ?Subroutine47
    241           }
   \                     ??CrossCallReturnLabel_54:
   \   00000048   E000               LDI     R16, 0
   \   0000004A   ....               RCALL   ??migINI
    242               if (pultadr==5 || pultadr==65) {if (sel!=2)  {AC_OFF; lastsel=sel;sel=2; pult(); }  else  migINI(sel-1, 3 ,0); 
   \                     ??normal_3:
   \   0000004C   ....               RCALL   ?Subroutine78
   \                     ??CrossCallReturnLabel_116:
   \   0000004E   3005               CPI     R16, 5
   \   00000050   F011               BREQ    ??normal_5
   \   00000052   3401               CPI     R16, 65
   \   00000054   F451               BRNE    ??normal_6
   \                     ??normal_5:
   \   00000056   ....               RCALL   ?Subroutine134
   \                     ??CrossCallReturnLabel_263:
   \   00000058   3002               CPI     R16, 2
   \   0000005A   F021               BREQ    ??normal_7
   \   0000005C   ....               RCALL   ?Subroutine74
   \                     ??CrossCallReturnLabel_100:
   \   0000005E   E002               LDI     R16, 2
   \   00000060   ....               RCALL   ?Subroutine84
   \                     ??CrossCallReturnLabel_133:
   \   00000062   C003               RJMP    ??normal_6
   \                     ??normal_7:
   \   00000064   ....               RCALL   ?Subroutine47
    243          }
   \                     ??CrossCallReturnLabel_55:
   \   00000066   E001               LDI     R16, 1
   \   00000068   ....               RCALL   ??migINI
    244               if (pultadr==10 || pultadr==70) {if (sel!=3) {AC_OFF; lastsel=sel;sel=3; pult(); } else    migINI(sel-1, 3 ,0); 
   \                     ??normal_6:
   \   0000006A   ....               RCALL   ?Subroutine78
   \                     ??CrossCallReturnLabel_117:
   \   0000006C   300A               CPI     R16, 10
   \   0000006E   F011               BREQ    ??normal_8
   \   00000070   3406               CPI     R16, 70
   \   00000072   F451               BRNE    ??normal_9
   \                     ??normal_8:
   \   00000074   ....               RCALL   ?Subroutine134
   \                     ??CrossCallReturnLabel_264:
   \   00000076   3003               CPI     R16, 3
   \   00000078   F021               BREQ    ??normal_10
   \   0000007A   ....               RCALL   ?Subroutine74
   \                     ??CrossCallReturnLabel_101:
   \   0000007C   E003               LDI     R16, 3
   \   0000007E   ....               RCALL   ?Subroutine84
   \                     ??CrossCallReturnLabel_132:
   \   00000080   C003               RJMP    ??normal_9
   \                     ??normal_10:
   \   00000082   ....               RCALL   ?Subroutine47
    245          }
   \                     ??CrossCallReturnLabel_56:
   \   00000084   E002               LDI     R16, 2
   \   00000086   ....               RCALL   ??migINI
    246               if (pultadr==15 || pultadr==75) {if (sel!=4) {AC_OFF; lastsel=sel;sel=4; pult(); } else   migINI(sel-1, 3 ,0); 
   \                     ??normal_9:
   \   00000088   ....               RCALL   ?Subroutine78
   \                     ??CrossCallReturnLabel_118:
   \   0000008A   300F               CPI     R16, 15
   \   0000008C   F011               BREQ    ??normal_11
   \   0000008E   340B               CPI     R16, 75
   \   00000090   F451               BRNE    ??normal_12
   \                     ??normal_11:
   \   00000092   ....               RCALL   ?Subroutine134
   \                     ??CrossCallReturnLabel_265:
   \   00000094   3004               CPI     R16, 4
   \   00000096   F021               BREQ    ??normal_13
   \   00000098   ....               RCALL   ?Subroutine74
   \                     ??CrossCallReturnLabel_102:
   \   0000009A   E004               LDI     R16, 4
   \   0000009C   ....               RCALL   ?Subroutine84
   \                     ??CrossCallReturnLabel_131:
   \   0000009E   C003               RJMP    ??normal_12
   \                     ??normal_13:
   \   000000A0   ....               RCALL   ?Subroutine47
    247           }
   \                     ??CrossCallReturnLabel_57:
   \   000000A2   E003               LDI     R16, 3
   \   000000A4   ....               RCALL   ??migINI
    248               if ((pultadr==20  || pultadr==80) && mode!=1) { if (sel!=5) {AC_OFF; lastsel=sel;sel=5; pult();}  else  migINI(sel-1, 3 ,0); 
   \                     ??normal_12:
   \   000000A6   ....               RCALL   ?Subroutine78
   \                     ??CrossCallReturnLabel_119:
   \   000000A8   3104               CPI     R16, 20
   \   000000AA   F011               BREQ    ??normal_14
   \   000000AC   3500               CPI     R16, 80
   \   000000AE   F479               BRNE    ??normal_15
   \                     ??normal_14:
   \   000000B0   ....               RCALL   ?Subroutine73
   \                     ??CrossCallReturnLabel_294:
   \   000000B2   F051               BREQ    ??normal_16
   \   000000B4   ....               RCALL   ?Subroutine134
   \                     ??CrossCallReturnLabel_266:
   \   000000B6   3005               CPI     R16, 5
   \   000000B8   F021               BREQ    ??normal_17
   \   000000BA   ....               RCALL   ?Subroutine74
   \                     ??CrossCallReturnLabel_103:
   \   000000BC   E005               LDI     R16, 5
   \   000000BE   ....               RCALL   ?Subroutine84
   \                     ??CrossCallReturnLabel_130:
   \   000000C0   C003               RJMP    ??normal_16
   \                     ??normal_17:
   \   000000C2   ....               RCALL   ?Subroutine47
    249          }
   \                     ??CrossCallReturnLabel_58:
   \   000000C4   E004               LDI     R16, 4
   \   000000C6   ....               RCALL   ??migINI
    250               
    251               
    252               //тыловые  ------------------------------------------------------
    253               if ((  pultadr==20  || pultadr==80) && mode==1) {  
   \                     ??normal_16:
   \   000000C8   ....               RCALL   ?Subroutine78
   \                     ??CrossCallReturnLabel_120:
   \   000000CA   3104               CPI     R16, 20
   \   000000CC   F019               BREQ    ??normal_18
   \                     ??normal_15:
   \   000000CE   ....               RCALL   ?Subroutine78
   \                     ??CrossCallReturnLabel_121:
   \   000000D0   3500               CPI     R16, 80
   \   000000D2   F4D9               BRNE    ??CrossCallReturnLabel_98
   \                     ??normal_18:
   \   000000D4   ....               RCALL   ?Subroutine73
   \                     ??CrossCallReturnLabel_295:
   \   000000D6   F4C9               BRNE    ??CrossCallReturnLabel_98
    254                   
    255                 if (til==0) { SET(PORTC,5);til=1;  
   \   000000D8   9100....           LDS     R16, til
   \   000000DC   2300               TST     R16
   \   000000DE   F471               BRNE    ??normal_19
   \   000000E0   9AAD               SBI     0x15, 0x05
   \   000000E2   E001               LDI     R16, 1
   \   000000E4   9300....           STS     til, R16
    256                         for (uchar i=0; i<2; i++) {SET(PORTB,4);p2;RES(PORTB,4);p2;}  SET(PORTB,4);  pultadr=0;  p1;}
   \   000000E8   E002               LDI     R16, 2
   \                     ??normal_20:
   \   000000EA   9AC4               SBI     0x18, 0x04
   \   000000EC   ....               RCALL   ?Subroutine122
   \                     ??CrossCallReturnLabel_235:
   \   000000EE   98C4               CBI     0x18, 0x04
   \   000000F0   ....               RCALL   ?Subroutine122
   \                     ??CrossCallReturnLabel_236:
   \   000000F2   950A               DEC     R16
   \   000000F4   F7D1               BRNE    ??normal_20
   \   000000F6   9AC4               SBI     0x18, 0x04
   \   000000F8   E000               LDI     R16, 0
   \   000000FA   C005               RJMP    ??normal_21
    257                 else 
    258                 if (til==1) {   RES(PORTC,5); RES(PORTB,4); til=0; pultadr=0; p1; }
   \                     ??normal_19:
   \   000000FC   98AD               CBI     0x15, 0x05
   \   000000FE   98C4               CBI     0x18, 0x04
   \   00000100   E000               LDI     R16, 0
   \   00000102   9300....           STS     til, R16
   \                     ??normal_21:
   \   00000106   ....               RCALL   ?Subroutine133
   \                     ??CrossCallReturnLabel_389:
   \   00000108   ....               RCALL   ?Subroutine67
    259               
    260                                                               }
    261             }//если есть команда с пульта
    262             
    263            //--------------- mute -------------------
    264            if (mute==1) AC_OFF; else { if (zader==0) AC_ON; }
   \                     ??CrossCallReturnLabel_98:
   \   0000010A   ....               RCALL   ?Subroutine87
   \                     ??CrossCallReturnLabel_281:
   \   0000010C   F409               BRNE    $+2+2
   \   0000010E   C09D               RJMP    ??normal_22
   \   00000110   9896               CBI     0x12, 0x06
    265            if (zader==1) {timerzad++;  if (timerzad> tON)  {zader=0;timerzad=0; if (mute!=1)AC_ON;} }//задержка включения
   \                     ??normal_23:
   \   00000112   9100....           LDS     R16, zader
   \   00000116   2300               TST     R16
   \   00000118   F099               BREQ    ??normal_24
   \   0000011A   ....               LDI     R30, LOW(timerzad)
   \   0000011C   ....               LDI     R31, (timerzad) >> 8
   \   0000011E   ....               RCALL   ?Subroutine36
   \                     ??CrossCallReturnLabel_42:
   \   00000120   ....               RCALL   ?Subroutine98
   \                     ??CrossCallReturnLabel_361:
   \   00000122   ....               LDI     R30, LOW(tON)
   \   00000124   ....               LDI     R31, (tON) >> 8
   \   00000126   ....               RCALL   ?Subroutine125
   \                     ??CrossCallReturnLabel_312:
   \   00000128   ....               LDI     R30, LOW(timerzad)
   \   0000012A   ....               LDI     R31, (timerzad) >> 8
   \   0000012C   ....               RCALL   ?Subroutine110
   \                     ??CrossCallReturnLabel_203:
   \   0000012E   1702               CP      R16, R18
   \   00000130   0713               CPC     R17, R19
   \   00000132   F430               BRCC    ??normal_24
   \   00000134   E000               LDI     R16, 0
   \   00000136   ....               RCALL   ?Subroutine121
   \                     ??CrossCallReturnLabel_231:
   \   00000138   ....               RCALL   ?Subroutine97
   \                     ??CrossCallReturnLabel_166:
   \   0000013A   ....               RCALL   ?Subroutine87
   \                     ??CrossCallReturnLabel_282:
   \   0000013C   F409               BRNE    ??normal_24
   \                     ??normal_25:
   \   0000013E   9A96               SBI     0x12, 0x06
    266            
    267             if ((keyMUTE ||pultadr==35 || pultadr==100) && mute==0) { AC_OFF; mute=1; p5; pultadr=0;}
   \                     ??normal_24:
   \   00000140   9981               SBIC    0x10, 0x01
   \   00000142   C002               RJMP    ??normal_26
   \   00000144   9B85               SBIS    0x10, 0x05
   \   00000146   C005               RJMP    ??normal_27
   \                     ??normal_26:
   \   00000148   ....               RCALL   ?Subroutine78
   \                     ??CrossCallReturnLabel_122:
   \   0000014A   3203               CPI     R16, 35
   \   0000014C   F011               BREQ    ??normal_27
   \   0000014E   3604               CPI     R16, 100
   \   00000150   F429               BRNE    ??CrossCallReturnLabel_383
   \                     ??normal_27:
   \   00000152   ....               RCALL   ?Subroutine87
   \                     ??CrossCallReturnLabel_283:
   \   00000154   F419               BRNE    ??CrossCallReturnLabel_383
   \   00000156   9896               CBI     0x12, 0x06
   \   00000158   E001               LDI     R16, 1
   \   0000015A   ....               RCALL   ?Subroutine9
    268             if ((keyMUTE ||pultadr==35 || pultadr==100) && mute==1) { AC_ON; mute=0; p5; pultadr=0; }   
   \                     ??CrossCallReturnLabel_383:
   \   0000015C   9981               SBIC    0x10, 0x01
   \   0000015E   C002               RJMP    ??normal_28
   \   00000160   9B85               SBIS    0x10, 0x05
   \   00000162   C005               RJMP    ??normal_29
   \                     ??normal_28:
   \   00000164   ....               RCALL   ?Subroutine78
   \                     ??CrossCallReturnLabel_123:
   \   00000166   3203               CPI     R16, 35
   \   00000168   F011               BREQ    ??normal_29
   \   0000016A   3604               CPI     R16, 100
   \   0000016C   F429               BRNE    ??CrossCallReturnLabel_384
   \                     ??normal_29:
   \   0000016E   ....               RCALL   ?Subroutine87
   \                     ??CrossCallReturnLabel_284:
   \   00000170   F019               BREQ    ??CrossCallReturnLabel_384
   \   00000172   9A96               SBI     0x12, 0x06
   \   00000174   E000               LDI     R16, 0
   \   00000176   ....               RCALL   ?Subroutine9
    269             
    270             
    271            //--------------- aoff --------------------
    272           
    273             
    274             if ((keyAOFF || pultadr==30 || pultadr==95) && aoff==1 && regaoff>=3)  {  RES(PORTB,5);  p5; aoff=0; regaoff=0; pultadr=0;}//отмена aoff 
   \                     ??CrossCallReturnLabel_384:
   \   00000178   9980               SBIC    0x10, 0x00
   \   0000017A   C002               RJMP    ??normal_30
   \   0000017C   9B85               SBIS    0x10, 0x05
   \   0000017E   C004               RJMP    ??normal_31
   \                     ??normal_30:
   \   00000180   ....               RCALL   ?Subroutine77
   \                     ??CrossCallReturnLabel_108:
   \   00000182   F011               BREQ    ??normal_31
   \   00000184   350F               CPI     R16, 95
   \   00000186   F461               BRNE    ??CrossCallReturnLabel_390
   \                     ??normal_31:
   \   00000188   9100....           LDS     R16, aoff
   \   0000018C   2300               TST     R16
   \   0000018E   F041               BREQ    ??CrossCallReturnLabel_390
   \   00000190   ....               RCALL   ?Subroutine88
   \                     ??CrossCallReturnLabel_140:
   \   00000192   3003               CPI     R16, 3
   \   00000194   F028               BRCS    ??CrossCallReturnLabel_390
   \   00000196   98C5               CBI     0x18, 0x05
   \   00000198   ....               RCALL   ?Subroutine119
   \                     ??CrossCallReturnLabel_229:
   \   0000019A   ....               RCALL   ?Subroutine114
   \                     ??CrossCallReturnLabel_215:
   \   0000019C   ....               RCALL   ?Subroutine132
   \                     ??CrossCallReturnLabel_256:
   \   0000019E   ....               RCALL   ?Subroutine133
    275             
    276            if ((keyAOFF || pultadr==30 || pultadr==95) && regaoff==0) { aoff=1; regaoff++; iniT1(60*60*2)/*2 часа*/; pultadr=0;  for (uchar i=0; i<3; i++)  {SET(PORTB,5);p2;RES(PORTB,5);p2;}  SET(PORTB,5); }
   \                     ??CrossCallReturnLabel_390:
   \   000001A0   9980               SBIC    0x10, 0x00
   \   000001A2   C002               RJMP    ??normal_32
   \   000001A4   9B85               SBIS    0x10, 0x05
   \   000001A6   C004               RJMP    ??normal_33
   \                     ??normal_32:
   \   000001A8   ....               RCALL   ?Subroutine77
   \                     ??CrossCallReturnLabel_109:
   \   000001AA   F011               BREQ    ??normal_33
   \   000001AC   350F               CPI     R16, 95
   \   000001AE   F469               BRNE    ??normal_34
   \                     ??normal_33:
   \   000001B0   ....               RCALL   ?Subroutine88
   \                     ??CrossCallReturnLabel_141:
   \   000001B2   2300               TST     R16
   \   000001B4   F451               BRNE    ??normal_34
   \   000001B6   ....               RCALL   ?Subroutine8
   \                     ??CrossCallReturnLabel_216:
   \   000001B8   ....               RCALL   ?Subroutine132
   \                     ??CrossCallReturnLabel_257:
   \   000001BA   E200               LDI     R16, 32
   \   000001BC   E11C               LDI     R17, 28
   \   000001BE   ....               RCALL   ?Subroutine46
   \                     ??CrossCallReturnLabel_53:
   \   000001C0   ....               RCALL   ??Subroutine152_0
   \                     ??CrossCallReturnLabel_395:
   \   000001C2   E003               LDI     R16, 3
   \                     ??normal_35:
   \   000001C4   ....               RCALL   ?Subroutine17
   \                     ??CrossCallReturnLabel_19:
   \   000001C6   F7F1               BRNE    ??normal_35
   \   000001C8   9AC5               SBI     0x18, 0x05
    277            if ((keyAOFF || pultadr==30 || pultadr==95) && regaoff==1) { aoff=1; regaoff++; iniT1(60*60*1)/*1 часа*/; pultadr=0; for (uchar i=0; i<2; i++)  {SET(PORTB,5);p2;RES(PORTB,5);p2;}  SET(PORTB,5); }
   \                     ??normal_34:
   \   000001CA   9980               SBIC    0x10, 0x00
   \   000001CC   C002               RJMP    ??normal_36
   \   000001CE   9B85               SBIS    0x10, 0x05
   \   000001D0   C004               RJMP    ??normal_37
   \                     ??normal_36:
   \   000001D2   ....               RCALL   ?Subroutine77
   \                     ??CrossCallReturnLabel_110:
   \   000001D4   F011               BREQ    ??normal_37
   \   000001D6   350F               CPI     R16, 95
   \   000001D8   F471               BRNE    ??normal_38
   \                     ??normal_37:
   \   000001DA   ....               RCALL   ?Subroutine88
   \                     ??CrossCallReturnLabel_142:
   \   000001DC   3001               CPI     R16, 1
   \   000001DE   F459               BRNE    ??normal_38
   \   000001E0   ....               RCALL   ?Subroutine8
   \                     ??CrossCallReturnLabel_217:
   \   000001E2   E002               LDI     R16, 2
   \   000001E4   ....               RCALL   ?Subroutine132
   \                     ??CrossCallReturnLabel_258:
   \   000001E6   E100               LDI     R16, 16
   \   000001E8   E01E               LDI     R17, 14
   \   000001EA   ....               RCALL   ?Subroutine46
   \                     ??CrossCallReturnLabel_52:
   \   000001EC   ....               RCALL   ??Subroutine152_0
   \                     ??CrossCallReturnLabel_396:
   \   000001EE   E002               LDI     R16, 2
   \                     ??normal_39:
   \   000001F0   ....               RCALL   ?Subroutine17
   \                     ??CrossCallReturnLabel_20:
   \   000001F2   F7F1               BRNE    ??normal_39
   \   000001F4   9AC5               SBI     0x18, 0x05
    278            if ((keyAOFF || pultadr==30 || pultadr==95) && regaoff==2) { aoff=1; regaoff++; iniT1(60*60*0.5)/*0.5 часа*/; pultadr=0; for (uchar i=0; i<1; i++)  {SET(PORTB,5);p2;RES(PORTB,5);p2;}  SET(PORTB,5); }
   \                     ??normal_38:
   \   000001F6   9980               SBIC    0x10, 0x00
   \   000001F8   C002               RJMP    ??normal_40
   \   000001FA   9B85               SBIS    0x10, 0x05
   \   000001FC   C004               RJMP    ??normal_41
   \                     ??normal_40:
   \   000001FE   ....               RCALL   ?Subroutine77
   \                     ??CrossCallReturnLabel_111:
   \   00000200   F011               BREQ    ??normal_41
   \   00000202   350F               CPI     R16, 95
   \   00000204   F479               BRNE    ??normal_42
   \                     ??normal_41:
   \   00000206   ....               RCALL   ?Subroutine88
   \                     ??CrossCallReturnLabel_143:
   \   00000208   3002               CPI     R16, 2
   \   0000020A   F461               BRNE    ??normal_42
   \   0000020C   ....               RCALL   ?Subroutine8
   \                     ??CrossCallReturnLabel_218:
   \   0000020E   E003               LDI     R16, 3
   \   00000210   ....               RCALL   ?Subroutine132
   \                     ??CrossCallReturnLabel_259:
   \   00000212   E008               LDI     R16, 8
   \   00000214   E017               LDI     R17, 7
   \   00000216   ....               RCALL   ?Subroutine46
   \                     ??CrossCallReturnLabel_51:
   \   00000218   ....               RCALL   ??Subroutine152_0
   \                     ??CrossCallReturnLabel_397:
   \   0000021A   9AC5               SBI     0x18, 0x05
   \   0000021C   ....               RCALL   ?Subroutine82
   \                     ??CrossCallReturnLabel_126:
   \   0000021E   98C5               CBI     0x18, 0x05
   \   00000220   ....               RCALL   ?Subroutine82
   \                     ??CrossCallReturnLabel_127:
   \   00000222   9AC5               SBI     0x18, 0x05
    279            
    280             
    281           //  if ((keyAOFF || pultadr==30 || pultadr==95) && aoff==0) 
    282           //     {   aoff=1;  iniT1(60*60*2)/*2 часа*/; pultadr=0;
    283           //         for (uchar i=0; i<2; i++)  {SET(PORTB,5);p2;RES(PORTB,5);p2;}  SET(PORTB,5);
    284            //   
    285            //        
    286           //         for (uint i=0; i<1000; i++)
    287           //         {   char rez=du_main(0);  if (rez==1) { pultadr=analizCOD();break; }}
    288           //         
    289            //    //если user продолжает удерживать
    290            //    if ((keyAOFF || pultadr==30 || pultadr==95) ) { iniT1(60*30);/*30 мин*/
    291           //      for (uchar i=0; i<4; i++)  {SET(PORTB,5);p2;p2;p2;p2;p2;RES(PORTB,5);p2;}  SET(PORTB,5);
    292            //                                    }
    293            //    
    294             //   }
    295                                                                  
    296             
    297            
    298           
    299            if (aoff==1)  {    WorkT1(); if (T1out) { on=0; onok=0;  aoff=0; p5; zader=0; regaoff=0;}
   \                     ??normal_42:
   \   00000224   9100....           LDS     R16, aoff
   \   00000228   2300               TST     R16
   \   0000022A   F039               BREQ    ??CrossCallReturnLabel_255
   \   0000022C   ....               RCALL   ??WorkT1
   \   0000022E   9100....           LDS     R16, T1out
   \   00000232   2300               TST     R16
   \   00000234   F011               BREQ    ??CrossCallReturnLabel_255
   \   00000236   ....               RCALL   ?Subroutine14
   \                     ??CrossCallReturnLabel_15:
   \   00000238   ....               RCALL   ?Subroutine15
    300                          } 
    301                          
    302           //--------------- select -------------------
    303                          if ( u!=1) {//что бы во время работы UART не срабатывал
   \                     ??CrossCallReturnLabel_255:
   \   0000023A   9100....           LDS     R16, u
   \   0000023E   2300               TST     R16
   \   00000240   F5E1               BRNE    ??normal_43
    304             uchar kol;  if  (mode==1) kol=4; else kol=5;
   \   00000242   ....               RCALL   ?Subroutine73
   \                     ??CrossCallReturnLabel_296:
   \   00000244   F441               BRNE    ??normal_44
   \   00000246   E004               LDI     R16, 4
   \   00000248   C007               RJMP    ??normal_45
   \                     ??normal_22:
   \   0000024A   9100....           LDS     R16, zader
   \   0000024E   2300               TST     R16
   \   00000250   F009               BREQ    $+2+2
   \   00000252   CF5F               RJMP    ??normal_23
   \   00000254   CF74               RJMP    ??normal_25
   \                     ??normal_44:
   \   00000256   E005               LDI     R16, 5
    305             if (keySEL ||pultadr==40 || pultadr==105) 
   \                     ??normal_45:
   \   00000258   9981               SBIC    0x10, 0x01
   \   0000025A   C002               RJMP    ??normal_46
   \   0000025C   9985               SBIC    0x10, 0x05
   \   0000025E   C006               RJMP    ??normal_47
   \                     ??normal_46:
   \   00000260   9110....           LDS     R17, pultadr
   \   00000264   3218               CPI     R17, 40
   \   00000266   F011               BREQ    ??normal_47
   \   00000268   3619               CPI     R17, 105
   \   0000026A   F499               BRNE    ??CrossCallReturnLabel_129
    306                          { 
    307                                  if (sel<=(kol-1)) { AC_OFF; p2; RES(PORTB,(sel-1));lastsel=sel; sel++; pult(); } 
   \                     ??normal_47:
   \   0000026C   950A               DEC     R16
   \   0000026E   9110....           LDS     R17, ??sel
   \   00000272   1701               CP      R16, R17
   \   00000274   9896               CBI     0x12, 0x06
   \   00000276   F030               BRCS    ??normal_48
   \   00000278   ....               RCALL   ?Subroutine82
   \                     ??CrossCallReturnLabel_128:
   \   0000027A   ....               RCALL   ?Subroutine4
   \                     ??CrossCallReturnLabel_260:
   \   0000027C   9300....           STS     ??lastsel, R16
   \   00000280   9503               INC     R16
   \   00000282   C006               RJMP    ??normal_49
    308                                 else { AC_OFF;  RES(PORTB,(sel-1)); sel=1; pult(); }
   \                     ??normal_48:
   \   00000284   9140....           LDS     R20, ??sel
   \   00000288   954A               DEC     R20
   \   0000028A   ....               RCALL   ?Subroutine93
   \                     ??CrossCallReturnLabel_149:
   \   0000028C   ....               RCALL   ?Subroutine113
   \                     ??CrossCallReturnLabel_212:
   \   0000028E   E001               LDI     R16, 1
    309                        
    310                          }
   \                     ??normal_49:
   \   00000290   ....               RCALL   ?Subroutine84
    311                                   
    312            //--------------- return sel -------------------  возврат в предыдущий source                 
    313             if ( pultadr==55 || pultadr==85) {
   \                     ??CrossCallReturnLabel_129:
   \   00000292   ....               RCALL   ?Subroutine78
   \                     ??CrossCallReturnLabel_124:
   \   00000294   3307               CPI     R16, 55
   \   00000296   F011               BREQ    ??normal_50
   \   00000298   3505               CPI     R16, 85
   \   0000029A   F479               BRNE    ??normal_43
    314               
    315               if (sel!=lastsel) {
   \                     ??normal_50:
   \   0000029C   ....               RCALL   ?Subroutine134
   \                     ??CrossCallReturnLabel_267:
   \   0000029E   9110....           LDS     R17, ??lastsel
   \   000002A2   1701               CP      R16, R17
   \   000002A4   F051               BREQ    ??normal_43
    316                 AC_OFF;  RES(PORTB,(sel-1)); uchar tmp1=sel; sel=lastsel;  lastsel=tmp1; pultadr=0;  pult();
   \   000002A6   9896               CBI     0x12, 0x06
   \   000002A8   ....               RCALL   ?Subroutine4
   \                     ??CrossCallReturnLabel_261:
   \   000002AA   9110....           LDS     R17, ??lastsel
   \   000002AE   9310....           STS     ??sel, R17
   \   000002B2   9300....           STS     ??lastsel, R16
   \   000002B6   ....               RCALL   ??Subroutine152_0
   \                     ??CrossCallReturnLabel_398:
   \   000002B8   ....               RCALL   ??pult
    317               }
    318                                                }
    319                        
    320                                    }//что бы во время работы UART не срабатывал
    321                                     
    322                                    
    323                           
    324           //--------------- ГРОМКОСТЬ -------------------
    325             if (pultadr==45 || pultadr==110) { gro(1); p5;  pultadr=0; }  
   \                     ??normal_43:
   \   000002BA   ....               RCALL   ?Subroutine78
   \                     ??CrossCallReturnLabel_125:
   \   000002BC   320D               CPI     R16, 45
   \   000002BE   F011               BREQ    ??normal_51
   \   000002C0   360E               CPI     R16, 110
   \   000002C2   F411               BRNE    ??normal_52
   \                     ??normal_51:
   \   000002C4   E001               LDI     R16, 1
   \   000002C6   C005               RJMP    ??normal_53
    326             if (pultadr==50 || pultadr==115) { gro(2); p5;  pultadr=0; }  
   \                     ??normal_52:
   \   000002C8   3302               CPI     R16, 50
   \   000002CA   F011               BREQ    ??normal_54
   \   000002CC   3703               CPI     R16, 115
   \   000002CE   F419               BRNE    ??CrossCallReturnLabel_385
   \                     ??normal_54:
   \   000002D0   E002               LDI     R16, 2
   \                     ??normal_53:
   \   000002D2   ....               RCALL   ??gro
   \   000002D4   ....               RCALL   ??Subroutine151_0
    327             
    328             
    329                          
    330           
    331                                    
    332                                    
    333             
    334             
    335          }
   \                     ??CrossCallReturnLabel_385:
   \   000002D6   ....               RJMP    ?Subroutine135
   \   000002D8                      REQUIRE _A_PORTD
   \   000002D8                      REQUIRE _A_PORTC
   \   000002D8                      REQUIRE _A_PORTB
   \   000002D8                      REQUIRE _A_PIND

   \                                 In  segment CODE, align 2, keep-with-next
   \                     ?Subroutine88:
   \   00000000   9100....           LDS     R16, ??regaoff
   \   00000004   9508               RET

   \                                 In  segment CODE, align 2, keep-with-next
   \                     ?Subroutine87:
   \   00000000   9100....           LDS     R16, mute
   \   00000004   ....               RJMP    ?Subroutine136

   \                                 In  segment CODE, align 2, keep-with-next
   \                     ?Subroutine122:
   \   00000000   EF4F               LDI     R20, 255
   \   00000002   E750               LDI     R21, 112
   \   00000004   E062               LDI     R22, 2
   \   00000006   5041               SUBI    R20, 1
   \   00000008   4050               SBCI    R21, 0
   \   0000000A   4060               SBCI    R22, 0
   \   0000000C   F7E1               BRNE    $-6
   \   0000000E   C000               RJMP    $+2
   \   00000010   0000               NOP
   \   00000012   9508               RET

   \                                 In  segment CODE, align 2, keep-with-next
   \                     ?Subroutine84:
   \   00000000   9300....           STS     ??sel, R16
   \   00000004   ....               RJMP    ??pult

   \                                 In  segment CODE, align 2, keep-with-next
   \                     ?Subroutine77:
   \   00000000   9100....           LDS     R16, pultadr
   \   00000004   310E               CPI     R16, 30
   \   00000006   9508               RET

   \                                 In  segment CODE, align 2, keep-with-next
   \                     ?Subroutine74:
   \   00000000   9896               CBI     0x12, 0x06
   \   00000002   9100....           LDS     R16, ??sel
   \   00000006   9300....           STS     ??lastsel, R16
   \   0000000A   9508               RET

   \                                 In  segment CODE, align 2, keep-with-next
   \                     ?Subroutine47:
   \   00000000   E020               LDI     R18, 0
   \   00000002   E013               LDI     R17, 3
   \   00000004   9508               RET

   \                                 In  segment CODE, align 2, keep-with-next
   \                     ?Subroutine46:
   \   00000000   E020               LDI     R18, 0
   \   00000002   E030               LDI     R19, 0
   \   00000004   ....               RJMP    ??iniT1

   \                                 In  segment CODE, align 2, keep-with-next
   \                     ?Subroutine17:
   \   00000000   9AC5               SBI     0x18, 0x05
   \   00000002   ....               RCALL   ?Subroutine122
   \                     ??CrossCallReturnLabel_237:
   \   00000004   98C5               CBI     0x18, 0x05
   \   00000006   ....               RCALL   ?Subroutine122
   \                     ??CrossCallReturnLabel_238:
   \   00000008   950A               DEC     R16
   \   0000000A   9508               RET

   \                                 In  segment CODE, align 2, keep-with-next
   \                     ?Subroutine9:
   \   00000000   9300....           STS     mute, R16
   \   00000004                      REQUIRE ??Subroutine151_0
   \   00000004                      ;               // Fall through to label ??Subroutine151_0

   \                                 In  segment CODE, align 2, keep-with-next
   \                     ??Subroutine151_0:
   \   00000000   ....               RCALL   ?Subroutine127
   \                     ??CrossCallReturnLabel_382:
   \   00000002                      REQUIRE ??Subroutine152_0
   \   00000002                      ;               // Fall through to label ??Subroutine152_0

   \                                 In  segment CODE, align 2, keep-with-next
   \                     ?Subroutine8:
   \   00000000   E001               LDI     R16, 1
   \   00000002                      REQUIRE ?Subroutine114
   \   00000002                      ;               // Fall through to label ?Subroutine114

   \                                 In  segment CODE, align 2, keep-with-next
   \                     ?Subroutine4:
   \   00000000   9140....           LDS     R20, ??sel
   \   00000004   954A               DEC     R20
   \   00000006   ....               RCALL   ?Subroutine93
   \                     ??CrossCallReturnLabel_152:
   \   00000008   ....               RCALL   ?Subroutine113
   \                     ??CrossCallReturnLabel_213:
   \   0000000A                      REQUIRE ?Subroutine134
   \   0000000A                      ;               // Fall through to label ?Subroutine134

   \                                 In  segment CODE, align 2, keep-with-next
   \                     ?Subroutine134:
   \   00000000   9100....           LDS     R16, ??sel
   \   00000004   9508               RET

   \                                 In  segment CODE, align 2, keep-with-next
   \                     ?Subroutine113:
   \   00000000   9500               COM     R16
   \   00000002   B318               IN      R17, 0x18
   \   00000004   2310               AND     R17, R16
   \   00000006   BB18               OUT     0x18, R17
   \   00000008   9508               RET

   \                                 In  segment CODE, align 2, keep-with-next
   \                     ?Subroutine73:
   \   00000000   9100....           LDS     R16, mode
   \   00000004   ....               RJMP    ?Subroutine139
    336           //------------------------------------------

   \                                 In  segment CODE, align 2, keep-with-next
    337          void source()
   \                     ??source:
    338          {  
    339           
    340            
    341             
    342            if (sel==1){ resOUT(); resled(); SET(PORTC,1);}
   \   00000000   ....               RCALL   ?Subroutine134
   \                     ??CrossCallReturnLabel_268:
   \   00000002   3001               CPI     R16, 1
   \   00000004   F411               BRNE    ??source_1
   \   00000006   ....               RCALL   ?Subroutine85
   \                     ??CrossCallReturnLabel_139:
   \   00000008   9AA9               SBI     0x15, 0x01
    343            if (sel==2){ resOUT(); resled(); SET(PORTC,2);}
   \                     ??source_1:
   \   0000000A   ....               RCALL   ?Subroutine134
   \                     ??CrossCallReturnLabel_269:
   \   0000000C   3002               CPI     R16, 2
   \   0000000E   F411               BRNE    ??source_2
   \   00000010   ....               RCALL   ?Subroutine85
   \                     ??CrossCallReturnLabel_138:
   \   00000012   9AAA               SBI     0x15, 0x02
    344            if (sel==3){ resOUT(); resled(); SET(PORTC,3);}
   \                     ??source_2:
   \   00000014   ....               RCALL   ?Subroutine134
   \                     ??CrossCallReturnLabel_270:
   \   00000016   3003               CPI     R16, 3
   \   00000018   F411               BRNE    ??source_3
   \   0000001A   ....               RCALL   ?Subroutine85
   \                     ??CrossCallReturnLabel_137:
   \   0000001C   9AAB               SBI     0x15, 0x03
    345            if (sel==4){ resOUT(); resled();SET(PORTC,4);}
   \                     ??source_3:
   \   0000001E   ....               RCALL   ?Subroutine134
   \                     ??CrossCallReturnLabel_271:
   \   00000020   3004               CPI     R16, 4
   \   00000022   F411               BRNE    ??source_4
   \   00000024   ....               RCALL   ?Subroutine85
   \                     ??CrossCallReturnLabel_136:
   \   00000026   9AAC               SBI     0x15, 0x04
    346            if (sel==5 && mode==0 ){  resOUT(); resled();SET(PORTC,5);}
   \                     ??source_4:
   \   00000028   ....               RCALL   ?Subroutine134
   \                     ??CrossCallReturnLabel_272:
   \   0000002A   3005               CPI     R16, 5
   \   0000002C   F421               BRNE    ??source_5
   \   0000002E   ....               RCALL   ?Subroutine72
   \                     ??CrossCallReturnLabel_278:
   \   00000030   F411               BRNE    ??source_5
   \   00000032   ....               RCALL   ?Subroutine85
   \                     ??CrossCallReturnLabel_135:
   \   00000034   9AAD               SBI     0x15, 0x05
    347            
    348            if (mute!=1 ) if (zader==0) AC_ON;//вкл АС
   \                     ??source_5:
   \   00000036   9100....           LDS     R16, mute
   \   0000003A   9110....           LDS     R17, zader
   \   0000003E   2B01               OR      R16, R17
   \   00000040   F409               BRNE    ??source_6
   \   00000042   9A96               SBI     0x12, 0x06
    349           
    350             migINI(sel-1, 5 ,0); 
   \                     ??source_6:
   \   00000044   E020               LDI     R18, 0
   \   00000046   E015               LDI     R17, 5
   \   00000048   ....               RCALL   ?Subroutine134
   \                     ??CrossCallReturnLabel_273:
   \   0000004A   950A               DEC     R16
   \   0000004C   ....               RJMP    ??migINI
   \   0000004E                      REQUIRE _A_PORTC
   \   0000004E                      REQUIRE _A_PORTD
    351           
    352          }

   \                                 In  segment CODE, align 2, keep-with-next
   \                     ?Subroutine85:
   \   00000000   ....               RCALL   ??resOUT
   \   00000002   ....               RJMP    ??resled
    353          
    354          
    355          
    356          
    357          
    358          
    359          
    360          
    361          
    362          
    363          
    364          
    365          
    366          
    367          
    368          

   \                                 In  segment CODE, align 2, keep-with-next
    369          void programming (uchar rez)
   \                     ??programming:
    370          {  
   \   00000000   938A               ST      -Y, R24
   \   00000002   2F80               MOV     R24, R16
    371             if (tekfunc==255) return;
   \   00000004   ....               RCALL   ?Subroutine123
   \                     ??CrossCallReturnLabel_239:
   \   00000006   3F0F               CPI     R16, 255
   \   00000008   F111               BREQ    ??CrossCallReturnLabel_403
    372             if (!get)  { getadr(); get=1; }//получаем адрес и зажигаем программируемую функцию
   \   0000000A   9100....           LDS     R16, ??get
   \   0000000E   2300               TST     R16
   \   00000010   F421               BRNE    ??programming_1
   \   00000012   ....               RCALL   ??getadr
   \   00000014   E001               LDI     R16, 1
   \   00000016   9300....           STS     ??get, R16
    373             if (rez==1)
   \                     ??programming_1:
   \   0000001A   3081               CPI     R24, 1
   \   0000001C   F451               BRNE    ??CrossCallReturnLabel_404
    374             {
    375               writeCOD();
   \   0000001E   ....               RCALL   ??writeCOD
    376               tekfunc++;  get=0;
   \   00000020   ....               RCALL   ?Subroutine11
    377              if (tekfunc==12) {  for (uchar i=0; i<10;i++) 
   \                     ??CrossCallReturnLabel_12:
   \   00000022   F419               BRNE    ??programming_2
   \   00000024   E08A               LDI     R24, 10
    378                                     {led_all(1); p4; led_all(0);p4; }
   \                     ??programming_3:
   \   00000026   ....               RCALL   ?Subroutine0
   \                     ??CrossCallReturnLabel_0:
   \   00000028   F7F1               BRNE    ??programming_3
    379                                }
    380               if (tekfunc>MAXFUNC) {tekfunc=255;led_all(1);}
   \                     ??programming_2:
   \   0000002A   ....               RCALL   ?Subroutine123
   \                     ??CrossCallReturnLabel_240:
   \   0000002C   3108               CPI     R16, 24
   \   0000002E   F008               BRCS    ??CrossCallReturnLabel_404
   \   00000030   ....               RCALL   ?Subroutine6
    381          
    382             }
    383             
    384             
    385             if (keyONsm) { 
   \                     ??CrossCallReturnLabel_404:
   \   00000032   9985               SBIC    0x10, 0x05
   \   00000034   C00C               RJMP    ??CrossCallReturnLabel_403
    386                          led_all(1); delay_s(1); 
   \   00000036   ....               RCALL   ??Subroutine153_0
   \                     ??CrossCallReturnLabel_400:
   \   00000038   ....               RCALL   ?Subroutine76
    387                          led_all(0); 
   \                     ??CrossCallReturnLabel_107:
   \   0000003A   ....               RCALL   ?Subroutine16
    388                          tekfunc++;  get=0;
   \                     ??CrossCallReturnLabel_17:
   \   0000003C   ....               RCALL   ?Subroutine11
    389                             if (tekfunc==12) {  for (uchar i=0; i<10;i++) 
   \                     ??CrossCallReturnLabel_13:
   \   0000003E   F419               BRNE    ??programming_4
   \   00000040   E08A               LDI     R24, 10
    390                                     {led_all(1); p4; led_all(0);p4; }
   \                     ??programming_5:
   \   00000042   ....               RCALL   ?Subroutine0
   \                     ??CrossCallReturnLabel_1:
   \   00000044   F7F1               BRNE    ??programming_5
    391                                }
    392                          if (tekfunc>MAXFUNC) {tekfunc=255;led_all(1);}
   \                     ??programming_4:
   \   00000046   ....               RCALL   ?Subroutine123
   \                     ??CrossCallReturnLabel_241:
   \   00000048   3108               CPI     R16, 24
   \   0000004A   F008               BRCS    ??CrossCallReturnLabel_403
   \   0000004C   ....               RCALL   ?Subroutine6
    393                         
    394                           }
    395               
    396          }
   \                     ??CrossCallReturnLabel_403:
   \   0000004E                      REQUIRE ?Subroutine135
   \   0000004E                      REQUIRE _A_PIND
   \   0000004E                      ;               // Fall through to label ?Subroutine135

   \                                 In  segment CODE, align 2, keep-with-next
   \                     ?Subroutine11:
   \   00000000   ....               LDI     R30, LOW(tekfunc)
   \   00000002   ....               LDI     R31, (tekfunc) >> 8
   \   00000004   ....               RCALL   ?Subroutine101
   \                     ??CrossCallReturnLabel_343:
   \   00000006   E000               LDI     R16, 0
   \   00000008   9300....           STS     ??get, R16
   \   0000000C   ....               RCALL   ?Subroutine123
   \                     ??CrossCallReturnLabel_242:
   \   0000000E   300C               CPI     R16, 12
   \   00000010   9508               RET

   \                                 In  segment CODE, align 2, keep-with-next
   \                     ?Subroutine123:
   \   00000000   9100....           LDS     R16, tekfunc
   \   00000004   9508               RET

   \                                 In  segment CODE, align 2, keep-with-next
   \                     ?Subroutine6:
   \   00000000   EF0F               LDI     R16, 255
   \   00000002   9300....           STS     tekfunc, R16
   \   00000006                      REQUIRE ??Subroutine153_0
   \   00000006                      ;               // Fall through to label ??Subroutine153_0

   \                                 In  segment CODE, align 2, keep-with-next
   \                     ?Subroutine0:
   \   00000000   E001               LDI     R16, 1
   \   00000002   ....               RCALL   ?Subroutine124
   \                     ??CrossCallReturnLabel_243:
   \   00000004   E000               LDI     R16, 0
   \   00000006   ....               RCALL   ?Subroutine124
   \                     ??CrossCallReturnLabel_244:
   \   00000008   958A               DEC     R24
   \   0000000A   9508               RET

   \                                 In  segment CODE, align 2, keep-with-next
   \                     ?Subroutine124:
   \   00000000   ....               RCALL   ??led_all
   \   00000002   EF0F               LDI     R16, 255
   \   00000004   EE11               LDI     R17, 225
   \   00000006   E024               LDI     R18, 4
   \   00000008   5001               SUBI    R16, 1
   \   0000000A   4010               SBCI    R17, 0
   \   0000000C   4020               SBCI    R18, 0
   \   0000000E   F7E1               BRNE    $-6
   \   00000010   C000               RJMP    $+2
   \   00000012   0000               NOP
   \   00000014   9508               RET
    397          //--------------------------------------------------------------------
    398          

   \                                 In  segment CODE, align 2, keep-with-next
    399          void writeCOD()
   \                     ??writeCOD:
    400          {
   \   00000000   938A               ST      -Y, R24
    401            rprintfStr("write ..");
   \   00000002   ....               LDI     R16, LOW(`?<Constant "write ..">`)
   \   00000004   ....               LDI     R17, (`?<Constant "write ..">`) >> 8
   \   00000006   ....               RCALL   ??rprintfStr
    402            led_all(1);delay_s(3);
   \   00000008   ....               RCALL   ??Subroutine153_0
   \                     ??CrossCallReturnLabel_399:
   \   0000000A   EF0F               LDI     R16, 255
   \   0000000C   E91E               LDI     R17, 158
   \   0000000E   E224               LDI     R18, 36
   \   00000010   5001               SUBI    R16, 1
   \   00000012   4010               SBCI    R17, 0
   \   00000014   4020               SBCI    R18, 0
   \   00000016   F7E1               BRNE    $-6
   \   00000018   C000               RJMP    $+2
   \   0000001A   0000               NOP
    403            uchar adr=getadr();
   \   0000001C   ....               RCALL   ??getadr
   \   0000001E   2F80               MOV     R24, R16
    404            led_all(0);
   \   00000020   ....               RCALL   ?Subroutine16
    405            
    406                 
    407                 k[adr]=cod1; delay_ms(30);
   \                     ??CrossCallReturnLabel_16:
   \   00000022   ....               RCALL   ?Subroutine102
   \                     ??CrossCallReturnLabel_176:
   \   00000024   ....               LDI     R18, LOW(k)
   \   00000026   ....               LDI     R19, (k) >> 8
   \   00000028   0D20               ADD     R18, R0
   \   0000002A   1D31               ADC     R19, R1
   \   0000002C   ....               RCALL   ?Subroutine43
   \                     ??CrossCallReturnLabel_49:
   \   0000002E   ....               RCALL   ?Subroutine125
   \                     ??CrossCallReturnLabel_313:
   \   00000030   ....               RCALL   ?Subroutine89
    408                 k[adr+1]=cod2; delay_ms(30);
   \                     ??CrossCallReturnLabel_405:
   \   00000032   ....               RCALL   ??Subroutine156_0
   \                     ??CrossCallReturnLabel_422:
   \   00000034   ....               RCALL   ?Subroutine125
   \                     ??CrossCallReturnLabel_314:
   \   00000036   01A9               MOVW    R21:R20, R19:R18
   \   00000038   5F4E               SUBI    R20, 254
   \   0000003A   4F5F               SBCI    R21, 255
   \   0000003C   ....               RCALL   ??Subroutine154_0
    409                 k[adr+2]=cod3; delay_ms(30);
   \                     ??CrossCallReturnLabel_407:
   \   0000003E   ....               RCALL   ??Subroutine155_0
   \                     ??CrossCallReturnLabel_413:
   \   00000040   ....               RCALL   ?Subroutine125
   \                     ??CrossCallReturnLabel_315:
   \   00000042   5F2C               SUBI    R18, 252
   \   00000044   4F3F               SBCI    R19, 255
   \   00000046   ....               RCALL   ?Subroutine89
    410                 
    411                 rprintfStr("OK !   "); ent;
   \                     ??CrossCallReturnLabel_406:
   \   00000048   ....               LDI     R16, LOW(`?<Constant "OK !   ">`)
   \   0000004A   ....               LDI     R17, (`?<Constant "OK !   ">`) >> 8
   \   0000004C   ....               RCALL   ?Subroutine45
    412             
    413          }
   \                     ??CrossCallReturnLabel_245:
   \   0000004E   ....               RJMP    ?Subroutine135

   \                                 In  segment CODE, align 2, keep-with-next
   \                     ?Subroutine89:
   \   00000000   01A9               MOVW    R21:R20, R19:R18
   \   00000002                      REQUIRE ??Subroutine154_0
   \   00000002                      ;               // Fall through to label ??Subroutine154_0

   \                                 In  segment CODE, align 2, keep-with-next
   \                     ??Subroutine154_0:
   \   00000000   ....               RCALL   __eeput16_16
   \   00000002   E20F               LDI     R16, 47
   \   00000004   E715               LDI     R17, 117
   \   00000006   5001               SUBI    R16, 1
   \   00000008   4010               SBCI    R17, 0
   \   0000000A   F7E9               BRNE    $-4
   \   0000000C   C000               RJMP    $+2
   \   0000000E   0000               NOP
   \   00000010   9508               RET

   \                                 In  segment CODE, align 2, keep-with-next
   \                     ?Subroutine45:
   \   00000000   ....               RCALL   ??rprintfStr
   \   00000002                      REQUIRE ?Subroutine128
   \   00000002                      ;               // Fall through to label ?Subroutine128
    414          
    415          
    416          
    417           

   \                                 In  segment CODE, align 2, keep-with-next
    418          uchar analizCOD ()
   \                     ??analizCOD:
    419          {
   \   00000000   ....               RCALL   ?PROLOGUE2_L09
    420           uint i;
    421            for (i=0; i<MAXEEP-4; i++) 
   \   00000002   E080               LDI     R24, 0
   \   00000004   E090               LDI     R25, 0
    422            {
    423             // if ((kbuf[i])==cod1)  if ((kbuf[i+1])==cod2) if ((kbuf[i+2])==cod3) return(i);
    424              if ((k[i])==cod1)  if ((k[i+1])==cod2) if ((k[i+2])==cod3) return(i);   
   \                     ??analizCOD_1:
   \   00000006   018C               MOVW    R17:R16, R25:R24
   \   00000008   0F00               LSL     R16
   \   0000000A   1F11               ROL     R17
   \   0000000C   ....               LDI     R18, LOW(k)
   \   0000000E   ....               LDI     R19, (k) >> 8
   \   00000010   0F20               ADD     R18, R16
   \   00000012   1F31               ADC     R19, R17
   \   00000014   01A9               MOVW    R21:R20, R19:R18
   \   00000016   ....               RCALL   __eeget16_16
   \   00000018   ....               RCALL   ?Subroutine43
   \                     ??CrossCallReturnLabel_50:
   \   0000001A   ....               RCALL   ?Subroutine64
   \                     ??CrossCallReturnLabel_92:
   \   0000001C   F489               BRNE    ??analizCOD_2
   \   0000001E   01A9               MOVW    R21:R20, R19:R18
   \   00000020   5F4E               SUBI    R20, 254
   \   00000022   4F5F               SBCI    R21, 255
   \   00000024   ....               RCALL   __eeget16_16
   \   00000026   ....               RCALL   ??Subroutine156_0
   \                     ??CrossCallReturnLabel_423:
   \   00000028   ....               RCALL   ?Subroutine64
   \                     ??CrossCallReturnLabel_93:
   \   0000002A   F451               BRNE    ??analizCOD_2
   \   0000002C   5F2C               SUBI    R18, 252
   \   0000002E   4F3F               SBCI    R19, 255
   \   00000030   01A9               MOVW    R21:R20, R19:R18
   \   00000032   ....               RCALL   __eeget16_16
   \   00000034   ....               RCALL   ?Subroutine48
   \                     ??CrossCallReturnLabel_205:
   \   00000036   1702               CP      R16, R18
   \   00000038   0713               CPC     R17, R19
   \   0000003A   F411               BRNE    ??analizCOD_2
   \   0000003C   2F08               MOV     R16, R24
   \   0000003E   C005               RJMP    ??analizCOD_3
    425            }
   \                     ??analizCOD_2:
   \   00000040   9601               ADIW    R25:R24, 1
   \   00000042   3784               CPI     R24, 116
   \   00000044   E000               LDI     R16, 0
   \   00000046   0790               CPC     R25, R16
   \   00000048   F2F0               BRCS    ??analizCOD_1
    426          
    427          return(0);
   \                     ??analizCOD_3:
   \   0000004A                      REQUIRE ?Subroutine142
   \   0000004A                      ;               // Fall through to label ?Subroutine142
    428          }

   \                                 In  segment CODE, align 2, keep-with-next
   \                     ?Subroutine142:
   \   00000000   E0E2               LDI     R30, 2
   \   00000002   ....               RJMP    ?EPILOGUE_B2_L09

   \                                 In  segment CODE, align 2, keep-with-next
   \                     ?Subroutine64:
   \   00000000   8140               LD      R20, Z
   \   00000002   8151               LDD     R21, Z+1
   \   00000004   1704               CP      R16, R20
   \   00000006   0715               CPC     R17, R21
   \   00000008   9508               RET
    429          
    430          
    431          

   \                                 In  segment CODE, align 2, keep-with-next
    432          void resled(void)
   \                     ??resled:
    433          {
    434            RES(PORTB,0);RES(PORTB,1);RES(PORTB,2);RES(PORTB,3); if (mode==0)RES(PORTB,4);
   \   00000000   ....               RCALL   ?Subroutine91
   \                     ??CrossCallReturnLabel_144:
   \   00000002   ....               RCALL   ?Subroutine72
   \                     ??CrossCallReturnLabel_279:
   \   00000004   F409               BRNE    ??resled_1
   \   00000006   98C4               CBI     0x18, 0x04
    435          }
   \                     ??resled_1:
   \   00000008   9508               RET
   \   0000000A                      REQUIRE _A_PORTB

   \                                 In  segment CODE, align 2, keep-with-next
   \                     ?Subroutine91:
   \   00000000   98C0               CBI     0x18, 0x00
   \   00000002   98C1               CBI     0x18, 0x01
   \   00000004   98C2               CBI     0x18, 0x02
   \   00000006   98C3               CBI     0x18, 0x03
   \   00000008   9508               RET
    436          
    437          

   \                                 In  segment CODE, align 2, keep-with-next
    438          void resOUT(void)
   \                     ??resOUT:
    439          {
    440            RES(PORTC,1);RES(PORTC,2);RES(PORTC,3);RES(PORTC,4); if (mode==0)RES(PORTC,5);
   \   00000000   98A9               CBI     0x15, 0x01
   \   00000002   98AA               CBI     0x15, 0x02
   \   00000004   98AB               CBI     0x15, 0x03
   \   00000006   98AC               CBI     0x15, 0x04
   \   00000008   ....               RCALL   ?Subroutine72
   \                     ??CrossCallReturnLabel_280:
   \   0000000A   F409               BRNE    ??resOUT_1
   \   0000000C   98AD               CBI     0x15, 0x05
    441            p2;//что бы не было перекрытия источников
   \                     ??resOUT_1:
   \   0000000E                      REQUIRE ?Subroutine82
   \   0000000E                      REQUIRE _A_PORTC
   \   0000000E                      ;               // Fall through to label ?Subroutine82
    442          }
    443          
    444          
    445           

   \                                 In  segment CODE, align 2, keep-with-next
    446          void led_all(bool a)
   \                     ??led_all:
    447          {
    448           if (a)
   \   00000000   2300               TST     R16
   \   00000002   F039               BREQ    ??led_all_1
    449           {
    450             SET(PORTB,0);SET(PORTB,1);SET(PORTB,2);SET(PORTB,3);SET(PORTB,4);SET(PORTB,5);
   \   00000004   9AC0               SBI     0x18, 0x00
   \   00000006   9AC1               SBI     0x18, 0x01
   \   00000008   9AC2               SBI     0x18, 0x02
   \   0000000A   9AC3               SBI     0x18, 0x03
   \   0000000C   9AC4               SBI     0x18, 0x04
   \   0000000E   9AC5               SBI     0x18, 0x05
    451             /*AC_ON; */SET(PORTD,7);
   \   00000010   ....               RJMP    ?Subroutine138
    452           }
    453           else
    454            {
    455             RES(PORTB,0);RES(PORTB,1);RES(PORTB,2);RES(PORTB,3);RES(PORTB,4);RES(PORTB,5);
   \                     ??led_all_1:
   \   00000012   ....               RCALL   ?Subroutine91
   \                     ??CrossCallReturnLabel_145:
   \   00000014   98C4               CBI     0x18, 0x04
   \   00000016   98C5               CBI     0x18, 0x05
    456             AC_OFF; RES(PORTD,7);
   \   00000018   9896               CBI     0x12, 0x06
   \   0000001A   9897               CBI     0x12, 0x07
    457           } 
    458          }
   \   0000001C   9508               RET
   \   0000001E                      REQUIRE _A_PORTB
   \   0000001E                      REQUIRE _A_PORTD
    459          
    460          

   \                                 In  segment CODE, align 2, keep-with-next
    461          void gro(uchar a)
   \                     ??gro:
    462          {
   \   00000000   2F10               MOV     R17, R16
    463            if (modegro!=1) {
   \   00000002   ....               RCALL   ?Subroutine66
   \                     ??CrossCallReturnLabel_293:
   \   00000004   F051               BREQ    ??gro_1
    464            if (a==1) {SET(PORTC,0); delay_us(100);RES(PORTC,0);}
   \   00000006   3011               CPI     R17, 1
   \   00000008   F419               BRNE    ??gro_2
   \   0000000A   9AA8               SBI     0x15, 0x00
   \   0000000C   ....               RCALL   ?Subroutine92
   \                     ??CrossCallReturnLabel_146:
   \   0000000E   C00E               RJMP    ??gro_3
    465            if (a==2) {SET(PORTD,3); delay_us(100);RES(PORTD,3);}  
   \                     ??gro_2:
   \   00000010   3012               CPI     R17, 2
   \   00000012   F511               BRNE    ??gro_4
   \   00000014   9A93               SBI     0x12, 0x03
   \   00000016   ....               RCALL   ?Subroutine92
   \                     ??CrossCallReturnLabel_147:
   \   00000018   C019               RJMP    ??gro_5
    466                            }
    467            else  { 
    468              if (a==1) { if (gro1)  { gro1=0; RES(PORTC,0);  } else { gro1=1; SET(PORTC,0);  } }
   \                     ??gro_1:
   \   0000001A   3011               CPI     R17, 1
   \   0000001C   F471               BRNE    ??gro_6
   \   0000001E   9100....           LDS     R16, ??gro1
   \   00000022   2300               TST     R16
   \   00000024   F029               BREQ    ??gro_7
   \   00000026   E000               LDI     R16, 0
   \   00000028   9300....           STS     ??gro1, R16
   \                     ??gro_3:
   \   0000002C   98A8               CBI     0x15, 0x00
   \   0000002E   9508               RET
   \                     ??gro_7:
   \   00000030   E001               LDI     R16, 1
   \   00000032   9300....           STS     ??gro1, R16
   \   00000036   9AA8               SBI     0x15, 0x00
   \   00000038   9508               RET
    469              if (a==2) { if (gro2)  { gro2=0; RES(PORTD,3);  } else { gro2=1; SET(PORTD,3);  } }
   \                     ??gro_6:
   \   0000003A   3012               CPI     R17, 2
   \   0000003C   F469               BRNE    ??gro_4
   \   0000003E   9100....           LDS     R16, ??gro2
   \   00000042   2300               TST     R16
   \   00000044   F029               BREQ    ??gro_8
   \   00000046   E000               LDI     R16, 0
   \   00000048   9300....           STS     ??gro2, R16
   \                     ??gro_5:
   \   0000004C   9893               CBI     0x12, 0x03
   \   0000004E   9508               RET
   \                     ??gro_8:
   \   00000050   E001               LDI     R16, 1
   \   00000052   9300....           STS     ??gro2, R16
   \   00000056   9A93               SBI     0x12, 0x03
    470                  }
    471          }
   \                     ??gro_4:
   \   00000058   9508               RET
   \   0000005A                      REQUIRE _A_PORTC
   \   0000005A                      REQUIRE _A_PORTD

   \                                 In  segment CODE, align 2, keep-with-next
   \                     ?Subroutine92:
   \   00000000   E805               LDI     R16, 133
   \   00000002   950A               DEC     R16
   \   00000004   F7F1               BRNE    $-2
   \   00000006   0000               NOP
   \   00000008   9508               RET
    472          
    473          
    474          
    475          
    476          
    477          
    478          //инициализация портов

   \                                 In  segment CODE, align 2, keep-with-next
    479          void iniPORTS()
   \                     ??iniPORTS:
    480          {
    481            
    482           
    483            //DDRx=0 - ВХОДЫ   PORTx = 0xFF; //подключаем нагрузочные резисторы
    484           //---------------------------------------------------------------
    485           //DDRx=0xFF - ВЫХОДЫ    PORTx = 0; //устанавливаем 0 на выходе
    486           
    487            
    488           DDRD = b(11011000);// 0xD8;  //PD3 4 6 7 ВЫХОДЫ  b11011000
   \   00000000   ED08               LDI     R16, 216
   \   00000002   BB01               OUT     0x11, R16
    489           PORTD = (uchar)~(b(11011000)); 
   \   00000004   E207               LDI     R16, 39
   \   00000006   BB02               OUT     0x12, R16
    490          
    491           
    492           DDRB = 0x3F; //порт B - выход    6,7-кварц
   \   00000008   E30F               LDI     R16, 63
   \   0000000A   BB07               OUT     0x17, R16
    493           PORTB = 0x00; 
   \   0000000C   E000               LDI     R16, 0
   \   0000000E   BB08               OUT     0x18, R16
    494            
    495            
    496            DDRC =0xFF; 
   \   00000010   EF0F               LDI     R16, 255
   \   00000012   BB04               OUT     0x14, R16
    497            PORTC = 0x00; //устанавливаем 0 на выходе
   \   00000014   E000               LDI     R16, 0
   \   00000016   BB05               OUT     0x15, R16
    498            
    499           
    500          // Timer(s)/Counter(s) Interrupt(s) initialization
    501          TIMSK=0x00;  
   \   00000018   BF09               OUT     0x39, R16
    502          TCNT0=0x00;
   \   0000001A   BF02               OUT     0x32, R16
    503          OCR1A=0x00;
   \   0000001C   E010               LDI     R17, 0
   \   0000001E   BD0B               OUT     0x2B, R16
   \   00000020   BD0A               OUT     0x2A, R16
    504          OCR1B=0x00;
   \   00000022   BD09               OUT     0x29, R16
   \   00000024   BD08               OUT     0x28, R16
    505          TCCR1A=0x00;
   \   00000026   BD0F               OUT     0x2F, R16
    506            SET(TIMSK,TOIE1);//разреш прерывание при переполнении
   \   00000028   B709               IN      R16, 0x39
   \   0000002A   6004               ORI     R16, 0x04
   \   0000002C   BF09               OUT     0x39, R16
    507             TCCR1B=0; TIFR = 0xFF;  
   \   0000002E   BD1E               OUT     0x2E, R17
   \   00000030   EF0F               LDI     R16, 255
   \   00000032   BF08               OUT     0x38, R16
    508          TCNT1H=0x00;
   \   00000034   BD1D               OUT     0x2D, R17
    509          TCNT1L=0x00;
   \   00000036   BD1C               OUT     0x2C, R17
    510          ICR1H=0x00;
   \   00000038   BD17               OUT     0x27, R17
    511          ICR1L=0x00;
   \   0000003A   BD16               OUT     0x26, R17
    512          OCR1AH=0;
   \   0000003C   BD1B               OUT     0x2B, R17
    513          OCR1AL=0x00;
   \   0000003E   BD1A               OUT     0x2A, R17
    514          OCR1BH=0x00;
   \   00000040   BD19               OUT     0x29, R17
    515          OCR1BL=0x00;
   \   00000042   BD18               OUT     0x28, R17
    516          
    517          
    518          // External Interrupt(s) initialization
    519          // INT0: Off
    520          // INT1: Off
    521          // Interrupt on any change on pins PCINT0-7: Off
    522          //GIMSK=0x00;
    523          //MCUCR=0x00;
    524          
    525          SET(MCUCR,0); RES(MCUCR,1);//ПРЕРЫВАНИЕ ПО ИЗМЕНЕНИЮ УРОВНЯ INT0
   \   00000044   B705               IN      R16, 0x35
   \   00000046   6001               ORI     R16, 0x01
   \   00000048   BF05               OUT     0x35, R16
   \   0000004A   B705               IN      R16, 0x35
   \   0000004C   7F0D               ANDI    R16, 0xFD
   \   0000004E   BF05               OUT     0x35, R16
    526          SET(GICR,6);//РАЗРЕШАЕМ ПРЕРЫВАНИЕ INT0
   \   00000050   B70B               IN      R16, 0x3B
   \   00000052   6400               ORI     R16, 0x40
   \   00000054   BF0B               OUT     0x3B, R16
    527          
    528          
    529          
    530          
    531          // Analog Comparator initialization
    532          // Analog Comparator: Off
    533          // Analog Comparator Input Capture by Timer/Counter 1: Off
    534          ACSR=0x80;
   \   00000056   E800               LDI     R16, 128
   \   00000058   B908               OUT     0x08, R16
    535          //DIDR=0x00;
    536          
    537          } 
   \   0000005A   9508               RET
   \   0000005C                      REQUIRE _A_DDRD
   \   0000005C                      REQUIRE _A_PORTD
   \   0000005C                      REQUIRE _A_DDRB
   \   0000005C                      REQUIRE _A_PORTB
   \   0000005C                      REQUIRE _A_DDRC
   \   0000005C                      REQUIRE _A_PORTC
   \   0000005C                      REQUIRE _A_TIMSK
   \   0000005C                      REQUIRE _A_TCNT0
   \   0000005C                      REQUIRE _A_OCR1A
   \   0000005C                      REQUIRE _A_OCR1B
   \   0000005C                      REQUIRE _A_TCCR1A
   \   0000005C                      REQUIRE _A_TCCR1B
   \   0000005C                      REQUIRE _A_TIFR
   \   0000005C                      REQUIRE _A_TCNT1
   \   0000005C                      REQUIRE _A_ICR1
   \   0000005C                      REQUIRE _A_MCUCR
   \   0000005C                      REQUIRE _A_GICR
   \   0000005C                      REQUIRE _A_ACSR
    538          //************************************************************************
    539           
    540          

   \                                 In  segment CODE, align 2, keep-with-next
    541          void diag()
   \                     ??diag:
    542          {
   \   00000000   ....               RCALL   ?PROLOGUE2_L09
    543            
    544            uchar sym = USART_GetChar(); //читаем буфер
   \   00000002   ....               RCALL   ??USART_GetChar
   \   00000004   2F90               MOV     R25, R16
    545            if (sym=='0') { pr=1;  rprintfStr("-------------- vkluchen kratkiy viviod -------------");  ent;   }
   \   00000006   3300               CPI     R16, 48
   \   00000008   F439               BRNE    ??diag_1
   \   0000000A   E001               LDI     R16, 1
   \   0000000C   9300....           STS     pr, R16
   \   00000010   ....               LDI     R16, LOW(`?<Constant "-------------- vkluch...">`)
   \   00000012   ....               LDI     R17, (`?<Constant "-------------- vkluch...">`) >> 8
   \   00000014   ....               RCALL   ?Subroutine45
   \                     ??CrossCallReturnLabel_246:
   \   00000016   C01C               RJMP    ??diag_2
    546          
    547            if (sym=='e') {
   \                     ??diag_1:
   \   00000018   3605               CPI     R16, 101
   \   0000001A   F4C1               BRNE    ??diag_3
    548              ent;rprintfStr(" ==  EEPROM read == ");ent;
   \   0000001C   ....               RCALL   ?Subroutine128
   \                     ??CrossCallReturnLabel_251:
   \   0000001E   ....               LDI     R16, LOW(`?<Constant " ==  EEPROM read == ">`)
   \   00000020   ....               LDI     R17, (`?<Constant " ==  EEPROM read == ">`) >> 8
   \   00000022   ....               RCALL   ?Subroutine45
    549              for (uchar i=0; i<MAXEEP-1; i++) { 
   \                     ??CrossCallReturnLabel_247:
   \   00000024   E080               LDI     R24, 0
    550                rprintfFloat(4, i );   rprintfStr(" > ");
   \                     ??diag_4:
   \   00000026   2F08               MOV     R16, R24
   \   00000028   ....               RCALL   ?Subroutine22
   \                     ??CrossCallReturnLabel_187:
   \   0000002A   ....               RCALL   ?Subroutine129
   \                     ??CrossCallReturnLabel_323:
   \   0000002C   E004               LDI     R16, 4
   \   0000002E   ....               RCALL   ??rprintfFloat
   \   00000030   ....               LDI     R16, LOW(`?<Constant " > ">`)
   \   00000032   ....               LDI     R17, (`?<Constant " > ">`) >> 8
   \   00000034   ....               RCALL   ??rprintfStr
    551                 rprintfFloat(9, k[i] ); ent;
   \   00000036   ....               RCALL   ?Subroutine102
    552                                                }
   \                     ??CrossCallReturnLabel_177:
   \   00000038   ....               LDI     R20, LOW(k)
   \   0000003A   ....               LDI     R21, (k) >> 8
   \   0000003C   0D40               ADD     R20, R0
   \   0000003E   1D51               ADC     R21, R1
   \   00000040   ....               RCALL   __eeget16_16
   \   00000042   ....               RCALL   ?Subroutine44
   \                     ??CrossCallReturnLabel_199:
   \   00000044   9583               INC     R24
   \   00000046   3787               CPI     R24, 119
   \   00000048   F418               BRCC    ??diag_2
   \   0000004A   CFED               RJMP    ??diag_4
    553                          }
    554            
    555            if (sym) {             //если что-то приняли, то 
   \                     ??diag_3:
   \   0000004C   2300               TST     R16
   \   0000004E   F091               BREQ    ??CrossCallReturnLabel_248
    556                rprintfStr(" get: ");
   \                     ??diag_2:
   \   00000050   ....               LDI     R16, LOW(`?<Constant " get: ">`)
   \   00000052   ....               LDI     R17, (`?<Constant " get: ">`) >> 8
   \   00000054   ....               RCALL   ??rprintfStr
    557                USART_SendChar(sym); 
   \   00000056   2F09               MOV     R16, R25
   \   00000058   ....               RCALL   ??USART_SendChar
    558          
    559                if (mode==1) rprintfStr("  regim  no source5 >");  
   \   0000005A   ....               RCALL   ?Subroutine73
   \                     ??CrossCallReturnLabel_297:
   \   0000005C   F419               BRNE    ??diag_5
   \   0000005E   ....               LDI     R16, LOW(`?<Constant "  regim  no source5 >">`)
   \   00000060   ....               LDI     R17, (`?<Constant "  regim  no source5 >">`) >> 8
   \   00000062   ....               RCALL   ??rprintfStr
    560          if (write==1) rprintfStr("  regim  PROGRAMMING !!  READY >");  
   \                     ??diag_5:
   \   00000064   ....               RCALL   ?Subroutine79
   \                     ??CrossCallReturnLabel_300:
   \   00000066   F419               BRNE    ??diag_6
   \   00000068   ....               LDI     R16, LOW(`?<Constant "  regim  PROGRAMMING ...">`)
   \   0000006A   ....               LDI     R17, (`?<Constant "  regim  PROGRAMMING ...">`) >> 8
   \   0000006C   C002               RJMP    ??diag_7
    561          else rprintfStr("  regim  normal  READY >");  
   \                     ??diag_6:
   \   0000006E   ....               LDI     R16, LOW(`?<Constant "  regim  normal  READY >">`)
   \   00000070   ....               LDI     R17, (`?<Constant "  regim  normal  READY >">`) >> 8
    562          
    563          
    564             
    565          
    566                 ent;
    567               
    568             
    569                     }
   \                     ??diag_7:
   \   00000072   ....               RCALL   ?Subroutine45
    570          }
   \                     ??CrossCallReturnLabel_248:
   \   00000074   ....               RJMP    ?Subroutine142

   \                                 In  segment CODE, align 2, keep-with-next
   \                     ?Subroutine22:
   \   00000000   E010               LDI     R17, 0
   \   00000002   E020               LDI     R18, 0
   \   00000004                      REQUIRE ?Subroutine106
   \   00000004                      ;               // Fall through to label ?Subroutine106
    571          
F:\Dulov\RemoteAMP\usart.c
      1          #include "usart.h"
      2          //#include <math.h>
      3          //#include <intrinsics.h>
      4          #include "init.h"
      5          
      6          //однобайтный буфер

   \                                 In  segment NEAR_Z, align 1, keep-with-next
   \   00000000                      REQUIRE `?<Segment init: NEAR_Z>`
      7          volatile unsigned char usartRxBuf = 0;
   \                     usartRxBuf:
   \   00000000                      DS8 1

   \                                 In  segment NEAR_Z, align 1, keep-with-next
   \   00000000                      REQUIRE `?<Segment init: NEAR_Z>`
      8          volatile static bool usarton;
   \                     ??usarton:
   \   00000000                      DS8 1
      9          
     10          //инициализация usart`a

   \                                 In  segment CODE, align 2, keep-with-next
     11          void USART_Init(bool t)
   \                     ??USART_Init:
     12          {
     13            usarton=t;
   \   00000000   9300....           STS     ??usarton, R16
     14            if (!usarton) return;
   \   00000004   ....               RCALL   ?Subroutine90
   \                     ??CrossCallReturnLabel_285:
   \   00000006   F041               BREQ    ??USART_Init_1
     15            UBRRH = 0;
   \   00000008   E000               LDI     R16, 0
   \   0000000A   BD00               OUT     0x20, R16
     16            UBRRL = ((F_CPU/9600UL)-1)/16;//    26;//78; //скорость обмена 9600 бод
   \   0000000C   E109               LDI     R16, 25
   \   0000000E   B909               OUT     0x09, R16
     17            UCSRB = (1<<RXCIE)|(1<<RXEN)|(1<<TXEN); //разр. прерыв при приеме, разр приема, разр передачи.
   \   00000010   E908               LDI     R16, 152
   \   00000012   B90A               OUT     0x0A, R16
     18            UCSRC = (1<<URSEL)|(1<<UCSZ1)|(1<<UCSZ0); //размер слова 8 разрядов
   \   00000014   E806               LDI     R16, 134
   \   00000016   BD00               OUT     0x20, R16
     19          }
   \                     ??USART_Init_1:
   \   00000018   9508               RET
   \   0000001A                      REQUIRE _A_UBRRH
   \   0000001A                      REQUIRE _A_UBRRL
   \   0000001A                      REQUIRE _A_UCSRB

   \                                 In  segment CODE, align 2, keep-with-next
   \                     ?Subroutine90:
   \   00000000   9100....           LDS     R16, ??usarton
   \   00000004   ....               RJMP    ?Subroutine136
     20          
     21          //отправка символа по usart`у

   \                                 In  segment CODE, align 2, keep-with-next
     22          void USART_SendChar(unsigned char sym)
   \                     ??USART_SendChar:
     23          {
     24            if (!usarton) return;
   \   00000000   9110....           LDS     R17, ??usarton
   \   00000004   2311               TST     R17
   \   00000006   F019               BREQ    ??USART_SendChar_1
     25            while(!(UCSRA & (1<<UDRE)));
   \                     ??USART_SendChar_2:
   \   00000008   9B5D               SBIS    0x0B, 0x05
   \   0000000A   CFFE               RJMP    ??USART_SendChar_2
     26            UDR = sym;
   \   0000000C   B90C               OUT     0x0C, R16
     27          }
   \                     ??USART_SendChar_1:
   \   0000000E   9508               RET
   \   00000010                      REQUIRE _A_UCSRA
   \   00000010                      REQUIRE _A_UDR
     28          
     29          //чтение буфера

   \                                 In  segment CODE, align 2, keep-with-next
     30          __monitor unsigned char USART_GetChar(void)
   \                     ??USART_GetChar:
     31          {
   \   00000000   B72F               IN      R18, 0x3F
   \   00000002   94F8               CLI
     32            unsigned char tmp = usartRxBuf;
   \   00000004   9100....           LDS     R16, usartRxBuf
     33            usartRxBuf = 0;
   \   00000008   E010               LDI     R17, 0
   \   0000000A   9310....           STS     usartRxBuf, R17
     34            return tmp;  
   \   0000000E   BF2F               OUT     0x3F, R18
   \   00000010   9508               RET
     35          }
     36          
     37          //прием символа по usart`у в буфер
     38          #pragma vector=USART_RXC_vect

   \                                 In  segment CODE, align 2, keep-with-next
     39          __interrupt void usart_rxc_my(void) 
   \                     ??usart_rxc_my:
     40          {
   \   00000000   930A               ST      -Y, R16
     41            usartRxBuf = UDR; 
   \   00000002   B10C               IN      R16, 0x0C
   \   00000004   9300....           STS     usartRxBuf, R16
     42          } 
   \   00000008   ....               RJMP    ?Subroutine140
   \   0000000A                      REQUIRE _A_UDR
     43          
     44          // *** rprintfStr ***
     45          // prints a null-terminated string stored in RAM

   \                                 In  segment CODE, align 2, keep-with-next
     46          void rprintfStr(char str[])
   \                     ??rprintfStr:
     47          {        
   \   00000000   ....               RCALL   ?PROLOGUE4_L09
   \   00000002   01D8               MOVW    R27:R26, R17:R16
     48              if (!usarton) return;
   \   00000004   ....               RCALL   ?Subroutine90
   \                     ??CrossCallReturnLabel_286:
   \   00000006   F041               BREQ    ??rprintfStr_1
     49          	// send a string stored in RAM
     50          	// check to make sure we have a good pointer
     51          	if (!str) return;
   \   00000008   2F0A               MOV     R16, R26
   \   0000000A   2B01               OR      R16, R17
   \   0000000C   F411               BRNE    ??rprintfStr_2
   \   0000000E   C004               RJMP    ??rprintfStr_1
     52          
     53          	// print the string until a null-terminator
     54          	while (*str)
     55          		USART_SendChar(*str++);
   \                     ??rprintfStr_3:
   \   00000010   ....               RCALL   ??USART_SendChar
   \                     ??rprintfStr_2:
   \   00000012   910D               LD      R16, X+
   \   00000014   2300               TST     R16
   \   00000016   F7E1               BRNE    ??rprintfStr_3
     56          }
   \                     ??rprintfStr_1:
   \   00000018   E0E4               LDI     R30, 4
   \   0000001A   ....               RJMP    ?EPILOGUE_B4_L09
     57          
     58          // *** rprintfFloat ***Pascal Stang - Copyright (C) 2000-2002
     59          // floating-point print

   \                                 In  segment CODE, align 2, keep-with-next
     60          void rprintfFloat(char numDigits, double x)
   \                     ??rprintfFloat:
     61          {
   \   00000000   ....               RCALL   ?PROLOGUE12_L09
   \   00000002                      REQUIRE ?Register_R4_is_cg_reg
   \   00000002                      REQUIRE ?Register_R5_is_cg_reg
   \   00000002                      REQUIRE ?Register_R6_is_cg_reg
   \   00000002                      REQUIRE ?Register_R7_is_cg_reg
   \   00000002                      REQUIRE ?Register_R8_is_cg_reg
   \   00000002                      REQUIRE ?Register_R9_is_cg_reg
   \   00000002                      REQUIRE ?Register_R10_is_cg_reg
   \   00000002                      REQUIRE ?Register_R11_is_cg_reg
   \   00000002   2EB0               MOV     R11, R16
   \   00000004   012A               MOVW    R5:R4, R21:R20
   \   00000006   013B               MOVW    R7:R6, R23:R22
     62              if (!usarton) return;
   \   00000008   ....               RCALL   ?Subroutine90
   \                     ??CrossCallReturnLabel_287:
   \   0000000A   F409               BRNE    $+2+2
   \   0000000C   C04E               RJMP    ??rprintfFloat_1
     63          	unsigned char firstplace = 0;
   \   0000000E   24AA               CLR     R10
     64          	unsigned char negative;
     65          	unsigned char i, digit;
     66          	double place = 1.0;
   \   00000010   E080               LDI     R24, 0
   \   00000012   E090               LDI     R25, 0
   \   00000014   E8A0               LDI     R26, 128
   \   00000016   E3BF               LDI     R27, 63
     67          	
     68          	// save sign
     69          	negative = (x<0);
   \   00000018   ....               RCALL   ?Subroutine55
   \                     ??CrossCallReturnLabel_72:
   \   0000001A   ....               RCALL   ?Subroutine107
   \                     ??CrossCallReturnLabel_191:
   \   0000001C   ....               RCALL   ?F_CMP_LT_L04
   \   0000001E   2488               CLR     R8
   \   00000020   F408               BRCC    ??rprintfFloat_2
   \   00000022   9483               INC     R8
     70          	// convert to absolute value
     71          	x = (x>0)?(x):(-x);
   \                     ??rprintfFloat_2:
   \   00000024   E041               LDI     R20, 1
   \   00000026   ....               RCALL   ?F_CMP_GE_L04
   \   00000028   F008               BRCS    ??rprintfFloat_3
   \   0000002A   267A               EOR     R7, R26
     72          	
     73          	// find starting digit place
     74          	for(i=0; i<15; i++)
   \                     ??rprintfFloat_3:
   \   0000002C   E00F               LDI     R16, 15
   \   0000002E   2E90               MOV     R9, R16
     75          	{
     76          		if((x/place) < 10.0)
   \                     ??rprintfFloat_4:
   \   00000030   ....               RCALL   ?Subroutine54
   \                     ??CrossCallReturnLabel_69:
   \   00000032   ....               RCALL   ?Subroutine56
   \                     ??CrossCallReturnLabel_73:
   \   00000034   ....               RCALL   ?F_CMP_LT_L04
   \   00000036   F038               BRCS    ??rprintfFloat_5
     77          			break;
     78          		else
     79          			place *= 10.0;
   \   00000038   018C               MOVW    R17:R16, R25:R24
   \   0000003A   019D               MOVW    R19:R18, R27:R26
   \   0000003C   ....               RCALL   ?F_MUL_L04
   \   0000003E   01C8               MOVW    R25:R24, R17:R16
   \   00000040   01D9               MOVW    R27:R26, R19:R18
     80          	}
   \   00000042   949A               DEC     R9
   \   00000044   F7A9               BRNE    ??rprintfFloat_4
     81          	// print polarity character
     82          	if(negative)
   \                     ??rprintfFloat_5:
   \   00000046   FA80               BST     R8, 0
   \   00000048   F416               BRTC    ??rprintfFloat_6
     83          		USART_SendChar('-');
   \   0000004A   E20D               LDI     R16, 45
   \   0000004C   C001               RJMP    ??rprintfFloat_7
     84          	else
     85          		USART_SendChar('+');
   \                     ??rprintfFloat_6:
   \   0000004E   E20B               LDI     R16, 43
   \                     ??rprintfFloat_7:
   \   00000050   ....               RCALL   ??USART_SendChar
     86          
     87          	// print digits
     88          	for(i=0; i<numDigits; i++)
   \   00000052   2499               CLR     R9
   \   00000054   C017               RJMP    ??rprintfFloat_8
     89          	{
     90          		digit = (unsigned char)(x/place);
     91          
     92          		if(digit | firstplace | (place == 1.0))
     93          		{
     94          			firstplace = 1;
     95          			USART_SendChar(digit+0x30);
     96          		}
     97          		else
     98          			USART_SendChar(' ');
   \                     ??rprintfFloat_9:
   \   00000056   E200               LDI     R16, 32
   \                     ??rprintfFloat_10:
   \   00000058   ....               RCALL   ??USART_SendChar
     99          		
    100          		if(place == 1.0)
   \   0000005A   ....               RCALL   ?Subroutine51
   \                     ??CrossCallReturnLabel_61:
   \   0000005C   F411               BRNE    ??rprintfFloat_11
    101          		{
    102          			USART_SendChar('.');
   \   0000005E   E20E               LDI     R16, 46
   \   00000060   ....               RCALL   ??USART_SendChar
    103          		}
    104          		
    105          		x -= (digit*place);
   \                     ??rprintfFloat_11:
   \   00000062   2D08               MOV     R16, R8
   \   00000064   ....               RCALL   ?Subroutine22
   \                     ??CrossCallReturnLabel_188:
   \   00000066   01AC               MOVW    R21:R20, R25:R24
   \   00000068   01BD               MOVW    R23:R22, R27:R26
   \   0000006A   ....               RCALL   ?F_MUL_L04
   \   0000006C   ....               RCALL   ?Subroutine129
   \                     ??CrossCallReturnLabel_324:
   \   0000006E   ....               RCALL   ?Subroutine107
   \                     ??CrossCallReturnLabel_192:
   \   00000070   ....               RCALL   ?F_SUB_L04
   \   00000072   0128               MOVW    R5:R4, R17:R16
   \   00000074   0139               MOVW    R7:R6, R19:R18
    106          		place /= 10.0;
   \   00000076   ....               RCALL   ?Subroutine56
   \                     ??CrossCallReturnLabel_74:
   \   00000078   018C               MOVW    R17:R16, R25:R24
   \   0000007A   019D               MOVW    R19:R18, R27:R26
   \   0000007C   ....               RCALL   ?F_DIV_L04
   \   0000007E   01C8               MOVW    R25:R24, R17:R16
   \   00000080   01D9               MOVW    R27:R26, R19:R18
   \   00000082   9493               INC     R9
   \                     ??rprintfFloat_8:
   \   00000084   149B               CP      R9, R11
   \   00000086   F488               BRCC    ??rprintfFloat_1
   \   00000088   ....               RCALL   ?Subroutine54
   \                     ??CrossCallReturnLabel_70:
   \   0000008A   ....               RCALL   ?F2SL_L04
   \   0000008C   2E80               MOV     R8, R16
   \   0000008E   ....               RCALL   ?Subroutine51
   \                     ??CrossCallReturnLabel_62:
   \   00000090   F411               BRNE    ??rprintfFloat_12
   \   00000092   E001               LDI     R16, 1
   \   00000094   C001               RJMP    ??rprintfFloat_13
   \                     ??rprintfFloat_12:
   \   00000096   E000               LDI     R16, 0
   \                     ??rprintfFloat_13:
   \   00000098   2D18               MOV     R17, R8
   \   0000009A   291A               OR      R17, R10
   \   0000009C   2B10               OR      R17, R16
   \   0000009E   F2D9               BREQ    ??rprintfFloat_9
   \   000000A0   24AA               CLR     R10
   \   000000A2   94A3               INC     R10
   \   000000A4   2D08               MOV     R16, R8
   \   000000A6   5D00               SUBI    R16, 208
   \   000000A8   CFD7               RJMP    ??rprintfFloat_10
    107          	}
    108          }
   \                     ??rprintfFloat_1:
   \   000000AA   E0EC               LDI     R30, 12
   \   000000AC   ....               RJMP    ?EPILOGUE_B12_L09

   \                                 In  segment CODE, align 2, keep-with-next
   \                     ?Subroutine56:
   \   00000000   ....               RCALL   ?Subroutine111
   \                     ??CrossCallReturnLabel_209:
   \   00000002   E260               LDI     R22, 32
   \   00000004   E471               LDI     R23, 65
   \   00000006   9508               RET

   \                                 In  segment CODE, align 2, keep-with-next
   \                     ?Subroutine54:
   \   00000000   01AC               MOVW    R21:R20, R25:R24
   \   00000002   01BD               MOVW    R23:R22, R27:R26
   \   00000004   ....               RCALL   ?Subroutine107
   \                     ??CrossCallReturnLabel_195:
   \   00000006   ....               RJMP    ?F_DIV_L04

   \                                 In  segment CODE, align 2, keep-with-next
   \                     ?Subroutine51:
   \   00000000   ....               RCALL   ?Subroutine111
   \                     ??CrossCallReturnLabel_207:
   \   00000002   E860               LDI     R22, 128
   \   00000004   E37F               LDI     R23, 63
   \   00000006   018C               MOVW    R17:R16, R25:R24
   \   00000008   019D               MOVW    R19:R18, R27:R26
   \   0000000A   ....               RJMP    ?F_CMP_EQ_L04

   \                                 In  segment INTVEC, offset 0x2, root
   \                     `??funINT0_vect??INTVEC 2`:
   \   00000002   ....               RJMP    ??funINT0_vect

   \                                 In  segment INTVEC, offset 0x10, root
   \                     `??funTIMER1_OVF_vect??INTVEC 16`:
   \   00000010   ....               RJMP    ??funTIMER1_OVF_vect

   \                                 In  segment INTVEC, offset 0x16, root
   \                     `??usart_rxc_my??INTVEC 22`:
   \   00000016   ....               RJMP    ??usart_rxc_my

   \                                 In  segment NEAR_ID, align 1, keep-with-next
   \                     `?<Initializer for <Constant " error ct big =">`:
   \   00000000   65207272726F       DC8 " error ct big ="
   \              632020746962
   \              2067003D    

   \                                 In  segment NEAR_ID, align 1, keep-with-next
   \                     `?<Initializer for <Constant "  /   cod1= ">>`:
   \   00000000   2020202F2020       DC8 "  /   cod1= "
   \              6F633164203D
   \              00          

   \                                 In  segment NEAR_ID, align 1, keep-with-next
   \                     `?<Initializer for <Constant "/   cod2= ">>`:
   \   00000000   202F20206F63       DC8 "/   cod2= "
   \              3264203D00  

   \                                 In  segment NEAR_ID, align 1, keep-with-next
   \                     `?<Initializer for <Constant "/   cod3= ">>`:
   \   00000000   202F20206F63       DC8 "/   cod3= "
   \              3364203D00  

   \                                 In  segment NEAR_ID, align 1, keep-with-next
   \                     `?<Initializer for <Constant "  / abslen= ">>`:
   \   00000000   2020202F6261       DC8 "  / abslen= "
   \              6C736E65203D
   \              00          

   \                                 In  segment NEAR_ID, align 1, keep-with-next
   \                     `?<Initializer for <Constant "  / len= ">>`:
   \   00000000   2020202F656C       DC8 "  / len= "
   \              3D6E0020    

   \                                 In  segment NEAR_ID, align 1, keep-with-next
   \                     `?<Initializer for <Constant "  ">>`:
   \   00000000   202000             DC8 "  "

   \                                 In  segment NEAR_ID, align 1, keep-with-next
   \                     `?<Initializer for <Constant "  / cod1= ">>`:
   \   00000000   2020202F6F63       DC8 "  / cod1= "
   \              3164203D00  

   \                                 In  segment NEAR_ID, align 1, keep-with-next
   \                     `?<Initializer for <Constant " / cod2= ">>`:
   \   00000000   2F206320646F       DC8 " / cod2= "
   \              3D320020    

   \                                 In  segment NEAR_ID, align 1, keep-with-next
   \                     `?<Initializer for <Constant " / cod3= ">>`:
   \   00000000   2F206320646F       DC8 " / cod3= "
   \              3D330020    

   \                                 In  segment NEAR_ID, align 1, keep-with-next
   \                     `?<Initializer for <Constant "/ minlen=">>`:
   \   00000000   202F696D6C6E       DC8 "/ minlen="
   \              6E65003D    

   \                                 In  segment NEAR_ID, align 1, keep-with-next
   \                     `?<Initializer for <Constant "OFF>adr=">>`:
   \   00000000   464F3E466461       DC8 "OFF>adr="
   \              3D7200      

   \                                 In  segment NEAR_ID, align 1, keep-with-next
   \                     `?<Initializer for <Constant "ON>adr=">>`:
   \   00000000   4E4F613E7264       DC8 "ON>adr="
   \              003D        

   \                                 In  segment NEAR_ID, align 1, keep-with-next
   \                     `?<Initializer for <Constant "normal>no find co`:
   \   00000000   6F6E6D726C61       DC8 "normal>no find command "
   \              6E3E206F6966
   \              646E63206D6F
   \              616D646E0020

   \                                 In  segment NEAR_ID, align 1, keep-with-next
   \                     `?<Initializer for <Constant "normal>command fi`:
   \   00000000   6F6E6D726C61       DC8 "normal>command find  adr= "
   \              633E6D6F616D
   \              646E66206E69
   \              206461207264
   \              203D00      

   \                                 In  segment NEAR_ID, align 1, keep-with-next
   \                     `?<Initializer for <Constant "write ..">>`:
   \   00000000   727774692065       DC8 "write .."
   \              2E2E00      

   \                                 In  segment NEAR_ID, align 1, keep-with-next
   \                     `?<Initializer for <Constant "OK !   ">>`:
   \   00000000   4B4F21202020       DC8 "OK !   "
   \              0020        

   \                                 In  segment NEAR_ID, align 1, keep-with-next
   \                     `?<Initializer for <Constant "-------------- vk`:
   \   00000000   2D2D2D2D2D2D       DC8 2DH, 2DH, 2DH, 2DH, 2DH, 2DH, 2DH, 2DH
   \              2D2D        
   \   00000008   2D2D2D2D2D2D       DC8 2DH, 2DH, 2DH, 2DH, 2DH, 2DH, 20H, 76H
   \              7620        
   \   00000010   6C6B63756568       DC8 6BH, 6CH, 75H, 63H, 68H, 65H, 6EH, 20H
   \              206E        
   \   00000018   726B7461696B       DC8 6BH, 72H, 61H, 74H, 6BH, 69H, 79H, 20H
   \              2079        
   \   00000020   69766976646F       DC8 76H, 69H, 76H, 69H, 6FH, 64H, 20H, 2DH
   \              2D20        
   \   00000028   2D2D2D2D2D2D       DC8 2DH, 2DH, 2DH, 2DH, 2DH, 2DH, 2DH, 2DH
   \              2D2D        
   \   00000030   2D2D2D2D00         DC8 2DH, 2DH, 2DH, 2DH, 0

   \                                 In  segment NEAR_ID, align 1, keep-with-next
   \                     `?<Initializer for <Constant " ==  EEPROM read `:
   \   00000000   3D20203D4520       DC8 " ==  EEPROM read == "
   \              50454F52204D
   \              657264613D20
   \              203D00      

   \                                 In  segment NEAR_ID, align 1, keep-with-next
   \                     `?<Initializer for <Constant " > ">>`:
   \   00000000   3E200020           DC8 " > "

   \                                 In  segment NEAR_ID, align 1, keep-with-next
   \                     `?<Initializer for <Constant " get: ">>`:
   \   00000000   67207465203A       DC8 " get: "
   \              00          

   \                                 In  segment NEAR_ID, align 1, keep-with-next
   \                     `?<Initializer for <Constant "  regim  no sourc`:
   \   00000000   202065726967       DC8 "  regim  no source5 >"
   \              206D6E20206F
   \              6F7372756563
   \              2035003E    

   \                                 In  segment NEAR_ID, align 1, keep-with-next
   \                     `?<Initializer for <Constant "  regim  PROGRAMM`:
   \   00000000   202065726967       DC8 "  regim  PROGRAMMING !!  READY >"
   \              206D50204F52
   \              52474D41494D
   \              474E21202021
   \              522041455944
   \              3E2000      

   \                                 In  segment NEAR_ID, align 1, keep-with-next
   \                     `?<Initializer for <Constant "  regim  normal  `:
   \   00000000   202065726967       DC8 "  regim  normal  READY >"
   \              206D6E20726F
   \              616D206C5220
   \              414559443E20
   \              00          

   \                                 In  segment NEAR_ID, align 1, keep-with-next
   \                     `?<Initializer for ind>`:
   \   00000000   01                 DC8 1

   \                                 In  segment NEAR_ID, align 1, keep-with-next
   \                     `?<Initializer for Calibr>`:
   \   00000000   157C0000           DD 5500

   \                                 In  segment NEAR_ID, align 1, keep-with-next
   \                     `?<Initializer for port>`:
   \   00000000   FF                 DC8 255

   \                                 In  segment NEAR_ID, align 1, keep-with-next
   \                     `?<Initializer for tON>`:
   \   00000000   4E20               DC16 20000

   \                                 In  segment NEAR_ID, align 1, keep-with-next
   \                     `?<Initializer for lastsel>`:
   \   00000000   01                 DC8 1

   \                                 In  segment NEAR_ID, align 1, keep-with-next
   \                     `?<Initializer for sel>`:
   \   00000000   01                 DC8 1

   \                                 In  segment NEAR_I, align 1, keep-with-next
   \   00000000                      REQUIRE `?<Segment init: NEAR_I>`
   \                     `?<Constant " error ct big =">`:
   \   00000000                      DS8 16
   \   00000010                      REQUIRE `?<Initializer for <Constant " error ct big =">`

   \                                 In  segment NEAR_I, align 1, keep-with-next
   \   00000000                      REQUIRE `?<Segment init: NEAR_I>`
   \                     `?<Constant "  /   cod1= ">`:
   \   00000000                      DS8 13
   \   0000000D                      REQUIRE `?<Initializer for <Constant "  /   cod1= ">>`

   \                                 In  segment NEAR_I, align 1, keep-with-next
   \   00000000                      REQUIRE `?<Segment init: NEAR_I>`
   \                     `?<Constant "/   cod2= ">`:
   \   00000000                      DS8 11
   \   0000000B                      REQUIRE `?<Initializer for <Constant "/   cod2= ">>`

   \                                 In  segment NEAR_I, align 1, keep-with-next
   \   00000000                      REQUIRE `?<Segment init: NEAR_I>`
   \                     `?<Constant "/   cod3= ">`:
   \   00000000                      DS8 11
   \   0000000B                      REQUIRE `?<Initializer for <Constant "/   cod3= ">>`

   \                                 In  segment NEAR_I, align 1, keep-with-next
   \   00000000                      REQUIRE `?<Segment init: NEAR_I>`
   \                     `?<Constant "  / abslen= ">`:
   \   00000000                      DS8 13
   \   0000000D                      REQUIRE `?<Initializer for <Constant "  / abslen= ">>`

   \                                 In  segment NEAR_I, align 1, keep-with-next
   \   00000000                      REQUIRE `?<Segment init: NEAR_I>`
   \                     `?<Constant "  / len= ">`:
   \   00000000                      DS8 10
   \   0000000A                      REQUIRE `?<Initializer for <Constant "  / len= ">>`

   \                                 In  segment NEAR_I, align 1, keep-with-next
   \   00000000                      REQUIRE `?<Segment init: NEAR_I>`
   \                     `?<Constant "  ">`:
   \   00000000                      DS8 3
   \   00000003                      REQUIRE `?<Initializer for <Constant "  ">>`

   \                                 In  segment NEAR_I, align 1, keep-with-next
   \   00000000                      REQUIRE `?<Segment init: NEAR_I>`
   \                     `?<Constant "  / cod1= ">`:
   \   00000000                      DS8 11
   \   0000000B                      REQUIRE `?<Initializer for <Constant "  / cod1= ">>`

   \                                 In  segment NEAR_I, align 1, keep-with-next
   \   00000000                      REQUIRE `?<Segment init: NEAR_I>`
   \                     `?<Constant " / cod2= ">`:
   \   00000000                      DS8 10
   \   0000000A                      REQUIRE `?<Initializer for <Constant " / cod2= ">>`

   \                                 In  segment NEAR_I, align 1, keep-with-next
   \   00000000                      REQUIRE `?<Segment init: NEAR_I>`
   \                     `?<Constant " / cod3= ">`:
   \   00000000                      DS8 10
   \   0000000A                      REQUIRE `?<Initializer for <Constant " / cod3= ">>`

   \                                 In  segment NEAR_I, align 1, keep-with-next
   \   00000000                      REQUIRE `?<Segment init: NEAR_I>`
   \                     `?<Constant "/ minlen=">`:
   \   00000000                      DS8 10
   \   0000000A                      REQUIRE `?<Initializer for <Constant "/ minlen=">>`

   \                                 In  segment NEAR_I, align 1, keep-with-next
   \   00000000                      REQUIRE `?<Segment init: NEAR_I>`
   \                     `?<Constant "OFF>adr=">`:
   \   00000000                      DS8 9
   \   00000009                      REQUIRE `?<Initializer for <Constant "OFF>adr=">>`

   \                                 In  segment NEAR_I, align 1, keep-with-next
   \   00000000                      REQUIRE `?<Segment init: NEAR_I>`
   \                     `?<Constant "ON>adr=">`:
   \   00000000                      DS8 8
   \   00000008                      REQUIRE `?<Initializer for <Constant "ON>adr=">>`

   \                                 In  segment NEAR_I, align 1, keep-with-next
   \   00000000                      REQUIRE `?<Segment init: NEAR_I>`
   \                     `?<Constant "normal>no find command ">`:
   \   00000000                      DS8 24
   \   00000018                      REQUIRE `?<Initializer for <Constant "normal>no find co`

   \                                 In  segment NEAR_I, align 1, keep-with-next
   \   00000000                      REQUIRE `?<Segment init: NEAR_I>`
   \                     `?<Constant "normal>command find  ...">`:
   \   00000000                      DS8 27
   \   0000001B                      REQUIRE `?<Initializer for <Constant "normal>command fi`

   \                                 In  segment NEAR_I, align 1, keep-with-next
   \   00000000                      REQUIRE `?<Segment init: NEAR_I>`
   \                     `?<Constant "write ..">`:
   \   00000000                      DS8 9
   \   00000009                      REQUIRE `?<Initializer for <Constant "write ..">>`

   \                                 In  segment NEAR_I, align 1, keep-with-next
   \   00000000                      REQUIRE `?<Segment init: NEAR_I>`
   \                     `?<Constant "OK !   ">`:
   \   00000000                      DS8 8
   \   00000008                      REQUIRE `?<Initializer for <Constant "OK !   ">>`

   \                                 In  segment NEAR_I, align 1, keep-with-next
   \   00000000                      REQUIRE `?<Segment init: NEAR_I>`
   \                     `?<Constant "-------------- vkluch...">`:
   \   00000000                      DS8 53
   \   00000035                      REQUIRE `?<Initializer for <Constant "-------------- vk`

   \                                 In  segment NEAR_I, align 1, keep-with-next
   \   00000000                      REQUIRE `?<Segment init: NEAR_I>`
   \                     `?<Constant " ==  EEPROM read == ">`:
   \   00000000                      DS8 21
   \   00000015                      REQUIRE `?<Initializer for <Constant " ==  EEPROM read `

   \                                 In  segment NEAR_I, align 1, keep-with-next
   \   00000000                      REQUIRE `?<Segment init: NEAR_I>`
   \                     `?<Constant " > ">`:
   \   00000000                      DS8 4
   \   00000004                      REQUIRE `?<Initializer for <Constant " > ">>`

   \                                 In  segment NEAR_I, align 1, keep-with-next
   \   00000000                      REQUIRE `?<Segment init: NEAR_I>`
   \                     `?<Constant " get: ">`:
   \   00000000                      DS8 7
   \   00000007                      REQUIRE `?<Initializer for <Constant " get: ">>`

   \                                 In  segment NEAR_I, align 1, keep-with-next
   \   00000000                      REQUIRE `?<Segment init: NEAR_I>`
   \                     `?<Constant "  regim  no source5 >">`:
   \   00000000                      DS8 22
   \   00000016                      REQUIRE `?<Initializer for <Constant "  regim  no sourc`

   \                                 In  segment NEAR_I, align 1, keep-with-next
   \   00000000                      REQUIRE `?<Segment init: NEAR_I>`
   \                     `?<Constant "  regim  PROGRAMMING ...">`:
   \   00000000                      DS8 33
   \   00000021                      REQUIRE `?<Initializer for <Constant "  regim  PROGRAMM`

   \                                 In  segment NEAR_I, align 1, keep-with-next
   \   00000000                      REQUIRE `?<Segment init: NEAR_I>`
   \                     `?<Constant "  regim  normal  READY >">`:
   \   00000000                      DS8 25
   \   00000019                      REQUIRE `?<Initializer for <Constant "  regim  normal  `

   Maximum stack usage in bytes:

   CSTACK RSTACK Function
   ------ ------ --------
      0      2   ResetT1()
      0      2   ResetT2()
      0      2   USART_GetChar()
      0      2   USART_Init(bool)
      0      2   USART_SendChar(unsigned char)
      0      2   WorkT1()
      4      4   WorkT2()
      2      4   analizCOD()
     10      4   coding(unsigned int, unsigned char)
       10      2   -> USART_SendChar(unsigned char)
       10      2   -> rprintfFloat(char, double)
       10      2   -> rprintfStr(char *)
      2      4   diag()
        2      2   -> USART_GetChar()
        2      2   -> USART_SendChar(unsigned char)
        2      2   -> rprintfFloat(char, double)
        2      2   -> rprintfStr(char *)
      0      2   du_init()
      8      4   du_main(unsigned char)
        8      2   -> USART_SendChar(unsigned char)
        8      2   -> coding(unsigned int, unsigned char)
        8      2   -> du_init()
        8      2   -> rprintfFloat(char, double)
        8      2   -> rprintfStr(char *)
      2      2   funINT0_vect()
      2      2   funTIMER1_OVF_vect()
      0      2   getadr()
      0      4   gro(unsigned char)
      0      2   iniPORTS()
      0      2   iniT1(unsigned long)
        0      2   -> ResetT1()
      0      2   iniT2(unsigned long)
        0      2   -> ResetT2()
      0      2   led_all(bool)
      1      4   main()
        1      2   -> USART_Init(bool)
        1      2   -> USART_SendChar(unsigned char)
        1      2   -> analizCOD()
        1      2   -> diag()
        1      2   -> du_main(unsigned char)
        1      2   -> getadr()
        1      2   -> iniPORTS()
        1      2   -> led_all(bool)
        1      2   -> normal(unsigned char)
        1      2   -> programming(unsigned char)
        1      2   -> resOUT()
        1      2   -> rprintfFloat(char, double)
        1      2   -> rprintfStr(char *)
        1      2   -> source()
        1      2   -> writeCOD()
      0      4   migINI(unsigned char, unsigned char, bool)
        0      2   -> iniT2(unsigned long)
      1      4   migWORK()
        1      2   -> WorkT2()
        1      2   -> iniT2(unsigned long)
      1      4   normal(unsigned char)
        1      2   -> USART_SendChar(unsigned char)
        1      2   -> WorkT1()
        1      2   -> analizCOD()
        1      2   -> gro(unsigned char)
        1      2   -> iniT1(unsigned long)
        1      2   -> migINI(unsigned char, unsigned char, bool)
        1      2   -> migWORK()
        1      2   -> pult()
        1      2   -> rprintfFloat(char, double)
        1      2   -> rprintfStr(char *)
      1      2   programming(unsigned char)
        1      2   -> getadr()
        1      2   -> led_all(bool)
        1      2   -> writeCOD()
      0      2   pult()
        0      2   -> source()
      0      2   resOUT()
      0      2   resled()
     12      4   rprintfFloat(char, double)
       12      2   -> USART_SendChar(unsigned char)
      4      2   rprintfStr(char *)
        4      2   -> USART_SendChar(unsigned char)
      0      2   source()
        0      2   -> migINI(unsigned char, unsigned char, bool)
        0      2   -> resOUT()
        0      2   -> resled()
      2      2   usart_rxc_my()
      1      4   writeCOD()
        1      2   -> USART_SendChar(unsigned char)
        1      2   -> getadr()
        1      2   -> led_all(bool)
        1      2   -> rprintfStr(char *)


   Segment part sizes:

   Bytes  Function/Label
   -----  --------------
       3  ?<Constant "  ">
      13  ?<Constant "  /   cod1= ">
      13  ?<Constant "  / abslen= ">
      11  ?<Constant "  / cod1= ">
      10  ?<Constant "  / len= ">
      33  ?<Constant "  regim  PROGRAMMING ...">
      22  ?<Constant "  regim  no source5 >">
      25  ?<Constant "  regim  normal  READY >">
      10  ?<Constant " / cod2= ">
      10  ?<Constant " / cod3= ">
      21  ?<Constant " ==  EEPROM read == ">
       4  ?<Constant " > ">
      16  ?<Constant " error ct big =">
       7  ?<Constant " get: ">
      53  ?<Constant "-------------- vkluch...">
      11  ?<Constant "/   cod2= ">
      11  ?<Constant "/   cod3= ">
      10  ?<Constant "/ minlen=">
       9  ?<Constant "OFF>adr=">
       8  ?<Constant "OK !   ">
       8  ?<Constant "ON>adr=">
      27  ?<Constant "normal>command find  ...">
      24  ?<Constant "normal>no find command ">
       9  ?<Constant "write ..">
       3  ?<Initializer for <Constant "  ">>
      13  ?<Initializer for <Constant "  /   cod1= ">>
      13  ?<Initializer for <Constant "  / abslen= ">>
      11  ?<Initializer for <Constant "  / cod1= ">>
      10  ?<Initializer for <Constant "  / len= ">>
      33  ?<Initializer for <Constant "  regim  PROGRAMM
      22  ?<Initializer for <Constant "  regim  no sourc
      25  ?<Initializer for <Constant "  regim  normal
      10  ?<Initializer for <Constant " / cod2= ">>
      10  ?<Initializer for <Constant " / cod3= ">>
      21  ?<Initializer for <Constant " ==  EEPROM read
       4  ?<Initializer for <Constant " > ">>
      16  ?<Initializer for <Constant " error ct big =">
       7  ?<Initializer for <Constant " get: ">>
      53  ?<Initializer for <Constant "-------------- vk
      11  ?<Initializer for <Constant "/   cod2= ">>
      11  ?<Initializer for <Constant "/   cod3= ">>
      10  ?<Initializer for <Constant "/ minlen=">>
       9  ?<Initializer for <Constant "OFF>adr=">>
       8  ?<Initializer for <Constant "OK !   ">>
       8  ?<Initializer for <Constant "ON>adr=">>
      27  ?<Initializer for <Constant "normal>command fi
      24  ?<Initializer for <Constant "normal>no find co
       9  ?<Initializer for <Constant "write ..">>
       4  ?<Initializer for Calibr>
       1  ?<Initializer for ind>
       1  ?<Initializer for lastsel>
       1  ?<Initializer for port>
       1  ?<Initializer for sel>
       2  ?<Initializer for tON>
       8  ??Subroutine143_0
       6  ??Subroutine144_0
       2  ??Subroutine145_0
       4  ??Subroutine146_0
       8  ??Subroutine147_0
       4  ??Subroutine148_0
       8  ??Subroutine149_0
       6  ??Subroutine150_0
       2  ??Subroutine151_0
       4  ??Subroutine152_0
       4  ??Subroutine153_0
      18  ??Subroutine154_0
       6  ??Subroutine155_0
       6  ??Subroutine156_0
       2  ??funINT0_vect??INTVEC 2
       2  ??funTIMER1_OVF_vect??INTVEC 16
       2  ??usart_rxc_my??INTVEC 22
      12  ?Subroutine0
      16  ?Subroutine1
      18  ?Subroutine10
       4  ?Subroutine100
       6  ?Subroutine101
       6  ?Subroutine102
       8  ?Subroutine103
       8  ?Subroutine104
       4  ?Subroutine106
       6  ?Subroutine107
      10  ?Subroutine108
       6  ?Subroutine109
      18  ?Subroutine11
       6  ?Subroutine110
       6  ?Subroutine111
      16  ?Subroutine112
      10  ?Subroutine113
       6  ?Subroutine114
       2  ?Subroutine115
       6  ?Subroutine116
       6  ?Subroutine117
       6  ?Subroutine118
       6  ?Subroutine119
       2  ?Subroutine12
       6  ?Subroutine121
      20  ?Subroutine122
       6  ?Subroutine123
      22  ?Subroutine124
       6  ?Subroutine125
       6  ?Subroutine126
      20  ?Subroutine127
       4  ?Subroutine128
       6  ?Subroutine129
       2  ?Subroutine13
       4  ?Subroutine130
       6  ?Subroutine131
       6  ?Subroutine132
       6  ?Subroutine133
       6  ?Subroutine134
       4  ?Subroutine135
       4  ?Subroutine136
       4  ?Subroutine137
       4  ?Subroutine138
       4  ?Subroutine139
       8  ?Subroutine14
       4  ?Subroutine140
       4  ?Subroutine141
       4  ?Subroutine142
       8  ?Subroutine15
       4  ?Subroutine16
      12  ?Subroutine17
      10  ?Subroutine18
       4  ?Subroutine19
      16  ?Subroutine2
       6  ?Subroutine20
       6  ?Subroutine21
       4  ?Subroutine22
      22  ?Subroutine23
      10  ?Subroutine24
       8  ?Subroutine25
       6  ?Subroutine26
       2  ?Subroutine27
       8  ?Subroutine28
      14  ?Subroutine3
       2  ?Subroutine30
       6  ?Subroutine31
       8  ?Subroutine32
       4  ?Subroutine33
       6  ?Subroutine34
       8  ?Subroutine36
       2  ?Subroutine38
      10  ?Subroutine4
       4  ?Subroutine41
       2  ?Subroutine42
       6  ?Subroutine43
       2  ?Subroutine44
       2  ?Subroutine45
       6  ?Subroutine46
       6  ?Subroutine47
       4  ?Subroutine48
       2  ?Subroutine49
       4  ?Subroutine5
       4  ?Subroutine50
      12  ?Subroutine51
       6  ?Subroutine52
       6  ?Subroutine53
       8  ?Subroutine54
       8  ?Subroutine55
       8  ?Subroutine56
       8  ?Subroutine57
       6  ?Subroutine58
       6  ?Subroutine6
       4  ?Subroutine60
       4  ?Subroutine61
       4  ?Subroutine62
       6  ?Subroutine63
      10  ?Subroutine64
       8  ?Subroutine65
       2  ?Subroutine66
      20  ?Subroutine67
       4  ?Subroutine68
       4  ?Subroutine7
       4  ?Subroutine71
       4  ?Subroutine72
       6  ?Subroutine73
      12  ?Subroutine74
      20  ?Subroutine75
      20  ?Subroutine76
       8  ?Subroutine77
       6  ?Subroutine78
       6  ?Subroutine79
       2  ?Subroutine8
       2  ?Subroutine80
      20  ?Subroutine82
       6  ?Subroutine84
       4  ?Subroutine85
       6  ?Subroutine87
       6  ?Subroutine88
       2  ?Subroutine89
       4  ?Subroutine9
       6  ?Subroutine90
      10  ?Subroutine91
      10  ?Subroutine92
       6  ?Subroutine93
       2  ?Subroutine94
       8  ?Subroutine95
       8  ?Subroutine96
       6  ?Subroutine97
       6  ?Subroutine98
       6  ?Subroutine99
       4  Calibr
      20  ResetT1()
      14  ResetT2()
       4  T1
       4  T1max
       1  T1out
       2  T1x
       4  T2
       4  T2max
       1  T2out
       2  T2x
       4  T3
       4  T3max
       1  T3out
       2  T3x
      18  USART_GetChar()
      26  USART_Init(bool)
      16  USART_SendChar(unsigned char)
      64  WorkT1()
      82  WorkT2()
       1  _A_ACSR
       1  _A_DDRB
       1  _A_DDRC
       1  _A_DDRD
       1  _A_GICR
       2  _A_ICR1
       1  _A_MCUCR
       2  _A_OCR1A
       2  _A_OCR1B
       1  _A_PIND
       1  _A_PORTB
       1  _A_PORTC
       1  _A_PORTD
       1  _A_TCCR1A
       1  _A_TCCR1B
       1  _A_TCNT0
       2  _A_TCNT1
       1  _A_TIFR
       1  _A_TIMSK
       1  _A_UBRRH
       1  _A_UBRRL
       1  _A_UCSRA
       1  _A_UCSRB
       1  _A_UDR
      74  analizCOD()
       1  aoff
       1  big
       1  c1
       1  c2
       1  c3
       2  cod1
       2  cod2
       2  cod3
       2  cod4
       1  cod_ok
     520  coding(unsigned int, unsigned char)
       1  ct
     118  diag()
     100  dim1
     100  dim2
      24  du_init()
     364  du_main(unsigned char)
       1  fmode
      46  funINT0_vect()
       8  funTIMER1_OVF_vect()
       1  get
     214  getadr()
      90  gro(unsigned char)
       1  gro1
       1  gro2
       1  ind
       1  ini
      92  iniPORTS()
       8  iniT1(unsigned long)
       8  iniT2(unsigned long)
       1  intok
     240  k
       1  lastsel
      30  led_all(bool)
     200  len
     442  main()
      58  migINI(unsigned char, unsigned char, bool)
      84  migWORK()
       2  minimallen
       1  mode
       1  modegro
       1  mute
     728  normal(unsigned char)
       1  on
       1  onok
       1  perepoln
       1  port
       1  pr
      78  programming(unsigned char)
      14  pult()
       1  pultadr
       1  raz
       1  razct
       1  regaoff
      14  resOUT()
      10  resled()
       1  rez
     174  rprintfFloat(char, double)
      28  rprintfStr(char *)
       1  sel
       1  sost
      78  source()
       1  state
       1  state2
       1  t1
       1  t2
       2  tON
       1  tekfunc
       1  til
       2  timerzad
       1  u
       1  usartRxBuf
      10  usart_rxc_my()
       1  usarton
       1  write
      80  writeCOD()
       1  zader
      12  -- Other

 
    28 bytes in segment ABSOLUTE
 4 648 bytes in segment CODE
   242 bytes in segment EEPROM_N
    12 bytes in segment INITTAB
     6 bytes in segment INTVEC
   378 bytes in segment NEAR_I
   378 bytes in segment NEAR_ID
   480 bytes in segment NEAR_Z
 
 5 026 bytes of CODE  memory (+ 18 bytes shared)
   858 bytes of DATA  memory (+ 28 bytes shared)
   242 bytes of XDATA memory

Errors: none
Warnings: none
